
kernel.elf:     file format elf64-littleaarch64


Disassembly of section .text:

0000000040200000 <boot>:
    40200000:	f0008208 	adrp	x8, 41243000 <__bss_end+0x1f2a8>
    40200004:	91358108 	add	x8, x8, #0xd60
    40200008:	d2800002 	mov	x2, #0x0                   	// #0
    4020000c:	d5184202 	msr	spsel, x2
    40200010:	9100011f 	mov	sp, x8
    40200014:	9400045f 	bl	40201190 <kernel_main>

0000000040200018 <uboot_call>:
    40200018:	d10043ff 	sub	sp, sp, #0x10
    4020001c:	390033e1 	strb	w1, [sp, #12]
    40200020:	910033e1 	add	x1, sp, #0xc
    40200024:	aa0303e7 	mov	x7, x3
    40200028:	d45e0000 	hlt	#0xf000
    4020002c:	910043ff 	add	sp, sp, #0x10
    40200030:	d65f03c0 	ret

0000000040200034 <putchar>:
    40200034:	d10043ff 	sub	sp, sp, #0x10
    40200038:	390033e0 	strb	w0, [sp, #12]
    4020003c:	52800060 	mov	w0, #0x3                   	// #3
    40200040:	910033e1 	add	x1, sp, #0xc
    40200044:	52800022 	mov	w2, #0x1                   	// #1
    40200048:	52800807 	mov	w7, #0x40                  	// #64
    4020004c:	d45e0000 	hlt	#0xf000
    40200050:	910043ff 	add	sp, sp, #0x10
    40200054:	d65f03c0 	ret

0000000040200058 <getchar>:
    40200058:	d10043ff 	sub	sp, sp, #0x10
    4020005c:	390033ff 	strb	wzr, [sp, #12]
    40200060:	52800060 	mov	w0, #0x3                   	// #3
    40200064:	910033e1 	add	x1, sp, #0xc
    40200068:	aa1f03e2 	mov	x2, xzr
    4020006c:	52800807 	mov	w7, #0x40                  	// #64
    40200070:	d45e0000 	hlt	#0xf000
    40200074:	f100001f 	cmp	x0, #0x0
    40200078:	5a9f03e0 	csetm	w0, ne	// ne = any
    4020007c:	910043ff 	add	sp, sp, #0x10
    40200080:	d65f03c0 	ret

0000000040200084 <setup_vect>:
    40200084:	52a8e028 	mov	w8, #0x47010000            	// #1191247872
    40200088:	1000fbc0 	adr	x0, 40202000 <_vector_table>
    4020008c:	d518c000 	msr	vbar_el1, x0
    40200090:	9100011f 	mov	sp, x8
    40200094:	d5033fdf 	isb
    40200098:	d65f03c0 	ret

000000004020009c <init_exceptions>:
    4020009c:	d5384248 	mrs	x8, currentel
    402000a0:	d342fd01 	lsr	x1, x8, #2
    402000a4:	f100043f 	cmp	x1, #0x1
    402000a8:	54000241 	b.ne	402000f0 <init_exceptions+0x54>  // b.any
    402000ac:	a9bf7bfd 	stp	x29, x30, [sp, #-16]!
    402000b0:	910003fd 	mov	x29, sp
    402000b4:	5286a208 	mov	w8, #0x3510                	// #13584
    402000b8:	52801fe9 	mov	w9, #0xff                  	// #255
    402000bc:	d518a209 	msr	mair_el1, x9
    402000c0:	d5182048 	msr	tcr_el1, x8
    402000c4:	d5033fdf 	isb
    402000c8:	97ffffef 	bl	40200084 <setup_vect>
    402000cc:	d5381008 	mrs	x8, sctlr_el1
    402000d0:	528201a9 	mov	w9, #0x100d                	// #4109
    402000d4:	d0000000 	adrp	x0, 40202000 <_vector_table>
    402000d8:	91250c00 	add	x0, x0, #0x943
    402000dc:	aa090108 	orr	x8, x8, x9
    402000e0:	d5181008 	msr	sctlr_el1, x8
    402000e4:	d5033fdf 	isb
    402000e8:	a8c17bfd 	ldp	x29, x30, [sp], #16
    402000ec:	140004d2 	b	40201434 <printf>
    402000f0:	d503201f 	nop
    402000f4:	70014560 	adr	x0, 402029a3 <_vector_table+0x9a3>
    402000f8:	140004cf 	b	40201434 <printf>

00000000402000fc <alloc_pages>:
    402000fc:	a9be7bfd 	stp	x29, x30, [sp, #-32]!
    40200100:	f9000bf3 	str	x19, [sp, #16]
    40200104:	910003fd 	mov	x29, sp
    40200108:	d0000008 	adrp	x8, 40202000 <_vector_table>
    4020010c:	53144c02 	lsl	w2, w0, #12
    40200110:	9001822a 	adrp	x10, 43244000 <__free_ram_end>
    40200114:	9100014a 	add	x10, x10, #0x0
    40200118:	f9460113 	ldr	x19, [x8, #3072]
    4020011c:	8b020269 	add	x9, x19, x2
    40200120:	eb0a013f 	cmp	x9, x10
    40200124:	f9060109 	str	x9, [x8, #3072]
    40200128:	54000109 	b.ls	40200148 <alloc_pages+0x4c>  // b.plast
    4020012c:	d0000000 	adrp	x0, 40202000 <_vector_table>
    40200130:	91258c00 	add	x0, x0, #0x963
    40200134:	d0000001 	adrp	x1, 40202000 <_vector_table>
    40200138:	911e4021 	add	x1, x1, #0x790
    4020013c:	52800e82 	mov	w2, #0x74                  	// #116
    40200140:	940004bd 	bl	40201434 <printf>
    40200144:	14000000 	b	40200144 <alloc_pages+0x48>
    40200148:	aa1303e0 	mov	x0, x19
    4020014c:	2a1f03e1 	mov	w1, wzr
    40200150:	9400047b 	bl	4020133c <memset>
    40200154:	aa1303e0 	mov	x0, x19
    40200158:	f9400bf3 	ldr	x19, [sp, #16]
    4020015c:	a8c27bfd 	ldp	x29, x30, [sp], #32
    40200160:	d65f03c0 	ret

0000000040200164 <map_page>:
    40200164:	a9bc7bfd 	stp	x29, x30, [sp, #-64]!
    40200168:	a9015ff8 	stp	x24, x23, [sp, #16]
    4020016c:	a90257f6 	stp	x22, x21, [sp, #32]
    40200170:	a9034ff4 	stp	x20, x19, [sp, #48]
    40200174:	910003fd 	mov	x29, sp
    40200178:	aa0103f3 	mov	x19, x1
    4020017c:	f2402c3f 	tst	x1, #0xfff
    40200180:	54000120 	b.eq	402001a4 <map_page+0x40>  // b.none
    40200184:	d0000000 	adrp	x0, 40202000 <_vector_table>
    40200188:	91260000 	add	x0, x0, #0x980
    4020018c:	d0000001 	adrp	x1, 40202000 <_vector_table>
    40200190:	911e4021 	add	x1, x1, #0x790
    40200194:	52800f82 	mov	w2, #0x7c                  	// #124
    40200198:	aa1303e3 	mov	x3, x19
    4020019c:	940004a6 	bl	40201434 <printf>
    402001a0:	14000000 	b	402001a0 <map_page+0x3c>
    402001a4:	f2402c5f 	tst	x2, #0xfff
    402001a8:	54000120 	b.eq	402001cc <map_page+0x68>  // b.none
    402001ac:	d0000000 	adrp	x0, 40202000 <_vector_table>
    402001b0:	9121b000 	add	x0, x0, #0x86c
    402001b4:	d0000001 	adrp	x1, 40202000 <_vector_table>
    402001b8:	911e4021 	add	x1, x1, #0x790
    402001bc:	aa0203e3 	mov	x3, x2
    402001c0:	52800fc2 	mov	w2, #0x7e                  	// #126
    402001c4:	9400049c 	bl	40201434 <printf>
    402001c8:	14000000 	b	402001c8 <map_page+0x64>
    402001cc:	d367be75 	ubfx	x21, x19, #39, #9
    402001d0:	f8757808 	ldr	x8, [x0, x21, lsl #3]
    402001d4:	37000408 	tbnz	w8, #0, 40200254 <map_page+0xf0>
    402001d8:	d0000008 	adrp	x8, 40202000 <_vector_table>
    402001dc:	9001822a 	adrp	x10, 43244000 <__free_ram_end>
    402001e0:	9100014a 	add	x10, x10, #0x0
    402001e4:	f9460114 	ldr	x20, [x8, #3072]
    402001e8:	91400689 	add	x9, x20, #0x1, lsl #12
    402001ec:	eb0a013f 	cmp	x9, x10
    402001f0:	f9060109 	str	x9, [x8, #3072]
    402001f4:	54000109 	b.ls	40200214 <map_page+0xb0>  // b.plast
    402001f8:	d0000000 	adrp	x0, 40202000 <_vector_table>
    402001fc:	91258c00 	add	x0, x0, #0x963
    40200200:	d0000001 	adrp	x1, 40202000 <_vector_table>
    40200204:	911e4021 	add	x1, x1, #0x790
    40200208:	52800e82 	mov	w2, #0x74                  	// #116
    4020020c:	9400048a 	bl	40201434 <printf>
    40200210:	14000000 	b	40200210 <map_page+0xac>
    40200214:	aa0003f8 	mov	x24, x0
    40200218:	aa1403e0 	mov	x0, x20
    4020021c:	2a1f03e1 	mov	w1, wzr
    40200220:	aa0203f6 	mov	x22, x2
    40200224:	52820002 	mov	w2, #0x1000                	// #4096
    40200228:	aa0303f7 	mov	x23, x3
    4020022c:	94000444 	bl	4020133c <memset>
    40200230:	aa1403e0 	mov	x0, x20
    40200234:	2a1f03e1 	mov	w1, wzr
    40200238:	52820002 	mov	w2, #0x1000                	// #4096
    4020023c:	94000440 	bl	4020133c <memset>
    40200240:	9274ce88 	and	x8, x20, #0xfffffffffffff000
    40200244:	aa1703e3 	mov	x3, x23
    40200248:	aa1603e2 	mov	x2, x22
    4020024c:	b2400508 	orr	x8, x8, #0x3
    40200250:	f8357b08 	str	x8, [x24, x21, lsl #3]
    40200254:	9274cd15 	and	x21, x8, #0xfffffffffffff000
    40200258:	d35efe68 	lsr	x8, x19, #30
    4020025c:	aa1503e9 	mov	x9, x21
    40200260:	b37d2109 	bfi	x9, x8, #3, #9
    40200264:	f9400128 	ldr	x8, [x9]
    40200268:	37000408 	tbnz	w8, #0, 402002e8 <map_page+0x184>
    4020026c:	d0000008 	adrp	x8, 40202000 <_vector_table>
    40200270:	9001822a 	adrp	x10, 43244000 <__free_ram_end>
    40200274:	9100014a 	add	x10, x10, #0x0
    40200278:	f9460114 	ldr	x20, [x8, #3072]
    4020027c:	91400689 	add	x9, x20, #0x1, lsl #12
    40200280:	eb0a013f 	cmp	x9, x10
    40200284:	f9060109 	str	x9, [x8, #3072]
    40200288:	54000109 	b.ls	402002a8 <map_page+0x144>  // b.plast
    4020028c:	d0000000 	adrp	x0, 40202000 <_vector_table>
    40200290:	91258c00 	add	x0, x0, #0x963
    40200294:	d0000001 	adrp	x1, 40202000 <_vector_table>
    40200298:	911e4021 	add	x1, x1, #0x790
    4020029c:	52800e82 	mov	w2, #0x74                  	// #116
    402002a0:	94000465 	bl	40201434 <printf>
    402002a4:	14000000 	b	402002a4 <map_page+0x140>
    402002a8:	aa1403e0 	mov	x0, x20
    402002ac:	2a1f03e1 	mov	w1, wzr
    402002b0:	aa0203f6 	mov	x22, x2
    402002b4:	52820002 	mov	w2, #0x1000                	// #4096
    402002b8:	d35e9a78 	ubfx	x24, x19, #30, #9
    402002bc:	aa0303f7 	mov	x23, x3
    402002c0:	9400041f 	bl	4020133c <memset>
    402002c4:	aa1403e0 	mov	x0, x20
    402002c8:	2a1f03e1 	mov	w1, wzr
    402002cc:	52820002 	mov	w2, #0x1000                	// #4096
    402002d0:	9400041b 	bl	4020133c <memset>
    402002d4:	9274ce88 	and	x8, x20, #0xfffffffffffff000
    402002d8:	aa1703e3 	mov	x3, x23
    402002dc:	aa1603e2 	mov	x2, x22
    402002e0:	b2400508 	orr	x8, x8, #0x3
    402002e4:	f8387aa8 	str	x8, [x21, x24, lsl #3]
    402002e8:	9274cd15 	and	x21, x8, #0xfffffffffffff000
    402002ec:	d355fe68 	lsr	x8, x19, #21
    402002f0:	aa1503e9 	mov	x9, x21
    402002f4:	b37d2109 	bfi	x9, x8, #3, #9
    402002f8:	f9400128 	ldr	x8, [x9]
    402002fc:	37000408 	tbnz	w8, #0, 4020037c <map_page+0x218>
    40200300:	d0000008 	adrp	x8, 40202000 <_vector_table>
    40200304:	9001822a 	adrp	x10, 43244000 <__free_ram_end>
    40200308:	9100014a 	add	x10, x10, #0x0
    4020030c:	f9460114 	ldr	x20, [x8, #3072]
    40200310:	91400689 	add	x9, x20, #0x1, lsl #12
    40200314:	eb0a013f 	cmp	x9, x10
    40200318:	f9060109 	str	x9, [x8, #3072]
    4020031c:	54000109 	b.ls	4020033c <map_page+0x1d8>  // b.plast
    40200320:	d0000000 	adrp	x0, 40202000 <_vector_table>
    40200324:	91258c00 	add	x0, x0, #0x963
    40200328:	d0000001 	adrp	x1, 40202000 <_vector_table>
    4020032c:	911e4021 	add	x1, x1, #0x790
    40200330:	52800e82 	mov	w2, #0x74                  	// #116
    40200334:	94000440 	bl	40201434 <printf>
    40200338:	14000000 	b	40200338 <map_page+0x1d4>
    4020033c:	aa1403e0 	mov	x0, x20
    40200340:	2a1f03e1 	mov	w1, wzr
    40200344:	aa0203f6 	mov	x22, x2
    40200348:	52820002 	mov	w2, #0x1000                	// #4096
    4020034c:	d3557678 	ubfx	x24, x19, #21, #9
    40200350:	aa0303f7 	mov	x23, x3
    40200354:	940003fa 	bl	4020133c <memset>
    40200358:	aa1403e0 	mov	x0, x20
    4020035c:	2a1f03e1 	mov	w1, wzr
    40200360:	52820002 	mov	w2, #0x1000                	// #4096
    40200364:	940003f6 	bl	4020133c <memset>
    40200368:	9274ce88 	and	x8, x20, #0xfffffffffffff000
    4020036c:	aa1703e3 	mov	x3, x23
    40200370:	aa1603e2 	mov	x2, x22
    40200374:	b2400508 	orr	x8, x8, #0x3
    40200378:	f8387aa8 	str	x8, [x21, x24, lsl #3]
    4020037c:	d34cfe69 	lsr	x9, x19, #12
    40200380:	9274cd08 	and	x8, x8, #0xfffffffffffff000
    40200384:	aa03004a 	orr	x10, x2, x3
    40200388:	5280806b 	mov	w11, #0x403                 	// #1027
    4020038c:	a9434ff4 	ldp	x20, x19, [sp, #48]
    40200390:	b37d2128 	bfi	x8, x9, #3, #9
    40200394:	a94257f6 	ldp	x22, x21, [sp, #32]
    40200398:	a9415ff8 	ldp	x24, x23, [sp, #16]
    4020039c:	aa0b0149 	orr	x9, x10, x11
    402003a0:	f9000109 	str	x9, [x8]
    402003a4:	a8c47bfd 	ldp	x29, x30, [sp], #64
    402003a8:	d65f03c0 	ret

00000000402003ac <switch_context>:
    402003ac:	a9ba53f3 	stp	x19, x20, [sp, #-96]!
    402003b0:	a9015bf5 	stp	x21, x22, [sp, #16]
    402003b4:	a90263f7 	stp	x23, x24, [sp, #32]
    402003b8:	a9036bf9 	stp	x25, x26, [sp, #48]
    402003bc:	a90473fb 	stp	x27, x28, [sp, #64]
    402003c0:	a9057bfd 	stp	x29, x30, [sp, #80]
    402003c4:	910003e2 	mov	x2, sp
    402003c8:	f9000002 	str	x2, [x0]
    402003cc:	f9400022 	ldr	x2, [x1]
    402003d0:	9100005f 	mov	sp, x2
    402003d4:	a8c153f3 	ldp	x19, x20, [sp], #16
    402003d8:	a8c15bf5 	ldp	x21, x22, [sp], #16
    402003dc:	a8c163f7 	ldp	x23, x24, [sp], #16
    402003e0:	a8c16bf9 	ldp	x25, x26, [sp], #16
    402003e4:	a8c173fb 	ldp	x27, x28, [sp], #16
    402003e8:	a8c17bfd 	ldp	x29, x30, [sp], #16
    402003ec:	d65f03c0 	ret

00000000402003f0 <delay>:
    402003f0:	52987008 	mov	w8, #0xc380                	// #50048
    402003f4:	72a03928 	movk	w8, #0x1c9, lsl #16
    402003f8:	71000508 	subs	w8, w8, #0x1
    402003fc:	d503201f 	nop
    40200400:	54ffffc1 	b.ne	402003f8 <delay+0x8>  // b.any
    40200404:	d65f03c0 	ret

0000000040200408 <mmu_enable>:
    40200408:	528203ab 	mov	w11, #0x101d                	// #4125
    4020040c:	aa0003e8 	mov	x8, x0
    40200410:	5286a209 	mov	w9, #0x3510                	// #13584
    40200414:	52801fea 	mov	w10, #0xff                  	// #255
    40200418:	72a0100b 	movk	w11, #0x80, lsl #16
    4020041c:	d5033b9f 	dsb	ish
    40200420:	d5033fdf 	isb
    40200424:	d518a20a 	msr	mair_el1, x10
    40200428:	d5182049 	msr	tcr_el1, x9
    4020042c:	d5033fdf 	isb
    40200430:	d5182008 	msr	ttbr0_el1, x8
    40200434:	d5033fdf 	isb
    40200438:	d5381000 	mrs	x0, sctlr_el1
    4020043c:	aa0b0000 	orr	x0, x0, x11
    40200440:	d5181000 	msr	sctlr_el1, x0
    40200444:	d5033fdf 	isb
    40200448:	d65f03c0 	ret

000000004020044c <yield>:
    4020044c:	f0008109 	adrp	x9, 41223000 <procs+0xf3e0>
    40200450:	5284040e 	mov	w14, #0x2020                	// #8224
    40200454:	f9469128 	ldr	x8, [x9, #3360]
    40200458:	b940010c 	ldr	w12, [x8]
    4020045c:	6b0c03ea 	negs	w10, w12
    40200460:	1200098b 	and	w11, w12, #0x7
    40200464:	1200094a 	and	w10, w10, #0x7
    40200468:	5a8a456d 	csneg	w13, w11, w10, mi	// mi = first
    4020046c:	f000808b 	adrp	x11, 41213000 <_binary_shell_bin_start+0x10103f8>
    40200470:	9130816b 	add	x11, x11, #0xc20
    40200474:	9b2e2daa 	smaddl	x10, w13, w14, x11
    40200478:	b940054f 	ldr	w15, [x10, #4]
    4020047c:	f000808a 	adrp	x10, 41213000 <_binary_shell_bin_start+0x10103f8>
    40200480:	f946094a 	ldr	x10, [x10, #3088]
    40200484:	710005ff 	cmp	w15, #0x1
    40200488:	540000e1 	b.ne	402004a4 <yield+0x58>  // b.any
    4020048c:	93407dad 	sxtw	x13, w13
    40200490:	5284040f 	mov	w15, #0x2020                	// #8224
    40200494:	9b2f2dad 	smaddl	x13, w13, w15, x11
    40200498:	b94001af 	ldr	w15, [x13]
    4020049c:	710001ff 	cmp	w15, #0x0
    402004a0:	54000dcc 	b.gt	40200658 <yield+0x20c>
    402004a4:	1100058d 	add	w13, w12, #0x1
    402004a8:	6b0d03ef 	negs	w15, w13
    402004ac:	120009ad 	and	w13, w13, #0x7
    402004b0:	120009ef 	and	w15, w15, #0x7
    402004b4:	5a8f45ad 	csneg	w13, w13, w15, mi	// mi = first
    402004b8:	9b2e2dae 	smaddl	x14, w13, w14, x11
    402004bc:	b94005ce 	ldr	w14, [x14, #4]
    402004c0:	710005df 	cmp	w14, #0x1
    402004c4:	540000e1 	b.ne	402004e0 <yield+0x94>  // b.any
    402004c8:	93407dad 	sxtw	x13, w13
    402004cc:	5284040e 	mov	w14, #0x2020                	// #8224
    402004d0:	9b2e2dad 	smaddl	x13, w13, w14, x11
    402004d4:	b94001ae 	ldr	w14, [x13]
    402004d8:	710001df 	cmp	w14, #0x0
    402004dc:	54000bec 	b.gt	40200658 <yield+0x20c>
    402004e0:	1100098d 	add	w13, w12, #0x2
    402004e4:	6b0d03ee 	negs	w14, w13
    402004e8:	120009ad 	and	w13, w13, #0x7
    402004ec:	120009ce 	and	w14, w14, #0x7
    402004f0:	5a8e45ad 	csneg	w13, w13, w14, mi	// mi = first
    402004f4:	5284040e 	mov	w14, #0x2020                	// #8224
    402004f8:	9b2e2daf 	smaddl	x15, w13, w14, x11
    402004fc:	b94005ef 	ldr	w15, [x15, #4]
    40200500:	710005ff 	cmp	w15, #0x1
    40200504:	540000e1 	b.ne	40200520 <yield+0xd4>  // b.any
    40200508:	93407dad 	sxtw	x13, w13
    4020050c:	5284040f 	mov	w15, #0x2020                	// #8224
    40200510:	9b2f2dad 	smaddl	x13, w13, w15, x11
    40200514:	b94001af 	ldr	w15, [x13]
    40200518:	710001ff 	cmp	w15, #0x0
    4020051c:	540009ec 	b.gt	40200658 <yield+0x20c>
    40200520:	11000d8d 	add	w13, w12, #0x3
    40200524:	6b0d03ef 	negs	w15, w13
    40200528:	120009ad 	and	w13, w13, #0x7
    4020052c:	120009ef 	and	w15, w15, #0x7
    40200530:	5a8f45ad 	csneg	w13, w13, w15, mi	// mi = first
    40200534:	9b2e2dae 	smaddl	x14, w13, w14, x11
    40200538:	b94005ce 	ldr	w14, [x14, #4]
    4020053c:	710005df 	cmp	w14, #0x1
    40200540:	540000e1 	b.ne	4020055c <yield+0x110>  // b.any
    40200544:	93407dad 	sxtw	x13, w13
    40200548:	5284040e 	mov	w14, #0x2020                	// #8224
    4020054c:	9b2e2dad 	smaddl	x13, w13, w14, x11
    40200550:	b94001ae 	ldr	w14, [x13]
    40200554:	710001df 	cmp	w14, #0x0
    40200558:	5400080c 	b.gt	40200658 <yield+0x20c>
    4020055c:	1100118d 	add	w13, w12, #0x4
    40200560:	6b0d03ee 	negs	w14, w13
    40200564:	120009ad 	and	w13, w13, #0x7
    40200568:	120009ce 	and	w14, w14, #0x7
    4020056c:	5a8e45ad 	csneg	w13, w13, w14, mi	// mi = first
    40200570:	5284040e 	mov	w14, #0x2020                	// #8224
    40200574:	9b2e2daf 	smaddl	x15, w13, w14, x11
    40200578:	b94005ef 	ldr	w15, [x15, #4]
    4020057c:	710005ff 	cmp	w15, #0x1
    40200580:	540000e1 	b.ne	4020059c <yield+0x150>  // b.any
    40200584:	93407dad 	sxtw	x13, w13
    40200588:	5284040f 	mov	w15, #0x2020                	// #8224
    4020058c:	9b2f2dad 	smaddl	x13, w13, w15, x11
    40200590:	b94001af 	ldr	w15, [x13]
    40200594:	710001ff 	cmp	w15, #0x0
    40200598:	5400060c 	b.gt	40200658 <yield+0x20c>
    4020059c:	1100158d 	add	w13, w12, #0x5
    402005a0:	6b0d03ef 	negs	w15, w13
    402005a4:	120009ad 	and	w13, w13, #0x7
    402005a8:	120009ef 	and	w15, w15, #0x7
    402005ac:	5a8f45ad 	csneg	w13, w13, w15, mi	// mi = first
    402005b0:	9b2e2dae 	smaddl	x14, w13, w14, x11
    402005b4:	b94005ce 	ldr	w14, [x14, #4]
    402005b8:	710005df 	cmp	w14, #0x1
    402005bc:	540000e1 	b.ne	402005d8 <yield+0x18c>  // b.any
    402005c0:	93407dad 	sxtw	x13, w13
    402005c4:	5284040e 	mov	w14, #0x2020                	// #8224
    402005c8:	9b2e2dad 	smaddl	x13, w13, w14, x11
    402005cc:	b94001ae 	ldr	w14, [x13]
    402005d0:	710001df 	cmp	w14, #0x0
    402005d4:	5400042c 	b.gt	40200658 <yield+0x20c>
    402005d8:	1100198d 	add	w13, w12, #0x6
    402005dc:	6b0d03ee 	negs	w14, w13
    402005e0:	120009ad 	and	w13, w13, #0x7
    402005e4:	120009ce 	and	w14, w14, #0x7
    402005e8:	5a8e45ad 	csneg	w13, w13, w14, mi	// mi = first
    402005ec:	5284040e 	mov	w14, #0x2020                	// #8224
    402005f0:	9b2e2daf 	smaddl	x15, w13, w14, x11
    402005f4:	b94005ef 	ldr	w15, [x15, #4]
    402005f8:	710005ff 	cmp	w15, #0x1
    402005fc:	540000e1 	b.ne	40200618 <yield+0x1cc>  // b.any
    40200600:	93407dad 	sxtw	x13, w13
    40200604:	5284040f 	mov	w15, #0x2020                	// #8224
    40200608:	9b2f2dad 	smaddl	x13, w13, w15, x11
    4020060c:	b94001af 	ldr	w15, [x13]
    40200610:	710001ff 	cmp	w15, #0x0
    40200614:	5400022c 	b.gt	40200658 <yield+0x20c>
    40200618:	11001d8c 	add	w12, w12, #0x7
    4020061c:	6b0c03ed 	negs	w13, w12
    40200620:	1200098c 	and	w12, w12, #0x7
    40200624:	120009ad 	and	w13, w13, #0x7
    40200628:	5a8d458c 	csneg	w12, w12, w13, mi	// mi = first
    4020062c:	9b2e2d8d 	smaddl	x13, w12, w14, x11
    40200630:	b94005ad 	ldr	w13, [x13, #4]
    40200634:	710005bf 	cmp	w13, #0x1
    40200638:	540000e1 	b.ne	40200654 <yield+0x208>  // b.any
    4020063c:	93407d8c 	sxtw	x12, w12
    40200640:	5284040d 	mov	w13, #0x2020                	// #8224
    40200644:	9b2d2d8d 	smaddl	x13, w12, w13, x11
    40200648:	b94001ab 	ldr	w11, [x13]
    4020064c:	7100017f 	cmp	w11, #0x0
    40200650:	5400004c 	b.gt	40200658 <yield+0x20c>
    40200654:	aa0a03ed 	mov	x13, x10
    40200658:	eb0801bf 	cmp	x13, x8
    4020065c:	54000260 	b.eq	402006a8 <yield+0x25c>  // b.none
    40200660:	5284040a 	mov	w10, #0x2020                	// #8224
    40200664:	f906912d 	str	x13, [x9, #3360]
    40200668:	f94009ab 	ldr	x11, [x13, #16]
    4020066c:	8b0a01a9 	add	x9, x13, x10
    40200670:	d5033a9f 	dsb	ishst
    40200674:	d508871f 	tlbi	vmalle1
    40200678:	d5033b9f 	dsb	ish
    4020067c:	d5033fdf 	isb
    40200680:	aa0b03e0 	mov	x0, x11
    40200684:	d5382001 	mrs	x1, ttbr0_el1
    40200688:	d5381002 	mrs	x2, sctlr_el1
    4020068c:	d518200b 	msr	ttbr0_el1, x11
    40200690:	d5382003 	mrs	x3, ttbr0_el1
    40200694:	d5033fdf 	isb
    40200698:	d518d089 	msr	tpidr_el1, x9
    4020069c:	91002100 	add	x0, x8, #0x8
    402006a0:	910021a1 	add	x1, x13, #0x8
    402006a4:	17ffff42 	b	402003ac <switch_context>
    402006a8:	d65f03c0 	ret

00000000402006ac <proc_a_entry>:
    402006ac:	a9be7bfd 	stp	x29, x30, [sp, #-32]!
    402006b0:	f9000bf3 	str	x19, [sp, #16]
    402006b4:	910003fd 	mov	x29, sp
    402006b8:	d0000000 	adrp	x0, 40202000 <_vector_table>
    402006bc:	91223c00 	add	x0, x0, #0x88f
    402006c0:	9400035d 	bl	40201434 <printf>
    402006c4:	52800833 	mov	w19, #0x41                  	// #65
    402006c8:	390073b3 	strb	w19, [x29, #28]
    402006cc:	52800060 	mov	w0, #0x3                   	// #3
    402006d0:	910073a1 	add	x1, x29, #0x1c
    402006d4:	52800022 	mov	w2, #0x1                   	// #1
    402006d8:	52800807 	mov	w7, #0x40                  	// #64
    402006dc:	d45e0000 	hlt	#0xf000
    402006e0:	97ffff5b 	bl	4020044c <yield>
    402006e4:	17fffff9 	b	402006c8 <proc_a_entry+0x1c>

00000000402006e8 <proc_b_entry>:
    402006e8:	a9be7bfd 	stp	x29, x30, [sp, #-32]!
    402006ec:	f9000bf3 	str	x19, [sp, #16]
    402006f0:	910003fd 	mov	x29, sp
    402006f4:	d0000000 	adrp	x0, 40202000 <_vector_table>
    402006f8:	911fd800 	add	x0, x0, #0x7f6
    402006fc:	9400034e 	bl	40201434 <printf>
    40200700:	52800853 	mov	w19, #0x42                  	// #66
    40200704:	390073b3 	strb	w19, [x29, #28]
    40200708:	52800060 	mov	w0, #0x3                   	// #3
    4020070c:	910073a1 	add	x1, x29, #0x1c
    40200710:	52800022 	mov	w2, #0x1                   	// #1
    40200714:	52800807 	mov	w7, #0x40                  	// #64
    40200718:	d45e0000 	hlt	#0xf000
    4020071c:	97ffff4c 	bl	4020044c <yield>
    40200720:	17fffff9 	b	40200704 <proc_b_entry+0x1c>

0000000040200724 <user_entry>:
    40200724:	52a8c008 	mov	w8, #0x46000000            	// #1174405120
    40200728:	52800089 	mov	w9, #0x4                   	// #4
    4020072c:	d5184028 	msr	elr_el1, x8
    40200730:	d5184009 	msr	spsr_el1, x9
    40200734:	d5384021 	mrs	x1, elr_el1
    40200738:	d5384002 	mrs	x2, spsr_el1
    4020073c:	d69f03e0 	eret

0000000040200740 <create_process>:
    40200740:	d101c3ff 	sub	sp, sp, #0x70
    40200744:	a9017bfd 	stp	x29, x30, [sp, #16]
    40200748:	a9026ffc 	stp	x28, x27, [sp, #32]
    4020074c:	a90367fa 	stp	x26, x25, [sp, #48]
    40200750:	a9045ff8 	stp	x24, x23, [sp, #64]
    40200754:	a90557f6 	stp	x22, x21, [sp, #80]
    40200758:	a9064ff4 	stp	x20, x19, [sp, #96]
    4020075c:	910043fd 	add	x29, sp, #0x10
    40200760:	f0008088 	adrp	x8, 41213000 <_binary_shell_bin_start+0x10103f8>
    40200764:	2a0103f7 	mov	w23, w1
    40200768:	f90007e0 	str	x0, [sp, #8]
    4020076c:	b94c2508 	ldr	w8, [x8, #3108]
    40200770:	340003a8 	cbz	w8, 402007e4 <create_process+0xa4>
    40200774:	b00080a8 	adrp	x8, 41215000 <procs+0x13e0>
    40200778:	b94c4508 	ldr	w8, [x8, #3140]
    4020077c:	34000388 	cbz	w8, 402007ec <create_process+0xac>
    40200780:	f00080a8 	adrp	x8, 41217000 <procs+0x33e0>
    40200784:	b94c6508 	ldr	w8, [x8, #3172]
    40200788:	34000368 	cbz	w8, 402007f4 <create_process+0xb4>
    4020078c:	b00080c8 	adrp	x8, 41219000 <procs+0x53e0>
    40200790:	b94c8508 	ldr	w8, [x8, #3204]
    40200794:	34000348 	cbz	w8, 402007fc <create_process+0xbc>
    40200798:	f00080c8 	adrp	x8, 4121b000 <procs+0x73e0>
    4020079c:	b94ca508 	ldr	w8, [x8, #3236]
    402007a0:	34000328 	cbz	w8, 40200804 <create_process+0xc4>
    402007a4:	b00080e8 	adrp	x8, 4121d000 <procs+0x93e0>
    402007a8:	b94cc508 	ldr	w8, [x8, #3268]
    402007ac:	34000308 	cbz	w8, 4020080c <create_process+0xcc>
    402007b0:	f00080e8 	adrp	x8, 4121f000 <procs+0xb3e0>
    402007b4:	b94ce508 	ldr	w8, [x8, #3300]
    402007b8:	340002e8 	cbz	w8, 40200814 <create_process+0xd4>
    402007bc:	b0008108 	adrp	x8, 41221000 <procs+0xd3e0>
    402007c0:	b94d0508 	ldr	w8, [x8, #3332]
    402007c4:	340002c8 	cbz	w8, 4020081c <create_process+0xdc>
    402007c8:	d0000000 	adrp	x0, 40202000 <_vector_table>
    402007cc:	912cdc00 	add	x0, x0, #0xb37
    402007d0:	d0000001 	adrp	x1, 40202000 <_vector_table>
    402007d4:	911e4021 	add	x1, x1, #0x790
    402007d8:	52802c22 	mov	w2, #0x161                 	// #353
    402007dc:	94000316 	bl	40201434 <printf>
    402007e0:	14000000 	b	402007e0 <create_process+0xa0>
    402007e4:	aa1f03f3 	mov	x19, xzr
    402007e8:	1400000e 	b	40200820 <create_process+0xe0>
    402007ec:	52800033 	mov	w19, #0x1                   	// #1
    402007f0:	1400000c 	b	40200820 <create_process+0xe0>
    402007f4:	52800053 	mov	w19, #0x2                   	// #2
    402007f8:	1400000a 	b	40200820 <create_process+0xe0>
    402007fc:	52800073 	mov	w19, #0x3                   	// #3
    40200800:	14000008 	b	40200820 <create_process+0xe0>
    40200804:	52800093 	mov	w19, #0x4                   	// #4
    40200808:	14000006 	b	40200820 <create_process+0xe0>
    4020080c:	528000b3 	mov	w19, #0x5                   	// #5
    40200810:	14000004 	b	40200820 <create_process+0xe0>
    40200814:	528000d3 	mov	w19, #0x6                   	// #6
    40200818:	14000002 	b	40200820 <create_process+0xe0>
    4020081c:	528000f3 	mov	w19, #0x7                   	// #7
    40200820:	52840408 	mov	w8, #0x2020                	// #8224
    40200824:	f0008089 	adrp	x9, 41213000 <_binary_shell_bin_start+0x10103f8>
    40200828:	91308129 	add	x9, x9, #0xc20
    4020082c:	9ba8267b 	umaddl	x27, w19, w8, x9
    40200830:	d0000019 	adrp	x25, 40202000 <_vector_table>
    40200834:	6f00e400 	movi	v0.2d, #0x0
    40200838:	f9460334 	ldr	x20, [x25, #3072]
    4020083c:	d503201f 	nop
    40200840:	10fff728 	adr	x8, 40200724 <user_entry>
    40200844:	9001823a 	adrp	x26, 43244000 <__free_ram_end>
    40200848:	9100035a 	add	x26, x26, #0x0
    4020084c:	f9100f68 	str	x8, [x27, #8216]
    40200850:	91400688 	add	x8, x20, #0x1, lsl #12
    40200854:	eb1a011f 	cmp	x8, x26
    40200858:	f9100b7f 	str	xzr, [x27, #8208]
    4020085c:	3d880360 	str	q0, [x27, #8192]
    40200860:	3d87ff60 	str	q0, [x27, #8176]
    40200864:	3d87fb60 	str	q0, [x27, #8160]
    40200868:	3d87f760 	str	q0, [x27, #8144]
    4020086c:	3d87f360 	str	q0, [x27, #8128]
    40200870:	f9060328 	str	x8, [x25, #3072]
    40200874:	54000109 	b.ls	40200894 <create_process+0x154>  // b.plast
    40200878:	d0000000 	adrp	x0, 40202000 <_vector_table>
    4020087c:	91258c00 	add	x0, x0, #0x963
    40200880:	d0000001 	adrp	x1, 40202000 <_vector_table>
    40200884:	911e4021 	add	x1, x1, #0x790
    40200888:	52800e82 	mov	w2, #0x74                  	// #116
    4020088c:	940002ea 	bl	40201434 <printf>
    40200890:	14000000 	b	40200890 <create_process+0x150>
    40200894:	aa1403e0 	mov	x0, x20
    40200898:	2a1f03e1 	mov	w1, wzr
    4020089c:	52820002 	mov	w2, #0x1000                	// #4096
    402008a0:	940002a7 	bl	4020133c <memset>
    402008a4:	f2402e9f 	tst	x20, #0xfff
    402008a8:	54000100 	b.eq	402008c8 <create_process+0x188>  // b.none
    402008ac:	d0000000 	adrp	x0, 40202000 <_vector_table>
    402008b0:	9129e800 	add	x0, x0, #0xa7a
    402008b4:	d0000001 	adrp	x1, 40202000 <_vector_table>
    402008b8:	911e4021 	add	x1, x1, #0x790
    402008bc:	52802ee2 	mov	w2, #0x177                 	// #375
    402008c0:	940002dd 	bl	40201434 <printf>
    402008c4:	14000000 	b	402008c4 <create_process+0x184>
    402008c8:	d503201f 	nop
    402008cc:	10ffb9a8 	adr	x8, 40200000 <boot>
    402008d0:	f90003f3 	str	x19, [sp]
    402008d4:	eb1a011f 	cmp	x8, x26
    402008d8:	54000142 	b.cs	40200900 <create_process+0x1c0>  // b.hs, b.nlast
    402008dc:	d503201f 	nop
    402008e0:	10ffb916 	adr	x22, 40200000 <boot>
    402008e4:	aa1403e0 	mov	x0, x20
    402008e8:	aa1603e1 	mov	x1, x22
    402008ec:	aa1603e2 	mov	x2, x22
    402008f0:	97fffe1d 	bl	40200164 <map_page>
    402008f4:	914006d6 	add	x22, x22, #0x1, lsl #12
    402008f8:	eb1a02df 	cmp	x22, x26
    402008fc:	54ffff43 	b.cc	402008e4 <create_process+0x1a4>  // b.lo, b.ul, b.last
    40200900:	d0000000 	adrp	x0, 40202000 <_vector_table>
    40200904:	91295000 	add	x0, x0, #0xa54
    40200908:	940002cb 	bl	40201434 <printf>
    4020090c:	aa1403e0 	mov	x0, x20
    40200910:	52a14001 	mov	w1, #0xa000000             	// #167772160
    40200914:	52a14002 	mov	w2, #0xa000000             	// #167772160
    40200918:	52808003 	mov	w3, #0x400                 	// #1024
    4020091c:	97fffe12 	bl	40200164 <map_page>
    40200920:	d0000000 	adrp	x0, 40202000 <_vector_table>
    40200924:	912e5800 	add	x0, x0, #0xb96
    40200928:	2a1703e1 	mov	w1, w23
    4020092c:	940002c2 	bl	40201434 <printf>
    40200930:	340003b7 	cbz	w23, 402009a4 <create_process+0x264>
    40200934:	aa1f03fc 	mov	x28, xzr
    40200938:	2a1703f8 	mov	w24, w23
    4020093c:	52a8c013 	mov	w19, #0x46000000            	// #1174405120
    40200940:	f9460336 	ldr	x22, [x25, #3072]
    40200944:	914006c8 	add	x8, x22, #0x1, lsl #12
    40200948:	eb1a011f 	cmp	x8, x26
    4020094c:	f9060328 	str	x8, [x25, #3072]
    40200950:	54000a28 	b.hi	40200a94 <create_process+0x354>  // b.pmore
    40200954:	aa1603e0 	mov	x0, x22
    40200958:	2a1f03e1 	mov	w1, wzr
    4020095c:	52820002 	mov	w2, #0x1000                	// #4096
    40200960:	94000277 	bl	4020133c <memset>
    40200964:	714006f5 	subs	w21, w23, #0x1, lsl #12
    40200968:	52820008 	mov	w8, #0x1000                	// #4096
    4020096c:	aa1603e0 	mov	x0, x22
    40200970:	1a8832e2 	csel	w2, w23, w8, cc	// cc = lo, ul, last
    40200974:	f94007e8 	ldr	x8, [sp, #8]
    40200978:	8b1c0101 	add	x1, x8, x28
    4020097c:	9400023e 	bl	40201274 <memcpy>
    40200980:	8b130381 	add	x1, x28, x19
    40200984:	aa1403e0 	mov	x0, x20
    40200988:	aa1603e2 	mov	x2, x22
    4020098c:	52808003 	mov	w3, #0x400                 	// #1024
    40200990:	97fffdf5 	bl	40200164 <map_page>
    40200994:	9140079c 	add	x28, x28, #0x1, lsl #12
    40200998:	2a1503f7 	mov	w23, w21
    4020099c:	eb18039f 	cmp	x28, x24
    402009a0:	54fffd03 	b.cc	40200940 <create_process+0x200>  // b.lo, b.ul, b.last
    402009a4:	f9460333 	ldr	x19, [x25, #3072]
    402009a8:	91400668 	add	x8, x19, #0x1, lsl #12
    402009ac:	eb1a011f 	cmp	x8, x26
    402009b0:	f9060328 	str	x8, [x25, #3072]
    402009b4:	54000109 	b.ls	402009d4 <create_process+0x294>  // b.plast
    402009b8:	d0000000 	adrp	x0, 40202000 <_vector_table>
    402009bc:	91258c00 	add	x0, x0, #0x963
    402009c0:	d0000001 	adrp	x1, 40202000 <_vector_table>
    402009c4:	911e4021 	add	x1, x1, #0x790
    402009c8:	52800e82 	mov	w2, #0x74                  	// #116
    402009cc:	9400029a 	bl	40201434 <printf>
    402009d0:	14000000 	b	402009d0 <create_process+0x290>
    402009d4:	5283f808 	mov	w8, #0x1fc0                	// #8128
    402009d8:	aa1303e0 	mov	x0, x19
    402009dc:	2a1f03e1 	mov	w1, wzr
    402009e0:	52820002 	mov	w2, #0x1000                	// #4096
    402009e4:	8b080375 	add	x21, x27, x8
    402009e8:	94000255 	bl	4020133c <memset>
    402009ec:	aa1403e0 	mov	x0, x20
    402009f0:	52a8e001 	mov	w1, #0x47000000            	// #1191182336
    402009f4:	aa1303e2 	mov	x2, x19
    402009f8:	52808003 	mov	w3, #0x400                 	// #1024
    402009fc:	97fffdda 	bl	40200164 <map_page>
    40200a00:	52820017 	mov	w23, #0x1000                	// #4096
    40200a04:	9281fff6 	mov	x22, #0xfffffffffffff000    	// #-4096
    40200a08:	72a8dff7 	movk	w23, #0x46ff, lsl #16
    40200a0c:	f9460333 	ldr	x19, [x25, #3072]
    40200a10:	91400668 	add	x8, x19, #0x1, lsl #12
    40200a14:	eb1a011f 	cmp	x8, x26
    40200a18:	f9060328 	str	x8, [x25, #3072]
    40200a1c:	540004a8 	b.hi	40200ab0 <create_process+0x370>  // b.pmore
    40200a20:	aa1303e0 	mov	x0, x19
    40200a24:	2a1f03e1 	mov	w1, wzr
    40200a28:	52820002 	mov	w2, #0x1000                	// #4096
    40200a2c:	94000244 	bl	4020133c <memset>
    40200a30:	8b1702c1 	add	x1, x22, x23
    40200a34:	aa1403e0 	mov	x0, x20
    40200a38:	aa1303e2 	mov	x2, x19
    40200a3c:	52808003 	mov	w3, #0x400                 	// #1024
    40200a40:	97fffdc9 	bl	40200164 <map_page>
    40200a44:	914006d6 	add	x22, x22, #0x1, lsl #12
    40200a48:	f1403edf 	cmp	x22, #0xf, lsl #12
    40200a4c:	54fffe03 	b.cc	40200a0c <create_process+0x2cc>  // b.lo, b.ul, b.last
    40200a50:	f94003e9 	ldr	x9, [sp]
    40200a54:	52840408 	mov	w8, #0x2020                	// #8224
    40200a58:	f000808a 	adrp	x10, 41213000 <_binary_shell_bin_start+0x10103f8>
    40200a5c:	9130814a 	add	x10, x10, #0xc20
    40200a60:	a9445ff8 	ldp	x24, x23, [sp, #64]
    40200a64:	9ba82920 	umaddl	x0, w9, w8, x10
    40200a68:	a94367fa 	ldp	x26, x25, [sp, #48]
    40200a6c:	a9426ffc 	ldp	x28, x27, [sp, #32]
    40200a70:	11000528 	add	w8, w9, #0x1
    40200a74:	a9417bfd 	ldp	x29, x30, [sp, #16]
    40200a78:	52800029 	mov	w9, #0x1                   	// #1
    40200a7c:	a900d015 	stp	x21, x20, [x0, #8]
    40200a80:	a9464ff4 	ldp	x20, x19, [sp, #96]
    40200a84:	a94557f6 	ldp	x22, x21, [sp, #80]
    40200a88:	29002408 	stp	w8, w9, [x0]
    40200a8c:	9101c3ff 	add	sp, sp, #0x70
    40200a90:	d65f03c0 	ret
    40200a94:	d0000000 	adrp	x0, 40202000 <_vector_table>
    40200a98:	91258c00 	add	x0, x0, #0x963
    40200a9c:	d0000001 	adrp	x1, 40202000 <_vector_table>
    40200aa0:	911e4021 	add	x1, x1, #0x790
    40200aa4:	52800e82 	mov	w2, #0x74                  	// #116
    40200aa8:	94000263 	bl	40201434 <printf>
    40200aac:	14000000 	b	40200aac <create_process+0x36c>
    40200ab0:	d0000000 	adrp	x0, 40202000 <_vector_table>
    40200ab4:	91258c00 	add	x0, x0, #0x963
    40200ab8:	d0000001 	adrp	x1, 40202000 <_vector_table>
    40200abc:	911e4021 	add	x1, x1, #0x790
    40200ac0:	52800e82 	mov	w2, #0x74                  	// #116
    40200ac4:	9400025c 	bl	40201434 <printf>
    40200ac8:	14000000 	b	40200ac8 <create_process+0x388>

0000000040200acc <handle_syscall>:
    40200acc:	d10083ff 	sub	sp, sp, #0x20
    40200ad0:	a9017bfd 	stp	x29, x30, [sp, #16]
    40200ad4:	910043fd 	add	x29, sp, #0x10
    40200ad8:	f9402001 	ldr	x1, [x0, #64]
    40200adc:	f9408009 	ldr	x9, [x0, #256]
    40200ae0:	aa0003e8 	mov	x8, x0
    40200ae4:	91001129 	add	x9, x9, #0x4
    40200ae8:	f100043f 	cmp	x1, #0x1
    40200aec:	f9008009 	str	x9, [x0, #256]
    40200af0:	540002a0 	b.eq	40200b44 <handle_syscall+0x78>  // b.none
    40200af4:	f100083f 	cmp	x1, #0x2
    40200af8:	540003a1 	b.ne	40200b6c <handle_syscall+0xa0>  // b.any
    40200afc:	2a1f03e9 	mov	w9, wzr
    40200b00:	381fc3bf 	sturb	wzr, [x29, #-4]
    40200b04:	52800060 	mov	w0, #0x3                   	// #3
    40200b08:	d10013a1 	sub	x1, x29, #0x4
    40200b0c:	aa1f03e2 	mov	x2, xzr
    40200b10:	52800807 	mov	w7, #0x40                  	// #64
    40200b14:	d45e0000 	hlt	#0xf000
    40200b18:	b40003e0 	cbz	x0, 40200b94 <handle_syscall+0xc8>
    40200b1c:	52807d0a 	mov	w10, #0x3e8                 	// #1000
    40200b20:	7100054a 	subs	w10, w10, #0x1
    40200b24:	d503201f 	nop
    40200b28:	54ffffc1 	b.ne	40200b20 <handle_syscall+0x54>  // b.any
    40200b2c:	11000529 	add	w9, w9, #0x1
    40200b30:	710fa13f 	cmp	w9, #0x3e8
    40200b34:	54fffe61 	b.ne	40200b00 <handle_syscall+0x34>  // b.any
    40200b38:	92800009 	mov	x9, #0xffffffffffffffff    	// #-1
    40200b3c:	f9000109 	str	x9, [x8]
    40200b40:	14000008 	b	40200b60 <handle_syscall+0x94>
    40200b44:	f9400109 	ldr	x9, [x8]
    40200b48:	52800060 	mov	w0, #0x3                   	// #3
    40200b4c:	910023e1 	add	x1, sp, #0x8
    40200b50:	52800022 	mov	w2, #0x1                   	// #1
    40200b54:	52800807 	mov	w7, #0x40                  	// #64
    40200b58:	390023e9 	strb	w9, [sp, #8]
    40200b5c:	d45e0000 	hlt	#0xf000
    40200b60:	f9408108 	ldr	x8, [x8, #256]
    40200b64:	d5184028 	msr	elr_el1, x8
    40200b68:	1400000c 	b	40200b98 <handle_syscall+0xcc>
    40200b6c:	d0000000 	adrp	x0, 40202000 <_vector_table>
    40200b70:	91272400 	add	x0, x0, #0x9c9
    40200b74:	94000230 	bl	40201434 <printf>
    40200b78:	d0000000 	adrp	x0, 40202000 <_vector_table>
    40200b7c:	911f0000 	add	x0, x0, #0x7c0
    40200b80:	d0000001 	adrp	x1, 40202000 <_vector_table>
    40200b84:	911e4021 	add	x1, x1, #0x790
    40200b88:	52803a02 	mov	w2, #0x1d0                 	// #464
    40200b8c:	9400022a 	bl	40201434 <printf>
    40200b90:	14000000 	b	40200b90 <handle_syscall+0xc4>
    40200b94:	f900011f 	str	xzr, [x8]
    40200b98:	a9417bfd 	ldp	x29, x30, [sp, #16]
    40200b9c:	910083ff 	add	sp, sp, #0x20
    40200ba0:	d65f03c0 	ret

0000000040200ba4 <handle_trap>:
    40200ba4:	a9bd7bfd 	stp	x29, x30, [sp, #-48]!
    40200ba8:	a90157f6 	stp	x22, x21, [sp, #16]
    40200bac:	a9024ff4 	stp	x20, x19, [sp, #32]
    40200bb0:	910003fd 	mov	x29, sp
    40200bb4:	d5385214 	mrs	x20, esr_el1
    40200bb8:	d5386015 	mrs	x21, far_el1
    40200bbc:	d5384033 	mrs	x19, elr_el1
    40200bc0:	d5384108 	mrs	x8, sp_el0
    40200bc4:	d35a7e96 	ubfx	x22, x20, #26, #6
    40200bc8:	d5382008 	mrs	x8, ttbr0_el1
    40200bcc:	f10096df 	cmp	x22, #0x25
    40200bd0:	54000468 	b.hi	40200c5c <handle_trap+0xb8>  // b.pmore
    40200bd4:	52800028 	mov	w8, #0x1                   	// #1
    40200bd8:	d2c00669 	mov	x9, #0x3300000000          	// #219043332096
    40200bdc:	9ad62108 	lsl	x8, x8, x22
    40200be0:	ea09011f 	tst	x8, x9
    40200be4:	54000300 	b.eq	40200c44 <handle_trap+0xa0>  // b.none
    40200be8:	d0000000 	adrp	x0, 40202000 <_vector_table>
    40200bec:	91286400 	add	x0, x0, #0xa19
    40200bf0:	94000211 	bl	40201434 <printf>
    40200bf4:	d0000000 	adrp	x0, 40202000 <_vector_table>
    40200bf8:	91231400 	add	x0, x0, #0x8c5
    40200bfc:	92406283 	and	x3, x20, #0x1ffffff
    40200c00:	aa1403e1 	mov	x1, x20
    40200c04:	aa1603e2 	mov	x2, x22
    40200c08:	9400020b 	bl	40201434 <printf>
    40200c0c:	d0000000 	adrp	x0, 40202000 <_vector_table>
    40200c10:	912a8000 	add	x0, x0, #0xaa0
    40200c14:	aa1503e1 	mov	x1, x21
    40200c18:	94000207 	bl	40201434 <printf>
    40200c1c:	d0000000 	adrp	x0, 40202000 <_vector_table>
    40200c20:	9129a400 	add	x0, x0, #0xa69
    40200c24:	aa1303e1 	mov	x1, x19
    40200c28:	94000203 	bl	40201434 <printf>
    40200c2c:	aa1403e0 	mov	x0, x20
    40200c30:	aa1503e1 	mov	x1, x21
    40200c34:	a9424ff4 	ldp	x20, x19, [sp, #32]
    40200c38:	a94157f6 	ldp	x22, x21, [sp, #16]
    40200c3c:	a8c37bfd 	ldp	x29, x30, [sp], #48
    40200c40:	140002c9 	b	40201764 <handle_data_abort>
    40200c44:	f10056df 	cmp	x22, #0x15
    40200c48:	540000a1 	b.ne	40200c5c <handle_trap+0xb8>  // b.any
    40200c4c:	a9424ff4 	ldp	x20, x19, [sp, #32]
    40200c50:	a94157f6 	ldp	x22, x21, [sp, #16]
    40200c54:	a8c37bfd 	ldp	x29, x30, [sp], #48
    40200c58:	17ffff9d 	b	40200acc <handle_syscall>
    40200c5c:	d0000000 	adrp	x0, 40202000 <_vector_table>
    40200c60:	912d7000 	add	x0, x0, #0xb5c
    40200c64:	92406282 	and	x2, x20, #0x1ffffff
    40200c68:	aa1603e1 	mov	x1, x22
    40200c6c:	aa1303e3 	mov	x3, x19
    40200c70:	940001f1 	bl	40201434 <printf>
    40200c74:	d0000000 	adrp	x0, 40202000 <_vector_table>
    40200c78:	912f6000 	add	x0, x0, #0xbd8
    40200c7c:	d0000001 	adrp	x1, 40202000 <_vector_table>
    40200c80:	911e4021 	add	x1, x1, #0x790
    40200c84:	52804002 	mov	w2, #0x200                 	// #512
    40200c88:	940001eb 	bl	40201434 <printf>
    40200c8c:	14000000 	b	40200c8c <handle_trap+0xe8>

0000000040200c90 <virtio_reg_read32>:
    40200c90:	52a14008 	mov	w8, #0xa000000             	// #167772160
    40200c94:	b8686800 	ldr	w0, [x0, x8]
    40200c98:	d65f03c0 	ret

0000000040200c9c <virtio_reg_read64>:
    40200c9c:	52a14008 	mov	w8, #0xa000000             	// #167772160
    40200ca0:	f8686800 	ldr	x0, [x0, x8]
    40200ca4:	d65f03c0 	ret

0000000040200ca8 <virtio_reg_write32>:
    40200ca8:	52a14008 	mov	w8, #0xa000000             	// #167772160
    40200cac:	b8286801 	str	w1, [x0, x8]
    40200cb0:	d65f03c0 	ret

0000000040200cb4 <virtio_reg_fetch_and_or32>:
    40200cb4:	52a14008 	mov	w8, #0xa000000             	// #167772160
    40200cb8:	b8686809 	ldr	w9, [x0, x8]
    40200cbc:	2a010129 	orr	w9, w9, w1
    40200cc0:	b8286809 	str	w9, [x0, x8]
    40200cc4:	d65f03c0 	ret

0000000040200cc8 <virtq_init>:
    40200cc8:	a9bd7bfd 	stp	x29, x30, [sp, #-48]!
    40200ccc:	f9000bf5 	str	x21, [sp, #16]
    40200cd0:	a9024ff4 	stp	x20, x19, [sp, #32]
    40200cd4:	910003fd 	mov	x29, sp
    40200cd8:	2a0003f3 	mov	w19, w0
    40200cdc:	52800615 	mov	w21, #0x30                  	// #48
    40200ce0:	d0000000 	adrp	x0, 40202000 <_vector_table>
    40200ce4:	912ac400 	add	x0, x0, #0xab1
    40200ce8:	2a1303e1 	mov	w1, w19
    40200cec:	72a14015 	movk	w21, #0xa00, lsl #16
    40200cf0:	940001d1 	bl	40201434 <printf>
    40200cf4:	b90002b3 	str	w19, [x21]
    40200cf8:	d0000000 	adrp	x0, 40202000 <_vector_table>
    40200cfc:	912e0800 	add	x0, x0, #0xb82
    40200d00:	d5033bbf 	dmb	ish
    40200d04:	d5033f9f 	dsb	sy
    40200d08:	b94006b4 	ldr	w20, [x21, #4]
    40200d0c:	2a1403e1 	mov	w1, w20
    40200d10:	940001c9 	bl	40201434 <printf>
    40200d14:	71003e9f 	cmp	w20, #0xf
    40200d18:	540000e8 	b.hi	40200d34 <virtq_init+0x6c>  // b.pmore
    40200d1c:	d0000000 	adrp	x0, 40202000 <_vector_table>
    40200d20:	912b6c00 	add	x0, x0, #0xadb
    40200d24:	2a1403e1 	mov	w1, w20
    40200d28:	940001c3 	bl	40201434 <printf>
    40200d2c:	aa1f03f4 	mov	x20, xzr
    40200d30:	1400002a 	b	40200dd8 <virtq_init+0x110>
    40200d34:	d0000008 	adrp	x8, 40202000 <_vector_table>
    40200d38:	9001822a 	adrp	x10, 43244000 <__free_ram_end>
    40200d3c:	9100014a 	add	x10, x10, #0x0
    40200d40:	f9460114 	ldr	x20, [x8, #3072]
    40200d44:	91400a89 	add	x9, x20, #0x2, lsl #12
    40200d48:	eb0a013f 	cmp	x9, x10
    40200d4c:	f9060109 	str	x9, [x8, #3072]
    40200d50:	54000109 	b.ls	40200d70 <virtq_init+0xa8>  // b.plast
    40200d54:	d0000000 	adrp	x0, 40202000 <_vector_table>
    40200d58:	91258c00 	add	x0, x0, #0x963
    40200d5c:	d0000001 	adrp	x1, 40202000 <_vector_table>
    40200d60:	911e4021 	add	x1, x1, #0x790
    40200d64:	52800e82 	mov	w2, #0x74                  	// #116
    40200d68:	940001b3 	bl	40201434 <printf>
    40200d6c:	14000000 	b	40200d6c <virtq_init+0xa4>
    40200d70:	aa1403e0 	mov	x0, x20
    40200d74:	2a1f03e1 	mov	w1, wzr
    40200d78:	52840002 	mov	w2, #0x2000                	// #8192
    40200d7c:	94000170 	bl	4020133c <memset>
    40200d80:	aa1403e0 	mov	x0, x20
    40200d84:	2a1f03e1 	mov	w1, wzr
    40200d88:	52840002 	mov	w2, #0x2000                	// #8192
    40200d8c:	9400016c 	bl	4020133c <memset>
    40200d90:	52800208 	mov	w8, #0x10                  	// #16
    40200d94:	528210c9 	mov	w9, #0x1086                	// #4230
    40200d98:	d34cfe8a 	lsr	x10, x20, #12
    40200d9c:	b9000aa8 	str	w8, [x21, #8]
    40200da0:	d0000000 	adrp	x0, 40202000 <_vector_table>
    40200da4:	91277800 	add	x0, x0, #0x9de
    40200da8:	d5033bbf 	dmb	ish
    40200dac:	d5033f9f 	dsb	sy
    40200db0:	79210a93 	strh	w19, [x20, #4228]
    40200db4:	b8296a9f 	str	wzr, [x20, x9]
    40200db8:	2a1303e1 	mov	w1, w19
    40200dbc:	aa1403e2 	mov	x2, x20
    40200dc0:	d5033bbf 	dmb	ish
    40200dc4:	d5033f9f 	dsb	sy
    40200dc8:	b90012aa 	str	w10, [x21, #16]
    40200dcc:	d5033bbf 	dmb	ish
    40200dd0:	d5033f9f 	dsb	sy
    40200dd4:	94000198 	bl	40201434 <printf>
    40200dd8:	aa1403e0 	mov	x0, x20
    40200ddc:	a9424ff4 	ldp	x20, x19, [sp, #32]
    40200de0:	f9400bf5 	ldr	x21, [sp, #16]
    40200de4:	a8c37bfd 	ldp	x29, x30, [sp], #48
    40200de8:	d65f03c0 	ret

0000000040200dec <virtio_blk_init>:
    40200dec:	d100c3ff 	sub	sp, sp, #0x30
    40200df0:	a9017bfd 	stp	x29, x30, [sp, #16]
    40200df4:	a9024ff4 	stp	x20, x19, [sp, #32]
    40200df8:	910043fd 	add	x29, sp, #0x10
    40200dfc:	52800e13 	mov	w19, #0x70                  	// #112
    40200e00:	52909014 	mov	w20, #0x8480                	// #33920
    40200e04:	d0000000 	adrp	x0, 40202000 <_vector_table>
    40200e08:	912ecc00 	add	x0, x0, #0xbb3
    40200e0c:	72a14013 	movk	w19, #0xa00, lsl #16
    40200e10:	72a003d4 	movk	w20, #0x1e, lsl #16
    40200e14:	94000188 	bl	40201434 <printf>
    40200e18:	b900027f 	str	wzr, [x19]
    40200e1c:	d5033bbf 	dmb	ish
    40200e20:	d5033f9f 	dsb	sy
    40200e24:	b81fc3bf 	stur	wzr, [x29, #-4]
    40200e28:	b85fc3a8 	ldur	w8, [x29, #-4]
    40200e2c:	6b14011f 	cmp	w8, w20
    40200e30:	540000aa 	b.ge	40200e44 <virtio_blk_init+0x58>  // b.tcont
    40200e34:	b85fc3a8 	ldur	w8, [x29, #-4]
    40200e38:	11000508 	add	w8, w8, #0x1
    40200e3c:	b81fc3a8 	stur	w8, [x29, #-4]
    40200e40:	17fffffa 	b	40200e28 <virtio_blk_init+0x3c>
    40200e44:	52800028 	mov	w8, #0x1                   	// #1
    40200e48:	2a1f03e0 	mov	w0, wzr
    40200e4c:	b9000268 	str	w8, [x19]
    40200e50:	d5033bbf 	dmb	ish
    40200e54:	d5033f9f 	dsb	sy
    40200e58:	b9400268 	ldr	w8, [x19]
    40200e5c:	321f0108 	orr	w8, w8, #0x2
    40200e60:	b9000268 	str	w8, [x19]
    40200e64:	d5033bbf 	dmb	ish
    40200e68:	d5033f9f 	dsb	sy
    40200e6c:	b9400268 	ldr	w8, [x19]
    40200e70:	321d0108 	orr	w8, w8, #0x8
    40200e74:	b9000268 	str	w8, [x19]
    40200e78:	d5033bbf 	dmb	ish
    40200e7c:	d5033f9f 	dsb	sy
    40200e80:	97ffff92 	bl	40200cc8 <virtq_init>
    40200e84:	f0008108 	adrp	x8, 41223000 <procs+0xf3e0>
    40200e88:	f9069500 	str	x0, [x8, #3368]
    40200e8c:	b4000380 	cbz	x0, 40200efc <virtio_blk_init+0x110>
    40200e90:	b9400268 	ldr	w8, [x19]
    40200e94:	d0000000 	adrp	x0, 40202000 <_vector_table>
    40200e98:	91228c00 	add	x0, x0, #0x8a3
    40200e9c:	321e0108 	orr	w8, w8, #0x4
    40200ea0:	b9000268 	str	w8, [x19]
    40200ea4:	d5033bbf 	dmb	ish
    40200ea8:	d5033f9f 	dsb	sy
    40200eac:	f9404a68 	ldr	x8, [x19, #144]
    40200eb0:	53175901 	lsl	w1, w8, #9
    40200eb4:	f0008108 	adrp	x8, 41223000 <procs+0xf3e0>
    40200eb8:	b90d3101 	str	w1, [x8, #3376]
    40200ebc:	9400015e 	bl	40201434 <printf>
    40200ec0:	d0000008 	adrp	x8, 40202000 <_vector_table>
    40200ec4:	9001822a 	adrp	x10, 43244000 <__free_ram_end>
    40200ec8:	9100014a 	add	x10, x10, #0x0
    40200ecc:	f9460113 	ldr	x19, [x8, #3072]
    40200ed0:	91400669 	add	x9, x19, #0x1, lsl #12
    40200ed4:	eb0a013f 	cmp	x9, x10
    40200ed8:	f9060109 	str	x9, [x8, #3072]
    40200edc:	540001e9 	b.ls	40200f18 <virtio_blk_init+0x12c>  // b.plast
    40200ee0:	d0000000 	adrp	x0, 40202000 <_vector_table>
    40200ee4:	91258c00 	add	x0, x0, #0x963
    40200ee8:	d0000001 	adrp	x1, 40202000 <_vector_table>
    40200eec:	911e4021 	add	x1, x1, #0x790
    40200ef0:	52800e82 	mov	w2, #0x74                  	// #116
    40200ef4:	94000150 	bl	40201434 <printf>
    40200ef8:	14000000 	b	40200ef8 <virtio_blk_init+0x10c>
    40200efc:	d0000000 	adrp	x0, 40202000 <_vector_table>
    40200f00:	9123b000 	add	x0, x0, #0x8ec
    40200f04:	d0000001 	adrp	x1, 40202000 <_vector_table>
    40200f08:	911e4021 	add	x1, x1, #0x790
    40200f0c:	52804c82 	mov	w2, #0x264                 	// #612
    40200f10:	94000149 	bl	40201434 <printf>
    40200f14:	14000000 	b	40200f14 <virtio_blk_init+0x128>
    40200f18:	aa1303e0 	mov	x0, x19
    40200f1c:	2a1f03e1 	mov	w1, wzr
    40200f20:	52820002 	mov	w2, #0x1000                	// #4096
    40200f24:	94000106 	bl	4020133c <memset>
    40200f28:	f0008108 	adrp	x8, 41223000 <procs+0xf3e0>
    40200f2c:	f0008109 	adrp	x9, 41223000 <procs+0xf3e0>
    40200f30:	aa1303e0 	mov	x0, x19
    40200f34:	2a1f03e1 	mov	w1, wzr
    40200f38:	52804222 	mov	w2, #0x211                 	// #529
    40200f3c:	f9069d13 	str	x19, [x8, #3384]
    40200f40:	f906a133 	str	x19, [x9, #3392]
    40200f44:	940000fe 	bl	4020133c <memset>
    40200f48:	d5033bbf 	dmb	ish
    40200f4c:	d5033f9f 	dsb	sy
    40200f50:	a9424ff4 	ldp	x20, x19, [sp, #32]
    40200f54:	a9417bfd 	ldp	x29, x30, [sp, #16]
    40200f58:	9100c3ff 	add	sp, sp, #0x30
    40200f5c:	d65f03c0 	ret

0000000040200f60 <virtq_kick>:
    40200f60:	79420408 	ldrh	w8, [x0, #258]
    40200f64:	92400d09 	and	x9, x8, #0xf
    40200f68:	11000508 	add	w8, w8, #0x1
    40200f6c:	8b090409 	add	x9, x0, x9, lsl #1
    40200f70:	79020408 	strh	w8, [x0, #258]
    40200f74:	79020921 	strh	w1, [x9, #260]
    40200f78:	52800a09 	mov	w9, #0x50                  	// #80
    40200f7c:	d5033bbf 	dmb	ish
    40200f80:	d5033f9f 	dsb	sy
    40200f84:	79610808 	ldrh	w8, [x0, #4228]
    40200f88:	72a14009 	movk	w9, #0xa00, lsl #16
    40200f8c:	b9000128 	str	w8, [x9]
    40200f90:	79611008 	ldrh	w8, [x0, #4232]
    40200f94:	11000508 	add	w8, w8, #0x1
    40200f98:	79211008 	strh	w8, [x0, #4232]
    40200f9c:	d65f03c0 	ret

0000000040200fa0 <virtq_is_busy>:
    40200fa0:	79611008 	ldrh	w8, [x0, #4232]
    40200fa4:	79610809 	ldrh	w9, [x0, #4228]
    40200fa8:	6b09011f 	cmp	w8, w9
    40200fac:	1a9f07e0 	cset	w0, ne	// ne = any
    40200fb0:	d65f03c0 	ret

0000000040200fb4 <read_write_disk>:
    40200fb4:	a9bc7bfd 	stp	x29, x30, [sp, #-64]!
    40200fb8:	a9015ff8 	stp	x24, x23, [sp, #16]
    40200fbc:	a90257f6 	stp	x22, x21, [sp, #32]
    40200fc0:	a9034ff4 	stp	x20, x19, [sp, #48]
    40200fc4:	910003fd 	mov	x29, sp
    40200fc8:	2a0103f5 	mov	w21, w1
    40200fcc:	7100005f 	cmp	w2, #0x0
    40200fd0:	d0000008 	adrp	x8, 40202000 <_vector_table>
    40200fd4:	91246908 	add	x8, x8, #0x91a
    40200fd8:	d0000009 	adrp	x9, 40202000 <_vector_table>
    40200fdc:	91209129 	add	x9, x9, #0x824
    40200fe0:	2a0203f4 	mov	w20, w2
    40200fe4:	aa0003f3 	mov	x19, x0
    40200fe8:	9a881121 	csel	x1, x9, x8, ne	// ne = any
    40200fec:	d0000000 	adrp	x0, 40202000 <_vector_table>
    40200ff0:	91202800 	add	x0, x0, #0x80a
    40200ff4:	2a1503e2 	mov	w2, w21
    40200ff8:	1a9f07f7 	cset	w23, ne	// ne = any
    40200ffc:	9400010e 	bl	40201434 <printf>
    40201000:	d0008118 	adrp	x24, 41223000 <procs+0xf3e0>
    40201004:	d0008109 	adrp	x9, 41223000 <procs+0xf3e0>
    40201008:	f946a308 	ldr	x8, [x24, #3392]
    4020100c:	f9469536 	ldr	x22, [x9, #3368]
    40201010:	2a1503e9 	mov	w9, w21
    40201014:	29007d17 	stp	w23, wzr, [x8]
    40201018:	79610ed7 	ldrh	w23, [x22, #4230]
    4020101c:	f9000509 	str	x9, [x8, #8]
    40201020:	52801fe9 	mov	w9, #0xff                  	// #255
    40201024:	39084109 	strb	w9, [x8, #528]
    40201028:	340000f4 	cbz	w20, 40201044 <read_write_disk+0x90>
    4020102c:	91004100 	add	x0, x8, #0x10
    40201030:	aa1303e1 	mov	x1, x19
    40201034:	52804002 	mov	w2, #0x200                 	// #512
    40201038:	9400008f 	bl	40201274 <memcpy>
    4020103c:	52800028 	mov	w8, #0x1                   	// #1
    40201040:	14000002 	b	40201048 <read_write_disk+0x94>
    40201044:	52800068 	mov	w8, #0x3                   	// #3
    40201048:	8b1712c9 	add	x9, x22, x23, lsl #4
    4020104c:	d000810a 	adrp	x10, 41223000 <procs+0xf3e0>
    40201050:	5280020b 	mov	w11, #0x10                  	// #16
    40201054:	5280002c 	mov	w12, #0x1                   	// #1
    40201058:	910006ed 	add	x13, x23, #0x1
    4020105c:	b0000000 	adrp	x0, 40202000 <_vector_table>
    40201060:	9120a800 	add	x0, x0, #0x82a
    40201064:	b900092b 	str	w11, [x9, #8]
    40201068:	f9469d4b 	ldr	x11, [x10, #3384]
    4020106c:	7900192c 	strh	w12, [x9, #12]
    40201070:	12000dac 	and	w12, w13, #0xf
    40201074:	79001d2c 	strh	w12, [x9, #14]
    40201078:	8b0d12cc 	add	x12, x22, x13, lsl #4
    4020107c:	f900012b 	str	x11, [x9]
    40201080:	91004169 	add	x9, x11, #0x10
    40201084:	5280400b 	mov	w11, #0x200                 	// #512
    40201088:	f9000189 	str	x9, [x12]
    4020108c:	91000ae9 	add	x9, x23, #0x2
    40201090:	f9469d4a 	ldr	x10, [x10, #3384]
    40201094:	b900098b 	str	w11, [x12, #8]
    40201098:	12000d2b 	and	w11, w9, #0xf
    4020109c:	8b0912c9 	add	x9, x22, x9, lsl #4
    402010a0:	79001988 	strh	w8, [x12, #12]
    402010a4:	91084148 	add	x8, x10, #0x210
    402010a8:	d280002a 	mov	x10, #0x1                   	// #1
    402010ac:	79001d8b 	strh	w11, [x12, #14]
    402010b0:	f2c0004a 	movk	x10, #0x2, lsl #32
    402010b4:	a9002928 	stp	x8, x10, [x9]
    402010b8:	52800a0a 	mov	w10, #0x50                  	// #80
    402010bc:	d5033bbf 	dmb	ish
    402010c0:	d5033f9f 	dsb	sy
    402010c4:	794206c8 	ldrh	w8, [x22, #258]
    402010c8:	72a1400a 	movk	w10, #0xa00, lsl #16
    402010cc:	92400d08 	and	x8, x8, #0xf
    402010d0:	8b0806c8 	add	x8, x22, x8, lsl #1
    402010d4:	79020917 	strh	w23, [x8, #260]
    402010d8:	d5033bbf 	dmb	ish
    402010dc:	d5033f9f 	dsb	sy
    402010e0:	794206c8 	ldrh	w8, [x22, #258]
    402010e4:	79610ac9 	ldrh	w9, [x22, #4228]
    402010e8:	796006d5 	ldrh	w21, [x22, #4098]
    402010ec:	11000508 	add	w8, w8, #0x1
    402010f0:	790206c8 	strh	w8, [x22, #258]
    402010f4:	2a1503e1 	mov	w1, w21
    402010f8:	b9000149 	str	w9, [x10]
    402010fc:	d5033bbf 	dmb	ish
    40201100:	d5033f9f 	dsb	sy
    40201104:	940000cc 	bl	40201434 <printf>
    40201108:	796006c8 	ldrh	w8, [x22, #4098]
    4020110c:	6b15011f 	cmp	w8, w21
    40201110:	540000a1 	b.ne	40201124 <read_write_disk+0x170>  // b.any
    40201114:	796006c8 	ldrh	w8, [x22, #4098]
    40201118:	6b15011f 	cmp	w8, w21
    4020111c:	d503201f 	nop
    40201120:	54ffffc0 	b.eq	40201118 <read_write_disk+0x164>  // b.none
    40201124:	f946a308 	ldr	x8, [x24, #3392]
    40201128:	39484101 	ldrb	w1, [x8, #528]
    4020112c:	34000101 	cbz	w1, 4020114c <read_write_disk+0x198>
    40201130:	a9434ff4 	ldp	x20, x19, [sp, #48]
    40201134:	b0000000 	adrp	x0, 40202000 <_vector_table>
    40201138:	911e6400 	add	x0, x0, #0x799
    4020113c:	a94257f6 	ldp	x22, x21, [sp, #32]
    40201140:	a9415ff8 	ldp	x24, x23, [sp, #16]
    40201144:	a8c47bfd 	ldp	x29, x30, [sp], #64
    40201148:	140000bb 	b	40201434 <printf>
    4020114c:	35000134 	cbnz	w20, 40201170 <read_write_disk+0x1bc>
    40201150:	91004101 	add	x1, x8, #0x10
    40201154:	aa1303e0 	mov	x0, x19
    40201158:	52804002 	mov	w2, #0x200                 	// #512
    4020115c:	94000046 	bl	40201274 <memcpy>
    40201160:	b0000000 	adrp	x0, 40202000 <_vector_table>
    40201164:	91214c00 	add	x0, x0, #0x853
    40201168:	aa1303e1 	mov	x1, x19
    4020116c:	940000b2 	bl	40201434 <printf>
    40201170:	11000ee8 	add	w8, w23, #0x3
    40201174:	a9434ff4 	ldp	x20, x19, [sp, #48]
    40201178:	12000d08 	and	w8, w8, #0xf
    4020117c:	a9415ff8 	ldp	x24, x23, [sp, #16]
    40201180:	79210ec8 	strh	w8, [x22, #4230]
    40201184:	a94257f6 	ldp	x22, x21, [sp, #32]
    40201188:	a8c47bfd 	ldp	x29, x30, [sp], #64
    4020118c:	d65f03c0 	ret

0000000040201190 <kernel_main>:
    40201190:	a9be7bfd 	stp	x29, x30, [sp, #-32]!
    40201194:	f9000bfc 	str	x28, [sp, #16]
    40201198:	910003fd 	mov	x29, sp
    4020119c:	d10803ff 	sub	sp, sp, #0x200
    402011a0:	d0008080 	adrp	x0, 41213000 <_binary_shell_bin_start+0x10103f8>
    402011a4:	91304000 	add	x0, x0, #0xc10
    402011a8:	d0008108 	adrp	x8, 41223000 <procs+0xf3e0>
    402011ac:	91356108 	add	x8, x8, #0xd58
    402011b0:	2a1f03e1 	mov	w1, wzr
    402011b4:	4b000102 	sub	w2, w8, w0
    402011b8:	94000061 	bl	4020133c <memset>
    402011bc:	d5384248 	mrs	x8, currentel
    402011c0:	d342fd01 	lsr	x1, x8, #2
    402011c4:	f100043f 	cmp	x1, #0x1
    402011c8:	54000201 	b.ne	40201208 <kernel_main+0x78>  // b.any
    402011cc:	5286a208 	mov	w8, #0x3510                	// #13584
    402011d0:	52801fe9 	mov	w9, #0xff                  	// #255
    402011d4:	d518a209 	msr	mair_el1, x9
    402011d8:	d5182048 	msr	tcr_el1, x8
    402011dc:	d5033fdf 	isb
    402011e0:	97fffba9 	bl	40200084 <setup_vect>
    402011e4:	d5381008 	mrs	x8, sctlr_el1
    402011e8:	528201a9 	mov	w9, #0x100d                	// #4109
    402011ec:	b0000000 	adrp	x0, 40202000 <_vector_table>
    402011f0:	91250c00 	add	x0, x0, #0x943
    402011f4:	aa090108 	orr	x8, x8, x9
    402011f8:	d5181008 	msr	sctlr_el1, x8
    402011fc:	d5033fdf 	isb
    40201200:	9400008d 	bl	40201434 <printf>
    40201204:	14000004 	b	40201214 <kernel_main+0x84>
    40201208:	d503201f 	nop
    4020120c:	7000bca0 	adr	x0, 402029a3 <_vector_table+0x9a3>
    40201210:	94000089 	bl	40201434 <printf>
    40201214:	97fffef6 	bl	40200dec <virtio_blk_init>
    40201218:	910003e0 	mov	x0, sp
    4020121c:	2a1f03e1 	mov	w1, wzr
    40201220:	2a1f03e2 	mov	w2, wzr
    40201224:	97ffff64 	bl	40200fb4 <read_write_disk>
    40201228:	b0000000 	adrp	x0, 40202000 <_vector_table>
    4020122c:	91281c00 	add	x0, x0, #0xa07
    40201230:	910003e1 	mov	x1, sp
    40201234:	94000080 	bl	40201434 <printf>
    40201238:	b0000001 	adrp	x1, 40202000 <_vector_table>
    4020123c:	912be821 	add	x1, x1, #0xafa
    40201240:	910003e0 	mov	x0, sp
    40201244:	94000066 	bl	402013dc <strcpy>
    40201248:	910003e0 	mov	x0, sp
    4020124c:	2a1f03e1 	mov	w1, wzr
    40201250:	52800022 	mov	w2, #0x1                   	// #1
    40201254:	97ffff58 	bl	40200fb4 <read_write_disk>
    40201258:	b0000000 	adrp	x0, 40202000 <_vector_table>
    4020125c:	911f7c00 	add	x0, x0, #0x7df
    40201260:	b0000001 	adrp	x1, 40202000 <_vector_table>
    40201264:	911e4021 	add	x1, x1, #0x790
    40201268:	528067e2 	mov	w2, #0x33f                 	// #831
    4020126c:	94000072 	bl	40201434 <printf>
    40201270:	14000000 	b	40201270 <kernel_main+0xe0>

0000000040201274 <memcpy>:
    40201274:	34000622 	cbz	w2, 40201338 <memcpy+0xc4>
    40201278:	7100205f 	cmp	w2, #0x8
    4020127c:	54000123 	b.cc	402012a0 <memcpy+0x2c>  // b.lo, b.ul, b.last
    40201280:	cb010008 	sub	x8, x0, x1
    40201284:	f100811f 	cmp	x8, #0x20
    40201288:	540000c3 	b.cc	402012a0 <memcpy+0x2c>  // b.lo, b.ul, b.last
    4020128c:	7100805f 	cmp	w2, #0x20
    40201290:	2a0203e8 	mov	w8, w2
    40201294:	540000c2 	b.cs	402012ac <memcpy+0x38>  // b.hs, b.nlast
    40201298:	aa1f03eb 	mov	x11, xzr
    4020129c:	14000012 	b	402012e4 <memcpy+0x70>
    402012a0:	aa0103e9 	mov	x9, x1
    402012a4:	aa0003ea 	mov	x10, x0
    402012a8:	14000020 	b	40201328 <memcpy+0xb4>
    402012ac:	927b690b 	and	x11, x8, #0xffffffe0
    402012b0:	91004009 	add	x9, x0, #0x10
    402012b4:	9100402a 	add	x10, x1, #0x10
    402012b8:	aa0b03ec 	mov	x12, x11
    402012bc:	ad7f8540 	ldp	q0, q1, [x10, #-16]
    402012c0:	f100818c 	subs	x12, x12, #0x20
    402012c4:	9100814a 	add	x10, x10, #0x20
    402012c8:	ad3f8520 	stp	q0, q1, [x9, #-16]
    402012cc:	91008129 	add	x9, x9, #0x20
    402012d0:	54ffff61 	b.ne	402012bc <memcpy+0x48>  // b.any
    402012d4:	eb08017f 	cmp	x11, x8
    402012d8:	54000300 	b.eq	40201338 <memcpy+0xc4>  // b.none
    402012dc:	f27d051f 	tst	x8, #0x18
    402012e0:	540001e0 	b.eq	4020131c <memcpy+0xa8>  // b.none
    402012e4:	927d710c 	and	x12, x8, #0xfffffff8
    402012e8:	8b0b000d 	add	x13, x0, x11
    402012ec:	8b0b002e 	add	x14, x1, x11
    402012f0:	8b0c0029 	add	x9, x1, x12
    402012f4:	8b0c000a 	add	x10, x0, x12
    402012f8:	4b0c0042 	sub	w2, w2, w12
    402012fc:	cb0c016b 	sub	x11, x11, x12
    40201300:	fc4085c0 	ldr	d0, [x14], #8
    40201304:	b100216b 	adds	x11, x11, #0x8
    40201308:	fc0085a0 	str	d0, [x13], #8
    4020130c:	54ffffa1 	b.ne	40201300 <memcpy+0x8c>  // b.any
    40201310:	eb08019f 	cmp	x12, x8
    40201314:	540000a1 	b.ne	40201328 <memcpy+0xb4>  // b.any
    40201318:	14000008 	b	40201338 <memcpy+0xc4>
    4020131c:	4b0b0042 	sub	w2, w2, w11
    40201320:	8b0b000a 	add	x10, x0, x11
    40201324:	8b0b0029 	add	x9, x1, x11
    40201328:	38401528 	ldrb	w8, [x9], #1
    4020132c:	71000442 	subs	w2, w2, #0x1
    40201330:	38001548 	strb	w8, [x10], #1
    40201334:	54ffffa1 	b.ne	40201328 <memcpy+0xb4>  // b.any
    40201338:	d65f03c0 	ret

000000004020133c <memset>:
    4020133c:	340004e2 	cbz	w2, 402013d8 <memset+0x9c>
    40201340:	7100205f 	cmp	w2, #0x8
    40201344:	54000062 	b.cs	40201350 <memset+0x14>  // b.hs, b.nlast
    40201348:	aa0003e9 	mov	x9, x0
    4020134c:	14000020 	b	402013cc <memset+0x90>
    40201350:	7100805f 	cmp	w2, #0x20
    40201354:	2a0203e8 	mov	w8, w2
    40201358:	54000062 	b.cs	40201364 <memset+0x28>  // b.hs, b.nlast
    4020135c:	aa1f03ea 	mov	x10, xzr
    40201360:	1400000d 	b	40201394 <memset+0x58>
    40201364:	4e010c20 	dup	v0.16b, w1
    40201368:	927b690a 	and	x10, x8, #0xffffffe0
    4020136c:	91004009 	add	x9, x0, #0x10
    40201370:	aa0a03eb 	mov	x11, x10
    40201374:	ad3f8120 	stp	q0, q0, [x9, #-16]
    40201378:	f100816b 	subs	x11, x11, #0x20
    4020137c:	91008129 	add	x9, x9, #0x20
    40201380:	54ffffa1 	b.ne	40201374 <memset+0x38>  // b.any
    40201384:	eb08015f 	cmp	x10, x8
    40201388:	54000280 	b.eq	402013d8 <memset+0x9c>  // b.none
    4020138c:	f27d051f 	tst	x8, #0x18
    40201390:	540001a0 	b.eq	402013c4 <memset+0x88>  // b.none
    40201394:	0e010c20 	dup	v0.8b, w1
    40201398:	927d710b 	and	x11, x8, #0xfffffff8
    4020139c:	8b0a000c 	add	x12, x0, x10
    402013a0:	8b0b0009 	add	x9, x0, x11
    402013a4:	4b0b0042 	sub	w2, w2, w11
    402013a8:	cb0b014a 	sub	x10, x10, x11
    402013ac:	b100214a 	adds	x10, x10, #0x8
    402013b0:	fc008580 	str	d0, [x12], #8
    402013b4:	54ffffc1 	b.ne	402013ac <memset+0x70>  // b.any
    402013b8:	eb08017f 	cmp	x11, x8
    402013bc:	54000081 	b.ne	402013cc <memset+0x90>  // b.any
    402013c0:	14000006 	b	402013d8 <memset+0x9c>
    402013c4:	4b0a0042 	sub	w2, w2, w10
    402013c8:	8b0a0009 	add	x9, x0, x10
    402013cc:	71000442 	subs	w2, w2, #0x1
    402013d0:	38001521 	strb	w1, [x9], #1
    402013d4:	54ffffc1 	b.ne	402013cc <memset+0x90>  // b.any
    402013d8:	d65f03c0 	ret

00000000402013dc <strcpy>:
    402013dc:	39400028 	ldrb	w8, [x1]
    402013e0:	aa0003e9 	mov	x9, x0
    402013e4:	340000c8 	cbz	w8, 402013fc <strcpy+0x20>
    402013e8:	9100042a 	add	x10, x1, #0x1
    402013ec:	aa0003e9 	mov	x9, x0
    402013f0:	38001528 	strb	w8, [x9], #1
    402013f4:	38401548 	ldrb	w8, [x10], #1
    402013f8:	35ffffc8 	cbnz	w8, 402013f0 <strcpy+0x14>
    402013fc:	3900013f 	strb	wzr, [x9]
    40201400:	d65f03c0 	ret

0000000040201404 <strcmp>:
    40201404:	39400008 	ldrb	w8, [x0]
    40201408:	34000108 	cbz	w8, 40201428 <strcmp+0x24>
    4020140c:	91000409 	add	x9, x0, #0x1
    40201410:	3940002a 	ldrb	w10, [x1]
    40201414:	6b0a011f 	cmp	w8, w10
    40201418:	54000081 	b.ne	40201428 <strcmp+0x24>  // b.any
    4020141c:	38401528 	ldrb	w8, [x9], #1
    40201420:	91000421 	add	x1, x1, #0x1
    40201424:	35ffff68 	cbnz	w8, 40201410 <strcmp+0xc>
    40201428:	39400029 	ldrb	w9, [x1]
    4020142c:	4b090100 	sub	w0, w8, w9
    40201430:	d65f03c0 	ret

0000000040201434 <printf>:
    40201434:	d104c3ff 	sub	sp, sp, #0x130
    40201438:	a90e7bfd 	stp	x29, x30, [sp, #224]
    4020143c:	f9007bfc 	str	x28, [sp, #240]
    40201440:	a9105ff8 	stp	x24, x23, [sp, #256]
    40201444:	a91157f6 	stp	x22, x21, [sp, #272]
    40201448:	a9124ff4 	stp	x20, x19, [sp, #288]
    4020144c:	910383fd 	add	x29, sp, #0xe0
    40201450:	928006e8 	mov	x8, #0xffffffffffffffc8    	// #-56
    40201454:	910003e9 	mov	x9, sp
    40201458:	d10163aa 	sub	x10, x29, #0x58
    4020145c:	f2dff008 	movk	x8, #0xff80, lsl #32
    40201460:	91020129 	add	x9, x9, #0x80
    40201464:	529999b4 	mov	w20, #0xcccd                	// #52429
    40201468:	aa0003f3 	mov	x19, x0
    4020146c:	a93f23a9 	stp	x9, x8, [x29, #-16]
    40201470:	9100e148 	add	x8, x10, #0x38
    40201474:	910143a9 	add	x9, x29, #0x50
    40201478:	72b99994 	movk	w20, #0xcccc, lsl #16
    4020147c:	d503201f 	nop
    40201480:	1000b495 	adr	x21, 40202b10 <_vector_table+0xb10>
    40201484:	a93a8ba1 	stp	x1, x2, [x29, #-88]
    40201488:	a93b93a3 	stp	x3, x4, [x29, #-72]
    4020148c:	a93c9ba5 	stp	x5, x6, [x29, #-56]
    40201490:	f81d83a7 	stur	x7, [x29, #-40]
    40201494:	ad0007e0 	stp	q0, q1, [sp]
    40201498:	ad010fe2 	stp	q2, q3, [sp, #32]
    4020149c:	ad0217e4 	stp	q4, q5, [sp, #64]
    402014a0:	ad031fe6 	stp	q6, q7, [sp, #96]
    402014a4:	a93e23a9 	stp	x9, x8, [x29, #-32]
    402014a8:	14000003 	b	402014b4 <printf+0x80>
    402014ac:	34000d40 	cbz	w0, 40201654 <printf+0x220>
    402014b0:	91000673 	add	x19, x19, #0x1
    402014b4:	39400260 	ldrb	w0, [x19]
    402014b8:	7100941f 	cmp	w0, #0x25
    402014bc:	540000a0 	b.eq	402014d0 <printf+0x9c>  // b.none
    402014c0:	34000ce0 	cbz	w0, 4020165c <printf+0x228>
    402014c4:	97fffadc 	bl	40200034 <putchar>
    402014c8:	91000673 	add	x19, x19, #0x1
    402014cc:	17fffffa 	b	402014b4 <printf+0x80>
    402014d0:	38401e60 	ldrb	w0, [x19, #1]!
    402014d4:	7101c81f 	cmp	w0, #0x72
    402014d8:	5400020c 	b.gt	40201518 <printf+0xe4>
    402014dc:	7100941f 	cmp	w0, #0x25
    402014e0:	54ffff20 	b.eq	402014c4 <printf+0x90>  // b.none
    402014e4:	7101901f 	cmp	w0, #0x64
    402014e8:	54fffe21 	b.ne	402014ac <printf+0x78>  // b.any
    402014ec:	b89f83a8 	ldursw	x8, [x29, #-8]
    402014f0:	36f80408 	tbz	w8, #31, 40201570 <printf+0x13c>
    402014f4:	11002109 	add	w9, w8, #0x8
    402014f8:	3100211f 	cmn	w8, #0x8
    402014fc:	b81f83a9 	stur	w9, [x29, #-8]
    40201500:	54000388 	b.hi	40201570 <printf+0x13c>  // b.pmore
    40201504:	f85e83a9 	ldur	x9, [x29, #-24]
    40201508:	8b080128 	add	x8, x9, x8
    4020150c:	b9400116 	ldr	w22, [x8]
    40201510:	36f80416 	tbz	w22, #31, 40201590 <printf+0x15c>
    40201514:	1400001c 	b	40201584 <printf+0x150>
    40201518:	7101cc1f 	cmp	w0, #0x73
    4020151c:	54000180 	b.eq	4020154c <printf+0x118>  // b.none
    40201520:	7101e01f 	cmp	w0, #0x78
    40201524:	54fffc61 	b.ne	402014b0 <printf+0x7c>  // b.any
    40201528:	b89f83a8 	ldursw	x8, [x29, #-8]
    4020152c:	36f806c8 	tbz	w8, #31, 40201604 <printf+0x1d0>
    40201530:	11002109 	add	w9, w8, #0x8
    40201534:	3100211f 	cmn	w8, #0x8
    40201538:	b81f83a9 	stur	w9, [x29, #-8]
    4020153c:	54000648 	b.hi	40201604 <printf+0x1d0>  // b.pmore
    40201540:	f85e83a9 	ldur	x9, [x29, #-24]
    40201544:	8b080129 	add	x9, x9, x8
    40201548:	14000032 	b	40201610 <printf+0x1dc>
    4020154c:	b89f83a8 	ldursw	x8, [x29, #-8]
    40201550:	36f80448 	tbz	w8, #31, 402015d8 <printf+0x1a4>
    40201554:	11002109 	add	w9, w8, #0x8
    40201558:	3100211f 	cmn	w8, #0x8
    4020155c:	b81f83a9 	stur	w9, [x29, #-8]
    40201560:	540003c8 	b.hi	402015d8 <printf+0x1a4>  // b.pmore
    40201564:	f85e83a9 	ldur	x9, [x29, #-24]
    40201568:	8b080128 	add	x8, x9, x8
    4020156c:	1400001e 	b	402015e4 <printf+0x1b0>
    40201570:	f85e03a8 	ldur	x8, [x29, #-32]
    40201574:	91002109 	add	x9, x8, #0x8
    40201578:	f81e03a9 	stur	x9, [x29, #-32]
    4020157c:	b9400116 	ldr	w22, [x8]
    40201580:	36f80096 	tbz	w22, #31, 40201590 <printf+0x15c>
    40201584:	528005a0 	mov	w0, #0x2d                  	// #45
    40201588:	97fffaab 	bl	40200034 <putchar>
    4020158c:	4b1603f6 	neg	w22, w22
    40201590:	52800037 	mov	w23, #0x1                   	// #1
    40201594:	71002adf 	cmp	w22, #0xa
    40201598:	540000c3 	b.cc	402015b0 <printf+0x17c>  // b.lo, b.ul, b.last
    4020159c:	0b170ae8 	add	w8, w23, w23, lsl #2
    402015a0:	531f7917 	lsl	w23, w8, #1
    402015a4:	1ad70ac8 	udiv	w8, w22, w23
    402015a8:	7100251f 	cmp	w8, #0x9
    402015ac:	54ffff88 	b.hi	4020159c <printf+0x168>  // b.pmore
    402015b0:	1ad70ad8 	udiv	w24, w22, w23
    402015b4:	1100c300 	add	w0, w24, #0x30
    402015b8:	97fffa9f 	bl	40200034 <putchar>
    402015bc:	9bb47ee8 	umull	x8, w23, w20
    402015c0:	71002aff 	cmp	w23, #0xa
    402015c4:	1b17db16 	msub	w22, w24, w23, w22
    402015c8:	d363fd08 	lsr	x8, x8, #35
    402015cc:	2a0803f7 	mov	w23, w8
    402015d0:	54ffff02 	b.cs	402015b0 <printf+0x17c>  // b.hs, b.nlast
    402015d4:	17ffffb7 	b	402014b0 <printf+0x7c>
    402015d8:	f85e03a8 	ldur	x8, [x29, #-32]
    402015dc:	91002109 	add	x9, x8, #0x8
    402015e0:	f81e03a9 	stur	x9, [x29, #-32]
    402015e4:	f9400108 	ldr	x8, [x8]
    402015e8:	39400100 	ldrb	w0, [x8]
    402015ec:	34fff620 	cbz	w0, 402014b0 <printf+0x7c>
    402015f0:	91000516 	add	x22, x8, #0x1
    402015f4:	97fffa90 	bl	40200034 <putchar>
    402015f8:	384016c0 	ldrb	w0, [x22], #1
    402015fc:	35ffffc0 	cbnz	w0, 402015f4 <printf+0x1c0>
    40201600:	17ffffac 	b	402014b0 <printf+0x7c>
    40201604:	f85e03a9 	ldur	x9, [x29, #-32]
    40201608:	91002128 	add	x8, x9, #0x8
    4020160c:	f81e03a8 	stur	x8, [x29, #-32]
    40201610:	f9400136 	ldr	x22, [x9]
    40201614:	2a1f03e8 	mov	w8, wzr
    40201618:	52800797 	mov	w23, #0x3c                  	// #60
    4020161c:	14000008 	b	4020163c <printf+0x208>
    40201620:	92400d28 	and	x8, x9, #0xf
    40201624:	38686aa0 	ldrb	w0, [x21, x8]
    40201628:	97fffa83 	bl	40200034 <putchar>
    4020162c:	52800028 	mov	w8, #0x1                   	// #1
    40201630:	d10012f7 	sub	x23, x23, #0x4
    40201634:	b10012ff 	cmn	x23, #0x4
    40201638:	54fff3c0 	b.eq	402014b0 <printf+0x7c>  // b.none
    4020163c:	9ad726c9 	lsr	x9, x22, x23
    40201640:	b4ffff17 	cbz	x23, 40201620 <printf+0x1ec>
    40201644:	12000d2a 	and	w10, w9, #0xf
    40201648:	2a080148 	orr	w8, w10, w8
    4020164c:	34ffff28 	cbz	w8, 40201630 <printf+0x1fc>
    40201650:	17fffff4 	b	40201620 <printf+0x1ec>
    40201654:	528004a0 	mov	w0, #0x25                  	// #37
    40201658:	97fffa77 	bl	40200034 <putchar>
    4020165c:	a9524ff4 	ldp	x20, x19, [sp, #288]
    40201660:	f9407bfc 	ldr	x28, [sp, #240]
    40201664:	a95157f6 	ldp	x22, x21, [sp, #272]
    40201668:	a9505ff8 	ldp	x24, x23, [sp, #256]
    4020166c:	a94e7bfd 	ldp	x29, x30, [sp, #224]
    40201670:	9104c3ff 	add	sp, sp, #0x130
    40201674:	d65f03c0 	ret

0000000040201678 <sync_el1_handler>:
    40201678:	d10443ff 	sub	sp, sp, #0x110
    4020167c:	a90007e0 	stp	x0, x1, [sp]
    40201680:	a9010fe2 	stp	x2, x3, [sp, #16]
    40201684:	a90217e4 	stp	x4, x5, [sp, #32]
    40201688:	a9031fe6 	stp	x6, x7, [sp, #48]
    4020168c:	a90427e8 	stp	x8, x9, [sp, #64]
    40201690:	a9052fea 	stp	x10, x11, [sp, #80]
    40201694:	a90637ec 	stp	x12, x13, [sp, #96]
    40201698:	a9073fee 	stp	x14, x15, [sp, #112]
    4020169c:	a90847f0 	stp	x16, x17, [sp, #128]
    402016a0:	a9094ff2 	stp	x18, x19, [sp, #144]
    402016a4:	a90a57f4 	stp	x20, x21, [sp, #160]
    402016a8:	a90b5ff6 	stp	x22, x23, [sp, #176]
    402016ac:	a90c67f8 	stp	x24, x25, [sp, #192]
    402016b0:	a90d6ffa 	stp	x26, x27, [sp, #208]
    402016b4:	a90e77fc 	stp	x28, x29, [sp, #224]
    402016b8:	f9007bfe 	str	x30, [sp, #240]
    402016bc:	d5384015 	mrs	x21, spsr_el1
    402016c0:	d5384036 	mrs	x22, elr_el1
    402016c4:	f9007ff5 	str	x21, [sp, #248]
    402016c8:	f90083f6 	str	x22, [sp, #256]
    402016cc:	910003e0 	mov	x0, sp
    402016d0:	97fffd35 	bl	40200ba4 <handle_trap>
    402016d4:	f94083f5 	ldr	x21, [sp, #256]
    402016d8:	f9407ff6 	ldr	x22, [sp, #248]
    402016dc:	d5184035 	msr	elr_el1, x21
    402016e0:	d5184016 	msr	spsr_el1, x22
    402016e4:	a94007e0 	ldp	x0, x1, [sp]
    402016e8:	a9410fe2 	ldp	x2, x3, [sp, #16]
    402016ec:	a94217e4 	ldp	x4, x5, [sp, #32]
    402016f0:	a9431fe6 	ldp	x6, x7, [sp, #48]
    402016f4:	a94427e8 	ldp	x8, x9, [sp, #64]
    402016f8:	a9452fea 	ldp	x10, x11, [sp, #80]
    402016fc:	a94637ec 	ldp	x12, x13, [sp, #96]
    40201700:	a9473fee 	ldp	x14, x15, [sp, #112]
    40201704:	a94847f0 	ldp	x16, x17, [sp, #128]
    40201708:	a9494ff2 	ldp	x18, x19, [sp, #144]
    4020170c:	a94a57f4 	ldp	x20, x21, [sp, #160]
    40201710:	a94b5ff6 	ldp	x22, x23, [sp, #176]
    40201714:	a94c67f8 	ldp	x24, x25, [sp, #192]
    40201718:	a94d6ffa 	ldp	x26, x27, [sp, #208]
    4020171c:	a94e77fc 	ldp	x28, x29, [sp, #224]
    40201720:	f9407bfe 	ldr	x30, [sp, #240]
    40201724:	910443ff 	add	sp, sp, #0x110
    40201728:	d69f03e0 	eret

000000004020172c <irq_el1_handler>:
    4020172c:	94000034 	bl	402017fc <handle_irq_el1>
    40201730:	14000000 	b	40201730 <irq_el1_handler+0x4>

0000000040201734 <fiq_el1_handler>:
    40201734:	94000033 	bl	40201800 <handle_fiq_el1>
    40201738:	14000000 	b	40201738 <fiq_el1_handler+0x4>

000000004020173c <serror_el1_handler>:
    4020173c:	94000032 	bl	40201804 <handle_serror_el1>
    40201740:	14000000 	b	40201740 <serror_el1_handler+0x4>

0000000040201744 <sync_el2_handler>:
    40201744:	94000031 	bl	40201808 <handle_sync_el2>
    40201748:	14000000 	b	40201748 <sync_el2_handler+0x4>

000000004020174c <irq_el2_handler>:
    4020174c:	94000030 	bl	4020180c <handle_irq_el2>
    40201750:	14000000 	b	40201750 <irq_el2_handler+0x4>

0000000040201754 <fiq_el2_handler>:
    40201754:	9400002f 	bl	40201810 <handle_fiq_el2>
    40201758:	14000000 	b	40201758 <fiq_el2_handler+0x4>

000000004020175c <serror_el2_handler>:
    4020175c:	9400002e 	bl	40201814 <handle_serror_el2>
    40201760:	14000000 	b	40201760 <serror_el2_handler+0x4>

0000000040201764 <handle_data_abort>:
    40201764:	a9bd7bfd 	stp	x29, x30, [sp, #-48]!
    40201768:	f9000bf5 	str	x21, [sp, #16]
    4020176c:	a9024ff4 	stp	x20, x19, [sp, #32]
    40201770:	910003fd 	mov	x29, sp
    40201774:	aa0003f3 	mov	x19, x0
    40201778:	d35a7c14 	ubfx	x20, x0, #26, #6
    4020177c:	d503201f 	nop
    40201780:	300095e0 	adr	x0, 40202a3d <_vector_table+0xa3d>
    40201784:	aa0103f5 	mov	x21, x1
    40201788:	97ffff2b 	bl	40201434 <printf>
    4020178c:	b0000000 	adrp	x0, 40202000 <_vector_table>
    40201790:	912b3000 	add	x0, x0, #0xacc
    40201794:	aa1303e1 	mov	x1, x19
    40201798:	97ffff27 	bl	40201434 <printf>
    4020179c:	b0000000 	adrp	x0, 40202000 <_vector_table>
    402017a0:	912c8400 	add	x0, x0, #0xb21
    402017a4:	aa1503e1 	mov	x1, x21
    402017a8:	97ffff23 	bl	40201434 <printf>
    402017ac:	b0000000 	adrp	x0, 40202000 <_vector_table>
    402017b0:	91218800 	add	x0, x0, #0x862
    402017b4:	aa1403e1 	mov	x1, x20
    402017b8:	97ffff1f 	bl	40201434 <printf>
    402017bc:	b0000000 	adrp	x0, 40202000 <_vector_table>
    402017c0:	912e9c00 	add	x0, x0, #0xba7
    402017c4:	92401661 	and	x1, x19, #0x3f
    402017c8:	97ffff1b 	bl	40201434 <printf>
    402017cc:	b0000000 	adrp	x0, 40202000 <_vector_table>
    402017d0:	9128c800 	add	x0, x0, #0xa32
    402017d4:	92406261 	and	x1, x19, #0x1ffffff
    402017d8:	97ffff17 	bl	40201434 <printf>
    402017dc:	b0000000 	adrp	x0, 40202000 <_vector_table>
    402017e0:	91247c00 	add	x0, x0, #0x91f
    402017e4:	b0000001 	adrp	x1, 40202000 <_vector_table>
    402017e8:	912cc021 	add	x1, x1, #0xb30
    402017ec:	528002a2 	mov	w2, #0x15                  	// #21
    402017f0:	97ffff11 	bl	40201434 <printf>
    402017f4:	14000000 	b	402017f4 <handle_data_abort+0x90>

00000000402017f8 <handle_sync_el1>:
    402017f8:	14000000 	b	402017f8 <handle_sync_el1>

00000000402017fc <handle_irq_el1>:
    402017fc:	14000000 	b	402017fc <handle_irq_el1>

0000000040201800 <handle_fiq_el1>:
    40201800:	14000000 	b	40201800 <handle_fiq_el1>

0000000040201804 <handle_serror_el1>:
    40201804:	14000000 	b	40201804 <handle_serror_el1>

0000000040201808 <handle_sync_el2>:
    40201808:	14000000 	b	40201808 <handle_sync_el2>

000000004020180c <handle_irq_el2>:
    4020180c:	14000000 	b	4020180c <handle_irq_el2>

0000000040201810 <handle_fiq_el2>:
    40201810:	14000000 	b	40201810 <handle_fiq_el2>

0000000040201814 <handle_serror_el2>:
    40201814:	14000000 	b	40201814 <handle_serror_el2>

Disassembly of section .vectors:

0000000040202000 <_vector_table>:
    40202000:	17fffd9e 	b	40201678 <sync_el1_handler>
    40202004:	d503201f 	nop
    40202008:	d503201f 	nop
    4020200c:	d503201f 	nop
    40202010:	d503201f 	nop
    40202014:	d503201f 	nop
    40202018:	d503201f 	nop
    4020201c:	d503201f 	nop
    40202020:	d503201f 	nop
    40202024:	d503201f 	nop
    40202028:	d503201f 	nop
    4020202c:	d503201f 	nop
    40202030:	d503201f 	nop
    40202034:	d503201f 	nop
    40202038:	d503201f 	nop
    4020203c:	d503201f 	nop
    40202040:	d503201f 	nop
    40202044:	d503201f 	nop
    40202048:	d503201f 	nop
    4020204c:	d503201f 	nop
    40202050:	d503201f 	nop
    40202054:	d503201f 	nop
    40202058:	d503201f 	nop
    4020205c:	d503201f 	nop
    40202060:	d503201f 	nop
    40202064:	d503201f 	nop
    40202068:	d503201f 	nop
    4020206c:	d503201f 	nop
    40202070:	d503201f 	nop
    40202074:	d503201f 	nop
    40202078:	d503201f 	nop
    4020207c:	d503201f 	nop
    40202080:	17fffdab 	b	4020172c <irq_el1_handler>
    40202084:	d503201f 	nop
    40202088:	d503201f 	nop
    4020208c:	d503201f 	nop
    40202090:	d503201f 	nop
    40202094:	d503201f 	nop
    40202098:	d503201f 	nop
    4020209c:	d503201f 	nop
    402020a0:	d503201f 	nop
    402020a4:	d503201f 	nop
    402020a8:	d503201f 	nop
    402020ac:	d503201f 	nop
    402020b0:	d503201f 	nop
    402020b4:	d503201f 	nop
    402020b8:	d503201f 	nop
    402020bc:	d503201f 	nop
    402020c0:	d503201f 	nop
    402020c4:	d503201f 	nop
    402020c8:	d503201f 	nop
    402020cc:	d503201f 	nop
    402020d0:	d503201f 	nop
    402020d4:	d503201f 	nop
    402020d8:	d503201f 	nop
    402020dc:	d503201f 	nop
    402020e0:	d503201f 	nop
    402020e4:	d503201f 	nop
    402020e8:	d503201f 	nop
    402020ec:	d503201f 	nop
    402020f0:	d503201f 	nop
    402020f4:	d503201f 	nop
    402020f8:	d503201f 	nop
    402020fc:	d503201f 	nop
    40202100:	17fffd8d 	b	40201734 <fiq_el1_handler>
    40202104:	d503201f 	nop
    40202108:	d503201f 	nop
    4020210c:	d503201f 	nop
    40202110:	d503201f 	nop
    40202114:	d503201f 	nop
    40202118:	d503201f 	nop
    4020211c:	d503201f 	nop
    40202120:	d503201f 	nop
    40202124:	d503201f 	nop
    40202128:	d503201f 	nop
    4020212c:	d503201f 	nop
    40202130:	d503201f 	nop
    40202134:	d503201f 	nop
    40202138:	d503201f 	nop
    4020213c:	d503201f 	nop
    40202140:	d503201f 	nop
    40202144:	d503201f 	nop
    40202148:	d503201f 	nop
    4020214c:	d503201f 	nop
    40202150:	d503201f 	nop
    40202154:	d503201f 	nop
    40202158:	d503201f 	nop
    4020215c:	d503201f 	nop
    40202160:	d503201f 	nop
    40202164:	d503201f 	nop
    40202168:	d503201f 	nop
    4020216c:	d503201f 	nop
    40202170:	d503201f 	nop
    40202174:	d503201f 	nop
    40202178:	d503201f 	nop
    4020217c:	d503201f 	nop
    40202180:	17fffd6f 	b	4020173c <serror_el1_handler>
    40202184:	d503201f 	nop
    40202188:	d503201f 	nop
    4020218c:	d503201f 	nop
    40202190:	d503201f 	nop
    40202194:	d503201f 	nop
    40202198:	d503201f 	nop
    4020219c:	d503201f 	nop
    402021a0:	d503201f 	nop
    402021a4:	d503201f 	nop
    402021a8:	d503201f 	nop
    402021ac:	d503201f 	nop
    402021b0:	d503201f 	nop
    402021b4:	d503201f 	nop
    402021b8:	d503201f 	nop
    402021bc:	d503201f 	nop
    402021c0:	d503201f 	nop
    402021c4:	d503201f 	nop
    402021c8:	d503201f 	nop
    402021cc:	d503201f 	nop
    402021d0:	d503201f 	nop
    402021d4:	d503201f 	nop
    402021d8:	d503201f 	nop
    402021dc:	d503201f 	nop
    402021e0:	d503201f 	nop
    402021e4:	d503201f 	nop
    402021e8:	d503201f 	nop
    402021ec:	d503201f 	nop
    402021f0:	d503201f 	nop
    402021f4:	d503201f 	nop
    402021f8:	d503201f 	nop
    402021fc:	d503201f 	nop
    40202200:	17fffd1e 	b	40201678 <sync_el1_handler>
    40202204:	d503201f 	nop
    40202208:	d503201f 	nop
    4020220c:	d503201f 	nop
    40202210:	d503201f 	nop
    40202214:	d503201f 	nop
    40202218:	d503201f 	nop
    4020221c:	d503201f 	nop
    40202220:	d503201f 	nop
    40202224:	d503201f 	nop
    40202228:	d503201f 	nop
    4020222c:	d503201f 	nop
    40202230:	d503201f 	nop
    40202234:	d503201f 	nop
    40202238:	d503201f 	nop
    4020223c:	d503201f 	nop
    40202240:	d503201f 	nop
    40202244:	d503201f 	nop
    40202248:	d503201f 	nop
    4020224c:	d503201f 	nop
    40202250:	d503201f 	nop
    40202254:	d503201f 	nop
    40202258:	d503201f 	nop
    4020225c:	d503201f 	nop
    40202260:	d503201f 	nop
    40202264:	d503201f 	nop
    40202268:	d503201f 	nop
    4020226c:	d503201f 	nop
    40202270:	d503201f 	nop
    40202274:	d503201f 	nop
    40202278:	d503201f 	nop
    4020227c:	d503201f 	nop
    40202280:	17fffd2b 	b	4020172c <irq_el1_handler>
    40202284:	d503201f 	nop
    40202288:	d503201f 	nop
    4020228c:	d503201f 	nop
    40202290:	d503201f 	nop
    40202294:	d503201f 	nop
    40202298:	d503201f 	nop
    4020229c:	d503201f 	nop
    402022a0:	d503201f 	nop
    402022a4:	d503201f 	nop
    402022a8:	d503201f 	nop
    402022ac:	d503201f 	nop
    402022b0:	d503201f 	nop
    402022b4:	d503201f 	nop
    402022b8:	d503201f 	nop
    402022bc:	d503201f 	nop
    402022c0:	d503201f 	nop
    402022c4:	d503201f 	nop
    402022c8:	d503201f 	nop
    402022cc:	d503201f 	nop
    402022d0:	d503201f 	nop
    402022d4:	d503201f 	nop
    402022d8:	d503201f 	nop
    402022dc:	d503201f 	nop
    402022e0:	d503201f 	nop
    402022e4:	d503201f 	nop
    402022e8:	d503201f 	nop
    402022ec:	d503201f 	nop
    402022f0:	d503201f 	nop
    402022f4:	d503201f 	nop
    402022f8:	d503201f 	nop
    402022fc:	d503201f 	nop
    40202300:	17fffd0d 	b	40201734 <fiq_el1_handler>
    40202304:	d503201f 	nop
    40202308:	d503201f 	nop
    4020230c:	d503201f 	nop
    40202310:	d503201f 	nop
    40202314:	d503201f 	nop
    40202318:	d503201f 	nop
    4020231c:	d503201f 	nop
    40202320:	d503201f 	nop
    40202324:	d503201f 	nop
    40202328:	d503201f 	nop
    4020232c:	d503201f 	nop
    40202330:	d503201f 	nop
    40202334:	d503201f 	nop
    40202338:	d503201f 	nop
    4020233c:	d503201f 	nop
    40202340:	d503201f 	nop
    40202344:	d503201f 	nop
    40202348:	d503201f 	nop
    4020234c:	d503201f 	nop
    40202350:	d503201f 	nop
    40202354:	d503201f 	nop
    40202358:	d503201f 	nop
    4020235c:	d503201f 	nop
    40202360:	d503201f 	nop
    40202364:	d503201f 	nop
    40202368:	d503201f 	nop
    4020236c:	d503201f 	nop
    40202370:	d503201f 	nop
    40202374:	d503201f 	nop
    40202378:	d503201f 	nop
    4020237c:	d503201f 	nop
    40202380:	17fffcef 	b	4020173c <serror_el1_handler>
    40202384:	d503201f 	nop
    40202388:	d503201f 	nop
    4020238c:	d503201f 	nop
    40202390:	d503201f 	nop
    40202394:	d503201f 	nop
    40202398:	d503201f 	nop
    4020239c:	d503201f 	nop
    402023a0:	d503201f 	nop
    402023a4:	d503201f 	nop
    402023a8:	d503201f 	nop
    402023ac:	d503201f 	nop
    402023b0:	d503201f 	nop
    402023b4:	d503201f 	nop
    402023b8:	d503201f 	nop
    402023bc:	d503201f 	nop
    402023c0:	d503201f 	nop
    402023c4:	d503201f 	nop
    402023c8:	d503201f 	nop
    402023cc:	d503201f 	nop
    402023d0:	d503201f 	nop
    402023d4:	d503201f 	nop
    402023d8:	d503201f 	nop
    402023dc:	d503201f 	nop
    402023e0:	d503201f 	nop
    402023e4:	d503201f 	nop
    402023e8:	d503201f 	nop
    402023ec:	d503201f 	nop
    402023f0:	d503201f 	nop
    402023f4:	d503201f 	nop
    402023f8:	d503201f 	nop
    402023fc:	d503201f 	nop
    40202400:	17fffc9e 	b	40201678 <sync_el1_handler>
    40202404:	d503201f 	nop
    40202408:	d503201f 	nop
    4020240c:	d503201f 	nop
    40202410:	d503201f 	nop
    40202414:	d503201f 	nop
    40202418:	d503201f 	nop
    4020241c:	d503201f 	nop
    40202420:	d503201f 	nop
    40202424:	d503201f 	nop
    40202428:	d503201f 	nop
    4020242c:	d503201f 	nop
    40202430:	d503201f 	nop
    40202434:	d503201f 	nop
    40202438:	d503201f 	nop
    4020243c:	d503201f 	nop
    40202440:	d503201f 	nop
    40202444:	d503201f 	nop
    40202448:	d503201f 	nop
    4020244c:	d503201f 	nop
    40202450:	d503201f 	nop
    40202454:	d503201f 	nop
    40202458:	d503201f 	nop
    4020245c:	d503201f 	nop
    40202460:	d503201f 	nop
    40202464:	d503201f 	nop
    40202468:	d503201f 	nop
    4020246c:	d503201f 	nop
    40202470:	d503201f 	nop
    40202474:	d503201f 	nop
    40202478:	d503201f 	nop
    4020247c:	d503201f 	nop
    40202480:	17fffcab 	b	4020172c <irq_el1_handler>
    40202484:	d503201f 	nop
    40202488:	d503201f 	nop
    4020248c:	d503201f 	nop
    40202490:	d503201f 	nop
    40202494:	d503201f 	nop
    40202498:	d503201f 	nop
    4020249c:	d503201f 	nop
    402024a0:	d503201f 	nop
    402024a4:	d503201f 	nop
    402024a8:	d503201f 	nop
    402024ac:	d503201f 	nop
    402024b0:	d503201f 	nop
    402024b4:	d503201f 	nop
    402024b8:	d503201f 	nop
    402024bc:	d503201f 	nop
    402024c0:	d503201f 	nop
    402024c4:	d503201f 	nop
    402024c8:	d503201f 	nop
    402024cc:	d503201f 	nop
    402024d0:	d503201f 	nop
    402024d4:	d503201f 	nop
    402024d8:	d503201f 	nop
    402024dc:	d503201f 	nop
    402024e0:	d503201f 	nop
    402024e4:	d503201f 	nop
    402024e8:	d503201f 	nop
    402024ec:	d503201f 	nop
    402024f0:	d503201f 	nop
    402024f4:	d503201f 	nop
    402024f8:	d503201f 	nop
    402024fc:	d503201f 	nop
    40202500:	17fffc8d 	b	40201734 <fiq_el1_handler>
    40202504:	d503201f 	nop
    40202508:	d503201f 	nop
    4020250c:	d503201f 	nop
    40202510:	d503201f 	nop
    40202514:	d503201f 	nop
    40202518:	d503201f 	nop
    4020251c:	d503201f 	nop
    40202520:	d503201f 	nop
    40202524:	d503201f 	nop
    40202528:	d503201f 	nop
    4020252c:	d503201f 	nop
    40202530:	d503201f 	nop
    40202534:	d503201f 	nop
    40202538:	d503201f 	nop
    4020253c:	d503201f 	nop
    40202540:	d503201f 	nop
    40202544:	d503201f 	nop
    40202548:	d503201f 	nop
    4020254c:	d503201f 	nop
    40202550:	d503201f 	nop
    40202554:	d503201f 	nop
    40202558:	d503201f 	nop
    4020255c:	d503201f 	nop
    40202560:	d503201f 	nop
    40202564:	d503201f 	nop
    40202568:	d503201f 	nop
    4020256c:	d503201f 	nop
    40202570:	d503201f 	nop
    40202574:	d503201f 	nop
    40202578:	d503201f 	nop
    4020257c:	d503201f 	nop
    40202580:	17fffc6f 	b	4020173c <serror_el1_handler>
    40202584:	d503201f 	nop
    40202588:	d503201f 	nop
    4020258c:	d503201f 	nop
    40202590:	d503201f 	nop
    40202594:	d503201f 	nop
    40202598:	d503201f 	nop
    4020259c:	d503201f 	nop
    402025a0:	d503201f 	nop
    402025a4:	d503201f 	nop
    402025a8:	d503201f 	nop
    402025ac:	d503201f 	nop
    402025b0:	d503201f 	nop
    402025b4:	d503201f 	nop
    402025b8:	d503201f 	nop
    402025bc:	d503201f 	nop
    402025c0:	d503201f 	nop
    402025c4:	d503201f 	nop
    402025c8:	d503201f 	nop
    402025cc:	d503201f 	nop
    402025d0:	d503201f 	nop
    402025d4:	d503201f 	nop
    402025d8:	d503201f 	nop
    402025dc:	d503201f 	nop
    402025e0:	d503201f 	nop
    402025e4:	d503201f 	nop
    402025e8:	d503201f 	nop
    402025ec:	d503201f 	nop
    402025f0:	d503201f 	nop
    402025f4:	d503201f 	nop
    402025f8:	d503201f 	nop
    402025fc:	d503201f 	nop
    40202600:	17fffc1e 	b	40201678 <sync_el1_handler>
    40202604:	d503201f 	nop
    40202608:	d503201f 	nop
    4020260c:	d503201f 	nop
    40202610:	d503201f 	nop
    40202614:	d503201f 	nop
    40202618:	d503201f 	nop
    4020261c:	d503201f 	nop
    40202620:	d503201f 	nop
    40202624:	d503201f 	nop
    40202628:	d503201f 	nop
    4020262c:	d503201f 	nop
    40202630:	d503201f 	nop
    40202634:	d503201f 	nop
    40202638:	d503201f 	nop
    4020263c:	d503201f 	nop
    40202640:	d503201f 	nop
    40202644:	d503201f 	nop
    40202648:	d503201f 	nop
    4020264c:	d503201f 	nop
    40202650:	d503201f 	nop
    40202654:	d503201f 	nop
    40202658:	d503201f 	nop
    4020265c:	d503201f 	nop
    40202660:	d503201f 	nop
    40202664:	d503201f 	nop
    40202668:	d503201f 	nop
    4020266c:	d503201f 	nop
    40202670:	d503201f 	nop
    40202674:	d503201f 	nop
    40202678:	d503201f 	nop
    4020267c:	d503201f 	nop
    40202680:	17fffc2b 	b	4020172c <irq_el1_handler>
    40202684:	d503201f 	nop
    40202688:	d503201f 	nop
    4020268c:	d503201f 	nop
    40202690:	d503201f 	nop
    40202694:	d503201f 	nop
    40202698:	d503201f 	nop
    4020269c:	d503201f 	nop
    402026a0:	d503201f 	nop
    402026a4:	d503201f 	nop
    402026a8:	d503201f 	nop
    402026ac:	d503201f 	nop
    402026b0:	d503201f 	nop
    402026b4:	d503201f 	nop
    402026b8:	d503201f 	nop
    402026bc:	d503201f 	nop
    402026c0:	d503201f 	nop
    402026c4:	d503201f 	nop
    402026c8:	d503201f 	nop
    402026cc:	d503201f 	nop
    402026d0:	d503201f 	nop
    402026d4:	d503201f 	nop
    402026d8:	d503201f 	nop
    402026dc:	d503201f 	nop
    402026e0:	d503201f 	nop
    402026e4:	d503201f 	nop
    402026e8:	d503201f 	nop
    402026ec:	d503201f 	nop
    402026f0:	d503201f 	nop
    402026f4:	d503201f 	nop
    402026f8:	d503201f 	nop
    402026fc:	d503201f 	nop
    40202700:	17fffc0d 	b	40201734 <fiq_el1_handler>
    40202704:	d503201f 	nop
    40202708:	d503201f 	nop
    4020270c:	d503201f 	nop
    40202710:	d503201f 	nop
    40202714:	d503201f 	nop
    40202718:	d503201f 	nop
    4020271c:	d503201f 	nop
    40202720:	d503201f 	nop
    40202724:	d503201f 	nop
    40202728:	d503201f 	nop
    4020272c:	d503201f 	nop
    40202730:	d503201f 	nop
    40202734:	d503201f 	nop
    40202738:	d503201f 	nop
    4020273c:	d503201f 	nop
    40202740:	d503201f 	nop
    40202744:	d503201f 	nop
    40202748:	d503201f 	nop
    4020274c:	d503201f 	nop
    40202750:	d503201f 	nop
    40202754:	d503201f 	nop
    40202758:	d503201f 	nop
    4020275c:	d503201f 	nop
    40202760:	d503201f 	nop
    40202764:	d503201f 	nop
    40202768:	d503201f 	nop
    4020276c:	d503201f 	nop
    40202770:	d503201f 	nop
    40202774:	d503201f 	nop
    40202778:	d503201f 	nop
    4020277c:	d503201f 	nop
    40202780:	17fffbef 	b	4020173c <serror_el1_handler>

Disassembly of section .rodata:

0000000040202790 <.rodata>:
    40202790:	6e72656b 	umax	v11.8h, v11.8h, v18.8h
    40202794:	632e6c65 	.inst	0x632e6c65 ; undefined
    40202798:	72697600 	.inst	0x72697600 ; undefined
    4020279c:	3a6f6974 	.inst	0x3a6f6974 ; undefined
    402027a0:	71657220 	subs	w0, w17, #0x95c, lsl #12
    402027a4:	74736575 	.inst	0x74736575 ; undefined
    402027a8:	69616620 	ldpsw	x0, x25, [x17, #-248]
    402027ac:	2064656c 	.inst	0x2064656c ; undefined
    402027b0:	68746977 	.inst	0x68746977 ; undefined
    402027b4:	61747320 	.inst	0x61747320 ; undefined
    402027b8:	20737574 	.inst	0x20737574 ; undefined
    402027bc:	000a6425 	.inst	0x000a6425 ; undefined
    402027c0:	494e4150 	.inst	0x494e4150 ; undefined
    402027c4:	25203a43 	.inst	0x25203a43 ; undefined
    402027c8:	64253a73 	.inst	0x64253a73 ; undefined
    402027cc:	6e75203a 	usubl2	v26.4s, v1.8h, v21.8h
    402027d0:	776f6e6b 	.inst	0x776f6e6b ; undefined
    402027d4:	7973206e 	ldrh	w14, [x3, #6544]
    402027d8:	6c616373 	ldnp	d19, d24, [x27, #-496]
    402027dc:	50000a6c 	adr	x12, 4020292a <_vector_table+0x92a>
    402027e0:	43494e41 	.inst	0x43494e41 ; undefined
    402027e4:	7325203a 	.inst	0x7325203a ; undefined
    402027e8:	3a64253a 	.inst	0x3a64253a ; undefined
    402027ec:	6f6f6220 	umlsl2	v0.4s, v17.8h, v15.h[2]
    402027f0:	0a646574 	bic	w20, w11, w4, lsr #25
    402027f4:	7473000a 	.inst	0x7473000a ; undefined
    402027f8:	69747261 	ldpsw	x1, x28, [x19, #-96]
    402027fc:	7020676e 	adr	x14, 402434eb <_binary_shell_bin_start+0x408e3>
    40202800:	65636f72 	fnmls	z18.h, p3/m, z27.h, z3.h
    40202804:	42207373 	.inst	0x42207373 ; undefined
    40202808:	7453000a 	.inst	0x7453000a ; undefined
    4020280c:	69747261 	ldpsw	x1, x28, [x19, #-96]
    40202810:	2520676e 	.inst	0x2520676e ; undefined
    40202814:	74612073 	.inst	0x74612073 ; undefined
    40202818:	63657320 	.inst	0x63657320 ; undefined
    4020281c:	20726f74 	.inst	0x20726f74 ; undefined
    40202820:	000a6425 	.inst	0x000a6425 ; undefined
    40202824:	74697277 	.inst	0x74697277 ; undefined
    40202828:	61570065 	.inst	0x61570065 ; undefined
    4020282c:	6e697469 	uabd	v9.8h, v3.8h, v9.8h
    40202830:	6f662067 	umlal2	v7.4s, v3.8h, v6.h[2]
    40202834:	6f632072 	umlal2	v18.4s, v3.8h, v3.h[2]
    40202838:	656c706d 	fnmls	z13.h, p4/m, z3.h, z12.h
    4020283c:	6e6f6974 	.inst	0x6e6f6974 ; undefined
    40202840:	73752820 	.inst	0x73752820 ; undefined
    40202844:	695f6465 	ldpsw	x5, x25, [x3, #248]
    40202848:	253d7864 	psel	p4, p14, p3.b[w13, 3]
    4020284c:	2e2e2964 	.inst	0x2e2e2964 ; undefined
    40202850:	52000a2e 	eor	w14, w17, #0x7
    40202854:	20646165 	.inst	0x20646165 ; undefined
    40202858:	61746164 	.inst	0x61746164 ; undefined
    4020285c:	7325203a 	.inst	0x7325203a ; undefined
    40202860:	4345000a 	.inst	0x4345000a ; undefined
    40202864:	7830203a 	ldeorh	w16, w26, [x1]
    40202868:	000a7825 	.inst	0x000a7825 ; undefined
    4020286c:	494e4150 	.inst	0x494e4150 ; undefined
    40202870:	25203a43 	.inst	0x25203a43 ; undefined
    40202874:	64253a73 	.inst	0x64253a73 ; undefined
    40202878:	6e75203a 	usubl2	v26.4s, v1.8h, v21.8h
    4020287c:	67696c61 	.inst	0x67696c61 ; undefined
    40202880:	2064656e 	.inst	0x2064656e ; undefined
    40202884:	64646170 	.inst	0x64646170 ; undefined
    40202888:	6c252072 	stnp	d18, d8, [x3, #-432]
    4020288c:	73000a78 	.inst	0x73000a78 ; undefined
    40202890:	74726174 	.inst	0x74726174 ; undefined
    40202894:	20676e69 	.inst	0x20676e69 ; undefined
    40202898:	636f7270 	.inst	0x636f7270 ; undefined
    4020289c:	20737365 	.inst	0x20737365 ; undefined
    402028a0:	76000a41 	.inst	0x76000a41 ; undefined
    402028a4:	69747269 	ldpsw	x9, x28, [x19, #-96]
    402028a8:	6c622d6f 	ldnp	d15, d11, [x11, #-480]
    402028ac:	63203a6b 	.inst	0x63203a6b ; undefined
    402028b0:	63617061 	.inst	0x63617061 ; undefined
    402028b4:	20797469 	.inst	0x20797469 ; undefined
    402028b8:	25207369 	.inst	0x25207369 ; undefined
    402028bc:	79622064 	ldrh	w4, [x3, #4368]
    402028c0:	0a736574 	bic	w20, w11, w19, lsr #25
    402028c4:	45202000 	.inst	0x45202000 ; undefined
    402028c8:	455f5253 	ssubwb	z19.h, z18.h, z31.b
    402028cc:	203a314c 	.inst	0x203a314c ; undefined
    402028d0:	78257830 	strh	w16, [x1, x5, lsl #1]
    402028d4:	43452820 	.inst	0x43452820 ; undefined
    402028d8:	7830203a 	ldeorh	w16, w26, [x1]
    402028dc:	202c7825 	.inst	0x202c7825 ; undefined
    402028e0:	3a535349 	ccmn	w26, w19, #0x9, pl	// pl = nfrst
    402028e4:	25783020 	whilewr	p0.h, x1, x24
    402028e8:	000a2978 	.inst	0x000a2978 ; undefined
    402028ec:	494e4150 	.inst	0x494e4150 ; undefined
    402028f0:	25203a43 	.inst	0x25203a43 ; undefined
    402028f4:	64253a73 	.inst	0x64253a73 ; undefined
    402028f8:	6146203a 	.inst	0x6146203a ; undefined
    402028fc:	64656c69 	.inst	0x64656c69 ; undefined
    40202900:	206f7420 	.inst	0x206f7420 ; undefined
    40202904:	74696e69 	.inst	0x74696e69 ; undefined
    40202908:	696c6169 	ldpsw	x9, x24, [x11, #-160]
    4020290c:	7620657a 	.inst	0x7620657a ; undefined
    40202910:	71747269 	subs	w9, w19, #0xd1c, lsl #12
    40202914:	65756575 	fnmls	z21.h, p1/m, z11.h, z21.h
    40202918:	6572000a 	fmla	z10.h, p0/m, z0.h, z18.h
    4020291c:	50006461 	adr	x1, 402035aa <_binary_shell_bin_start+0x9a2>
    40202920:	43494e41 	.inst	0x43494e41 ; undefined
    40202924:	7325203a 	.inst	0x7325203a ; undefined
    40202928:	3a64253a 	.inst	0x3a64253a ; undefined
    4020292c:	74614420 	.inst	0x74614420 ; undefined
    40202930:	62612061 	.inst	0x62612061 ; undefined
    40202934:	2074726f 	.inst	0x2074726f ; undefined
    40202938:	65637865 	fnmls	z5.h, p6/m, z3.h, z3.h
    4020293c:	6f697470 	uqshl	v16.2d, v3.2d, #41
    40202940:	45000a6e 	.inst	0x45000a6e ; undefined
    40202944:	70656378 	adr	x24, 402cd5b3 <_binary_shell_bin_start+0xca9ab>
    40202948:	6e6f6974 	.inst	0x6e6f6974 ; undefined
    4020294c:	6e616820 	fcvtxn2	v0.4s, v1.2d
    40202950:	6e696c64 	umin	v4.8h, v3.8h, v9.8h
    40202954:	6e692067 	usubl2	v7.4s, v3.8h, v9.8h
    40202958:	61697469 	.inst	0x61697469 ; undefined
    4020295c:	657a696c 	fnmls	z12.h, p2/m, z11.h, z26.h
    40202960:	50000a64 	adr	x4, 40202aae <_vector_table+0xaae>
    40202964:	43494e41 	.inst	0x43494e41 ; undefined
    40202968:	7325203a 	.inst	0x7325203a ; undefined
    4020296c:	3a64253a 	.inst	0x3a64253a ; undefined
    40202970:	74756f20 	.inst	0x74756f20 ; undefined
    40202974:	20666f20 	.inst	0x20666f20 ; undefined
    40202978:	6f6d656d 	sqshlu	v13.2d, v11.2d, #45
    4020297c:	000a7972 	.inst	0x000a7972 ; undefined
    40202980:	494e4150 	.inst	0x494e4150 ; undefined
    40202984:	25203a43 	.inst	0x25203a43 ; undefined
    40202988:	64253a73 	.inst	0x64253a73 ; undefined
    4020298c:	6e75203a 	usubl2	v26.4s, v1.8h, v21.8h
    40202990:	67696c61 	.inst	0x67696c61 ; undefined
    40202994:	2064656e 	.inst	0x2064656e ; undefined
    40202998:	64646176 	.inst	0x64646176 ; undefined
    4020299c:	6c252072 	stnp	d18, d8, [x3, #-432]
    402029a0:	57000a78 	.inst	0x57000a78 ; undefined
    402029a4:	696e7261 	ldpsw	x1, x28, [x19, #-144]
    402029a8:	203a676e 	.inst	0x203a676e ; undefined
    402029ac:	20746f4e 	.inst	0x20746f4e ; undefined
    402029b0:	45206e69 	.inst	0x45206e69 ; undefined
    402029b4:	2820314c 	stnp	w12, w12, [x10, #-256]
    402029b8:	72727543 	.inst	0x72727543 ; undefined
    402029bc:	20746e65 	.inst	0x20746e65 ; undefined
    402029c0:	203a4c45 	.inst	0x203a4c45 ; undefined
    402029c4:	0a296425 	bic	w5, w1, w9, lsl #25
    402029c8:	6b6e5500 	.inst	0x6b6e5500 ; undefined
    402029cc:	6e776f6e 	umin	v14.8h, v27.8h, v23.8h
    402029d0:	73797320 	.inst	0x73797320 ; undefined
    402029d4:	6c6c6163 	ldnp	d3, d24, [x11, #-320]
    402029d8:	6425203a 	fmul	z26.h, z1.h, z5.h[0]
    402029dc:	6976000a 	ldpsw	x10, x0, [x0, #-80]
    402029e0:	75717472 	.inst	0x75717472 ; undefined
    402029e4:	20657565 	.inst	0x20657565 ; undefined
    402029e8:	69206425 	stgp	x5, x25, [x1, #-1024]
    402029ec:	6974696e 	ldpsw	x14, x26, [x11, #-96]
    402029f0:	7a696c61 	.inst	0x7a696c61 ; undefined
    402029f4:	61206465 	.inst	0x61206465 ; undefined
    402029f8:	61702074 	.inst	0x61702074 ; undefined
    402029fc:	20726464 	.inst	0x20726464 ; undefined
    40202a00:	6c257830 	stnp	d16, d30, [x1, #-432]
    40202a04:	66000a78 	.inst	0x66000a78 ; undefined
    40202a08:	74737269 	.inst	0x74737269 ; undefined
    40202a0c:	63657320 	.inst	0x63657320 ; undefined
    40202a10:	3a726f74 	.inst	0x3a726f74 ; undefined
    40202a14:	0a732520 	bic	w0, w9, w19, lsr #9
    40202a18:	74614400 	.inst	0x74614400 ; undefined
    40202a1c:	6e492f61 	facge	v1.8h, v27.8h, v9.8h
    40202a20:	75727473 	.inst	0x75727473 ; undefined
    40202a24:	6f697463 	uqshl	v3.2d, v3.2d, #41
    40202a28:	6241206e 	.inst	0x6241206e ; undefined
    40202a2c:	3a74726f 	.inst	0x3a74726f ; undefined
    40202a30:	5349000a 	.inst	0x5349000a ; undefined
    40202a34:	30203a53 	adr	x19, 4024317d <_binary_shell_bin_start+0x40575>
    40202a38:	0a782578 	bic	w24, w11, w24, lsr #9
    40202a3c:	74614400 	.inst	0x74614400 ; undefined
    40202a40:	62412061 	.inst	0x62412061 ; undefined
    40202a44:	2074726f 	.inst	0x2074726f ; undefined
    40202a48:	65637845 	fnmls	z5.h, p6/m, z2.h, z3.h
    40202a4c:	6f697470 	uqshl	v16.2d, v3.2d, #41
    40202a50:	000a216e 	.inst	0x000a216e ; undefined
    40202a54:	6e72654b 	umax	v11.8h, v10.8h, v18.8h
    40202a58:	70206c65 	adr	x5, 402437e7 <_binary_shell_bin_start+0x40bdf>
    40202a5c:	73656761 	.inst	0x73656761 ; undefined
    40202a60:	70616d20 	adr	x0, 402c5807 <_binary_shell_bin_start+0xc2bff>
    40202a64:	0a646570 	bic	w16, w11, w4, lsr #25
    40202a68:	45202000 	.inst	0x45202000 ; undefined
    40202a6c:	455f524c 	ssubwb	z12.h, z18.h, z31.b
    40202a70:	203a314c 	.inst	0x203a314c ; undefined
    40202a74:	78257830 	strh	w16, [x1, x5, lsl #1]
    40202a78:	4150000a 	.inst	0x4150000a ; undefined
    40202a7c:	3a43494e 	ccmn	w10, #0x3, #0xe, mi	// mi = first
    40202a80:	3a732520 	.inst	0x3a732520 ; undefined
    40202a84:	203a6425 	.inst	0x203a6425 ; undefined
    40202a88:	65676150 	fnmls	z16.h, p0/m, z10.h, z7.h
    40202a8c:	62617420 	.inst	0x62617420 ; undefined
    40202a90:	6e20656c 	umax	v12.16b, v11.16b, v0.16b
    40202a94:	6120746f 	.inst	0x6120746f ; undefined
    40202a98:	6e67696c 	.inst	0x6e67696c ; undefined
    40202a9c:	000a6465 	.inst	0x000a6465 ; undefined
    40202aa0:	41462020 	.inst	0x41462020 ; undefined
    40202aa4:	4c455f52 	.inst	0x4c455f52 ; undefined
    40202aa8:	30203a31 	adr	x17, 402431ed <_binary_shell_bin_start+0x405e5>
    40202aac:	0a782578 	bic	w24, w11, w24, lsr #9
    40202ab0:	696e4900 	ldpsw	x0, x18, [x8, #-144]
    40202ab4:	6c616974 	ldnp	d20, d26, [x11, #-496]
    40202ab8:	6e697a69 	.inst	0x6e697a69 ; undefined
    40202abc:	69762067 	ldpsw	x7, x8, [x3, #-80]
    40202ac0:	75717472 	.inst	0x75717472 ; undefined
    40202ac4:	20657565 	.inst	0x20657565 ; undefined
    40202ac8:	000a6425 	.inst	0x000a6425 ; undefined
    40202acc:	5f525345 	.inst	0x5f525345 ; undefined
    40202ad0:	3a314c45 	.inst	0x3a314c45 ; undefined
    40202ad4:	25783020 	whilewr	p0.h, x1, x24
    40202ad8:	76000a78 	.inst	0x76000a78 ; undefined
    40202adc:	69747269 	ldpsw	x9, x28, [x19, #-96]
    40202ae0:	69203a6f 	stgp	x15, x14, [x19, #-1024]
    40202ae4:	6c61766e 	ldnp	d14, d29, [x19, #-496]
    40202ae8:	71206469 	subs	w9, w3, #0x819
    40202aec:	65756575 	fnmls	z21.h, p1/m, z11.h, z21.h
    40202af0:	7a697320 	.inst	0x7a697320 ; undefined
    40202af4:	64252065 	fmul	z5.h, z3.h, z5.h[0]
    40202af8:	6568000a 	fmla	z10.h, p0/m, z0.h, z8.h
    40202afc:	206f6c6c 	.inst	0x206f6c6c ; undefined
    40202b00:	6d6f7266 	ldp	d6, d28, [x19, #-272]
    40202b04:	72656b20 	.inst	0x72656b20 ; undefined
    40202b08:	216c656e 	.inst	0x216c656e ; undefined
    40202b0c:	000a2121 	.inst	0x000a2121 ; undefined
    40202b10:	33323130 	.inst	0x33323130 ; undefined
    40202b14:	37363534 	tbnz	w20, #6, 401ff1b8 <_binary_shell_bin_size+0x3f1ee1b8>
    40202b18:	62613938 	.inst	0x62613938 ; undefined
    40202b1c:	66656463 	.inst	0x66656463 ; undefined
    40202b20:	52414600 	.inst	0x52414600 ; undefined
    40202b24:	314c455f 	cmn	w10, #0x311, lsl #12
    40202b28:	7830203a 	ldeorh	w16, w26, [x1]
    40202b2c:	000a7825 	.inst	0x000a7825 ; undefined
    40202b30:	74636576 	.inst	0x74636576 ; undefined
    40202b34:	5000632e 	adr	x14, 4020379a <_binary_shell_bin_start+0xb92>
    40202b38:	43494e41 	.inst	0x43494e41 ; undefined
    40202b3c:	7325203a 	.inst	0x7325203a ; undefined
    40202b40:	3a64253a 	.inst	0x3a64253a ; undefined
    40202b44:	206f6e20 	.inst	0x206f6e20 ; undefined
    40202b48:	65657266 	fnmls	z6.h, p4/m, z19.h, z5.h
    40202b4c:	6f727020 	fcmla	v0.8h, v1.8h, v18.h[1], #270
    40202b50:	73736563 	.inst	0x73736563 ; undefined
    40202b54:	6f6c7320 	fcmla	v0.8h, v25.8h, v12.h[1], #270
    40202b58:	000a7374 	.inst	0x000a7374 ; undefined
    40202b5c:	78656e55 	.inst	0x78656e55 ; undefined
    40202b60:	74636570 	.inst	0x74636570 ; undefined
    40202b64:	74206465 	.inst	0x74206465 ; undefined
    40202b68:	3a706172 	.inst	0x3a706172 ; undefined
    40202b6c:	3d434520 	ldr	b0, [x9, #209]
    40202b70:	49207825 	.inst	0x49207825 ; undefined
    40202b74:	253d5353 	whilegt	{p2.b-p3.b}, x26, x29
    40202b78:	4c452078 	.inst	0x4c452078 ; undefined
    40202b7c:	78253d52 	.inst	0x78253d52 ; undefined
    40202b80:	614d000a 	.inst	0x614d000a ; undefined
    40202b84:	75712078 	.inst	0x75712078 ; undefined
    40202b88:	20657565 	.inst	0x20657565 ; undefined
    40202b8c:	657a6973 	fnmls	z19.h, p2/m, z11.h, z26.h
    40202b90:	6425203a 	fmul	z26.h, z1.h, z5.h[0]
    40202b94:	6d69000a 	ldp	d10, d0, [x0, #-368]
    40202b98:	5f656761 	.inst	0x5f656761 ; undefined
    40202b9c:	657a6973 	fnmls	z19.h, p2/m, z11.h, z26.h
    40202ba0:	25203d20 	.inst	0x25203d20 ; undefined
    40202ba4:	44000a78 	.inst	0x44000a78 ; undefined
    40202ba8:	3a435346 	ccmn	w26, w3, #0x6, pl	// pl = nfrst
    40202bac:	25783020 	whilewr	p0.h, x1, x24
    40202bb0:	49000a78 	.inst	0x49000a78 ; undefined
    40202bb4:	6974696e 	ldpsw	x14, x26, [x11, #-96]
    40202bb8:	7a696c61 	.inst	0x7a696c61 ; undefined
    40202bbc:	20676e69 	.inst	0x20676e69 ; undefined
    40202bc0:	74726976 	.inst	0x74726976 ; undefined
    40202bc4:	62206f69 	.inst	0x62206f69 ; undefined
    40202bc8:	6b636f6c 	.inst	0x6b636f6c ; undefined
    40202bcc:	76656420 	.inst	0x76656420 ; undefined
    40202bd0:	2e656369 	rsubhn	v9.4h, v27.4s, v5.4s
    40202bd4:	000a2e2e 	.inst	0x000a2e2e ; undefined
    40202bd8:	494e4150 	.inst	0x494e4150 ; undefined
    40202bdc:	25203a43 	.inst	0x25203a43 ; undefined
    40202be0:	64253a73 	.inst	0x64253a73 ; undefined
    40202be4:	6e75203a 	usubl2	v26.4s, v1.8h, v21.8h
    40202be8:	65707865 	fnmls	z5.h, p6/m, z3.h, z16.h
    40202bec:	64657463 	.inst	0x64657463 ; undefined
    40202bf0:	61727420 	.inst	0x61727420 ; undefined
    40202bf4:	Address 0x40202bf4 is out of bounds.


Disassembly of section .data:

0000000040202c00 <alloc_pages.next_paddr>:
    40202c00:	41244000 	.inst	0x41244000 ; undefined
    40202c04:	00000000 	udf	#0

0000000040202c08 <_binary_shell_bin_start>:
    40202c08:	b0008088 	adrp	x8, 41213000 <_binary_shell_bin_start+0x10103f8>
    40202c0c:	91000108 	add	x8, x8, #0x0
    40202c10:	9100011f 	mov	sp, x8
    40202c14:	94000002 	bl	40202c1c <_binary_shell_bin_start+0x14>
    40202c18:	94000007 	bl	40202c34 <_binary_shell_bin_start+0x2c>
    40202c1c:	a9bf7bfd 	stp	x29, x30, [sp, #-16]!
    40202c20:	910003fd 	mov	x29, sp
    40202c24:	d503201f 	nop
    40202c28:	10002320 	adr	x0, 4020308c <_binary_shell_bin_start+0x484>
    40202c2c:	94000087 	bl	40202e48 <_binary_shell_bin_start+0x240>
    40202c30:	14000000 	b	40202c30 <_binary_shell_bin_start+0x28>
    40202c34:	14000000 	b	40202c34 <_binary_shell_bin_start+0x2c>
    40202c38:	aa0103e8 	mov	x8, x1
    40202c3c:	aa0003e9 	mov	x9, x0
    40202c40:	aa0203e1 	mov	x1, x2
    40202c44:	aa0803e0 	mov	x0, x8
    40202c48:	aa0303e2 	mov	x2, x3
    40202c4c:	aa0903e8 	mov	x8, x9
    40202c50:	d4000001 	svc	#0x0
    40202c54:	d65f03c0 	ret
    40202c58:	aa1f03e1 	mov	x1, xzr
    40202c5c:	aa1f03e2 	mov	x2, xzr
    40202c60:	52800028 	mov	w8, #0x1                   	// #1
    40202c64:	92401c00 	and	x0, x0, #0xff
    40202c68:	d4000001 	svc	#0x0
    40202c6c:	d65f03c0 	ret
    40202c70:	aa1f03e0 	mov	x0, xzr
    40202c74:	aa1f03e1 	mov	x1, xzr
    40202c78:	aa1f03e2 	mov	x2, xzr
    40202c7c:	52800048 	mov	w8, #0x2                   	// #2
    40202c80:	d4000001 	svc	#0x0
    40202c84:	d65f03c0 	ret
    40202c88:	34000622 	cbz	w2, 40202d4c <_binary_shell_bin_start+0x144>
    40202c8c:	7100205f 	cmp	w2, #0x8
    40202c90:	54000123 	b.cc	40202cb4 <_binary_shell_bin_start+0xac>  // b.lo, b.ul, b.last
    40202c94:	cb010008 	sub	x8, x0, x1
    40202c98:	f100811f 	cmp	x8, #0x20
    40202c9c:	540000c3 	b.cc	40202cb4 <_binary_shell_bin_start+0xac>  // b.lo, b.ul, b.last
    40202ca0:	7100805f 	cmp	w2, #0x20
    40202ca4:	2a0203e8 	mov	w8, w2
    40202ca8:	540000c2 	b.cs	40202cc0 <_binary_shell_bin_start+0xb8>  // b.hs, b.nlast
    40202cac:	aa1f03eb 	mov	x11, xzr
    40202cb0:	14000012 	b	40202cf8 <_binary_shell_bin_start+0xf0>
    40202cb4:	aa0103e9 	mov	x9, x1
    40202cb8:	aa0003ea 	mov	x10, x0
    40202cbc:	14000020 	b	40202d3c <_binary_shell_bin_start+0x134>
    40202cc0:	927b690b 	and	x11, x8, #0xffffffe0
    40202cc4:	91004009 	add	x9, x0, #0x10
    40202cc8:	9100402a 	add	x10, x1, #0x10
    40202ccc:	aa0b03ec 	mov	x12, x11
    40202cd0:	ad7f8540 	ldp	q0, q1, [x10, #-16]
    40202cd4:	f100818c 	subs	x12, x12, #0x20
    40202cd8:	9100814a 	add	x10, x10, #0x20
    40202cdc:	ad3f8520 	stp	q0, q1, [x9, #-16]
    40202ce0:	91008129 	add	x9, x9, #0x20
    40202ce4:	54ffff61 	b.ne	40202cd0 <_binary_shell_bin_start+0xc8>  // b.any
    40202ce8:	eb08017f 	cmp	x11, x8
    40202cec:	54000300 	b.eq	40202d4c <_binary_shell_bin_start+0x144>  // b.none
    40202cf0:	f27d051f 	tst	x8, #0x18
    40202cf4:	540001e0 	b.eq	40202d30 <_binary_shell_bin_start+0x128>  // b.none
    40202cf8:	927d710c 	and	x12, x8, #0xfffffff8
    40202cfc:	8b0b000d 	add	x13, x0, x11
    40202d00:	8b0b002e 	add	x14, x1, x11
    40202d04:	8b0c0029 	add	x9, x1, x12
    40202d08:	8b0c000a 	add	x10, x0, x12
    40202d0c:	4b0c0042 	sub	w2, w2, w12
    40202d10:	cb0c016b 	sub	x11, x11, x12
    40202d14:	fc4085c0 	ldr	d0, [x14], #8
    40202d18:	b100216b 	adds	x11, x11, #0x8
    40202d1c:	fc0085a0 	str	d0, [x13], #8
    40202d20:	54ffffa1 	b.ne	40202d14 <_binary_shell_bin_start+0x10c>  // b.any
    40202d24:	eb08019f 	cmp	x12, x8
    40202d28:	540000a1 	b.ne	40202d3c <_binary_shell_bin_start+0x134>  // b.any
    40202d2c:	14000008 	b	40202d4c <_binary_shell_bin_start+0x144>
    40202d30:	4b0b0042 	sub	w2, w2, w11
    40202d34:	8b0b000a 	add	x10, x0, x11
    40202d38:	8b0b0029 	add	x9, x1, x11
    40202d3c:	38401528 	ldrb	w8, [x9], #1
    40202d40:	71000442 	subs	w2, w2, #0x1
    40202d44:	38001548 	strb	w8, [x10], #1
    40202d48:	54ffffa1 	b.ne	40202d3c <_binary_shell_bin_start+0x134>  // b.any
    40202d4c:	d65f03c0 	ret
    40202d50:	340004e2 	cbz	w2, 40202dec <_binary_shell_bin_start+0x1e4>
    40202d54:	7100205f 	cmp	w2, #0x8
    40202d58:	54000062 	b.cs	40202d64 <_binary_shell_bin_start+0x15c>  // b.hs, b.nlast
    40202d5c:	aa0003e9 	mov	x9, x0
    40202d60:	14000020 	b	40202de0 <_binary_shell_bin_start+0x1d8>
    40202d64:	7100805f 	cmp	w2, #0x20
    40202d68:	2a0203e8 	mov	w8, w2
    40202d6c:	54000062 	b.cs	40202d78 <_binary_shell_bin_start+0x170>  // b.hs, b.nlast
    40202d70:	aa1f03ea 	mov	x10, xzr
    40202d74:	1400000d 	b	40202da8 <_binary_shell_bin_start+0x1a0>
    40202d78:	4e010c20 	dup	v0.16b, w1
    40202d7c:	927b690a 	and	x10, x8, #0xffffffe0
    40202d80:	91004009 	add	x9, x0, #0x10
    40202d84:	aa0a03eb 	mov	x11, x10
    40202d88:	ad3f8120 	stp	q0, q0, [x9, #-16]
    40202d8c:	f100816b 	subs	x11, x11, #0x20
    40202d90:	91008129 	add	x9, x9, #0x20
    40202d94:	54ffffa1 	b.ne	40202d88 <_binary_shell_bin_start+0x180>  // b.any
    40202d98:	eb08015f 	cmp	x10, x8
    40202d9c:	54000280 	b.eq	40202dec <_binary_shell_bin_start+0x1e4>  // b.none
    40202da0:	f27d051f 	tst	x8, #0x18
    40202da4:	540001a0 	b.eq	40202dd8 <_binary_shell_bin_start+0x1d0>  // b.none
    40202da8:	0e010c20 	dup	v0.8b, w1
    40202dac:	927d710b 	and	x11, x8, #0xfffffff8
    40202db0:	8b0a000c 	add	x12, x0, x10
    40202db4:	8b0b0009 	add	x9, x0, x11
    40202db8:	4b0b0042 	sub	w2, w2, w11
    40202dbc:	cb0b014a 	sub	x10, x10, x11
    40202dc0:	b100214a 	adds	x10, x10, #0x8
    40202dc4:	fc008580 	str	d0, [x12], #8
    40202dc8:	54ffffc1 	b.ne	40202dc0 <_binary_shell_bin_start+0x1b8>  // b.any
    40202dcc:	eb08017f 	cmp	x11, x8
    40202dd0:	54000081 	b.ne	40202de0 <_binary_shell_bin_start+0x1d8>  // b.any
    40202dd4:	14000006 	b	40202dec <_binary_shell_bin_start+0x1e4>
    40202dd8:	4b0a0042 	sub	w2, w2, w10
    40202ddc:	8b0a0009 	add	x9, x0, x10
    40202de0:	71000442 	subs	w2, w2, #0x1
    40202de4:	38001521 	strb	w1, [x9], #1
    40202de8:	54ffffc1 	b.ne	40202de0 <_binary_shell_bin_start+0x1d8>  // b.any
    40202dec:	d65f03c0 	ret
    40202df0:	39400028 	ldrb	w8, [x1]
    40202df4:	aa0003e9 	mov	x9, x0
    40202df8:	340000c8 	cbz	w8, 40202e10 <_binary_shell_bin_start+0x208>
    40202dfc:	9100042a 	add	x10, x1, #0x1
    40202e00:	aa0003e9 	mov	x9, x0
    40202e04:	38001528 	strb	w8, [x9], #1
    40202e08:	38401548 	ldrb	w8, [x10], #1
    40202e0c:	35ffffc8 	cbnz	w8, 40202e04 <_binary_shell_bin_start+0x1fc>
    40202e10:	3900013f 	strb	wzr, [x9]
    40202e14:	d65f03c0 	ret
    40202e18:	39400008 	ldrb	w8, [x0]
    40202e1c:	34000108 	cbz	w8, 40202e3c <_binary_shell_bin_start+0x234>
    40202e20:	91000409 	add	x9, x0, #0x1
    40202e24:	3940002a 	ldrb	w10, [x1]
    40202e28:	6b0a011f 	cmp	w8, w10
    40202e2c:	54000081 	b.ne	40202e3c <_binary_shell_bin_start+0x234>  // b.any
    40202e30:	38401528 	ldrb	w8, [x9], #1
    40202e34:	91000421 	add	x1, x1, #0x1
    40202e38:	35ffff68 	cbnz	w8, 40202e24 <_binary_shell_bin_start+0x21c>
    40202e3c:	39400029 	ldrb	w9, [x1]
    40202e40:	4b090100 	sub	w0, w8, w9
    40202e44:	d65f03c0 	ret
    40202e48:	d104c3ff 	sub	sp, sp, #0x130
    40202e4c:	a90e7bfd 	stp	x29, x30, [sp, #224]
    40202e50:	f9007bfc 	str	x28, [sp, #240]
    40202e54:	a9105ff8 	stp	x24, x23, [sp, #256]
    40202e58:	a91157f6 	stp	x22, x21, [sp, #272]
    40202e5c:	a9124ff4 	stp	x20, x19, [sp, #288]
    40202e60:	910383fd 	add	x29, sp, #0xe0
    40202e64:	928006e8 	mov	x8, #0xffffffffffffffc8    	// #-56
    40202e68:	910003e9 	mov	x9, sp
    40202e6c:	d10163aa 	sub	x10, x29, #0x58
    40202e70:	f2dff008 	movk	x8, #0xff80, lsl #32
    40202e74:	91020129 	add	x9, x9, #0x80
    40202e78:	529999b4 	mov	w20, #0xcccd                	// #52429
    40202e7c:	aa0003f3 	mov	x19, x0
    40202e80:	a93f23a9 	stp	x9, x8, [x29, #-16]
    40202e84:	9100e148 	add	x8, x10, #0x38
    40202e88:	910143a9 	add	x9, x29, #0x50
    40202e8c:	72b99994 	movk	w20, #0xcccc, lsl #16
    40202e90:	d503201f 	nop
    40202e94:	50001035 	adr	x21, 4020309a <_binary_shell_bin_start+0x492>
    40202e98:	a93a8ba1 	stp	x1, x2, [x29, #-88]
    40202e9c:	a93b93a3 	stp	x3, x4, [x29, #-72]
    40202ea0:	a93c9ba5 	stp	x5, x6, [x29, #-56]
    40202ea4:	f81d83a7 	stur	x7, [x29, #-40]
    40202ea8:	ad0007e0 	stp	q0, q1, [sp]
    40202eac:	ad010fe2 	stp	q2, q3, [sp, #32]
    40202eb0:	ad0217e4 	stp	q4, q5, [sp, #64]
    40202eb4:	ad031fe6 	stp	q6, q7, [sp, #96]
    40202eb8:	a93e23a9 	stp	x9, x8, [x29, #-32]
    40202ebc:	14000003 	b	40202ec8 <_binary_shell_bin_start+0x2c0>
    40202ec0:	34000d40 	cbz	w0, 40203068 <_binary_shell_bin_start+0x460>
    40202ec4:	91000673 	add	x19, x19, #0x1
    40202ec8:	39400260 	ldrb	w0, [x19]
    40202ecc:	7100941f 	cmp	w0, #0x25
    40202ed0:	540000a0 	b.eq	40202ee4 <_binary_shell_bin_start+0x2dc>  // b.none
    40202ed4:	34000ce0 	cbz	w0, 40203070 <_binary_shell_bin_start+0x468>
    40202ed8:	97ffff60 	bl	40202c58 <_binary_shell_bin_start+0x50>
    40202edc:	91000673 	add	x19, x19, #0x1
    40202ee0:	17fffffa 	b	40202ec8 <_binary_shell_bin_start+0x2c0>
    40202ee4:	38401e60 	ldrb	w0, [x19, #1]!
    40202ee8:	7101c81f 	cmp	w0, #0x72
    40202eec:	5400020c 	b.gt	40202f2c <_binary_shell_bin_start+0x324>
    40202ef0:	7100941f 	cmp	w0, #0x25
    40202ef4:	54ffff20 	b.eq	40202ed8 <_binary_shell_bin_start+0x2d0>  // b.none
    40202ef8:	7101901f 	cmp	w0, #0x64
    40202efc:	54fffe21 	b.ne	40202ec0 <_binary_shell_bin_start+0x2b8>  // b.any
    40202f00:	b89f83a8 	ldursw	x8, [x29, #-8]
    40202f04:	36f80408 	tbz	w8, #31, 40202f84 <_binary_shell_bin_start+0x37c>
    40202f08:	11002109 	add	w9, w8, #0x8
    40202f0c:	3100211f 	cmn	w8, #0x8
    40202f10:	b81f83a9 	stur	w9, [x29, #-8]
    40202f14:	54000388 	b.hi	40202f84 <_binary_shell_bin_start+0x37c>  // b.pmore
    40202f18:	f85e83a9 	ldur	x9, [x29, #-24]
    40202f1c:	8b080128 	add	x8, x9, x8
    40202f20:	b9400116 	ldr	w22, [x8]
    40202f24:	36f80416 	tbz	w22, #31, 40202fa4 <_binary_shell_bin_start+0x39c>
    40202f28:	1400001c 	b	40202f98 <_binary_shell_bin_start+0x390>
    40202f2c:	7101cc1f 	cmp	w0, #0x73
    40202f30:	54000180 	b.eq	40202f60 <_binary_shell_bin_start+0x358>  // b.none
    40202f34:	7101e01f 	cmp	w0, #0x78
    40202f38:	54fffc61 	b.ne	40202ec4 <_binary_shell_bin_start+0x2bc>  // b.any
    40202f3c:	b89f83a8 	ldursw	x8, [x29, #-8]
    40202f40:	36f806c8 	tbz	w8, #31, 40203018 <_binary_shell_bin_start+0x410>
    40202f44:	11002109 	add	w9, w8, #0x8
    40202f48:	3100211f 	cmn	w8, #0x8
    40202f4c:	b81f83a9 	stur	w9, [x29, #-8]
    40202f50:	54000648 	b.hi	40203018 <_binary_shell_bin_start+0x410>  // b.pmore
    40202f54:	f85e83a9 	ldur	x9, [x29, #-24]
    40202f58:	8b080129 	add	x9, x9, x8
    40202f5c:	14000032 	b	40203024 <_binary_shell_bin_start+0x41c>
    40202f60:	b89f83a8 	ldursw	x8, [x29, #-8]
    40202f64:	36f80448 	tbz	w8, #31, 40202fec <_binary_shell_bin_start+0x3e4>
    40202f68:	11002109 	add	w9, w8, #0x8
    40202f6c:	3100211f 	cmn	w8, #0x8
    40202f70:	b81f83a9 	stur	w9, [x29, #-8]
    40202f74:	540003c8 	b.hi	40202fec <_binary_shell_bin_start+0x3e4>  // b.pmore
    40202f78:	f85e83a9 	ldur	x9, [x29, #-24]
    40202f7c:	8b080128 	add	x8, x9, x8
    40202f80:	1400001e 	b	40202ff8 <_binary_shell_bin_start+0x3f0>
    40202f84:	f85e03a8 	ldur	x8, [x29, #-32]
    40202f88:	91002109 	add	x9, x8, #0x8
    40202f8c:	f81e03a9 	stur	x9, [x29, #-32]
    40202f90:	b9400116 	ldr	w22, [x8]
    40202f94:	36f80096 	tbz	w22, #31, 40202fa4 <_binary_shell_bin_start+0x39c>
    40202f98:	528005a0 	mov	w0, #0x2d                  	// #45
    40202f9c:	97ffff2f 	bl	40202c58 <_binary_shell_bin_start+0x50>
    40202fa0:	4b1603f6 	neg	w22, w22
    40202fa4:	52800037 	mov	w23, #0x1                   	// #1
    40202fa8:	71002adf 	cmp	w22, #0xa
    40202fac:	540000c3 	b.cc	40202fc4 <_binary_shell_bin_start+0x3bc>  // b.lo, b.ul, b.last
    40202fb0:	0b170ae8 	add	w8, w23, w23, lsl #2
    40202fb4:	531f7917 	lsl	w23, w8, #1
    40202fb8:	1ad70ac8 	udiv	w8, w22, w23
    40202fbc:	7100251f 	cmp	w8, #0x9
    40202fc0:	54ffff88 	b.hi	40202fb0 <_binary_shell_bin_start+0x3a8>  // b.pmore
    40202fc4:	1ad70ad8 	udiv	w24, w22, w23
    40202fc8:	1100c300 	add	w0, w24, #0x30
    40202fcc:	97ffff23 	bl	40202c58 <_binary_shell_bin_start+0x50>
    40202fd0:	9bb47ee8 	umull	x8, w23, w20
    40202fd4:	71002aff 	cmp	w23, #0xa
    40202fd8:	1b17db16 	msub	w22, w24, w23, w22
    40202fdc:	d363fd08 	lsr	x8, x8, #35
    40202fe0:	2a0803f7 	mov	w23, w8
    40202fe4:	54ffff02 	b.cs	40202fc4 <_binary_shell_bin_start+0x3bc>  // b.hs, b.nlast
    40202fe8:	17ffffb7 	b	40202ec4 <_binary_shell_bin_start+0x2bc>
    40202fec:	f85e03a8 	ldur	x8, [x29, #-32]
    40202ff0:	91002109 	add	x9, x8, #0x8
    40202ff4:	f81e03a9 	stur	x9, [x29, #-32]
    40202ff8:	f9400108 	ldr	x8, [x8]
    40202ffc:	39400100 	ldrb	w0, [x8]
    40203000:	34fff620 	cbz	w0, 40202ec4 <_binary_shell_bin_start+0x2bc>
    40203004:	91000516 	add	x22, x8, #0x1
    40203008:	97ffff14 	bl	40202c58 <_binary_shell_bin_start+0x50>
    4020300c:	384016c0 	ldrb	w0, [x22], #1
    40203010:	35ffffc0 	cbnz	w0, 40203008 <_binary_shell_bin_start+0x400>
    40203014:	17ffffac 	b	40202ec4 <_binary_shell_bin_start+0x2bc>
    40203018:	f85e03a9 	ldur	x9, [x29, #-32]
    4020301c:	91002128 	add	x8, x9, #0x8
    40203020:	f81e03a8 	stur	x8, [x29, #-32]
    40203024:	f9400136 	ldr	x22, [x9]
    40203028:	2a1f03e8 	mov	w8, wzr
    4020302c:	52800797 	mov	w23, #0x3c                  	// #60
    40203030:	14000008 	b	40203050 <_binary_shell_bin_start+0x448>
    40203034:	92400d28 	and	x8, x9, #0xf
    40203038:	38686aa0 	ldrb	w0, [x21, x8]
    4020303c:	97ffff07 	bl	40202c58 <_binary_shell_bin_start+0x50>
    40203040:	52800028 	mov	w8, #0x1                   	// #1
    40203044:	d10012f7 	sub	x23, x23, #0x4
    40203048:	b10012ff 	cmn	x23, #0x4
    4020304c:	54fff3c0 	b.eq	40202ec4 <_binary_shell_bin_start+0x2bc>  // b.none
    40203050:	9ad726c9 	lsr	x9, x22, x23
    40203054:	b4ffff17 	cbz	x23, 40203034 <_binary_shell_bin_start+0x42c>
    40203058:	12000d2a 	and	w10, w9, #0xf
    4020305c:	2a080148 	orr	w8, w10, w8
    40203060:	34ffff28 	cbz	w8, 40203044 <_binary_shell_bin_start+0x43c>
    40203064:	17fffff4 	b	40203034 <_binary_shell_bin_start+0x42c>
    40203068:	528004a0 	mov	w0, #0x25                  	// #37
    4020306c:	97fffefb 	bl	40202c58 <_binary_shell_bin_start+0x50>
    40203070:	a9524ff4 	ldp	x20, x19, [sp, #288]
    40203074:	f9407bfc 	ldr	x28, [sp, #240]
    40203078:	a95157f6 	ldp	x22, x21, [sp, #272]
    4020307c:	a9505ff8 	ldp	x24, x23, [sp, #256]
    40203080:	a94e7bfd 	ldp	x29, x30, [sp, #224]
    40203084:	9104c3ff 	add	sp, sp, #0x130
    40203088:	d65f03c0 	ret
    4020308c:	6c6c6548 	ldnp	d8, d25, [x10, #-320]
    40203090:	6f57206f 	umlal2	v15.4s, v3.8h, v7.h[1]
    40203094:	21646c72 	.inst	0x21646c72 ; undefined
    40203098:	3130000a 	adds	w10, w0, #0xc00
    4020309c:	35343332 	cbnz	w18, 4026b700 <_binary_shell_bin_start+0x68af8>
    402030a0:	39383736 	strb	w22, [x25, #3597]
    402030a4:	64636261 	.inst	0x64636261 ; undefined
    402030a8:	00006665 	udf	#26213
	...

Disassembly of section .debug_loclists:

0000000000000000 <.debug_loclists>:
   0:	0000098a 	udf	#2442
   4:	00080005 	.inst	0x00080005 ; undefined
   8:	0000005c 	udf	#92
   c:	00000170 	udf	#368
  10:	00000180 	udf	#384
  14:	0000018d 	udf	#397
  18:	00000195 	udf	#405
  1c:	0000019d 	udf	#413
  20:	000001ad 	udf	#429
  24:	000001be 	udf	#446
  28:	000001c6 	udf	#454
  2c:	000001de 	udf	#478
  30:	000001f5 	udf	#501
  34:	0000021a 	udf	#538
  38:	00000224 	udf	#548
  3c:	00000268 	udf	#616
  40:	00000283 	udf	#643
  44:	000002c7 	udf	#711
  48:	0000030b 	udf	#779
  4c:	00000315 	udf	#789
  50:	0000031f 	udf	#799
  54:	00000329 	udf	#809
  58:	00000333 	udf	#819
  5c:	0000033d 	udf	#829
  60:	00000347 	udf	#839
  64:	00000351 	udf	#849
  68:	0000035b 	udf	#859
  6c:	00000365 	udf	#869
  70:	0000036f 	udf	#879
  74:	00000379 	udf	#889
  78:	00000383 	udf	#899
  7c:	000003ad 	udf	#941
  80:	000003be 	udf	#958
  84:	000003f9 	udf	#1017
  88:	0000044d 	udf	#1101
  8c:	0000045e 	udf	#1118
  90:	00000468 	udf	#1128
  94:	00000472 	udf	#1138
  98:	0000047c 	udf	#1148
  9c:	00000496 	udf	#1174
  a0:	000004b1 	udf	#1201
  a4:	0000054d 	udf	#1357
  a8:	0000055f 	udf	#1375
  ac:	00000599 	udf	#1433
  b0:	000005a3 	udf	#1443
  b4:	000005ae 	udf	#1454
  b8:	000005bf 	udf	#1471
  bc:	000005c9 	udf	#1481
  c0:	000005e2 	udf	#1506
  c4:	000005f5 	udf	#1525
  c8:	00000606 	udf	#1542
  cc:	00000610 	udf	#1552
  d0:	0000061a 	udf	#1562
  d4:	00000624 	udf	#1572
  d8:	0000062e 	udf	#1582
  dc:	00000650 	udf	#1616
  e0:	0000066d 	udf	#1645
  e4:	00000680 	udf	#1664
  e8:	00000691 	udf	#1681
  ec:	0000069b 	udf	#1691
  f0:	000006ba 	udf	#1722
  f4:	000006d2 	udf	#1746
  f8:	000006e3 	udf	#1763
  fc:	000006f6 	udf	#1782
 100:	0000071c 	udf	#1820
 104:	00000729 	udf	#1833
 108:	00000735 	udf	#1845
 10c:	00000741 	udf	#1857
 110:	0000074d 	udf	#1869
 114:	0000075a 	udf	#1882
 118:	00000766 	udf	#1894
 11c:	00000772 	udf	#1906
 120:	0000077d 	udf	#1917
 124:	000007a2 	udf	#1954
 128:	000007ba 	udf	#1978
 12c:	000007d2 	udf	#2002
 130:	000007ea 	udf	#2026
 134:	000007f4 	udf	#2036
 138:	000007fe 	udf	#2046
 13c:	00000812 	udf	#2066
 140:	00000826 	udf	#2086
 144:	00000841 	udf	#2113
 148:	00000852 	udf	#2130
 14c:	0000085c 	udf	#2140
 150:	00000866 	udf	#2150
 154:	00000870 	udf	#2160
 158:	00000883 	udf	#2179
 15c:	00000894 	udf	#2196
 160:	000008a8 	udf	#2216
 164:	000008d4 	udf	#2260
 168:	000008ef 	udf	#2287
 16c:	0000091b 	udf	#2331
 170:	0000092c 	udf	#2348
 174:	00000953 	udf	#2387
 178:	0000096b 	udf	#2411
 17c:	00042e01 	.inst	0x00042e01 ; undefined
 180:	04500114 	mul	z20.h, p0/m, z20.h, z8.h
 184:	a3041c14 	.inst	0xa3041c14 ; undefined
 188:	009f5001 	.inst	0x009f5001 ; undefined
 18c:	00042e01 	.inst	0x00042e01 ; undefined
 190:	04530110 	umulh	z16.h, p0/m, z16.h, z8.h
 194:	57011c10 	.inst	0x57011c10 ; undefined
 198:	042e0100 	add	z0.b, z8.b, z14.b
 19c:	50011408 	adr	x8, 241e <_binary_shell_bin_size-0x100ebe2>
 1a0:	042e0100 	add	z0.b, z8.b, z14.b
 1a4:	50011c14 	adr	x20, 2526 <_binary_shell_bin_size-0x100eada>
 1a8:	042e0100 	add	z0.b, z8.b, z14.b
 1ac:	5001281c 	adr	x28, 26ae <_binary_shell_bin_size-0x100e952>
 1b0:	04402804 	saddv	d4, p2, z0.h
 1b4:	9f5001a3 	.inst	0x9f5001a3 ; undefined
 1b8:	042e0100 	add	z0.b, z8.b, z14.b
 1bc:	300a6c44 	adr	x4, 14f45 <_binary_shell_bin_size-0xffc0bb>
 1c0:	9308939f 	.inst	0x9308939f ; undefined
 1c4:	939f3108 	.inst	0x939f3108 ; undefined
 1c8:	2e010008 	ext	v8.8b, v0.8b, v1.8b, #0
 1cc:	01645c04 	.inst	0x01645c04 ; undefined
 1d0:	2e010050 	ext	v16.8b, v2.8b, v1.8b, #0
 1d4:	8c018804 	.inst	0x8c018804 ; undefined
 1d8:	04580101 	orr	z1.h, p0/m, z1.h, z8.h
 1dc:	01b4018c 	.inst	0x01b4018c ; undefined
 1e0:	d8045101 	prfm	pldl1strm, 8c00 <_binary_shell_bin_size-0x1008400>
 1e4:	0101e401 	.inst	0x0101e401 ; undefined
 1e8:	2e010051 	ext	v17.8b, v2.8b, v1.8b, #0
 1ec:	c801b804 	stlxr	w1, x4, [x0]
 1f0:	00780701 	.inst	0x00780701 ; undefined
 1f4:	21208910 	.inst	0x21208910 ; undefined
 1f8:	01c8049f 	.inst	0x01c8049f ; undefined
 1fc:	580101d8 	ldr	x24, 2234 <_binary_shell_bin_size-0x100edcc>
 200:	042e0100 	add	z0.b, z8.b, z14.b
 204:	029801e4 	.inst	0x029801e4 ; undefined
 208:	98045001 	ldrsw	x1, 8c08 <_binary_shell_bin_size-0x10083f8>
 20c:	0402b002 	.inst	0x0402b002 ; undefined
 210:	9f5001a3 	.inst	0x9f5001a3 ; undefined
 214:	b402b004 	cbz	x4, 5814 <_binary_shell_bin_size-0x100b7ec>
 218:	04500102 	mul	z2.h, p0/m, z2.h, z8.h
 21c:	02cc02b4 	.inst	0x02cc02b4 ; undefined
 220:	5001a304 	adr	x4, 3682 <_binary_shell_bin_size-0x100d97e>
 224:	2e01009f 	ext	v31.8b, v4.8b, v1.8b, #0
 228:	c4028404 	ldnt1sb	{z4.d}, p1/z, [z0.d, x2]
 22c:	00630102 	.inst	0x00630102 ; undefined
 230:	cc042e01 	.inst	0xcc042e01 ; undefined
 234:	0102f002 	.inst	0x0102f002 ; undefined
 238:	02f00450 	.inst	0x02f00450 ; undefined
 23c:	a304038c 	.inst	0xa304038c ; undefined
 240:	049f5001 	mla	z1.s, p4/m, z0.s, z31.s
 244:	0398038c 	.inst	0x0398038c ; undefined
 248:	98045001 	ldrsw	x1, 8c48 <_binary_shell_bin_size-0x10083b8>
 24c:	0403b403 	.inst	0x0403b403 ; undefined
 250:	9f5001a3 	.inst	0x9f5001a3 ; undefined
 254:	e403b404 	st1b	{z4.d}, p5, [x0, z3.d]
 258:	04500103 	mul	z3.h, p0/m, z3.h, z8.h
 25c:	03fc03e4 	.inst	0x03fc03e4 ; undefined
 260:	5001a304 	adr	x4, 36c2 <_binary_shell_bin_size-0x100d93e>
 264:	03fc049f 	.inst	0x03fc049f ; undefined
 268:	50010480 	adr	x0, 22fa <_binary_shell_bin_size-0x100ed06>
 26c:	bc048004 	stur	s4, [x0, #72]
 270:	00680104 	.inst	0x00680104 ; undefined
 274:	cc042e01 	.inst	0xcc042e01 ; undefined
 278:	0102e402 	.inst	0x0102e402 ; undefined
 27c:	02e40451 	.inst	0x02e40451 ; undefined
 280:	630106f8 	.inst	0x630106f8 ; undefined
 284:	9406f804 	bl	1be294 <_binary_shell_bin_size-0xe52d6c>
 288:	01a30407 	.inst	0x01a30407 ; undefined
 28c:	01009f51 	.inst	0x01009f51 ; undefined
 290:	02cc042e 	.inst	0x02cc042e ; undefined
 294:	52010380 	eor	w0, w28, #0x80000000
 298:	8c038004 	.inst	0x8c038004 ; undefined
 29c:	01a30403 	.inst	0x01a30403 ; undefined
 2a0:	8c049f52 	.inst	0x8c049f52 ; undefined
 2a4:	0103ac03 	.inst	0x0103ac03 ; undefined
 2a8:	03ac0452 	.inst	0x03ac0452 ; undefined
 2ac:	a30403b4 	.inst	0xa30403b4 ; undefined
 2b0:	049f5201 	mla	z1.s, p4/m, z16.s, z31.s
 2b4:	03f403b4 	.inst	0x03f403b4 ; undefined
 2b8:	f4045201 	.inst	0xf4045201 ; undefined
 2bc:	0403fc03 	msb	z3.b, p7/m, z3.b, z0.b
 2c0:	9f5201a3 	.inst	0x9f5201a3 ; undefined
 2c4:	8c03fc04 	.inst	0x8c03fc04 ; undefined
 2c8:	04520104 	smulh	z4.h, p0/m, z4.h, z8.h
 2cc:	04bc048c 	sub	z12.s, z4.s, z28.s
 2d0:	01006601 	.inst	0x01006601 ; undefined
 2d4:	02cc042e 	.inst	0x02cc042e ; undefined
 2d8:	53010384 	lsl	w4, w28, #31
 2dc:	8c038404 	.inst	0x8c038404 ; undefined
 2e0:	01a30403 	.inst	0x01a30403 ; undefined
 2e4:	8c049f53 	.inst	0x8c049f53 ; undefined
 2e8:	0103a803 	.inst	0x0103a803 ; undefined
 2ec:	03a80453 	.inst	0x03a80453 ; undefined
 2f0:	a30403b4 	.inst	0xa30403b4 ; undefined
 2f4:	049f5301 	mla	z1.s, p4/m, z24.s, z31.s
 2f8:	03f803b4 	.inst	0x03f803b4 ; undefined
 2fc:	f8045301 	stur	x1, [x24, #69]
 300:	0403fc03 	msb	z3.b, p7/m, z3.b, z0.b
 304:	9f5301a3 	.inst	0x9f5301a3 ; undefined
 308:	9403fc04 	bl	ff318 <_binary_shell_bin_size-0xf11ce8>
 30c:	04530104 	umulh	z4.h, p0/m, z4.h, z8.h
 310:	04bc0494 	sub	z20.s, z4.s, z28.s
 314:	01006701 	.inst	0x01006701 ; undefined
 318:	03b8042e 	.inst	0x03b8042e ; undefined
 31c:	650104c0 	bfsub	z0.h, z6.h, z1.h
 320:	042e0100 	add	z0.b, z8.b, z14.b
 324:	04bc03d0 	add	z16.s, z30.s, z28.s
 328:	01006401 	.inst	0x01006401 ; undefined
 32c:	0498042e 	orr	z14.s, p1/m, z14.s, z1.s
 330:	640104bc 	.inst	0x640104bc ; undefined
 334:	042e0100 	add	z0.b, z8.b, z14.b
 338:	05d404c0 	mov	z0.d, p4/z, #38
 33c:	01006501 	.inst	0x01006501 ; undefined
 340:	05a4042e 	zip2	z14.q, z1.q, z4.q
 344:	680105d0 	.inst	0x680105d0 ; undefined
 348:	042e0100 	add	z0.b, z8.b, z14.b
 34c:	05d004e4 	mov	z4.d, p0/z, #39
 350:	01006401 	.inst	0x01006401 ; undefined
 354:	05ac042e 	zip2	z14.q, z1.q, z12.q
 358:	640105d0 	.inst	0x640105d0 ; undefined
 35c:	042e0100 	add	z0.b, z8.b, z14.b
 360:	078005d4 	.inst	0x078005d4 ; undefined
 364:	01006501 	.inst	0x01006501 ; undefined
 368:	06b8042e 	.inst	0x06b8042e ; undefined
 36c:	680106e4 	.inst	0x680106e4 ; undefined
 370:	042e0100 	add	z0.b, z8.b, z14.b
 374:	06e405f8 	.inst	0x06e405f8 ; undefined
 378:	01006401 	.inst	0x01006401 ; undefined
 37c:	06c0042e 	.inst	0x06c0042e ; undefined
 380:	640106e4 	.inst	0x640106e4 ; undefined
 384:	042e0100 	add	z0.b, z8.b, z14.b
 388:	06fc06ec 	.inst	0x06fc06ec ; undefined
 38c:	01005801 	.inst	0x01005801 ; undefined
 390:	07e0042e 	.inst	0x07e0042e ; undefined
 394:	780c07e4 	strh	w4, [sp], #192
 398:	87801100 	.inst	0x87801100 ; undefined
 39c:	111c0ea7 	add	w7, w21, #0x703
 3a0:	049f1b7f 	.inst	0x049f1b7f ; undefined
 3a4:	07ec07e8 	.inst	0x07ec07e8 ; undefined
 3a8:	1100780f 	add	w15, w0, #0x1e
 3ac:	0ea78780 	add	v0.2s, v28.2s, v7.2s
 3b0:	1b7f111c 	.inst	0x1b7f111c ; undefined
 3b4:	9f220111 	.inst	0x9f220111 ; undefined
 3b8:	042e0100 	add	z0.b, z8.b, z14.b
 3bc:	07f807f0 	.inst	0x07f807f0 ; undefined
 3c0:	f8045001 	stur	x1, [x0, #69]
 3c4:	0108b407 	.inst	0x0108b407 ; undefined
 3c8:	2e010058 	ext	v24.8b, v2.8b, v1.8b, #0
 3cc:	8c098004 	.inst	0x8c098004 ; undefined
 3d0:	045d0109 	.inst	0x045d0109 ; undefined
 3d4:	09c809bc 	.inst	0x09c809bc ; undefined
 3d8:	fc045d01 	str	d1, [x8, #69]!
 3dc:	010a8809 	.inst	0x010a8809 ; undefined
 3e0:	0ab8045d 	bic	w29, w2, w24, asr #1
 3e4:	5d010ac4 	stlur	h4, [x22, #16]
 3e8:	840af804 	prfb	pldl3keep, p6, [z0.s, #10]
 3ec:	045d010b 	.inst	0x045d010b ; undefined
 3f0:	0bc00bb4 	.inst	0x0bc00bb4 ; undefined
 3f4:	f4045d01 	.inst	0xf4045d01 ; undefined
 3f8:	010c800b 	.inst	0x010c800b ; undefined
 3fc:	0cb0045d 	.inst	0x0cb0045d ; undefined
 400:	5d010cbc 	.inst	0x5d010cbc ; undefined
 404:	042e0100 	add	z0.b, z8.b, z14.b
 408:	098c08ec 	.inst	0x098c08ec ; undefined
 40c:	9f001103 	.inst	0x9f001103 ; undefined
 410:	c8098c04 	stlxr	w9, x4, [x0]
 414:	01110309 	.inst	0x01110309 ; undefined
 418:	09c8049f 	.inst	0x09c8049f ; undefined
 41c:	11030a88 	add	w8, w20, #0xc2
 420:	88049f02 	stlxr	w4, w2, [x24]
 424:	030ac40a 	.inst	0x030ac40a ; undefined
 428:	049f0311 	.inst	0x049f0311 ; undefined
 42c:	0b840ac4 	add	w4, w22, w4, asr #2
 430:	9f041103 	.inst	0x9f041103 ; undefined
 434:	c00b8404 	.inst	0xc00b8404 ; undefined
 438:	0511030b 	mov	z11.b, p1/z, #24
 43c:	0bc0049f 	.inst	0x0bc0049f ; undefined
 440:	11030c80 	add	w0, w4, #0xc3
 444:	80049f06 	.inst	0x80049f06 ; undefined
 448:	030cbc0c 	.inst	0x030cbc0c ; undefined
 44c:	049f0711 	.inst	0x049f0711 ; undefined
 450:	0cc00cbc 	.inst	0x0cc00cbc ; undefined
 454:	9f081103 	.inst	0x9f081103 ; undefined
 458:	042e0100 	add	z0.b, z8.b, z14.b
 45c:	0cc008ec 	ld4	{v12.2s-v15.2s}, [x7], x0
 460:	c0045a01 	.inst	0xc0045a01 ; undefined
 464:	010d940c 	.inst	0x010d940c ; undefined
 468:	2e01005d 	ext	v29.8b, v2.8b, v1.8b, #0
 46c:	900cc804 	adrp	x4, 19900000 <_binary_shell_bin_size+0x188ef000>
 470:	0058010d 	.inst	0x0058010d ; undefined
 474:	d4042e01 	svc	#0x2170
 478:	010d900c 	.inst	0x010d900c ; undefined
 47c:	2e01005b 	ext	v27.8b, v2.8b, v1.8b, #0
 480:	900cd804 	adrp	x4, 19b00000 <_binary_shell_bin_size+0x18aef000>
 484:	0059010d 	.inst	0x0059010d ; undefined
 488:	a8042e01 	stnp	x1, x11, [x16, #64]
 48c:	010ed40e 	.inst	0x010ed40e ; undefined
 490:	0ed40450 	fminnm	v16.4h, v2.4h, v20.4h
 494:	8f0214f8 	.inst	0x8f0214f8 ; undefined
 498:	14fc0408 	b	3f014b8 <_binary_shell_bin_size+0x2ef04b8>
 49c:	8f0215b4 	.inst	0x8f0215b4 ; undefined
 4a0:	2e010008 	ext	v8.8b, v0.8b, v1.8b, #0
 4a4:	d00ea804 	adrp	x4, 1d502000 <_binary_shell_bin_size+0x1c4f1000>
 4a8:	0451010e 	.inst	0x0451010e ; undefined
 4ac:	12a80ed0 	mov	w16, #0xbf89ffff            	// #-1081475073
 4b0:	84046701 	ldff1b	{z1.s}, p1/z, [x24, z4.s, uxtw]
 4b4:	04138c13 	lsl	z19.b, p3/m, z19.b, z0.b
 4b8:	9f5101a3 	.inst	0x9f5101a3 ; undefined
 4bc:	042e0100 	add	z0.b, z8.b, z14.b
 4c0:	0edc0ed4 	fmls	v20.4h, v22.4h, v28.4h
 4c4:	9f001103 	.inst	0x9f001103 ; undefined
 4c8:	e80edc04 	.inst	0xe80edc04 ; undefined
 4cc:	0111030e 	.inst	0x0111030e ; undefined
 4d0:	0ee8049f 	.inst	0x0ee8049f ; undefined
 4d4:	11030ef4 	add	w20, w23, #0xc3
 4d8:	f4049f02 	.inst	0xf4049f02 ; undefined
 4dc:	030f800e 	.inst	0x030f800e ; undefined
 4e0:	049f0311 	.inst	0x049f0311 ; undefined
 4e4:	0f8c0f80 	.inst	0x0f8c0f80 ; undefined
 4e8:	9f041103 	.inst	0x9f041103 ; undefined
 4ec:	980f8c04 	ldrsw	x4, 1f66c <_binary_shell_bin_size-0xff1994>
 4f0:	0511030f 	mov	z15.b, p1/z, #24
 4f4:	0f98049f 	.inst	0x0f98049f ; undefined
 4f8:	11030fa4 	add	w4, w29, #0xc3
 4fc:	a4049f06 	.inst	0xa4049f06 ; undefined
 500:	030fb00f 	.inst	0x030fb00f ; undefined
 504:	049f0711 	.inst	0x049f0711 ; undefined
 508:	0fcc0fb0 	.inst	0x0fcc0fb0 ; undefined
 50c:	9f081103 	.inst	0x9f081103 ; undefined
 510:	d40fcc04 	.inst	0xd40fcc04 ; undefined
 514:	0011030f 	.inst	0x0011030f ; undefined
 518:	0fd4049f 	.inst	0x0fd4049f ; undefined
 51c:	11030fdc 	add	w28, w30, #0xc3
 520:	dc049f01 	.inst	0xdc049f01 ; undefined
 524:	030fe40f 	.inst	0x030fe40f ; undefined
 528:	049f0211 	.inst	0x049f0211 ; undefined
 52c:	0fec0fe4 	.inst	0x0fec0fe4 ; undefined
 530:	9f031103 	.inst	0x9f031103 ; undefined
 534:	f40fec04 	.inst	0xf40fec04 ; undefined
 538:	0411030f 	.inst	0x0411030f ; undefined
 53c:	0ff4049f 	.inst	0x0ff4049f ; undefined
 540:	11030ffc 	add	w28, wsp, #0xc3
 544:	fc049f05 	str	d5, [x24, #73]!
 548:	0310840f 	.inst	0x0310840f ; undefined
 54c:	049f0611 	.inst	0x049f0611 ; undefined
 550:	10881084 	adr	x4, fffffffffff10760 <__free_ram_end+0xffffffffbcccc760>
 554:	9f071103 	.inst	0x9f071103 ; undefined
 558:	042e0100 	add	z0.b, z8.b, z14.b
 55c:	10880ed4 	adr	x20, fffffffffff10734 <__free_ram_end+0xffffffffbcccc734>
 560:	049f3002 	.inst	0x049f3002 ; undefined
 564:	14fc14d0 	b	3f058a4 <_binary_shell_bin_size+0x2ef48a4>
 568:	01005001 	.inst	0x01005001 ; undefined
 56c:	1094042e 	adr	x14, fffffffffff285f0 <__free_ram_end+0xffffffffbcce45f0>
 570:	790d1098 	strh	w24, [x4, #1672]
 574:	10008300 	adr	x0, 15d4 <_binary_shell_bin_size-0x100fa2c>
 578:	221e40a0 	.inst	0x221e40a0 ; undefined
 57c:	9f3fc823 	.inst	0x9f3fc823 ; undefined
 580:	d4109804 	.inst	0xd4109804 ; undefined
 584:	988b0510 	ldrsw	x16, fffffffffff16624 <__free_ram_end+0xffffffffbccd2624>
 588:	049f00c0 	.inst	0x049f00c0 ; undefined
 58c:	14d013d0 	b	34054cc <_binary_shell_bin_size+0x23f44cc>
 590:	d0046501 	adrp	x1, 8ca2000 <_binary_shell_bin_size+0x7c91000>
 594:	0514fc14 	.inst	0x0514fc14 ; undefined
 598:	00c0a070 	.inst	0x00c0a070 ; undefined
 59c:	1598049f 	b	6601818 <_binary_shell_bin_size+0x55f0818>
 5a0:	650115b4 	.inst	0x650115b4 ; undefined
 5a4:	042e0100 	add	z0.b, z8.b, z14.b
 5a8:	119410a4 	.inst	0x119410a4 ; undefined
 5ac:	01006401 	.inst	0x01006401 ; undefined
 5b0:	10d8042e 	adr	x14, fffffffffffb0634 <__free_ram_end+0xffffffffbcd6c634>
 5b4:	31021194 	adds	w20, w12, #0x84
 5b8:	2e01009f 	ext	v31.8b, v4.8b, v1.8b, #0
 5bc:	ec118c04 	.inst	0xec118c04 ; undefined
 5c0:	04640114 	add	z20.h, z8.h, z4.h
 5c4:	15b414fc 	b	6d059b4 <_binary_shell_bin_size+0x5cf49b4>
 5c8:	01006401 	.inst	0x01006401 ; undefined
 5cc:	11cc042e 	umin	w14, w1, #1
 5d0:	660111e8 	.inst	0x660111e8 ; undefined
 5d4:	042e0100 	add	z0.b, z8.b, z14.b
 5d8:	12a81298 	mov	w24, #0xbf6bffff            	// #-1083441153
 5dc:	049f3002 	.inst	0x049f3002 ; undefined
 5e0:	138c12a8 	extr	w8, w21, w12, #4
 5e4:	fc046c01 	str	d1, [x0, #70]!
 5e8:	01159814 	.inst	0x01159814 ; undefined
 5ec:	2e01006c 	ext	v12.8b, v3.8b, v1.8b, #0
 5f0:	8c12a804 	.inst	0x8c12a804 ; undefined
 5f4:	9f310213 	.inst	0x9f310213 ; undefined
 5f8:	9814fc04 	ldrsw	x4, 2a578 <_binary_shell_bin_size-0xfe6a88>
 5fc:	9f310215 	.inst	0x9f310215 ; undefined
 600:	042e0100 	add	z0.b, z8.b, z14.b
 604:	138c12ac 	extr	w12, w21, w12, #4
 608:	fc046601 	str	d1, [x16], #70
 60c:	01159814 	.inst	0x01159814 ; undefined
 610:	2e010066 	ext	v6.8b, v3.8b, v1.8b, #0
 614:	8c12cc04 	.inst	0x8c12cc04 ; undefined
 618:	00660113 	.inst	0x00660113 ; undefined
 61c:	dc042e01 	.inst	0xdc042e01 ; undefined
 620:	0112e812 	.inst	0x0112e812 ; undefined
 624:	2e010052 	ext	v18.8b, v2.8b, v1.8b, #0
 628:	f4139004 	.inst	0xf4139004 ; undefined
 62c:	00630113 	.inst	0x00630113 ; undefined
 630:	d4042e01 	svc	#0x2170
 634:	0113f413 	.inst	0x0113f413 ; undefined
 638:	2e010063 	ext	v3.8b, v3.8b, v1.8b, #0
 63c:	ac13f404 	stnp	q4, q29, [x0, #624]
 640:	80860414 	.inst	0x80860414 ; undefined
 644:	ac049f20 	stnp	q0, q7, [x25, #144]
 648:	0514b014 	.inst	0x0514b014 ; undefined
 64c:	00c08086 	.inst	0x00c08086 ; undefined
 650:	1598049f 	b	66018cc <_binary_shell_bin_size+0x55f08cc>
 654:	860415b4 	.inst	0x860415b4 ; undefined
 658:	009f2080 	.inst	0x009f2080 ; undefined
 65c:	f0042e01 	adrp	x1, 85c3000 <_binary_shell_bin_size+0x75b2000>
 660:	0714fc13 	.inst	0x0714fc13 ; undefined
 664:	fc808010 	.inst	0xfc808010 ; undefined
 668:	049f04b7 	.inst	0x049f04b7 ; undefined
 66c:	15b41598 	b	6d05ccc <_binary_shell_bin_size+0x5cf4ccc>
 670:	80801007 	.inst	0x80801007 ; undefined
 674:	9f04b7fc 	.inst	0x9f04b7fc ; undefined
 678:	042e0100 	add	z0.b, z8.b, z14.b
 67c:	14b813f4 	b	2e0564c <_binary_shell_bin_size+0x1df464c>
 680:	049f3102 	.inst	0x049f3102 ; undefined
 684:	15b41598 	b	6d05ce4 <_binary_shell_bin_size+0x5cf4ce4>
 688:	009f3102 	.inst	0x009f3102 ; undefined
 68c:	f8042e01 	str	x1, [x16, #66]!
 690:	0114b813 	.inst	0x0114b813 ; undefined
 694:	15980463 	b	6601820 <_binary_shell_bin_size+0x55f0820>
 698:	630115b4 	.inst	0x630115b4 ; undefined
 69c:	042e0100 	add	z0.b, z8.b, z14.b
 6a0:	14b81498 	b	2e05900 <_binary_shell_bin_size+0x1df4900>
 6a4:	01006301 	.inst	0x01006301 ; undefined
 6a8:	15b4042e 	b	6d01760 <_binary_shell_bin_size+0x5cf0760>
 6ac:	500115cc 	adr	x12, 2966 <_binary_shell_bin_size-0x100e69a>
 6b0:	cc15cc04 	.inst	0xcc15cc04 ; undefined
 6b4:	04580116 	orr	z22.h, p0/m, z22.h, z8.h
 6b8:	16e016d4 	b	fffffffffb806208 <__free_ram_end+0xffffffffb85c2208>
 6bc:	fc045801 	.inst	0xfc045801 ; undefined
 6c0:	01178016 	.inst	0x01178016 ; undefined
 6c4:	2e010058 	ext	v24.8b, v2.8b, v1.8b, #0
 6c8:	e815c404 	.inst	0xe815c404 ; undefined
 6cc:	04510115 	.inst	0x04510115 ; undefined
 6d0:	16b816ac 	b	fffffffffae06180 <__free_ram_end+0xffffffffb7bc2180>
 6d4:	d4045101 	svc	#0x2288
 6d8:	0116e016 	.inst	0x0116e016 ; undefined
 6dc:	2e010051 	ext	v17.8b, v2.8b, v1.8b, #0
 6e0:	a415e804 	.inst	0xa415e804 ; undefined
 6e4:	04590116 	eor	z22.h, p0/m, z22.h, z8.h
 6e8:	178016fc 	b	fffffffffe0062d8 <__free_ram_end+0xffffffffbadc22d8>
 6ec:	01005901 	.inst	0x01005901 ; undefined
 6f0:	15ec042e 	b	7b017a8 <_binary_shell_bin_size+0x6af07a8>
 6f4:	300a1684 	adr	x4, 149c5 <_binary_shell_bin_size-0xffc63b>
 6f8:	9308939f 	.inst	0x9308939f ; undefined
 6fc:	939f3108 	.inst	0x939f3108 ; undefined
 700:	2e010008 	ext	v8.8b, v0.8b, v1.8b, #0
 704:	8c168804 	.inst	0x8c168804 ; undefined
 708:	007a0a16 	.inst	0x007a0a16 ; undefined
 70c:	1c07e811 	ldr	s17, 1040c <_binary_shell_bin_size-0x1000bf4>
 710:	9f1b7f11 	.inst	0x9f1b7f11 ; undefined
 714:	94169004 	bl	5a4724 <_binary_shell_bin_size-0xa6c8dc>
 718:	007a0d16 	.inst	0x007a0d16 ; undefined
 71c:	1c07e811 	ldr	s17, 1041c <_binary_shell_bin_size-0x1000be4>
 720:	111b7f11 	add	w17, w24, #0x6df
 724:	009f2201 	.inst	0x009f2201 ; undefined
 728:	c4042e01 	ldff1sb	{z1.d}, p3/z, [x16, z4.d, uxtw]
 72c:	0416c816 	mad	z22.b, p2/m, z22.b, z0.b
 730:	9f00c011 	.inst	0x9f00c011 ; undefined
 734:	042e0100 	add	z0.b, z8.b, z14.b
 738:	16c816c4 	b	fffffffffb206248 <__free_ram_end+0xffffffffb7fc2248>
 73c:	9f011103 	.inst	0x9f011103 ; undefined
 740:	042e0100 	add	z0.b, z8.b, z14.b
 744:	16c816c4 	b	fffffffffb206254 <__free_ram_end+0xffffffffb7fc2254>
 748:	9f031103 	.inst	0x9f031103 ; undefined
 74c:	042e0100 	add	z0.b, z8.b, z14.b
 750:	16c816c4 	b	fffffffffb206260 <__free_ram_end+0xffffffffb7fc2260>
 754:	9f088f03 	.inst	0x9f088f03 ; undefined
 758:	042e0100 	add	z0.b, z8.b, z14.b
 75c:	16c816c4 	b	fffffffffb20626c <__free_ram_end+0xffffffffb7fc226c>
 760:	00c01104 	.inst	0x00c01104 ; undefined
 764:	2e01009f 	ext	v31.8b, v4.8b, v1.8b, #0
 768:	c816c404 	stlxr	w22, x4, [x0]
 76c:	01110316 	.inst	0x01110316 ; undefined
 770:	2e01009f 	ext	v31.8b, v4.8b, v1.8b, #0
 774:	c816c404 	stlxr	w22, x4, [x0]
 778:	03110316 	.inst	0x03110316 ; undefined
 77c:	2e01009f 	ext	v31.8b, v4.8b, v1.8b, #0
 780:	c816c404 	stlxr	w22, x4, [x0]
 784:	088f0216 	stllrb	w22, [x16]
 788:	042e0100 	add	z0.b, z8.b, z14.b
 78c:	17d4178c 	b	ffffffffff5065bc <__free_ram_end+0xffffffffbc2c25bc>
 790:	d4045001 	svc	#0x2280
 794:	0418ac17 	cls	z23.b, p3/m, z0.b
 798:	9f5001a3 	.inst	0x9f5001a3 ; undefined
 79c:	c818ac04 	stlxr	w24, x4, [x0]
 7a0:	04500118 	mul	z24.h, p0/m, z24.h, z8.h
 7a4:	18f818c8 	ldr	w8, ffffffffffff0abc <__free_ram_end+0xffffffffbcdacabc>
 7a8:	5001a304 	adr	x4, 3c0a <_binary_shell_bin_size-0x100d3f6>
 7ac:	2e01009f 	ext	v31.8b, v4.8b, v1.8b, #0
 7b0:	a017ac04 	ld1h	{z4.h-z7.h}, pn11/z, [x0, x23, lsl #1]
 7b4:	04630118 	add	z24.h, z8.h, z3.h
 7b8:	18b818ac 	ldr	w12, fffffffffff70acc <__free_ram_end+0xffffffffbcd2cacc>
 7bc:	c4046301 	ldff1b	{z1.d}, p0/z, [x24, z4.d, uxtw]
 7c0:	0118f818 	.inst	0x0118f818 ; undefined
 7c4:	2e010063 	ext	v3.8b, v3.8b, v1.8b, #0
 7c8:	a017ac04 	ld1h	{z4.h-z7.h}, pn11/z, [x0, x23, lsl #1]
 7cc:	04640118 	add	z24.h, z8.h, z4.h
 7d0:	18b818ac 	ldr	w12, fffffffffff70ae4 <__free_ram_end+0xffffffffbcd2cae4>
 7d4:	c4046401 	ldff1b	{z1.d}, p1/z, [x0, z4.d, uxtw]
 7d8:	0118f818 	.inst	0x0118f818 ; undefined
 7dc:	2e010064 	ext	v4.8b, v3.8b, v1.8b, #0
 7e0:	a417b004 	ldnf1b	{z4.b}, p4/z, [x0, #7, mul vl]
 7e4:	04660118 	add	z24.h, z8.h, z6.h
 7e8:	18bc18ac 	ldr	w12, fffffffffff78afc <__free_ram_end+0xffffffffbcd34afc>
 7ec:	c4046601 	ldff1b	{z1.d}, p1/z, [x16, z4.d, uxtw]
 7f0:	0118f818 	.inst	0x0118f818 ; undefined
 7f4:	2e010066 	ext	v6.8b, v3.8b, v1.8b, #0
 7f8:	c017b404 	.inst	0xc017b404 ; undefined
 7fc:	00580117 	.inst	0x00580117 ; undefined
 800:	d0042e01 	adrp	x1, 85c2000 <_binary_shell_bin_size+0x75b1000>
 804:	0118a417 	.inst	0x0118a417 ; undefined
 808:	2e010065 	ext	v5.8b, v3.8b, v1.8b, #0
 80c:	8018f804 	.inst	0x8018f804 ; undefined
 810:	04500119 	mul	z25.h, p0/m, z25.h, z8.h
 814:	19841980 	.inst	0x19841980 ; undefined
 818:	5001a304 	adr	x4, 3c7a <_binary_shell_bin_size-0x100d386>
 81c:	2e01009f 	ext	v31.8b, v4.8b, v1.8b, #0
 820:	8c198404 	.inst	0x8c198404 ; undefined
 824:	04500119 	mul	z25.h, p0/m, z25.h, z8.h
 828:	1990198c 	.inst	0x1990198c ; undefined
 82c:	5001a304 	adr	x4, 3c8e <_binary_shell_bin_size-0x100d372>
 830:	2e01009f 	ext	v31.8b, v4.8b, v1.8b, #0
 834:	c419b004 	ld1q	z4.q, p4/z, [z0.d, x25]
 838:	04500119 	mul	z25.h, p0/m, z25.h, z8.h
 83c:	1bc819c4 	.inst	0x1bc819c4 ; undefined
 840:	c8046301 	stxr	w4, x1, [x24]
 844:	041bd41b 	mad	z27.b, p5/m, z27.b, z0.b
 848:	9f5001a3 	.inst	0x9f5001a3 ; undefined
 84c:	042e0100 	add	z0.b, z8.b, z14.b
 850:	1a9819f4 	.inst	0x1a9819f4 ; undefined
 854:	9c046401 	ldr	q1, 94d4 <_binary_shell_bin_size-0x1007b2c>
 858:	011aac1a 	.inst	0x011aac1a ; undefined
 85c:	2e010064 	ext	v4.8b, v3.8b, v1.8b, #0
 860:	c01aac04 	.inst	0xc01aac04 ; undefined
 864:	0064011b 	.inst	0x0064011b ; undefined
 868:	e8042e01 	.inst	0xe8042e01 ; undefined
 86c:	011bc01a 	.inst	0x011bc01a ; undefined
 870:	2e010064 	ext	v4.8b, v3.8b, v1.8b, #0
 874:	c01ae804 	.inst	0xc01ae804 ; undefined
 878:	0064011b 	.inst	0x0064011b ; undefined
 87c:	a8042e01 	stnp	x1, x11, [x16, #64]
 880:	021de41d 	.inst	0x021de41d ; undefined
 884:	80049f31 	.inst	0x80049f31 ; undefined
 888:	021ec81e 	.inst	0x021ec81e ; undefined
 88c:	01009f31 	.inst	0x01009f31 ; undefined
 890:	1db8042e 	.inst	0x1db8042e ; undefined
 894:	63011de4 	.inst	0x63011de4 ; undefined
 898:	bc1e8004 	stur	s4, [x0, #-24]
 89c:	0063011e 	.inst	0x0063011e ; undefined
 8a0:	88042e01 	stxr	w4, w1, [x16]
 8a4:	011f981f 	.inst	0x011f981f ; undefined
 8a8:	1f980450 	.inst	0x1f980450 ; undefined
 8ac:	a3041f9c 	.inst	0xa3041f9c ; undefined
 8b0:	009f5001 	.inst	0x009f5001 ; undefined
 8b4:	9c042e01 	ldr	q1, 8e74 <_binary_shell_bin_size-0x100818c>
 8b8:	011fd01f 	.inst	0x011fd01f ; undefined
 8bc:	1fd00450 	fmadd	h16, h2, h16, h1
 8c0:	6301229c 	.inst	0x6301229c ; undefined
 8c4:	b4229c04 	cbz	x4, 45c44 <_binary_shell_bin_size-0xfcb3bc>
 8c8:	01a30422 	.inst	0x01a30422 ; undefined
 8cc:	b4049f50 	cbz	x16, 9cb4 <_binary_shell_bin_size-0x100734c>
 8d0:	0122e022 	.inst	0x0122e022 ; undefined
 8d4:	22e00463 	.inst	0x22e00463 ; undefined
 8d8:	a30422f8 	.inst	0xa30422f8 ; undefined
 8dc:	009f5001 	.inst	0x009f5001 ; undefined
 8e0:	9c042e01 	ldr	q1, 8ea0 <_binary_shell_bin_size-0x1008160>
 8e4:	011fb41f 	.inst	0x011fb41f ; undefined
 8e8:	1fb40451 	.inst	0x1fb40451 ; undefined
 8ec:	650121d4 	.inst	0x650121d4 ; undefined
 8f0:	f821d404 	ldraa	x4, [x0, #232]
 8f4:	01a30422 	.inst	0x01a30422 ; undefined
 8f8:	01009f51 	.inst	0x01009f51 ; undefined
 8fc:	1f9c042e 	.inst	0x1f9c042e ; undefined
 900:	52011fcc 	eor	w12, w30, #0x8000007f
 904:	9c1fcc04 	ldr	q4, 40284 <_binary_shell_bin_size-0xfd0d7c>
 908:	04640122 	add	z2.h, z9.h, z4.h
 90c:	22b4229c 	.inst	0x22b4229c ; undefined
 910:	5201a304 	eor	w4, w24, #0x80ff80ff
 914:	22b4049f 	.inst	0x22b4049f ; undefined
 918:	640122e0 	.inst	0x640122e0 ; undefined
 91c:	f822e004 	.inst	0xf822e004 ; undefined
 920:	01a30422 	.inst	0x01a30422 ; undefined
 924:	01009f52 	.inst	0x01009f52 ; undefined
 928:	1ff8042e 	fnmadd	h14, h1, h24, h1
 92c:	660122a8 	.inst	0x660122a8 ; undefined
 930:	f022b404 	adrp	x4, 45683000 <__free_ram_end+0x243f000>
 934:	00660122 	.inst	0x00660122 ; undefined
 938:	84042e01 	ldff1sb	{z1.s}, p3/z, [x16, z4.s, uxtw]
 93c:	0c22ac20 	.inst	0x0c22ac20 ; undefined
 940:	afa80087 	.inst	0xafa80087 ; undefined
 944:	a8008080 	stnp	x0, x0, [x4, #8]
 948:	008080b3 	.inst	0x008080b3 ; undefined
 94c:	e822b404 	.inst	0xe822b404 ; undefined
 950:	00870c22 	.inst	0x00870c22 ; undefined
 954:	8080afa8 	bmopa	za0.s, p3/m, p5/m, z29.s, z0.s
 958:	80b3a800 	.inst	0x80b3a800 ; undefined
 95c:	01000080 	.inst	0x01000080 ; undefined
 960:	23a8042e 	.inst	0x23a8042e ; undefined
 964:	580123ac 	ldr	x12, 2dd8 <_binary_shell_bin_size-0x100e228>
 968:	cc23ac04 	.inst	0xcc23ac04 ; undefined
 96c:	04510123 	.inst	0x04510123 ; undefined
 970:	23fc23f0 	.inst	0x23fc23f0 ; undefined
 974:	01005101 	.inst	0x01005101 ; undefined
 978:	23d0042e 	.inst	0x23d0042e ; undefined
 97c:	780723e0 	sturh	w0, [sp, #114]
 980:	20891000 	.inst	0x20891000 ; undefined
 984:	e0049f21 	ld1b	{za0v.b[w12, 1]}, p7/z, [x25, x4]
 988:	0123ec23 	.inst	0x0123ec23 ; undefined
 98c:	01980058 	.inst	0x01980058 ; undefined
 990:	00050000 	.inst	0x00050000 ; undefined
 994:	00100008 	.inst	0x00100008 ; undefined
 998:	00400000 	.inst	0x00400000 ; undefined
 99c:	004e0000 	.inst	0x004e0000 ; undefined
 9a0:	005c0000 	.inst	0x005c0000 ; undefined
 9a4:	00750000 	.inst	0x00750000 ; undefined
 9a8:	00840000 	.inst	0x00840000 ; undefined
 9ac:	009e0000 	.inst	0x009e0000 ; undefined
 9b0:	00ad0000 	.inst	0x00ad0000 ; undefined
 9b4:	00bc0000 	.inst	0x00bc0000 ; undefined
 9b8:	00d40000 	.inst	0x00d40000 ; undefined
 9bc:	00e30000 	.inst	0x00e30000 ; undefined
 9c0:	00f20000 	.inst	0x00f20000 ; undefined
 9c4:	01010000 	.inst	0x01010000 ; undefined
 9c8:	011f0000 	.inst	0x011f0000 ; undefined
 9cc:	01370000 	.inst	0x01370000 ; undefined
 9d0:	01770000 	.inst	0x01770000 ; undefined
 9d4:	01880000 	.inst	0x01880000 ; undefined
 9d8:	00040000 	.inst	0x00040000 ; undefined
 9dc:	500101b4 	adr	x20, 2a12 <_binary_shell_bin_size-0x100e5ee>
 9e0:	c401b404 	ld1q	z4.q, p5/z, [z0.d, x1]
 9e4:	005a0101 	.inst	0x005a0101 ; undefined
 9e8:	01b40004 	.inst	0x01b40004 ; undefined
 9ec:	b4045101 	cbz	x1, 940c <_binary_shell_bin_size-0x1007bf4>
 9f0:	0101c401 	.inst	0x0101c401 ; undefined
 9f4:	00040059 	.inst	0x00040059 ; undefined
 9f8:	72030188 	ands	w8, w12, #0x20000000
 9fc:	a8049f7f 	stnp	xzr, x7, [x27, #72]
 a00:	0301ac01 	.inst	0x0301ac01 ; undefined
 a04:	049f7f72 	mls	z18.s, p7/m, z27.s, z31.s
 a08:	01c001b4 	.inst	0x01c001b4 ; undefined
 a0c:	04005201 	mla	z1.b, p4/m, z16.b, z0.b
 a10:	02d801c8 	.inst	0x02d801c8 ; undefined
 a14:	d8045001 	prfm	pldl1strm, 9414 <_binary_shell_bin_size-0x1007bec>
 a18:	0102e402 	.inst	0x0102e402 ; undefined
 a1c:	c8040059 	stxr	w4, x25, [x2]
 a20:	0302b401 	.inst	0x0302b401 ; undefined
 a24:	049f7f72 	mls	z18.s, p7/m, z27.s, z31.s
 a28:	02d402d0 	.inst	0x02d402d0 ; undefined
 a2c:	9f7f7203 	.inst	0x9f7f7203 ; undefined
 a30:	e002d804 	ld1b	{za0v.b[w14, 4]}, p6/z, [x0, x2]
 a34:	00520102 	.inst	0x00520102 ; undefined
 a38:	fc02e804 	.inst	0xfc02e804 ; undefined
 a3c:	04510102 	.inst	0x04510102 ; undefined
 a40:	038402fc 	.inst	0x038402fc ; undefined
 a44:	04005a01 	mla	z1.b, p6/m, z16.b, z0.b
 a48:	02fc02e8 	.inst	0x02fc02e8 ; undefined
 a4c:	fc045001 	stur	d1, [x0, #69]
 a50:	01038802 	.inst	0x01038802 ; undefined
 a54:	90040059 	adrp	x25, 8008000 <_binary_shell_bin_size+0x6ff7000>
 a58:	01039c03 	.inst	0x01039c03 ; undefined
 a5c:	039c0450 	.inst	0x039c0450 ; undefined
 a60:	790303a8 	strh	w8, [x29, #384]
 a64:	a8049f7f 	stnp	xzr, x7, [x27, #72]
 a68:	0103ac03 	.inst	0x0103ac03 ; undefined
 a6c:	c0040059 	.inst	0xc0040059 ; undefined
 a70:	0103f803 	.inst	0x0103f803 ; undefined
 a74:	03f80450 	.inst	0x03f80450 ; undefined
 a78:	630107ec 	.inst	0x630107ec ; undefined
 a7c:	059c0400 	mov	z0.s, p12/z, #32
 a80:	660105a4 	.inst	0x660105a4 ; undefined
 a84:	e4068c04 	st1b	{z4.d}, p3, [x0, z6.d, uxtw]
 a88:	00660106 	.inst	0x00660106 ; undefined
 a8c:	a4059c04 	.inst	0xa4059c04 ; undefined
 a90:	04660105 	add	z5.h, z8.h, z6.h
 a94:	069c068c 	.inst	0x069c068c ; undefined
 a98:	04006601 	mls	z1.b, p1/m, z16.b, z0.b
 a9c:	06a8069c 	.inst	0x06a8069c ; undefined
 aa0:	049f3102 	.inst	0x049f3102 ; undefined
 aa4:	06d806a8 	.inst	0x06d806a8 ; undefined
 aa8:	d8046701 	prfm	pldl1strm, 9788 <_binary_shell_bin_size-0x1007878>
 aac:	0106dc06 	.inst	0x0106dc06 ; undefined
 ab0:	06dc0458 	.inst	0x06dc0458 ; undefined
 ab4:	670106e4 	.inst	0x670106e4 ; undefined
 ab8:	06f40400 	.inst	0x06f40400 ; undefined
 abc:	58010780 	ldr	x0, 2bac <_binary_shell_bin_size-0x100e454>
 ac0:	84078004 	ldnt1sb	{z4.s}, p0/z, [z0.s, x7]
 ac4:	7f860307 	.inst	0x7f860307 ; undefined
 ac8:	0784049f 	.inst	0x0784049f ; undefined
 acc:	66010788 	.inst	0x66010788 ; undefined
 ad0:	07ac0400 	.inst	0x07ac0400 ; undefined
 ad4:	870f07bc 	.inst	0x870f07bc ; undefined
 ad8:	1c3c1100 	ldr	s0, 78cf8 <_binary_shell_bin_size-0xf98308>
 adc:	111b7c11 	add	w17, w0, #0x6df
 ae0:	0f111e7f 	.inst	0x0f111e7f ; undefined
 ae4:	bc049f22 	str	s2, [x25, #73]!
 ae8:	0f07c007 	.inst	0x0f07c007 ; undefined
 aec:	3c110087 	stur	b7, [x4, #-240]
 af0:	1b7c111c 	.inst	0x1b7c111c ; undefined
 af4:	111e7f11 	add	w17, w24, #0x79f
 af8:	049f220e 	.inst	0x049f220e ; undefined
 afc:	07d007c8 	.inst	0x07d007c8 ; undefined
 b00:	1100870f 	add	w15, w24, #0x21
 b04:	7c111c3c 	str	h28, [x1, #-239]!
 b08:	1e7f111b 	.inst	0x1e7f111b ; undefined
 b0c:	9f220f11 	.inst	0x9f220f11 ; undefined
 b10:	07a00400 	.inst	0x07a00400 ; undefined
 b14:	110307ac 	add	w12, w29, #0xc1
 b18:	bc049f00 	str	s0, [x24, #73]!
 b1c:	0107d007 	.inst	0x0107d007 ; undefined
 b20:	a0040058 	ld1b	{z24.b-z25.b}, pn8/z, [x2, x4]
 b24:	0107d007 	.inst	0x0107d007 ; undefined
 b28:	00370066 	.inst	0x00370066 ; NYI
 b2c:	00050000 	.inst	0x00050000 ; undefined
 b30:	00030008 	.inst	0x00030008 ; undefined
 b34:	000c0000 	.inst	0x000c0000 ; undefined
 b38:	00180000 	.inst	0x00180000 ; undefined
 b3c:	00280000 	.inst	0x00280000 ; NYI
 b40:	00040000 	.inst	0x00040000 ; undefined
 b44:	04500114 	mul	z20.h, p0/m, z20.h, z8.h
 b48:	01019414 	.inst	0x01019414 ; undefined
 b4c:	00040063 	.inst	0x00040063 ; undefined
 b50:	04510124 	.inst	0x04510124 ; undefined
 b54:	65014424 	.inst	0x65014424 ; undefined
 b58:	01484404 	.inst	0x01484404 ; undefined
 b5c:	18040051 	ldr	w17, 8b64 <_binary_shell_bin_size-0x100849c>
 b60:	64010194 	.inst	0x64010194 ; undefined
	...

Disassembly of section .debug_abbrev:

0000000000000000 <.debug_abbrev>:
   0:	25011101 	cmpge	p1.b, p4/z, z8.b, #1
   4:	03051325 	.inst	0x03051325 ; undefined
   8:	10177225 	adr	x5, 2ee4c <_binary_shell_bin_size-0xfe21b4>
   c:	11251b17 	add	w23, w24, #0x946
  10:	73235501 	.inst	0x73235501 ; undefined
  14:	8c177417 	.inst	0x8c177417 ; undefined
  18:	00001701 	udf	#5889
  1c:	03002402 	.inst	0x03002402 ; undefined
  20:	0b0b3e25 	add	w5, w17, w11, lsl #15
  24:	0300000b 	.inst	0x0300000b ; undefined
  28:	13490034 	.inst	0x13490034 ; undefined
  2c:	0b3b0b3a 	add	w26, w25, w27, uxtb #2
  30:	00001802 	udf	#6146
  34:	49010104 	.inst	0x49010104 ; undefined
  38:	05000013 	orr	z19.s, z19.s, #0x1
  3c:	13490021 	.inst	0x13490021 ; undefined
  40:	00000b37 	udf	#2871
  44:	03002406 	.inst	0x03002406 ; undefined
  48:	3e0b0b25 	.inst	0x3e0b0b25 ; undefined
  4c:	0700000b 	.inst	0x0700000b ; undefined
  50:	1b11012e 	madd	w14, w9, w17, w0
  54:	18400612 	ldr	w18, 80114 <_binary_shell_bin_size-0xf90eec>
  58:	1331197a 	.inst	0x1331197a ; undefined
  5c:	34080000 	cbz	w0, 1005c <_binary_shell_bin_size-0x1000fa4>
  60:	49250300 	.inst	0x49250300 ; undefined
  64:	3b0b3a13 	.inst	0x3b0b3a13 ; undefined
  68:	0018020b 	.inst	0x0018020b ; undefined
  6c:	00050900 	.inst	0x00050900 ; undefined
  70:	13312202 	.inst	0x13312202 ; undefined
  74:	340a0000 	cbz	w0, 14074 <_binary_shell_bin_size-0xffcf8c>
  78:	31220200 	adds	w0, w16, #0x880
  7c:	0b000013 	add	w19, w0, w0
  80:	137f0148 	.inst	0x137f0148 ; undefined
  84:	00001b7d 	udf	#7037
  88:	0200490c 	.inst	0x0200490c ; undefined
  8c:	00187e18 	.inst	0x00187e18 ; undefined
  90:	00160d00 	.inst	0x00160d00 ; undefined
  94:	25031349 	cmpge	p9.b, p4/z, z26.b, #3
  98:	0b3b0b3a 	add	w26, w25, w27, uxtb #2
  9c:	340e0000 	cbz	w0, 1c09c <_binary_shell_bin_size-0xff4f64>
  a0:	3a134900 	.inst	0x3a134900 ; undefined
  a4:	02053b0b 	.inst	0x02053b0b ; undefined
  a8:	0f000018 	.inst	0x0f000018 ; undefined
  ac:	13490034 	.inst	0x13490034 ; undefined
  b0:	053b0b3a 	ext	z26.b, z26.b, z25.b, #218
  b4:	34100000 	cbz	w0, 200b4 <_binary_shell_bin_size-0xff0f4c>
  b8:	49250300 	.inst	0x49250300 ; undefined
  bc:	3a193f13 	.inst	0x3a193f13 ; undefined
  c0:	020b3b0b 	.inst	0x020b3b0b ; undefined
  c4:	11000018 	add	w24, w0, #0x0
  c8:	25030113 	cmpgt	p3.b, p0/z, z8.b, #3
  cc:	0b3a050b 	add	w11, w8, w26, uxtb #1
  d0:	00000b3b 	udf	#2875
  d4:	03000d12 	.inst	0x03000d12 ; undefined
  d8:	3a134925 	.inst	0x3a134925 ; undefined
  dc:	380b3b0b 	sttrb	w11, [x24, #179]
  e0:	1300000b 	sbfx	w11, w0, #0, #1
  e4:	2503000d 	cmpge	p13.b, p0/z, z0.b, #3
  e8:	0b3a1349 	add	w9, w26, w26, uxtb #4
  ec:	01880b3b 	.inst	0x01880b3b ; undefined
  f0:	000b380f 	.inst	0x000b380f ; undefined
  f4:	000f1400 	.inst	0x000f1400 ; undefined
  f8:	00001349 	udf	#4937
  fc:	49002115 	.inst	0x49002115 ; undefined
 100:	00053713 	.inst	0x00053713 ; undefined
 104:	00341600 	.inst	0x00341600 ; NYI
 108:	13492503 	.inst	0x13492503 ; undefined
 10c:	0b3a193f 	.inst	0x0b3a193f ; undefined
 110:	1802053b 	ldr	w27, 41b4 <_binary_shell_bin_size-0x100ce4c>
 114:	13170000 	sbfiz	w0, w0, #9, #1
 118:	0b250301 	add	w1, w24, w5, uxtb
 11c:	3b0b3a05 	.inst	0x3b0b3a05 ; undefined
 120:	0f01880b 	.inst	0x0f01880b ; undefined
 124:	0d180000 	.inst	0x0d180000 ; undefined
 128:	49250300 	.inst	0x49250300 ; undefined
 12c:	3b0b3a13 	.inst	0x3b0b3a13 ; undefined
 130:	0005380b 	.inst	0x0005380b ; undefined
 134:	01131900 	.inst	0x01131900 ; undefined
 138:	0b0b2503 	add	w3, w8, w11, lsl #9
 13c:	0b3b0b3a 	add	w26, w25, w27, uxtb #2
 140:	0f1a0000 	.inst	0x0f1a0000 ; undefined
 144:	1b000000 	madd	w0, w0, w0, w0
 148:	13490035 	.inst	0x13490035 ; undefined
 14c:	051c0000 	mov	z0.b, p12/z, #0
 150:	31180200 	adds	w0, w16, #0x600
 154:	1d000013 	.inst	0x1d000013 ; undefined
 158:	18020034 	ldr	w20, 415c <_binary_shell_bin_size-0x100cea4>
 15c:	00001331 	udf	#4913
 160:	03012e1e 	.inst	0x03012e1e ; undefined
 164:	3b0b3a25 	.inst	0x3b0b3a25 ; undefined
 168:	4919270b 	.inst	0x4919270b ; undefined
 16c:	20193f13 	.inst	0x20193f13 ; undefined
 170:	00000121 	udf	#289
 174:	0300051f 	.inst	0x0300051f ; undefined
 178:	3b0b3a25 	.inst	0x3b0b3a25 ; undefined
 17c:	0013490b 	.inst	0x0013490b ; undefined
 180:	00342000 	.inst	0x00342000 ; NYI
 184:	0b3a2503 	add	w3, w8, w26, uxth #1
 188:	13490b3b 	.inst	0x13490b3b ; undefined
 18c:	26210000 	.inst	0x26210000 ; undefined
 190:	00134900 	.inst	0x00134900 ; undefined
 194:	011d2200 	.inst	0x011d2200 ; undefined
 198:	1b111331 	madd	w17, w25, w17, w4
 19c:	0b580612 	add	w18, w16, w24, lsr #1
 1a0:	0b570b59 	add	w25, w26, w23, lsr #2
 1a4:	05230000 	ext	z0.b, z0.b, z0.b, #24
 1a8:	310d1c00 	adds	w0, w0, #0x347
 1ac:	24000013 	cmphi	p3.b, p0/z, z0.b, z0.b
 1b0:	0d1c0034 	.inst	0x0d1c0034 ; undefined
 1b4:	00001331 	udf	#4913
 1b8:	31003425 	adds	w5, w1, #0xd
 1bc:	26000013 	.inst	0x26000013 ; undefined
 1c0:	1b11002e 	madd	w14, w1, w17, w0
 1c4:	18400612 	ldr	w18, 80284 <_binary_shell_bin_size-0xf90d7c>
 1c8:	2503197a 	cmpgt	p10.b, p6/z, z11.b, #3
 1cc:	0b3b0b3a 	add	w26, w25, w27, uxtb #2
 1d0:	193f1927 	.inst	0x193f1927 ; undefined
 1d4:	48270000 	.inst	0x48270000 ; undefined
 1d8:	7d137f00 	str	h0, [x24, #2494]
 1dc:	2800001b 	stnp	w27, w0, [x0]
 1e0:	137f0048 	.inst	0x137f0048 ; undefined
 1e4:	81190182 	.inst	0x81190182 ; undefined
 1e8:	00001b01 	udf	#6913
 1ec:	03012e29 	.inst	0x03012e29 ; undefined
 1f0:	3b0b3a25 	.inst	0x3b0b3a25 ; undefined
 1f4:	3c19270b 	str	b11, [x24], #-110
 1f8:	00193f19 	.inst	0x00193f19 ; undefined
 1fc:	00052a00 	.inst	0x00052a00 ; undefined
 200:	00001349 	udf	#4937
 204:	0000182b 	udf	#6187
 208:	012e2c00 	.inst	0x012e2c00 ; undefined
 20c:	0b3a2503 	add	w3, w8, w26, uxth #1
 210:	19270b3b 	rcwcas	x7, x27, [x25]
 214:	193c1349 	ldclrp	x9, x28, [x26]
 218:	0000193f 	udf	#6463
 21c:	11012e2d 	add	w13, w17, #0x4b
 220:	4006121b 	.inst	0x4006121b ; undefined
 224:	03197a18 	.inst	0x03197a18 ; undefined
 228:	3b0b3a25 	.inst	0x3b0b3a25 ; undefined
 22c:	3f19270b 	.inst	0x3f19270b ; undefined
 230:	2e000019 	ext	v25.8b, v0.8b, v0.8b, #0
 234:	22020005 	.inst	0x22020005 ; undefined
 238:	0b3a2503 	add	w3, w8, w26, uxth #1
 23c:	13490b3b 	.inst	0x13490b3b ; undefined
 240:	342f0000 	cbz	w0, 5e240 <_binary_shell_bin_size-0xfb2dc0>
 244:	03220200 	.inst	0x03220200 ; undefined
 248:	3b0b3a25 	.inst	0x3b0b3a25 ; undefined
 24c:	0013490b 	.inst	0x0013490b ; undefined
 250:	010b3000 	.inst	0x010b3000 ; undefined
 254:	06121b11 	.inst	0x06121b11 ; undefined
 258:	05310000 	ext	z0.b, z0.b, z0.b, #136
 25c:	310f1c00 	adds	w0, w0, #0x3c7
 260:	32000013 	orr	w19, w0, #0x1
 264:	2355010b 	.inst	0x2355010b ; undefined
 268:	1d330000 	.inst	0x1d330000 ; undefined
 26c:	55133101 	.inst	0x55133101 ; undefined
 270:	590b5823 	.inst	0x590b5823 ; undefined
 274:	000b570b 	.inst	0x000b570b ; undefined
 278:	00343400 	.inst	0x00343400 ; NYI
 27c:	25031802 	cmpge	p2.b, p6/z, z0.b, #3
 280:	0b3b0b3a 	add	w26, w25, w27, uxtb #2
 284:	00001349 	udf	#4937
 288:	02003435 	.inst	0x02003435 ; undefined
 28c:	3a250322 	.inst	0x3a250322 ; undefined
 290:	49053b0b 	.inst	0x49053b0b ; undefined
 294:	36000013 	tbz	w19, #0, 294 <_binary_shell_bin_size-0x1010d6c>
 298:	25030034 	cmpgt	p4.b, p0/z, z1.b, #3
 29c:	053b0b3a 	ext	z26.b, z26.b, z25.b, #218
 2a0:	00001349 	udf	#4937
 2a4:	03012e37 	.inst	0x03012e37 ; undefined
 2a8:	3b0b3a25 	.inst	0x3b0b3a25 ; undefined
 2ac:	3f19270b 	.inst	0x3f19270b ; undefined
 2b0:	01212019 	.inst	0x01212019 ; undefined
 2b4:	2e380000 	uaddl	v0.8h, v0.8b, v24.8b
 2b8:	121b1101 	and	w1, w8, #0x3e0
 2bc:	7a184006 	.inst	0x7a184006 ; undefined
 2c0:	3a250319 	.inst	0x3a250319 ; undefined
 2c4:	27053b0b 	.inst	0x27053b0b ; undefined
 2c8:	00193f19 	.inst	0x00193f19 ; undefined
 2cc:	011d3900 	.inst	0x011d3900 ; undefined
 2d0:	1b111331 	madd	w17, w25, w17, w4
 2d4:	0b580612 	add	w18, w16, w24, lsr #1
 2d8:	0b570559 	add	w25, w10, w23, lsr #1
 2dc:	2e3a0000 	uaddl	v0.8h, v0.8b, v26.8b
 2e0:	121b1100 	and	w0, w8, #0x3e0
 2e4:	7a184006 	.inst	0x7a184006 ; undefined
 2e8:	3a250319 	.inst	0x3a250319 ; undefined
 2ec:	27053b0b 	.inst	0x27053b0b ; undefined
 2f0:	00193f19 	.inst	0x00193f19 ; undefined
 2f4:	012e3b00 	.inst	0x012e3b00 ; undefined
 2f8:	06121b11 	.inst	0x06121b11 ; undefined
 2fc:	197a1840 	.inst	0x197a1840 ; undefined
 300:	0b3a2503 	add	w3, w8, w26, uxth #1
 304:	1927053b 	.inst	0x1927053b ; undefined
 308:	193f1349 	ldclrp	x9, xzr, [x26]
 30c:	053c0000 	ext	z0.b, z0.b, z0.b, #224
 310:	03220200 	.inst	0x03220200 ; undefined
 314:	3b0b3a25 	.inst	0x3b0b3a25 ; undefined
 318:	00134905 	.inst	0x00134905 ; undefined
 31c:	011d3d00 	.inst	0x011d3d00 ; undefined
 320:	23551331 	.inst	0x23551331 ; undefined
 324:	05590b58 	mov	z24.h, p9/z, #90
 328:	00000b57 	udf	#2903
 32c:	0000263e 	udf	#9790
 330:	012e3f00 	.inst	0x012e3f00 ; undefined
 334:	0b3a2503 	add	w3, w8, w26, uxth #1
 338:	13490b3b 	.inst	0x13490b3b ; undefined
 33c:	2120193f 	.inst	0x2120193f ; undefined
 340:	40000001 	.inst	0x40000001 ; undefined
 344:	2503012e 	cmpge	p14.b, p0/z, z9.b, #3
 348:	053b0b3a 	ext	z26.b, z26.b, z25.b, #218
 34c:	193c1927 	.inst	0x193c1927 ; undefined
 350:	0000193f 	udf	#6463
 354:	03012e41 	.inst	0x03012e41 ; undefined
 358:	3b0b3a25 	.inst	0x3b0b3a25 ; undefined
 35c:	49192705 	.inst	0x49192705 ; undefined
 360:	20193f13 	.inst	0x20193f13 ; undefined
 364:	00000121 	udf	#289
 368:	03000542 	.inst	0x03000542 ; undefined
 36c:	3b0b3a25 	.inst	0x3b0b3a25 ; undefined
 370:	00134905 	.inst	0x00134905 ; undefined
 374:	012e4300 	.inst	0x012e4300 ; undefined
 378:	0b3a2503 	add	w3, w8, w26, uxth #1
 37c:	1927053b 	.inst	0x1927053b ; undefined
 380:	2120193f 	.inst	0x2120193f ; undefined
 384:	44000001 	.inst	0x44000001 ; undefined
 388:	18020005 	ldr	w5, 4388 <_binary_shell_bin_size-0x100cc78>
 38c:	0b3a2503 	add	w3, w8, w26, uxth #1
 390:	1349053b 	.inst	0x1349053b ; undefined
 394:	34450000 	cbz	w0, 8a394 <_binary_shell_bin_size-0xf86c6c>
 398:	03180200 	.inst	0x03180200 ; undefined
 39c:	3b0b3a25 	.inst	0x3b0b3a25 ; undefined
 3a0:	00134905 	.inst	0x00134905 ; undefined
 3a4:	11010000 	add	w0, w0, #0x40
 3a8:	13252501 	.inst	0x13252501 ; undefined
 3ac:	72250305 	ands	w5, w24, #0x8000000
 3b0:	1b171017 	madd	w23, w0, w23, w4
 3b4:	121b1125 	and	w5, w9, #0x3e0
 3b8:	74177306 	.inst	0x74177306 ; undefined
 3bc:	17018c17 	b	fffffffffc063418 <__free_ram_end+0xffffffffb8e1f418>
 3c0:	34020000 	cbz	w0, 43c0 <_binary_shell_bin_size-0x100cc40>
 3c4:	3a134900 	.inst	0x3a134900 ; undefined
 3c8:	020b3b0b 	.inst	0x020b3b0b ; undefined
 3cc:	03000018 	.inst	0x03000018 ; undefined
 3d0:	13490101 	.inst	0x13490101 ; undefined
 3d4:	21040000 	.inst	0x21040000 ; undefined
 3d8:	37134900 	tbnz	w0, #2, 6cf8 <_binary_shell_bin_size-0x100a308>
 3dc:	0500000b 	orr	z11.s, z11.s, #0x1
 3e0:	25030024 	cmpge	p4.b, p0/z, z1.b, #3
 3e4:	0b0b0b3e 	add	w30, w25, w11, lsl #2
 3e8:	24060000 	cmphs	p0.b, p0/z, z0.b, z6.b
 3ec:	0b250300 	add	w0, w24, w5, uxtb
 3f0:	000b3e0b 	.inst	0x000b3e0b ; undefined
 3f4:	000f0700 	.inst	0x000f0700 ; undefined
 3f8:	00001349 	udf	#4937
 3fc:	49001608 	.inst	0x49001608 ; undefined
 400:	3a250313 	.inst	0x3a250313 ; undefined
 404:	000b3b0b 	.inst	0x000b3b0b ; undefined
 408:	00260900 	.inst	0x00260900 ; NYI
 40c:	00001349 	udf	#4937
 410:	11012e0a 	add	w10, w16, #0x4b
 414:	4006121b 	.inst	0x4006121b ; undefined
 418:	03197a18 	.inst	0x03197a18 ; undefined
 41c:	3b0b3a25 	.inst	0x3b0b3a25 ; undefined
 420:	4919270b 	.inst	0x4919270b ; undefined
 424:	00193f13 	.inst	0x00193f13 ; undefined
 428:	00050b00 	.inst	0x00050b00 ; undefined
 42c:	25031802 	cmpge	p2.b, p6/z, z0.b, #3
 430:	0b3b0b3a 	add	w26, w25, w27, uxtb #2
 434:	00001349 	udf	#4937
 438:	0200050c 	.inst	0x0200050c ; undefined
 43c:	3a250322 	.inst	0x3a250322 ; undefined
 440:	490b3b0b 	.inst	0x490b3b0b ; undefined
 444:	0d000013 	st1	{v19.b}[0], [x0]
 448:	22020034 	.inst	0x22020034 ; undefined
 44c:	0b3a2503 	add	w3, w8, w26, uxth #1
 450:	13490b3b 	.inst	0x13490b3b ; undefined
 454:	2e0e0000 	ext	v0.8b, v0.8b, v14.8b, #0
 458:	121b1101 	and	w1, w8, #0x3e0
 45c:	7a184006 	.inst	0x7a184006 ; undefined
 460:	3a250319 	.inst	0x3a250319 ; undefined
 464:	270b3b0b 	.inst	0x270b3b0b ; undefined
 468:	00193f19 	.inst	0x00193f19 ; undefined
 46c:	00340f00 	.inst	0x00340f00 ; NYI
 470:	25031802 	cmpge	p2.b, p6/z, z0.b, #3
 474:	0b3b0b3a 	add	w26, w25, w27, uxtb #2
 478:	00001349 	udf	#4937
 47c:	03000a10 	.inst	0x03000a10 ; undefined
 480:	3b0b3a25 	.inst	0x3b0b3a25 ; undefined
 484:	001b110b 	.inst	0x001b110b ; undefined
 488:	010b1100 	.inst	0x010b1100 ; undefined
 48c:	00002355 	udf	#9045
 490:	11010b12 	add	w18, w24, #0x42
 494:	0006121b 	.inst	0x0006121b ; undefined
 498:	00341300 	.inst	0x00341300 ; NYI
 49c:	0b3a2503 	add	w3, w8, w26, uxth #1
 4a0:	13490b3b 	.inst	0x13490b3b ; undefined
 4a4:	18140000 	ldr	w0, 284a4 <_binary_shell_bin_size-0xfe8b5c>
 4a8:	15000000 	b	40004a8 <_binary_shell_bin_size+0x2fef4a8>
 4ac:	137f0048 	.inst	0x137f0048 ; undefined
 4b0:	00001b7d 	udf	#7037
 4b4:	7f014816 	.inst	0x7f014816 ; undefined
 4b8:	001b7d13 	.inst	0x001b7d13 ; undefined
 4bc:	00491700 	.inst	0x00491700 ; undefined
 4c0:	187e1802 	ldr	w2, fc7c0 <_binary_shell_bin_size-0xf14840>
 4c4:	2e180000 	ext	v0.8b, v0.8b, v24.8b, #0
 4c8:	3a250301 	.inst	0x3a250301 ; undefined
 4cc:	270b3b0b 	.inst	0x270b3b0b ; undefined
 4d0:	3f193c19 	.inst	0x3f193c19 ; undefined
 4d4:	19000019 	stlurb	w25, [x0]
 4d8:	13490005 	.inst	0x13490005 ; undefined
 4dc:	0f1a0000 	.inst	0x0f1a0000 ; undefined
 4e0:	1b000000 	madd	w0, w0, w0, w0
 4e4:	00000026 	udf	#38
 4e8:	4900161c 	.inst	0x4900161c ; undefined
 4ec:	00250313 	.inst	0x00250313 ; NYI
 4f0:	01131d00 	.inst	0x01131d00 ; undefined
 4f4:	0b0b2503 	add	w3, w8, w11, lsl #9
 4f8:	0d1e0000 	.inst	0x0d1e0000 ; undefined
 4fc:	49250300 	.inst	0x49250300 ; undefined
 500:	3b0b3a13 	.inst	0x3b0b3a13 ; undefined
 504:	000b380b 	.inst	0x000b380b ; undefined
 508:	11010000 	add	w0, w0, #0x40
 50c:	11171001 	add	w1, w0, #0x5c4
 510:	03011201 	.inst	0x03011201 ; undefined
 514:	25081b08 	cmpge	p8.b, p6/z, z24.b, #8
 518:	00051308 	.inst	0x00051308 ; undefined
 51c:	000a0200 	.inst	0x000a0200 ; undefined
 520:	063a0803 	.inst	0x063a0803 ; undefined
 524:	0111063b 	.inst	0x0111063b ; undefined
 528:	01000000 	.inst	0x01000000 ; undefined
 52c:	17100111 	b	fffffffffc400970 <__free_ram_end+0xffffffffb91bc970>
 530:	01120111 	.inst	0x01120111 ; undefined
 534:	081b0803 	stxrb	w27, w3, [x0]
 538:	05130825 	mov	z5.b, p3/z, #65
 53c:	0a020000 	and	w0, w0, w2
 540:	3a080300 	adcs	w0, w24, w8
 544:	11063b06 	add	w6, w24, #0x18e
 548:	00000001 	udf	#1
 54c:	25011101 	cmpge	p1.b, p4/z, z8.b, #1
 550:	03051325 	.inst	0x03051325 ; undefined
 554:	10177225 	adr	x5, 2f398 <_binary_shell_bin_size-0xfe1c68>
 558:	11251b17 	add	w23, w24, #0x946
 55c:	7306121b 	.inst	0x7306121b ; undefined
 560:	17018c17 	b	fffffffffc0635bc <__free_ram_end+0xffffffffb8e1f5bc>
 564:	34020000 	cbz	w0, 4564 <_binary_shell_bin_size-0x100ca9c>
 568:	3a134900 	.inst	0x3a134900 ; undefined
 56c:	020b3b0b 	.inst	0x020b3b0b ; undefined
 570:	03000018 	.inst	0x03000018 ; undefined
 574:	13490101 	.inst	0x13490101 ; undefined
 578:	21040000 	.inst	0x21040000 ; undefined
 57c:	37134900 	tbnz	w0, #2, 6e9c <_binary_shell_bin_size-0x100a164>
 580:	0500000b 	orr	z11.s, z11.s, #0x1
 584:	25030024 	cmpge	p4.b, p0/z, z1.b, #3
 588:	0b0b0b3e 	add	w30, w25, w11, lsl #2
 58c:	24060000 	cmphs	p0.b, p0/z, z0.b, z6.b
 590:	0b250300 	add	w0, w24, w5, uxtb
 594:	000b3e0b 	.inst	0x000b3e0b ; undefined
 598:	012e0700 	.inst	0x012e0700 ; undefined
 59c:	06121b11 	.inst	0x06121b11 ; undefined
 5a0:	197a1840 	.inst	0x197a1840 ; undefined
 5a4:	0b3a2503 	add	w3, w8, w26, uxth #1
 5a8:	19270b3b 	rcwcas	x7, x27, [x25]
 5ac:	0000193f 	udf	#6463
 5b0:	02000508 	.inst	0x02000508 ; undefined
 5b4:	3a250322 	.inst	0x3a250322 ; undefined
 5b8:	490b3b0b 	.inst	0x490b3b0b ; undefined
 5bc:	09000013 	.inst	0x09000013 ; undefined
 5c0:	22020034 	.inst	0x22020034 ; undefined
 5c4:	0b3a2503 	add	w3, w8, w26, uxth #1
 5c8:	13490b3b 	.inst	0x13490b3b ; undefined
 5cc:	340a0000 	cbz	w0, 145cc <_binary_shell_bin_size-0xffca34>
 5d0:	3a250300 	.inst	0x3a250300 ; undefined
 5d4:	490b3b0b 	.inst	0x490b3b0b ; undefined
 5d8:	0b000013 	add	w19, w0, w0
 5dc:	137f0048 	.inst	0x137f0048 ; undefined
 5e0:	00001b7d 	udf	#7037
 5e4:	7f01480c 	.inst	0x7f01480c ; undefined
 5e8:	001b7d13 	.inst	0x001b7d13 ; undefined
 5ec:	00490d00 	.inst	0x00490d00 ; undefined
 5f0:	187e1802 	ldr	w2, fc8f0 <_binary_shell_bin_size-0xf14710>
 5f4:	2e0e0000 	ext	v0.8b, v0.8b, v14.8b, #0
 5f8:	3a250301 	.inst	0x3a250301 ; undefined
 5fc:	270b3b0b 	.inst	0x270b3b0b ; undefined
 600:	3f193c19 	.inst	0x3f193c19 ; undefined
 604:	0f000019 	.inst	0x0f000019 ; undefined
 608:	13490005 	.inst	0x13490005 ; undefined
 60c:	18100000 	ldr	w0, 2060c <_binary_shell_bin_size-0xff09f4>
 610:	11000000 	add	w0, w0, #0x0
 614:	1349000f 	.inst	0x1349000f ; undefined
 618:	26120000 	.inst	0x26120000 ; undefined
 61c:	00134900 	.inst	0x00134900 ; undefined
 620:	002e1300 	.inst	0x002e1300 ; NYI
 624:	06121b11 	.inst	0x06121b11 ; undefined
 628:	197a1840 	.inst	0x197a1840 ; undefined
 62c:	0b3a2503 	add	w3, w8, w26, uxth #1
 630:	19270b3b 	rcwcas	x7, x27, [x25]
 634:	0000193f 	udf	#6463
 638:	49001614 	.inst	0x49001614 ; undefined
 63c:	3a250313 	.inst	0x3a250313 ; undefined
 640:	000b3b0b 	.inst	0x000b3b0b ; undefined
	...

Disassembly of section .debug_info:

0000000000000000 <.debug_info>:
       0:	00001699 	udf	#5785
       4:	08010005 	stxrb	w1, w5, [x0]
       8:	00000000 	udf	#0
       c:	001d0001 	.inst	0x001d0001 ; undefined
      10:	00000801 	udf	#2049
      14:	00000000 	udf	#0
      18:	00000200 	udf	#512
      1c:	00000000 	udf	#0
      20:	08100000 	stxrb	w16, w0, [x0]
      24:	0c000000 	st4	{v0.8b-v3.8b}, [x0]
      28:	0c000000 	st4	{v0.8b-v3.8b}, [x0]
      2c:	02000000 	.inst	0x02000000 ; undefined
      30:	0208075a 	.inst	0x0208075a ; undefined
      34:	03020759 	.inst	0x03020759 ; undefined
      38:	00000041 	udf	#65
      3c:	a1024e00 	ld1w	{z0.s, z8.s}, pn11/z, [x16, x2, lsl #2]
      40:	004d0400 	.inst	0x004d0400 ; undefined
      44:	51050000 	sub	w0, w0, #0x140
      48:	26000000 	.inst	0x26000000 ; undefined
      4c:	08030200 	stxrb	w3, w0, [x16]
      50:	08040601 	stxrb	w4, w1, [x16]
      54:	005f0307 	.inst	0x005f0307 ; undefined
      58:	6a000000 	ands	w0, w0, w0
      5c:	0401a102 	.inst	0x0401a102 ; undefined
      60:	0000004d 	udf	#77
      64:	00005105 	udf	#20741
      68:	07002000 	.inst	0x07002000 ; undefined
      6c:	00006838 	udf	#26680
      70:	676d0100 	.inst	0x676d0100 ; undefined
      74:	08000007 	stxrb	w0, w7, [x0]
      78:	0000af05 	udf	#44805
      7c:	026f0000 	.inst	0x026f0000 ; undefined
      80:	090902a1 	.inst	0x090902a1 ; undefined
      84:	0000076f 	udf	#1903
      88:	07770a0a 	.inst	0x07770a0a ; undefined
      8c:	3c0b0000 	stur	b0, [x0, #176]
      90:	39000007 	strb	w7, [x0]
      94:	0252010c 	.inst	0x0252010c ; undefined
      98:	0b007410 	add	w16, w0, w0, lsl #29
      9c:	00000747 	udf	#1863
      a0:	51010c3a 	sub	w26, w1, #0x43
      a4:	0c008f02 	.inst	0x0c008f02 ; undefined
      a8:	83025001 	.inst	0x83025001 ; undefined
      ac:	0d000000 	st1	{v0.b}[0], [x0]
      b0:	000000b7 	udf	#183
      b4:	0d090108 	.inst	0x0d090108 ; undefined
      b8:	000000bf 	udf	#191
      bc:	02070107 	.inst	0x02070107 ; undefined
      c0:	03080706 	.inst	0x03080706 ; undefined
      c4:	000000cd 	udf	#205
      c8:	a1027400 	ld1d	{z0.d, z8.d}, pn13/z, [x0, x2, lsl #3]
      cc:	004d0403 	.inst	0x004d0403 ; undefined
      d0:	51050000 	sub	w0, w0, #0x140
      d4:	1d000000 	.inst	0x1d000000 ; undefined
      d8:	00e30300 	.inst	0x00e30300 ; undefined
      dc:	74000000 	.inst	0x74000000 ; undefined
      e0:	0404a102 	.inst	0x0404a102 ; undefined
      e4:	0000004d 	udf	#77
      e8:	00005105 	udf	#20741
      ec:	03000900 	.inst	0x03000900 ; undefined
      f0:	000000f9 	udf	#249
      f4:	a1027c00 	ld1d	{z0.d, z8.d}, pn15/z, [x0, x2, lsl #3]
      f8:	004d0405 	.inst	0x004d0405 ; undefined
      fc:	51050000 	sub	w0, w0, #0x140
     100:	23000000 	.inst	0x23000000 ; undefined
     104:	00f90300 	.inst	0x00f90300 ; undefined
     108:	7e000000 	.inst	0x7e000000 ; undefined
     10c:	0e06a102 	.inst	0x0e06a102 ; undefined
     110:	0000011a 	udf	#282
     114:	02013200 	.inst	0x02013200 ; undefined
     118:	4d0407a1 	.inst	0x4d0407a1 ; undefined
     11c:	05000000 	orr	z0.s, z0.s, #0x1
     120:	00000051 	udf	#81
     124:	1a0e0014 	adc	w20, w0, w14
     128:	00000001 	udf	#1
     12c:	a102013c 	ldnt1b	{z20.b, z28.b}, pn8/z, [x9, x2]
     130:	013c0e08 	.inst	0x013c0e08 ; undefined
     134:	61000000 	.inst	0x61000000 ; undefined
     138:	09a10201 	.inst	0x09a10201 ; undefined
     13c:	00004d04 	udf	#19716
     140:	00510500 	.inst	0x00510500 ; undefined
     144:	00250000 	.inst	0x00250000 ; NYI
     148:	0000410e 	udf	#16654
     14c:	01770000 	.inst	0x01770000 ; undefined
     150:	0e0aa102 	.inst	0x0e0aa102 ; undefined
     154:	0000015e 	udf	#350
     158:	02017e00 	.inst	0x02017e00 ; undefined
     15c:	4d040ba1 	.inst	0x4d040ba1 ; undefined
     160:	05000000 	orr	z0.s, z0.s, #0x1
     164:	00000051 	udf	#81
     168:	750e0015 	.inst	0x750e0015 ; undefined
     16c:	00000001 	udf	#1
     170:	a1020184 	ld1b	{z4.b, z12.b}, pn8/z, [x12, x2]
     174:	004d040c 	.inst	0x004d040c ; undefined
     178:	51050000 	sub	w0, w0, #0x140
     17c:	11000000 	add	w0, w0, #0x0
     180:	015e0e00 	.inst	0x015e0e00 ; undefined
     184:	cf000000 	.inst	0xcf000000 ; undefined
     188:	0da10201 	st2	{v1.b-v2.b}[0], [x16], x1
     18c:	0001970e 	.inst	0x0001970e ; undefined
     190:	01d00000 	.inst	0x01d00000 ; undefined
     194:	040ea102 	.inst	0x040ea102 ; undefined
     198:	0000004d 	udf	#77
     19c:	00005105 	udf	#20741
     1a0:	0e001f00 	.inst	0x0e001f00 ; undefined
     1a4:	000001ae 	udf	#430
     1a8:	0201f800 	.inst	0x0201f800 ; undefined
     1ac:	4d040fa1 	.inst	0x4d040fa1 ; undefined
     1b0:	05000000 	orr	z0.s, z0.s, #0x1
     1b4:	00000051 	udf	#81
     1b8:	c50e0019 	ld1sw	{z25.d}, p0/z, [x0, z14.d, uxtw]
     1bc:	00000001 	udf	#1
     1c0:	a10201f9 	ldnt1b	{z17.b, z25.b}, pn8/z, [x15, x2]
     1c4:	004d0410 	.inst	0x004d0410 ; undefined
     1c8:	51050000 	sub	w0, w0, #0x140
     1cc:	27000000 	.inst	0x27000000 ; undefined
     1d0:	01750e00 	.inst	0x01750e00 ; undefined
     1d4:	fa000000 	sbcs	x0, x0, x0
     1d8:	11a10201 	.inst	0x11a10201 ; undefined
     1dc:	0001750e 	.inst	0x0001750e ; undefined
     1e0:	01fb0000 	.inst	0x01fb0000 ; undefined
     1e4:	0e12a102 	.inst	0x0e12a102 ; undefined
     1e8:	00000041 	udf	#65
     1ec:	0201ff00 	.inst	0x0201ff00 ; undefined
     1f0:	970e13a1 	bl	fffffffffc385074 <__free_ram_end+0xffffffffb9141074>
     1f4:	00000001 	udf	#1
     1f8:	a1020200 	ld1b	{z0.b, z8.b}, pn8/z, [x16, x2]
     1fc:	02080e14 	.inst	0x02080e14 ; undefined
     200:	1b000000 	madd	w0, w0, w0, w0
     204:	15a10202 	b	6840a0c <_binary_shell_bin_size+0x582fa0c>
     208:	00004d04 	udf	#19716
     20c:	00510500 	.inst	0x00510500 ; undefined
     210:	001b0000 	.inst	0x001b0000 ; undefined
     214:	00011a0e 	.inst	0x00011a0e ; undefined
     218:	02230000 	.inst	0x02230000 ; undefined
     21c:	0e16a102 	.inst	0x0e16a102 ; undefined
     220:	00000197 	udf	#407
     224:	02022600 	.inst	0x02022600 ; undefined
     228:	350e17a1 	cbnz	w1, 1c51c <_binary_shell_bin_size-0xff4ae4>
     22c:	00000002 	udf	#2
     230:	a1020241 	ld1b	{z1.b, z9.b}, pn8/z, [x18, x2]
     234:	004d0418 	.inst	0x004d0418 ; undefined
     238:	51050000 	sub	w0, w0, #0x140
     23c:	29000000 	stp	w0, w0, [x0]
     240:	013c0e00 	.inst	0x013c0e00 ; undefined
     244:	47000000 	.inst	0x47000000 ; undefined
     248:	19a10202 	.inst	0x19a10202 ; undefined
     24c:	0002570e 	.inst	0x0002570e ; undefined
     250:	02640000 	.inst	0x02640000 ; undefined
     254:	041aa102 	cnt	z2.b, p0/m, z8.b
     258:	0000004d 	udf	#77
     25c:	00005105 	udf	#20741
     260:	0e002e00 	.inst	0x0e002e00 ; undefined
     264:	0000026e 	udf	#622
     268:	02026f00 	.inst	0x02026f00 ; undefined
     26c:	4d041ba1 	.inst	0x4d041ba1 ; undefined
     270:	05000000 	orr	z0.s, z0.s, #0x1
     274:	00000051 	udf	#81
     278:	850e0022 	.inst	0x850e0022 ; undefined
     27c:	00000002 	udf	#2
     280:	a102028c 	ldnt1b	{z4.b, z12.b}, pn8/z, [x20, x2]
     284:	004d041c 	.inst	0x004d041c ; undefined
     288:	51050000 	sub	w0, w0, #0x140
     28c:	1a000000 	adc	w0, w0, w0
     290:	029c0e00 	.inst	0x029c0e00 ; undefined
     294:	8c000000 	.inst	0x8c000000 ; undefined
     298:	1da10202 	.inst	0x1da10202 ; undefined
     29c:	00004d04 	udf	#19716
     2a0:	00510500 	.inst	0x00510500 ; undefined
     2a4:	00060000 	.inst	0x00060000 ; undefined
     2a8:	0002b30e 	.inst	0x0002b30e ; undefined
     2ac:	028c0000 	.inst	0x028c0000 ; undefined
     2b0:	041ea102 	not	z2.b, p0/m, z8.b
     2b4:	0000004d 	udf	#77
     2b8:	00005105 	udf	#20741
     2bc:	0e000500 	.inst	0x0e000500 ; undefined
     2c0:	00000235 	udf	#565
     2c4:	0202c300 	.inst	0x0202c300 ; undefined
     2c8:	c50e1fa1 	ld1sw	{z1.d}, p7/z, [x29, z14.d, uxtw]
     2cc:	00000001 	udf	#1
     2d0:	a10202cc 	ldnt1b	{z4.b, z12.b}, pn8/z, [x22, x2]
     2d4:	02e00e20 	.inst	0x02e00e20 ; undefined
     2d8:	d2000000 	eor	x0, x0, #0x100000001
     2dc:	21a10202 	.inst	0x21a10202 ; undefined
     2e0:	00004d04 	udf	#19716
     2e4:	00510500 	.inst	0x00510500 ; undefined
     2e8:	000f0000 	.inst	0x000f0000 ; undefined
     2ec:	0002f70e 	.inst	0x0002f70e ; undefined
     2f0:	033a0000 	.inst	0x033a0000 ; undefined
     2f4:	0422a102 	adr	z2.d, [z8.d, z2.d, sxtw]
     2f8:	0000004d 	udf	#77
     2fc:	00005105 	udf	#20741
     300:	0e001200 	tbx	v0.8b, {v16.16b}, v0.8b
     304:	0000030e 	udf	#782
     308:	02033c00 	.inst	0x02033c00 ; undefined
     30c:	4d0423a1 	.inst	0x4d0423a1 ; undefined
     310:	05000000 	orr	z0.s, z0.s, #0x1
     314:	00000051 	udf	#81
     318:	250e0016 	cmpgt	p6.b, p0/z, z0.b, #14
     31c:	00000003 	udf	#3
     320:	a102033f 	ldnt1b	{z23.b, z31.b}, pn8/z, [x25, x2]
     324:	004d0424 	.inst	0x004d0424 ; undefined
     328:	51050000 	sub	w0, w0, #0x140
     32c:	17000000 	b	fffffffffc00032c <__free_ram_end+0xffffffffb8dbc32c>
     330:	02f70f00 	.inst	0x02f70f00 ; undefined
     334:	40000000 	.inst	0x40000000 ; undefined
     338:	44091003 	.inst	0x44091003 ; undefined
     33c:	00000003 	udf	#3
     340:	25a102c5 	whilege	p5.s, w22, w1
     344:	00035004 	.inst	0x00035004 ; undefined
     348:	00510500 	.inst	0x00510500 ; undefined
     34c:	00080000 	.inst	0x00080000 ; undefined
     350:	20201311 	.inst	0x20201311 ; undefined
     354:	0a127c02 	and	w2, w0, w18, lsl #31
     358:	00000385 	udf	#901
     35c:	12007d02 	.inst	0x12007d02 ; undefined
     360:	0003850c 	.inst	0x0003850c ; undefined
     364:	047e0200 	add	z0.h, z16.h, z30.h
     368:	03890d12 	.inst	0x03890d12 ; undefined
     36c:	7f020000 	.inst	0x7f020000 ; undefined
     370:	910f1208 	add	x8, x16, #0x3c4
     374:	02000003 	.inst	0x02000003 ; undefined
     378:	10131080 	adr	x0, 26588 <_binary_shell_bin_size-0xfeaa78>
     37c:	00000396 	udf	#918
     380:	20108102 	.inst	0x20108102 ; undefined
     384:	050b0200 	.inst	0x050b0200 ; undefined
     388:	00b70d04 	.inst	0x00b70d04 ; undefined
     38c:	010e0000 	.inst	0x010e0000 ; undefined
     390:	00b7140a 	.inst	0x00b7140a ; undefined
     394:	a3040000 	.inst	0xa3040000 ; undefined
     398:	15000003 	b	40003a4 <_binary_shell_bin_size+0x2fef3a4>
     39c:	00000051 	udf	#81
     3a0:	0d002000 	st3	{v0.b-v2.b}[0], [x0]
     3a4:	000003ab 	udf	#939
     3a8:	02040112 	.inst	0x02040112 ; undefined
     3ac:	10010811 	adr	x17, 24ac <_binary_shell_bin_size-0x100eb54>
     3b0:	0003ba14 	.inst	0x0003ba14 ; undefined
     3b4:	02ee0000 	.inst	0x02ee0000 ; undefined
     3b8:	501426a1 	adr	x1, 2888e <_binary_shell_bin_size-0xfe8772>
     3bc:	10000003 	adr	x3, 3bc <_binary_shell_bin_size-0x1010c44>
     3c0:	0003ba15 	.inst	0x0003ba15 ; undefined
     3c4:	02ef0000 	.inst	0x02ef0000 ; undefined
     3c8:	161027a1 	b	fffffffff840a24c <__free_ram_end+0xffffffffb51c624c>
     3cc:	000003ba 	udf	#954
     3d0:	a102f100 	ld1d	{z0.d, z4.d, z8.d, z12.d}, pn12/z, [x8, x2, lsl #3]
     3d4:	ba171028 	.inst	0xba171028 ; undefined
     3d8:	00000003 	udf	#3
     3dc:	29a102f2 	stp	w18, w0, [x23, #-248]!
     3e0:	03ec1816 	.inst	0x03ec1816 ; undefined
     3e4:	15000000 	b	40003e4 <_binary_shell_bin_size+0x2fef3e4>
     3e8:	2aa10202 	orn	w2, w16, w1, asr #0
     3ec:	0003f114 	.inst	0x0003f114 ; undefined
     3f0:	002f1700 	.inst	0x002f1700 ; NYI
     3f4:	80c50220 	fmopa	za0.d, p0/m, p0/m, z17.d, z5.d
     3f8:	3f191220 	.inst	0x3f191220 ; undefined
     3fc:	02000004 	.inst	0x02000004 ; undefined
     400:	231800c7 	.inst	0x231800c7 ; undefined
     404:	0000048d 	udf	#1165
     408:	0100c902 	.inst	0x0100c902 ; undefined
     40c:	04ba2718 	.inst	0x04ba2718 ; undefined
     410:	cb020000 	sub	x0, x0, x2
     414:	28180124 	stnp	w4, w0, [x9, #192]
     418:	000004c7 	udf	#1223
     41c:	1000cd02 	adr	x2, 1dbc <_binary_shell_bin_size-0x100f244>
     420:	04812c18 	uaddv	d24, p3, z0.s
     424:	cf020000 	.inst	0xcf020000 ; undefined
     428:	2d181084 	stp	s4, s4, [x4, #192]
     42c:	00000481 	udf	#1153
     430:	1086d002 	adr	x2, fffffffffff0de30 <__free_ram_end+0xffffffffbccc9e30>
     434:	04812e18 	uaddv	d24, p3, z16.s
     438:	d1020000 	sub	x0, x0, #0x80
     43c:	04001088 	add	z8.b, p4/m, z8.b, z4.b
     440:	0000044b 	udf	#1099
     444:	00005105 	udf	#20741
     448:	19001000 	stlurb	w0, [x0, #1]
     44c:	a9021022 	stp	x2, x4, [x1, #32]
     450:	00b71a12 	.inst	0x00b71a12 ; undefined
     454:	aa020000 	orr	x0, x0, x2
     458:	751b1200 	.inst	0x751b1200 ; undefined
     45c:	02000004 	.inst	0x02000004 ; undefined
     460:	1e1208ab 	.inst	0x1e1208ab ; undefined
     464:	00000481 	udf	#1153
     468:	120cac02 	and	w2, w0, #0xfff0fff0
     46c:	00048121 	.inst	0x00048121 ; undefined
     470:	0ead0200 	saddl	v0.2d, v16.2s, v13.2s
     474:	047d0d00 	.inst	0x047d0d00 ; undefined
     478:	011d0000 	.inst	0x011d0000 ; undefined
     47c:	071c0206 	.inst	0x071c0206 ; undefined
     480:	04890d04 	umax	z4.s, p3/m, z4.s, z8.s
     484:	01200000 	.inst	0x01200000 ; undefined
     488:	071f0205 	.inst	0x071f0205 ; undefined
     48c:	24261902 	cmphs	p2.b, p6/z, z8.b, #24
     490:	1e12b102 	.inst	0x1e12b102 ; undefined
     494:	00000481 	udf	#1153
     498:	1200b202 	and	w2, w16, #0x1fff1fff
     49c:	00048124 	.inst	0x00048124 ; undefined
     4a0:	02b30200 	.inst	0x02b30200 ; undefined
     4a4:	04ae2512 	.inst	0x04ae2512 ; undefined
     4a8:	b4020000 	cbz	x0, 44a8 <_binary_shell_bin_size-0x100cb58>
     4ac:	81040004 	.inst	0x81040004 ; undefined
     4b0:	05000004 	orr	z4.s, z4.s, #0x1
     4b4:	00000051 	udf	#81
     4b8:	a3040010 	.inst	0xa3040010 ; undefined
     4bc:	15000003 	b	40004c8 <_binary_shell_bin_size+0x2fef4c8>
     4c0:	00000051 	udf	#81
     4c4:	19000edc 	.inst	0x19000edc ; undefined
     4c8:	be02842b 	.inst	0xbe02842b ; undefined
     4cc:	04811e12 	sub	z18.s, p7/m, z18.s, z16.s
     4d0:	bf020000 	.inst	0xbf020000 ; undefined
     4d4:	81241200 	.inst	0x81241200 ; undefined
     4d8:	02000004 	.inst	0x02000004 ; undefined
     4dc:	251202c0 	cmpge	p0.b, p0/z, z22.b, #-14
     4e0:	000004e8 	udf	#1256
     4e4:	0004c102 	.inst	0x0004c102 ; undefined
     4e8:	0004f404 	.inst	0x0004f404 ; undefined
     4ec:	00510500 	.inst	0x00510500 ; undefined
     4f0:	00100000 	.inst	0x00100000 ; undefined
     4f4:	02082a19 	.inst	0x02082a19 ; undefined
     4f8:	752912b8 	.inst	0x752912b8 ; undefined
     4fc:	02000004 	.inst	0x02000004 ; undefined
     500:	1b1200b9 	madd	w25, w5, w18, w0
     504:	00000475 	udf	#1141
     508:	0004ba02 	.inst	0x0004ba02 ; undefined
     50c:	05183016 	.inst	0x05183016 ; undefined
     510:	16000000 	b	fffffffff8000510 <__free_ram_end+0xffffffffb4dbc510>
     514:	2ba10202 	.inst	0x2ba10202 ; undefined
     518:	00051d14 	.inst	0x00051d14 ; undefined
     51c:	11361100 	add	w0, w8, #0xd84
     520:	12d50202 	.inst	0x12d50202 ; undefined
     524:	00047531 	.inst	0x00047531 ; undefined
     528:	00d60200 	.inst	0x00d60200 ; undefined
     52c:	04753212 	orr	z18.d, z16.d, z21.d
     530:	d7020000 	.inst	0xd7020000 ; undefined
     534:	b7331204 	tbnz	x4, #38, 6774 <_binary_shell_bin_size-0x100a88c>
     538:	02000000 	.inst	0x02000000 ; undefined
     53c:	341208d8 	cbz	w24, 24654 <_binary_shell_bin_size-0xfec9ac>
     540:	00000552 	udf	#1362
     544:	1810d902 	ldr	w2, 22064 <_binary_shell_bin_size-0xfeef9c>
     548:	0003a335 	.inst	0x0003a335 ; undefined
     54c:	10da0200 	adr	x0, fffffffffffb458c <__free_ram_end+0xffffffffbcd7058c>
     550:	a3040002 	.inst	0xa3040002 ; undefined
     554:	15000003 	b	4000560 <_binary_shell_bin_size+0x2fef560>
     558:	00000051 	udf	#81
     55c:	16000200 	b	fffffffff8000d5c <__free_ram_end+0xffffffffb4dbcd5c>
     560:	0000af37 	udf	#44855
     564:	02170000 	.inst	0x02170000 ; undefined
     568:	162ca102 	b	fffffffff8b28970 <__free_ram_end+0xffffffffb58e4970>
     56c:	00047d38 	.inst	0x00047d38 ; undefined
     570:	02180000 	.inst	0x02180000 ; undefined
     574:	022da102 	.inst	0x022da102 ; undefined
     578:	1a080539 	.inst	0x1a080539 ; undefined
     57c:	00058114 	.inst	0x00058114 ; undefined
     580:	05861b00 	.inst	0x05861b00 ; undefined
     584:	7d0d0000 	str	h0, [x0, #1664]
     588:	1d000004 	.inst	0x1d000004 ; undefined
     58c:	93140a00 	.inst	0x93140a00 ; undefined
     590:	1b000005 	madd	w5, w0, w0, w0
     594:	000000b7 	udf	#183
     598:	00004d14 	udf	#19732
     59c:	05860d00 	.inst	0x05860d00 ; undefined
     5a0:	003a0000 	.inst	0x003a0000 ; NYI
     5a4:	1c2e070b 	ldr	s11, 5c684 <_binary_shell_bin_size-0xfb497c>
     5a8:	01000000 	.inst	0x01000000 ; undefined
     5ac:	0005f06f 	.inst	0x0005f06f ; undefined
     5b0:	f8000900 	sttr	x0, [x8]
     5b4:	1c000005 	ldr	s5, 5b4 <_binary_shell_bin_size-0x1010a4c>
     5b8:	000c9102 	.inst	0x000c9102 ; undefined
     5bc:	1c000006 	ldr	s6, 5bc <_binary_shell_bin_size-0x1010a44>
     5c0:	06085201 	.inst	0x06085201 ; undefined
     5c4:	01090000 	.inst	0x01090000 ; undefined
     5c8:	00000610 	udf	#1552
     5cc:	1853011d 	ldr	w29, a65ec <_binary_shell_bin_size-0xf6aa14>
     5d0:	1d000006 	.inst	0x1d000006 ; undefined
     5d4:	06205201 	.inst	0x06205201 ; undefined
     5d8:	020a0000 	.inst	0x020a0000 ; undefined
     5dc:	00000628 	udf	#1576
     5e0:	0c91031d 	st4	{v29.8b-v0.8b}, [x24], x17
     5e4:	0006309f 	.inst	0x0006309f ; undefined
     5e8:	38030a00 	sttrb	w0, [x16, #48]
     5ec:	00000006 	udf	#6
     5f0:	15003b1e 	b	400f268 <_binary_shell_bin_size+0x2ffe268>
     5f4:	00000577 	udf	#1399
     5f8:	15003c1f 	b	400f674 <_binary_shell_bin_size+0x2ffe674>
     5fc:	00000577 	udf	#1399
     600:	15003d1f 	b	400fa7c <_binary_shell_bin_size+0x2ffea7c>
     604:	0000004d 	udf	#77
     608:	15003e1f 	b	400fe84 <_binary_shell_bin_size+0x2ffee84>
     60c:	00000577 	udf	#1399
     610:	15003f1f 	b	401028c <_binary_shell_bin_size+0x2fff28c>
     614:	00000577 	udf	#1399
     618:	19004020 	stlurb	w0, [x1, #4]
     61c:	00000577 	udf	#1399
     620:	18004120 	ldr	w0, e44 <_binary_shell_bin_size-0x10101bc>
     624:	00000577 	udf	#1399
     628:	17004220 	b	fffffffffc010ea8 <__free_ram_end+0xffffffffb8dccea8>
     62c:	00000577 	udf	#1399
     630:	16004320 	b	fffffffff80112b0 <__free_ram_end+0xffffffffb4dcd2b0>
     634:	00000641 	udf	#1601
     638:	1a004420 	.inst	0x1a004420 ; undefined
     63c:	00000577 	udf	#1399
     640:	06461400 	.inst	0x06461400 ; undefined
     644:	4d210000 	.inst	0x4d210000 ; undefined
     648:	07000000 	.inst	0x07000000 ; undefined
     64c:	0000242f 	udf	#9263
     650:	df6f0100 	.inst	0xdf6f0100 ; undefined
     654:	09000009 	.inst	0x09000009 ; undefined
     658:	0009e304 	.inst	0x0009e304 ; undefined
     65c:	05f02200 	mov	z0.q, z16.q[3]
     660:	14300000 	b	c00660 <_binary_shell_bin_size-0x4109a0>
     664:	00000000 	udf	#0
     668:	03230324 	.inst	0x03230324 ; undefined
     66c:	000005f8 	udf	#1528
     670:	0c91021c 	st4	{v28.8b-v31.8b}, [x16], x17
     674:	00000600 	udf	#1536
     678:	06080123 	.inst	0x06080123 ; undefined
     67c:	c0230000 	.inst	0xc0230000 ; undefined
     680:	00061000 	.inst	0x00061000 ; undefined
     684:	00c02400 	.inst	0x00c02400 ; undefined
     688:	00000618 	udf	#1560
     68c:	06200124 	.inst	0x06200124 ; undefined
     690:	03240000 	.inst	0x03240000 ; undefined
     694:	00000628 	udf	#1576
     698:	0c91031d 	st4	{v29.8b-v0.8b}, [x24], x17
     69c:	0006309f 	.inst	0x0006309f ; undefined
     6a0:	07000000 	.inst	0x07000000 ; undefined
     6a4:	00002c31 	udf	#11313
     6a8:	806f0100 	.inst	0x806f0100 ; undefined
     6ac:	0a00000d 	and	w13, w0, w0
     6b0:	000d8805 	.inst	0x000d8805 ; undefined
     6b4:	98060a00 	ldrsw	x0, c7f4 <_binary_shell_bin_size-0x100480c>
     6b8:	2500000d 	cmpge	p13.b, p0/z, z0.b, #0
     6bc:	00000d90 	udf	#3472
     6c0:	0005f022 	.inst	0x0005f022 ; undefined
     6c4:	00143200 	.inst	0x00143200 ; undefined
     6c8:	32000000 	orr	w0, w0, #0x1
     6cc:	f8032311 	stur	x17, [x24, #50]
     6d0:	1c000005 	ldr	s5, 6d0 <_binary_shell_bin_size-0x1010930>
     6d4:	000c9102 	.inst	0x000c9102 ; undefined
     6d8:	23000006 	.inst	0x23000006 ; undefined
     6dc:	00060800 	.inst	0x00060800 ; undefined
     6e0:	00c02300 	.inst	0x00c02300 ; undefined
     6e4:	00000610 	udf	#1552
     6e8:	1800c024 	ldr	w4, 1eec <_binary_shell_bin_size-0x100f114>
     6ec:	24000006 	cmphs	p6.b, p0/z, z0.b, z0.b
     6f0:	00062000 	.inst	0x00062000 ; undefined
     6f4:	28032400 	stnp	w0, w9, [x0, #24]
     6f8:	1d000006 	.inst	0x1d000006 ; undefined
     6fc:	9f0c9103 	.inst	0x9f0c9103 ; undefined
     700:	00000630 	udf	#1584
     704:	33260000 	.inst	0x33260000 ; undefined
     708:	00000018 	udf	#24
     70c:	005b6f01 	.inst	0x005b6f01 ; undefined
     710:	6034073b 	.inst	0x6034073b ; undefined
     714:	01000000 	.inst	0x01000000 ; undefined
     718:	0014596d 	.inst	0x0014596d ; undefined
     71c:	5d070a00 	stlur	h0, [x16, #112]
     720:	0a000014 	and	w20, w0, w0
     724:	00146508 	.inst	0x00146508 ; undefined
     728:	07062700 	.inst	0x07062700 ; undefined
     72c:	28350000 	stnp	w0, w0, [x0, #-88]
     730:	0000073c 	udf	#1852
     734:	073c2836 	.inst	0x073c2836 ; undefined
     738:	00370000 	.inst	0x00370000 ; NYI
     73c:	1c014529 	ldr	s9, 2fe0 <_binary_shell_bin_size-0x100e020>
     740:	0006412a 	.inst	0x0006412a ; undefined
     744:	2c002b00 	stnp	s0, s10, [x24]
     748:	7b180146 	.inst	0x7b180146 ; undefined
     74c:	2a000005 	orr	w5, w0, w0
     750:	0000057b 	udf	#1403
     754:	00004d2a 	udf	#19754
     758:	075f2a00 	.inst	0x075f2a00 ; undefined
     75c:	0d000000 	st1	{v0.b}[0], [x0]
     760:	00000475 	udf	#1141
     764:	1e08013a 	.inst	0x1e08013a ; undefined
     768:	af6e0047 	.inst	0xaf6e0047 ; undefined
     76c:	1f000000 	fmadd	s0, s0, s0, s0
     770:	866e0048 	.inst	0x866e0048 ; undefined
     774:	20000005 	.inst	0x20000005 ; undefined
     778:	af700049 	.inst	0xaf700049 ; undefined
     77c:	00000000 	udf	#0
     780:	02483b2d 	.inst	0x02483b2d ; undefined
     784:	6d010000 	stp	d0, d0, [x0, #16]
     788:	2e7a005c 	uaddl	v28.4s, v2.4h, v26.4h
     78c:	7a00700b 	.inst	0x7a00700b ; undefined
     790:	00000391 	udf	#913
     794:	00710c2e 	.inst	0x00710c2e ; undefined
     798:	0000b77a 	udf	#46970
     79c:	490d2e00 	.inst	0x490d2e00 ; undefined
     7a0:	00af7a00 	.inst	0x00af7a00 ; undefined
     7a4:	0e2e0000 	saddl	v0.8h, v0.8b, v14.8b
     7a8:	b77a001e 	tbnz	x30, #47, 47a8 <_binary_shell_bin_size-0x100c858>
     7ac:	2f000000 	.inst	0x2f000000 ; undefined
     7b0:	8100720f 	.inst	0x8100720f ; undefined
     7b4:	000000b7 	udf	#183
     7b8:	0074122f 	.inst	0x0074122f ; undefined
     7bc:	00039182 	.inst	0x00039182 ; undefined
     7c0:	75132f00 	.inst	0x75132f00 ; undefined
     7c4:	00b78b00 	.inst	0x00b78b00 ; undefined
     7c8:	162f0000 	b	fffffffff8bc07c8 <__free_ram_end+0xffffffffb597c7c8>
     7cc:	918c0076 	addg	x22, x3, #0xc0, #0x0
     7d0:	2f000003 	.inst	0x2f000003 ; undefined
     7d4:	95007717 	bl	401e430 <_binary_shell_bin_size+0x300d430>
     7d8:	000000b7 	udf	#183
     7dc:	00781a2f 	.inst	0x00781a2f ; undefined
     7e0:	00039196 	.inst	0x00039196 ; undefined
     7e4:	00792000 	.inst	0x00792000 ; undefined
     7e8:	0000b79f 	udf	#47007
     7ec:	7c3c3000 	.inst	0x7c3c3000 ; undefined
     7f0:	2f000000 	.inst	0x2f000000 ; undefined
     7f4:	84007311 	ldff1b	{z17.s}, p4/z, [x24, z0.s, uxtw]
     7f8:	000000af 	udf	#175
     7fc:	00076722 	.inst	0x00076722 ; undefined
     800:	00583c00 	.inst	0x00583c00 ; undefined
     804:	84000000 	ld1sb	{z0.s}, p0/z, [x0, z0.s, uxtw]
     808:	6f01311d 	.inst	0x6f01311d ; undefined
     80c:	0a000007 	and	w7, w0, w0
     810:	00077710 	.inst	0x00077710 ; undefined
     814:	32000000 	orr	w0, w0, #0x1
     818:	73152f00 	.inst	0x73152f00 ; undefined
     81c:	00af8e00 	.inst	0x00af8e00 ; undefined
     820:	67330000 	.inst	0x67330000 ; undefined
     824:	01000007 	.inst	0x01000007 ; undefined
     828:	311d8e00 	adds	w0, w16, #0x763
     82c:	00076f01 	.inst	0x00076f01 ; undefined
     830:	77140a00 	.inst	0x77140a00 ; undefined
     834:	00000007 	udf	#7
     838:	2f023200 	.inst	0x2f023200 ; undefined
     83c:	98007319 	ldrsw	x25, 169c <_binary_shell_bin_size-0x100f964>
     840:	000000af 	udf	#175
     844:	00076733 	.inst	0x00076733 ; undefined
     848:	98000300 	ldrsw	x0, 8a8 <_binary_shell_bin_size-0x1010758>
     84c:	6f01311d 	.inst	0x6f01311d ; undefined
     850:	0a000007 	and	w7, w0, w0
     854:	00077718 	.inst	0x00077718 ; undefined
     858:	0b000000 	add	w0, w0, w0
     85c:	0000073c 	udf	#1852
     860:	53010c3d 	ubfx	w29, w1, #1, #3
     864:	0c008302 	st2	{v2.8b-v3.8b}, [x24]
     868:	10025201 	adr	x1, 52a8 <_binary_shell_bin_size-0x100bd58>
     86c:	3c0b007c 	stur	b28, [x3, #176]
     870:	3e000007 	.inst	0x3e000007 ; undefined
     874:	0252010c 	.inst	0x0252010c ; undefined
     878:	0b007e10 	add	w16, w16, w0, lsl #31
     87c:	0000073c 	udf	#1852
     880:	52010c3f 	eor	wsp, w1, #0x80000007
     884:	00741002 	.inst	0x00741002 ; undefined
     888:	0007470b 	.inst	0x0007470b ; undefined
     88c:	010c4000 	.inst	0x010c4000 ; undefined
     890:	80100352 	.inst	0x80100352 ; undefined
     894:	51010c20 	sub	w0, w1, #0x43
     898:	0c008f02 	.inst	0x0c008f02 ; undefined
     89c:	84025001 	ld1b	{z1.s}, p4/z, [x0, z2.s, uxtw]
     8a0:	470b0000 	.inst	0x470b0000 ; undefined
     8a4:	41000007 	.inst	0x41000007 ; undefined
     8a8:	0352010c 	.inst	0x0352010c ; undefined
     8ac:	0c208010 	.inst	0x0c208010 ; undefined
     8b0:	8f025101 	.inst	0x8f025101 ; undefined
     8b4:	50010c00 	adr	x0, 2a36 <_binary_shell_bin_size-0x100e5ca>
     8b8:	00008402 	udf	#33794
     8bc:	00073c0b 	.inst	0x00073c0b ; undefined
     8c0:	010c4200 	.inst	0x010c4200 ; undefined
     8c4:	74100252 	.inst	0x74100252 ; undefined
     8c8:	07470b00 	.inst	0x07470b00 ; undefined
     8cc:	0c430000 	.inst	0x0c430000 ; undefined
     8d0:	10035201 	adr	x1, 7310 <_binary_shell_bin_size-0x1009cf0>
     8d4:	010c2080 	.inst	0x010c2080 ; undefined
     8d8:	008f0251 	.inst	0x008f0251 ; undefined
     8dc:	0250010c 	.inst	0x0250010c ; undefined
     8e0:	0b000084 	add	w4, w4, w0
     8e4:	00000747 	udf	#1863
     8e8:	52010c44 	eor	w4, w2, #0x80000007
     8ec:	20801003 	.inst	0x20801003 ; undefined
     8f0:	0251010c 	.inst	0x0251010c ; undefined
     8f4:	010c008f 	.inst	0x010c008f ; undefined
     8f8:	00840250 	.inst	0x00840250 ; undefined
     8fc:	073c0b00 	.inst	0x073c0b00 ; undefined
     900:	0c450000 	.inst	0x0c450000 ; undefined
     904:	10025201 	adr	x1, 5344 <_binary_shell_bin_size-0x100bcbc>
     908:	470b0074 	.inst	0x470b0074 ; undefined
     90c:	46000007 	.inst	0x46000007 ; undefined
     910:	0352010c 	.inst	0x0352010c ; undefined
     914:	0c208010 	.inst	0x0c208010 ; undefined
     918:	8f025101 	.inst	0x8f025101 ; undefined
     91c:	50010c00 	adr	x0, 2a9e <_binary_shell_bin_size-0x100e562>
     920:	00008402 	udf	#33794
     924:	0007470b 	.inst	0x0007470b ; undefined
     928:	010c4700 	.inst	0x010c4700 ; undefined
     92c:	80100352 	.inst	0x80100352 ; undefined
     930:	51010c20 	sub	w0, w1, #0x43
     934:	0c008f02 	.inst	0x0c008f02 ; undefined
     938:	84025001 	ld1b	{z1.s}, p4/z, [x0, z2.s, uxtw]
     93c:	26000000 	.inst	0x26000000 ; undefined
     940:	00004448 	udf	#17480
     944:	5d6f0100 	.inst	0x5d6f0100 ; undefined
     948:	492da500 	.inst	0x492da500 ; undefined
     94c:	00000018 	udf	#24
     950:	005e6f01 	.inst	0x005e6f01 ; undefined
     954:	0c4a30c7 	.inst	0x0c4a30c7 ; undefined
     958:	2f000000 	.inst	0x2f000000 ; undefined
     95c:	c8007a1b 	stxr	w0, x27, [x16]
     960:	00000385 	udf	#901
     964:	4b2d0000 	sub	w0, w0, w13, uxtb
     968:	00000044 	udf	#68
     96c:	005f6f01 	.inst	0x005f6f01 ; undefined
     970:	0f1c2ecc 	.inst	0x0f1c2ecc ; undefined
     974:	0391cc00 	.inst	0x0391cc00 ; undefined
     978:	01340000 	.inst	0x01340000 ; undefined
     97c:	cd007b58 	.inst	0xcd007b58 ; undefined
     980:	000000b7 	udf	#183
     984:	604c2d00 	.inst	0x604c2d00 ; undefined
     988:	01000002 	.inst	0x01000002 ; undefined
     98c:	f400606f 	.inst	0xf400606f ; undefined
     990:	00211f2f 	.inst	0x00211f2f ; NYI
     994:	0003baf6 	.inst	0x0003baf6 ; undefined
     998:	7d203500 	str	h0, [x8, #4122]
     99c:	ba010400 	rmif	x0, #2, #0
     9a0:	35000003 	cbnz	w3, 9a0 <_binary_shell_bin_size-0x1010660>
     9a4:	0b007e21 	add	w1, w17, w0, lsl #31
     9a8:	0000b701 	udf	#46849
     9ac:	7f223500 	.inst	0x7f223500 ; undefined
     9b0:	b7010800 	tbnz	x0, #32, 2ab0 <_binary_shell_bin_size-0x100e550>
     9b4:	36000000 	tbz	w0, #0, 9b4 <_binary_shell_bin_size-0x101064c>
     9b8:	010c0080 	.inst	0x010c0080 ; undefined
     9bc:	000000b7 	udf	#183
     9c0:	1e2f0432 	fccmpe	s1, s15, #0x2, eq	// eq = none
     9c4:	85f7007a 	.inst	0x85f7007a ; undefined
     9c8:	32000003 	orr	w3, w0, #0x1
     9cc:	7c1d2f05 	str	h5, [x24, #-46]!
     9d0:	03baf800 	.inst	0x03baf800 ; undefined
     9d4:	00000000 	udf	#0
     9d8:	00093f28 	.inst	0x00093f28 ; undefined
     9dc:	37004d00 	tbnz	w0, #0, 137c <_binary_shell_bin_size-0x100fc84>
     9e0:	1f23004a 	fnmadd	s10, s2, s3, s0
     9e4:	4d23003d 	.inst	0x4d23003d ; undefined
     9e8:	00000000 	udf	#0
     9ec:	003c4e38 	.inst	0x003c4e38 ; NYI
     9f0:	6d010000 	stp	d0, d0, [x0, #16]
     9f4:	01310061 	.inst	0x01310061 ; undefined
     9f8:	0009df39 	.inst	0x0009df39 ; undefined
     9fc:	00144f00 	.inst	0x00144f00 ; undefined
     a00:	34000000 	cbz	w0, a00 <_binary_shell_bin_size-0x1010600>
     a04:	41310901 	.inst	0x41310901 ; undefined
     a08:	000009e3 	udf	#2531
     a0c:	0005f022 	.inst	0x0005f022 ; undefined
     a10:	00144f00 	.inst	0x00144f00 ; undefined
     a14:	24000000 	cmphs	p0.b, p0/z, z0.b, z0.b
     a18:	f8032303 	stur	x3, [x24, #50]
     a1c:	1c000005 	ldr	s5, a1c <_binary_shell_bin_size-0x10105e4>
     a20:	001c9102 	.inst	0x001c9102 ; undefined
     a24:	23000006 	.inst	0x23000006 ; undefined
     a28:	00060801 	.inst	0x00060801 ; undefined
     a2c:	00c02300 	.inst	0x00c02300 ; undefined
     a30:	00000610 	udf	#1552
     a34:	1800c024 	ldr	w4, 2238 <_binary_shell_bin_size-0x100edc8>
     a38:	24000006 	cmphs	p6.b, p0/z, z0.b, z0.b
     a3c:	00062001 	.inst	0x00062001 ; undefined
     a40:	28032400 	stnp	w0, w9, [x0, #24]
     a44:	1d000006 	.inst	0x1d000006 ; undefined
     a48:	9f1c9103 	.inst	0x9f1c9103 ; undefined
     a4c:	00000630 	udf	#1584
     a50:	3c270000 	.inst	0x3c270000 ; undefined
     a54:	50000007 	adr	x7, a56 <_binary_shell_bin_size-0x10105aa>
     a58:	00098527 	.inst	0x00098527 ; undefined
     a5c:	38005100 	sturb	w0, [x8, #5]
     a60:	00003c52 	udf	#15442
     a64:	626d0100 	.inst	0x626d0100 ; undefined
     a68:	39013b00 	strb	w0, [x24, #78]
     a6c:	000009df 	udf	#2527
     a70:	00001453 	udf	#5203
     a74:	013e0000 	.inst	0x013e0000 ; undefined
     a78:	e3423109 	.inst	0xe3423109 ; undefined
     a7c:	22000009 	.inst	0x22000009 ; undefined
     a80:	000005f0 	udf	#1520
     a84:	00001453 	udf	#5203
     a88:	03240000 	.inst	0x03240000 ; undefined
     a8c:	05f80323 	.inst	0x05f80323 ; undefined
     a90:	021c0000 	.inst	0x021c0000 ; undefined
     a94:	06001c91 	.inst	0x06001c91 ; undefined
     a98:	01230000 	.inst	0x01230000 ; undefined
     a9c:	00000608 	udf	#1544
     aa0:	1000c023 	adr	x3, 22a4 <_binary_shell_bin_size-0x100ed5c>
     aa4:	24000006 	cmphs	p6.b, p0/z, z0.b, z0.b
     aa8:	061800c0 	.inst	0x061800c0 ; undefined
     aac:	01240000 	.inst	0x01240000 ; undefined
     ab0:	00000620 	udf	#1568
     ab4:	06280324 	.inst	0x06280324 ; undefined
     ab8:	031d0000 	.inst	0x031d0000 ; undefined
     abc:	309f1c91 	adr	x17, fffffffffff3ee4d <__free_ram_end+0xffffffffbccfae4d>
     ac0:	00000006 	udf	#6
     ac4:	073c2700 	.inst	0x073c2700 ; undefined
     ac8:	27540000 	.inst	0x27540000 ; undefined
     acc:	00000985 	udf	#2437
     ad0:	563a0055 	.inst	0x563a0055 ; undefined
     ad4:	0000001c 	udf	#28
     ad8:	00636f01 	.inst	0x00636f01 ; undefined
     adc:	573b0145 	.inst	0x573b0145 ; undefined
     ae0:	0000038c 	udf	#908
     ae4:	00646d01 	.inst	0x00646d01 ; undefined
     ae8:	03ba0155 	.inst	0x03ba0155 ; undefined
     aec:	233c0000 	.inst	0x233c0000 ; undefined
     af0:	01550081 	.inst	0x01550081 ; undefined
     af4:	00000d7a 	udf	#3450
     af8:	0082243c 	.inst	0x0082243c ; undefined
     afc:	059d0155 	mov	z21.s, p13/z, #10
     b00:	25350000 	whilege	p0.b, w0, w21
     b04:	0157007a 	.inst	0x0157007a ; undefined
     b08:	00000385 	udf	#901
     b0c:	007c2635 	.inst	0x007c2635 ; undefined
     b10:	03ba0156 	.inst	0x03ba0156 ; undefined
     b14:	27350000 	.inst	0x27350000 ; undefined
     b18:	0165000d 	.inst	0x0165000d ; undefined
     b1c:	00000391 	udf	#913
     b20:	000f2a35 	.inst	0x000f2a35 ; undefined
     b24:	03910174 	.inst	0x03910174 ; undefined
     b28:	32350000 	orr	w0, w0, #0x800
     b2c:	01930086 	.inst	0x01930086 ; undefined
     b30:	000000af 	udf	#175
     b34:	00873435 	.inst	0x00873435 ; undefined
     b38:	05860198 	.inst	0x05860198 ; undefined
     b3c:	673d0000 	.inst	0x673d0000 ; undefined
     b40:	06000007 	.inst	0x06000007 ; undefined
     b44:	29017400 	stp	w0, w29, [x0, #8]
     b48:	076f2909 	.inst	0x076f2909 ; undefined
     b4c:	280a0000 	stnp	w0, w0, [x0, #80]
     b50:	00000777 	udf	#1911
     b54:	38583000 	ldurb	w0, [x0, #-125]
     b58:	35000000 	cbnz	w0, b58 <_binary_shell_bin_size-0x10104a8>
     b5c:	7b00492b 	.inst	0x7b00492b ; undefined
     b60:	0000af01 	udf	#44801
     b64:	07320000 	.inst	0x07320000 ; undefined
     b68:	00832c35 	.inst	0x00832c35 ; undefined
     b6c:	00b70185 	.inst	0x00b70185 ; undefined
     b70:	08320000 	.inst	0x08320000 ; undefined
     b74:	00842f35 	.inst	0x00842f35 ; undefined
     b78:	00af0186 	.inst	0x00af0186 ; undefined
     b7c:	30350000 	adr	x0, 6ab7d <_binary_shell_bin_size-0xfa6483>
     b80:	018b0085 	.inst	0x018b0085 ; undefined
     b84:	0000059d 	udf	#1437
     b88:	8a008836 	and	x22, x1, x0, lsl #34
     b8c:	00059d01 	.inst	0x00059d01 ; undefined
     b90:	07673d00 	.inst	0x07673d00 ; undefined
     b94:	00090000 	.inst	0x00090000 ; undefined
     b98:	09180186 	.inst	0x09180186 ; undefined
     b9c:	00076f2d 	.inst	0x00076f2d ; undefined
     ba0:	772e0a00 	.inst	0x772e0a00 ; undefined
     ba4:	00000007 	udf	#7
     ba8:	673d0000 	.inst	0x673d0000 ; undefined
     bac:	0a000007 	and	w7, w0, w0
     bb0:	1f019300 	fmsub	s0, s24, s1, s4
     bb4:	076f0131 	.inst	0x076f0131 ; undefined
     bb8:	310a0000 	adds	w0, w0, #0x280
     bbc:	00000777 	udf	#1911
     bc0:	350b3200 	cbnz	w0, 17200 <_binary_shell_bin_size-0xff9e00>
     bc4:	99008333 	stlur	w19, [x25, #8]
     bc8:	0000b701 	udf	#46849
     bcc:	350c3200 	cbnz	w0, 1920c <_binary_shell_bin_size-0xff7df4>
     bd0:	9a008437 	.inst	0x9a008437 ; undefined
     bd4:	0000af01 	udf	#44801
     bd8:	07673d00 	.inst	0x07673d00 ; undefined
     bdc:	000d0000 	.inst	0x000d0000 ; undefined
     be0:	0918019a 	.inst	0x0918019a ; undefined
     be4:	00076f35 	.inst	0x00076f35 ; undefined
     be8:	77360a00 	.inst	0x77360a00 ; undefined
     bec:	00000007 	udf	#7
     bf0:	3c0b0000 	stur	b0, [x0, #176]
     bf4:	59000007 	stlurh	w7, [x0]
     bf8:	0352010c 	.inst	0x0352010c ; undefined
     bfc:	0002e110 	.inst	0x0002e110 ; undefined
     c00:	00073c0b 	.inst	0x00073c0b ; undefined
     c04:	010c5a00 	.inst	0x010c5a00 ; undefined
     c08:	74100252 	.inst	0x74100252 ; undefined
     c0c:	07470b00 	.inst	0x07470b00 ; undefined
     c10:	0c5b0000 	.inst	0x0c5b0000 ; undefined
     c14:	10035201 	adr	x1, 7654 <_binary_shell_bin_size-0x10099ac>
     c18:	010c2080 	.inst	0x010c2080 ; undefined
     c1c:	008f0251 	.inst	0x008f0251 ; undefined
     c20:	0250010c 	.inst	0x0250010c ; undefined
     c24:	0b000084 	add	w4, w4, w0
     c28:	0000073c 	udf	#1852
     c2c:	52010c5c 	eor	w28, w2, #0x80000007
     c30:	02f71003 	.inst	0x02f71003 ; undefined
     c34:	07800b00 	.inst	0x07800b00 ; undefined
     c38:	0c5d0000 	.inst	0x0c5d0000 ; undefined
     c3c:	86025201 	.inst	0x86025201 ; undefined
     c40:	51010c00 	sub	w0, w0, #0x43
     c44:	0c008602 	st2	{v2.4h-v3.4h}, [x16]
     c48:	84025001 	ld1b	{z1.s}, p4/z, [x0, z2.s, uxtw]
     c4c:	3c270000 	.inst	0x3c270000 ; undefined
     c50:	5e000007 	sha1c	q7, s0, v0.4s
     c54:	0007800b 	.inst	0x0007800b ; undefined
     c58:	010c5f00 	.inst	0x010c5f00 ; undefined
     c5c:	80100353 	.inst	0x80100353 ; undefined
     c60:	52010c08 	eor	w8, w0, #0x80000007
     c64:	80801005 	.inst	0x80801005 ; undefined
     c68:	010c5080 	.inst	0x010c5080 ; undefined
     c6c:	80100551 	.inst	0x80100551 ; undefined
     c70:	0c508080 	.inst	0x0c508080 ; undefined
     c74:	84025001 	ld1b	{z1.s}, p4/z, [x0, z2.s, uxtw]
     c78:	3c0b0000 	stur	b0, [x0, #176]
     c7c:	60000007 	.inst	0x60000007 ; undefined
     c80:	0251010c 	.inst	0x0251010c ; undefined
     c84:	0b000087 	add	w7, w4, w0
     c88:	00000747 	udf	#1863
     c8c:	52010c61 	eor	w1, w3, #0x80000007
     c90:	20801003 	.inst	0x20801003 ; undefined
     c94:	0251010c 	.inst	0x0251010c ; undefined
     c98:	010c008f 	.inst	0x010c008f ; undefined
     c9c:	00860250 	.inst	0x00860250 ; undefined
     ca0:	0d620b00 	.inst	0x0d620b00 ; undefined
     ca4:	0c620000 	.inst	0x0c620000 ; undefined
     ca8:	86025001 	.inst	0x86025001 ; undefined
     cac:	800b0000 	.inst	0x800b0000 ; undefined
     cb0:	63000007 	.inst	0x63000007 ; undefined
     cb4:	0353010c 	.inst	0x0353010c ; undefined
     cb8:	0c088010 	.inst	0x0c088010 ; undefined
     cbc:	86025201 	.inst	0x86025201 ; undefined
     cc0:	50010c00 	adr	x0, 2e42 <_binary_shell_bin_size-0x100e1be>
     cc4:	00008402 	udf	#33794
     cc8:	00073c0b 	.inst	0x00073c0b ; undefined
     ccc:	010c6400 	.inst	0x010c6400 ; undefined
     cd0:	74100252 	.inst	0x74100252 ; undefined
     cd4:	07470b00 	.inst	0x07470b00 ; undefined
     cd8:	0c650000 	.inst	0x0c650000 ; undefined
     cdc:	10035201 	adr	x1, 771c <_binary_shell_bin_size-0x10098e4>
     ce0:	010c2080 	.inst	0x010c2080 ; undefined
     ce4:	008f0251 	.inst	0x008f0251 ; undefined
     ce8:	0250010c 	.inst	0x0250010c ; undefined
     cec:	0b000083 	add	w3, w4, w0
     cf0:	00000780 	udf	#1920
     cf4:	53010c66 	ubfx	w6, w3, #1, #3
     cf8:	08801003 	stllrb	w3, [x0]
     cfc:	0252010c 	.inst	0x0252010c ; undefined
     d00:	010c0083 	.inst	0x010c0083 ; undefined
     d04:	80100651 	.inst	0x80100651 ; undefined
     d08:	04b88080 	asr	z0.s, z4.s, z24.d
     d0c:	0250010c 	.inst	0x0250010c ; undefined
     d10:	0b000084 	add	w4, w4, w0
     d14:	00000747 	udf	#1863
     d18:	52010c67 	eor	w7, w3, #0x80000007
     d1c:	20801003 	.inst	0x20801003 ; undefined
     d20:	0251010c 	.inst	0x0251010c ; undefined
     d24:	010c008f 	.inst	0x010c008f ; undefined
     d28:	00830250 	.inst	0x00830250 ; undefined
     d2c:	07800b00 	.inst	0x07800b00 ; undefined
     d30:	0c680000 	.inst	0x0c680000 ; undefined
     d34:	10035301 	adr	x1, 7794 <_binary_shell_bin_size-0x100986c>
     d38:	010c0880 	.inst	0x010c0880 ; undefined
     d3c:	00830252 	.inst	0x00830252 ; undefined
     d40:	0250010c 	.inst	0x0250010c ; undefined
     d44:	0b000084 	add	w4, w4, w0
     d48:	0000073c 	udf	#1852
     d4c:	52010c69 	eor	w9, w3, #0x80000007
     d50:	00741002 	.inst	0x00741002 ; undefined
     d54:	00073c0b 	.inst	0x00073c0b ; undefined
     d58:	010c6a00 	.inst	0x010c6a00 ; undefined
     d5c:	74100252 	.inst	0x74100252 ; undefined
     d60:	4b2c0000 	sub	w0, w0, w12, uxtb
     d64:	057b1901 	ext	z1.b, {z8.b-z9.b}, #222
     d68:	7b2a0000 	.inst	0x7b2a0000 ; undefined
     d6c:	2a000005 	orr	w5, w0, w0
     d70:	00000d7a 	udf	#3450
     d74:	00075f2a 	.inst	0x00075f2a ; undefined
     d78:	7f140000 	.inst	0x7f140000 ; undefined
     d7c:	3e00000d 	.inst	0x3e00000d ; undefined
     d80:	27004c3f 	.inst	0x27004c3f ; undefined
     d84:	00000da1 	udf	#3489
     d88:	2b004e20 	adds	w0, w17, w0, lsl #19
     d8c:	00000da5 	udf	#3493
     d90:	2a003d20 	orr	w0, w9, w0, lsl #15
     d94:	00000da1 	udf	#3489
     d98:	32004420 	orr	w0, w1, #0x3ffff
     d9c:	00000577 	udf	#1399
     da0:	064d0200 	.inst	0x064d0200 ; undefined
     da4:	05770401 	ext	z1.b, {z0.b-z1.b}, #185
     da8:	51050000 	sub	w0, w0, #0x140
     dac:	03000000 	.inst	0x03000000 ; undefined
     db0:	d86b3800 	prfm	pldl1keep, d74b0 <_binary_shell_bin_size-0xf39b50>
     db4:	01000000 	.inst	0x01000000 ; undefined
     db8:	ab00656d 	adds	x13, x11, x0, lsl #25
     dbc:	89383c01 	.inst	0x89383c01 ; undefined
     dc0:	5401ab00 	b.eq	4320 <_binary_shell_bin_size-0x100cce0>  // b.none
     dc4:	35000015 	cbnz	w21, dc4 <_binary_shell_bin_size-0x101023c>
     dc8:	ae00ac39 	.inst	0xae00ac39 ; undefined
     dcc:	0000b701 	udf	#46849
     dd0:	350e3200 	cbnz	w0, 1d410 <_binary_shell_bin_size-0xff3bf0>
     dd4:	bb00ad3a 	.inst	0xbb00ad3a ; undefined
     dd8:	00038501 	.inst	0x00038501 ; undefined
     ddc:	003d3600 	.inst	0x003d3600 ; NYI
     de0:	0da101b9 	st2	{v25.b-v26.b}[0], [x13], x1
     de4:	ae360000 	.inst	0xae360000 ; undefined
     de8:	8501ba00 	ldnt1w	{z0.s}, p6/z, [z16.s, x1]
     dec:	39000003 	strb	w3, [x0]
     df0:	00000d80 	udf	#3456
     df4:	0000146c 	udf	#5228
     df8:	01bf0000 	.inst	0x01bf0000 ; undefined
     dfc:	883b0a16 	stxp	w27, w22, w2, [x16]
     e00:	2200000d 	.inst	0x2200000d ; undefined
     e04:	000005f0 	udf	#1520
     e08:	0000146c 	udf	#5228
     e0c:	11320000 	add	w0, w0, #0xc80
     e10:	05f80323 	.inst	0x05f80323 ; undefined
     e14:	021c0000 	.inst	0x021c0000 ; undefined
     e18:	06007c91 	.inst	0x06007c91 ; undefined
     e1c:	00230000 	.inst	0x00230000 ; NYI
     e20:	00000608 	udf	#1544
     e24:	1000c023 	adr	x3, 2628 <_binary_shell_bin_size-0x100e9d8>
     e28:	24000006 	cmphs	p6.b, p0/z, z0.b, z0.b
     e2c:	061800c0 	.inst	0x061800c0 ; undefined
     e30:	00240000 	.inst	0x00240000 ; NYI
     e34:	00000620 	udf	#1568
     e38:	06280324 	.inst	0x06280324 ; undefined
     e3c:	031d0000 	.inst	0x031d0000 ; undefined
     e40:	309f7c91 	adr	x17, fffffffffff3fdd1 <__free_ram_end+0xffffffffbccfbdd1>
     e44:	00000006 	udf	#6
     e48:	0c6d3000 	.inst	0x0c6d3000 ; undefined
     e4c:	35000000 	cbnz	w0, e4c <_binary_shell_bin_size-0x10101b4>
     e50:	c7007a3c 	.inst	0xc7007a3c ; undefined
     e54:	00038501 	.inst	0x00038501 ; undefined
     e58:	30000000 	adr	x0, e59 <_binary_shell_bin_size-0x10101a7>
     e5c:	00001c6e 	udf	#7278
     e60:	003d3600 	.inst	0x003d3600 ; NYI
     e64:	004d01b2 	.inst	0x004d01b2 ; undefined
     e68:	df390000 	.inst	0xdf390000 ; undefined
     e6c:	6f000009 	.inst	0x6f000009 ; undefined
     e70:	00000018 	udf	#24
     e74:	0d01b400 	.inst	0x0d01b400 ; undefined
     e78:	0005f022 	.inst	0x0005f022 ; undefined
     e7c:	00186f00 	.inst	0x00186f00 ; undefined
     e80:	24000000 	cmphs	p0.b, p0/z, z0.b, z0.b
     e84:	f8430903 	ldtr	x3, [x8, #48]
     e88:	09000005 	.inst	0x09000005 ; undefined
     e8c:	00060044 	.inst	0x00060044 ; undefined
     e90:	08420900 	ldxrb	w0, [x8]
     e94:	09000006 	.inst	0x09000006 ; undefined
     e98:	00061041 	.inst	0x00061041 ; undefined
     e9c:	183d0a00 	ldr	w0, 7afdc <_binary_shell_bin_size-0xf96024>
     ea0:	0a000006 	and	w6, w0, w0
     ea4:	0006203e 	.inst	0x0006203e ; undefined
     ea8:	283f0a00 	stnp	w0, w2, [x16, #-8]
     eac:	0a000006 	and	w6, w0, w0
     eb0:	00063040 	.inst	0x00063040 ; undefined
     eb4:	00000000 	udf	#0
     eb8:	00073c27 	.inst	0x00073c27 ; undefined
     ebc:	3c0b7000 	stur	b0, [x0, #183]
     ec0:	71000007 	subs	w7, w0, #0x0
     ec4:	0352010c 	.inst	0x0352010c ; undefined
     ec8:	0003d010 	.inst	0x0003d010 ; undefined
     ecc:	ec723800 	.inst	0xec723800 ; undefined
     ed0:	01000000 	.inst	0x01000000 ; undefined
     ed4:	db00666d 	.inst	0xdb00666d ; undefined
     ed8:	89453c01 	.inst	0x89453c01 ; undefined
     edc:	5401db00 	b.eq	4a3c <_binary_shell_bin_size-0x100c5c4>  // b.none
     ee0:	35000015 	cbnz	w21, ee0 <_binary_shell_bin_size-0x1010120>
     ee4:	dd00aa46 	stlur	d6, [x18, #10]
     ee8:	0000b701 	udf	#46849
     eec:	af473500 	.inst	0xaf473500 ; undefined
     ef0:	b701dd00 	tbnz	x0, #32, 4a90 <_binary_shell_bin_size-0x100c570>
     ef4:	35000000 	cbnz	w0, ef4 <_binary_shell_bin_size-0x101010c>
     ef8:	e500b048 	st1w	{z8.d}, p4, [x2, z0.d]
     efc:	0000b701 	udf	#46849
     f00:	b1493500 	adds	x0, x8, #0x24d, lsl #12
     f04:	b701eb00 	tbnz	x0, #32, 4c64 <_binary_shell_bin_size-0x100c39c>
     f08:	35000000 	cbnz	w0, f08 <_binary_shell_bin_size-0x10100f8>
     f0c:	dd00b24a 	.inst	0xdd00b24a ; undefined
     f10:	0000b701 	udf	#46849
     f14:	00b33600 	.inst	0x00b33600 ; undefined
     f18:	00b701dd 	.inst	0x00b701dd ; undefined
     f1c:	b4360000 	cbz	x0, 6cf1c <_binary_shell_bin_size-0xfa40e4>
     f20:	b701e600 	tbnz	x0, #32, 4be0 <_binary_shell_bin_size-0x100c420>
     f24:	27000000 	.inst	0x27000000 ; undefined
     f28:	0000073c 	udf	#1852
     f2c:	073c0b73 	.inst	0x073c0b73 ; undefined
     f30:	0c740000 	.inst	0x0c740000 ; undefined
     f34:	86025201 	.inst	0x86025201 ; undefined
     f38:	51010c00 	sub	w0, w0, #0x43
     f3c:	00008402 	udf	#33794
     f40:	00073c0b 	.inst	0x00073c0b ; undefined
     f44:	010c7500 	.inst	0x010c7500 ; undefined
     f48:	00850251 	.inst	0x00850251 ; undefined
     f4c:	073c0b00 	.inst	0x073c0b00 ; undefined
     f50:	0c760000 	.inst	0x0c760000 ; undefined
     f54:	83025101 	.inst	0x83025101 ; undefined
     f58:	88280000 	stxp	w8, w0, w0, [x0]
     f5c:	7700000f 	.inst	0x7700000f ; undefined
     f60:	000db128 	.inst	0x000db128 ; undefined
     f64:	3c0b7800 	.inst	0x3c0b7800 ; undefined
     f68:	79000007 	strh	w7, [x0]
     f6c:	0253010c 	.inst	0x0253010c ; undefined
     f70:	010c0083 	.inst	0x010c0083 ; undefined
     f74:	00860251 	.inst	0x00860251 ; undefined
     f78:	073c0b00 	.inst	0x073c0b00 ; undefined
     f7c:	0c7a0000 	.inst	0x0c7a0000 ; undefined
     f80:	10035201 	adr	x1, 79c0 <_binary_shell_bin_size-0x1009640>
     f84:	00000480 	udf	#1152
     f88:	a8004f40 	stnp	x0, x19, [x26]
     f8c:	00b72a01 	.inst	0x00b72a01 ; undefined
     f90:	b72a0000 	tbnz	x0, #37, 4f90 <_binary_shell_bin_size-0x100c070>
     f94:	00000000 	udf	#0
     f98:	000c7b07 	.inst	0x000c7b07 ; undefined
     f9c:	6f010000 	.inst	0x6f010000 ; undefined
     fa0:	00000fd9 	udf	#4057
     fa4:	0fe24b09 	.inst	0x0fe24b09 ; undefined
     fa8:	07000000 	.inst	0x07000000 ; undefined
     fac:	00000c7c 	udf	#3196
     fb0:	986f0100 	ldrsw	x0, defd0 <_binary_shell_bin_size-0xf32030>
     fb4:	09000011 	.inst	0x09000011 ; undefined
     fb8:	0011a14c 	.inst	0x0011a14c ; undefined
     fbc:	7d070000 	str	h0, [x0, #896]
     fc0:	0000000c 	udf	#12
     fc4:	0fec6f01 	.inst	0x0fec6f01 ; undefined
     fc8:	011c0000 	.inst	0x011c0000 ; undefined
     fcc:	000ff150 	.inst	0x000ff150 ; undefined
     fd0:	51011c00 	sub	w0, w0, #0x47
     fd4:	00000ffa 	udf	#4090
     fd8:	00504100 	.inst	0x00504100 ; undefined
     fdc:	05860204 	.inst	0x05860204 ; undefined
     fe0:	51420000 	sub	w0, w0, #0x80, lsl #12
     fe4:	b7020400 	tbnz	x0, #32, 5064 <_binary_shell_bin_size-0x100bf9c>
     fe8:	00000000 	udf	#0
     fec:	0c005243 	.inst	0x0c005243 ; undefined
     ff0:	00514202 	.inst	0x00514202 ; undefined
     ff4:	00b7020c 	.inst	0x00b7020c ; undefined
     ff8:	53420000 	.inst	0x53420000 ; undefined
     ffc:	86020c00 	.inst	0x86020c00 ; undefined
    1000:	00000005 	udf	#5
    1004:	00147e38 	.inst	0x00147e38 ; undefined
    1008:	6f010000 	.inst	0x6f010000 ; undefined
    100c:	02100067 	.inst	0x02100067 ; undefined
    1010:	51500144 	sub	w4, w10, #0x400, lsl #12
    1014:	b7021000 	tbnz	x0, #32, 5214 <_binary_shell_bin_size-0x100bdec>
    1018:	44000000 	.inst	0x44000000 ; undefined
    101c:	00535101 	.inst	0x00535101 ; undefined
    1020:	05860210 	.inst	0x05860210 ; undefined
    1024:	d9390000 	.inst	0xd9390000 ; undefined
    1028:	7f00000f 	.inst	0x7f00000f ; undefined
    102c:	00000004 	udf	#4
    1030:	20021100 	.inst	0x20021100 ; undefined
    1034:	e250011c 	.inst	0xe250011c ; undefined
    1038:	0000000f 	udf	#15
    103c:	000fec39 	.inst	0x000fec39 ; undefined
    1040:	04018000 	.inst	0x04018000 ; undefined
    1044:	00000000 	udf	#0
    1048:	1c050211 	ldr	s17, b088 <_binary_shell_bin_size-0x1005f78>
    104c:	0ff15001 	.inst	0x0ff15001 ; undefined
    1050:	011c0000 	.inst	0x011c0000 ; undefined
    1054:	000ffa59 	.inst	0x000ffa59 ; undefined
    1058:	3b000000 	.inst	0x3b000000 ; undefined
    105c:	01240181 	.inst	0x01240181 ; undefined
    1060:	6d010000 	stp	d0, d0, [x0, #16]
    1064:	021a0068 	.inst	0x021a0068 ; undefined
    1068:	000003ec 	udf	#1004
    106c:	00244d3c 	.inst	0x00244d3c ; NYI
    1070:	047d021a 	add	z26.h, z16.h, z29.h
    1074:	4e350000 	saddl2	v0.8h, v0.16b, v21.16b
    1078:	022200b5 	.inst	0x022200b5 ; undefined
    107c:	00000586 	udf	#1414
    1080:	00b65035 	.inst	0x00b65035 ; undefined
    1084:	03ec022c 	.inst	0x03ec022c ; undefined
    1088:	51350000 	sub	w0, w0, #0xd40
    108c:	022b00b7 	.inst	0x022b00b7 ; undefined
    1090:	000000af 	udf	#175
    1094:	000fec39 	.inst	0x000fec39 ; undefined
    1098:	04018200 	lsr	z0.h, p0/m, z0.h, #16
    109c:	00000000 	udf	#0
    10a0:	3105021e 	adds	w30, w16, #0x140
    10a4:	000ff130 	.inst	0x000ff130 ; undefined
    10a8:	63011c00 	.inst	0x63011c00 ; undefined
    10ac:	00000ffa 	udf	#4090
    10b0:	0fd93900 	.inst	0x0fd93900 ; undefined
    10b4:	01830000 	.inst	0x01830000 ; undefined
    10b8:	00000004 	udf	#4
    10bc:	1f022200 	fmadd	s0, s16, s2, s8
    10c0:	0fe23431 	.inst	0x0fe23431 ; undefined
    10c4:	39000000 	strb	w0, [x0]
    10c8:	00000767 	udf	#1895
    10cc:	004c0184 	.inst	0x004c0184 ; undefined
    10d0:	2b000000 	adds	w0, w0, w0
    10d4:	02311b02 	.inst	0x02311b02 ; undefined
    10d8:	0000076f 	udf	#1903
    10dc:	07774f0a 	.inst	0x07774f0a ; undefined
    10e0:	39000000 	strb	w0, [x0]
    10e4:	00000fec 	udf	#4076
    10e8:	00040185 	.inst	0x00040185 ; undefined
    10ec:	30000000 	adr	x0, 10ed <_binary_shell_bin_size-0x100ff13>
    10f0:	38310502 	.inst	0x38310502 ; undefined
    10f4:	00000ff1 	udf	#4081
    10f8:	0ffa1031 	.inst	0x0ffa1031 ; undefined
    10fc:	39000000 	strb	w0, [x0]
    1100:	00000fec 	udf	#4076
    1104:	00040186 	.inst	0x00040186 ; undefined
    1108:	3d000000 	str	b0, [x0]
    110c:	40310502 	.inst	0x40310502 ; undefined
    1110:	00000ff1 	udf	#4081
    1114:	073c0b00 	.inst	0x073c0b00 ; undefined
    1118:	01820000 	.inst	0x01820000 ; undefined
    111c:	0251010c 	.inst	0x0251010c ; undefined
    1120:	0b000083 	add	w3, w4, w0
    1124:	0000073c 	udf	#1852
    1128:	010c0187 	.inst	0x010c0187 ; undefined
    112c:	00840251 	.inst	0x00840251 ; undefined
    1130:	073c0b00 	.inst	0x073c0b00 ; undefined
    1134:	01880000 	.inst	0x01880000 ; undefined
    1138:	0251010c 	.inst	0x0251010c ; undefined
    113c:	0b000084 	add	w4, w4, w0
    1140:	0000073c 	udf	#1852
    1144:	010c0189 	.inst	0x010c0189 ; undefined
    1148:	74100252 	.inst	0x74100252 ; undefined
    114c:	07470b00 	.inst	0x07470b00 ; undefined
    1150:	018a0000 	.inst	0x018a0000 ; undefined
    1154:	0352010c 	.inst	0x0352010c ; undefined
    1158:	0c408010 	ld2	{v16.8b-v17.8b}, [x0]
    115c:	8f025101 	.inst	0x8f025101 ; undefined
    1160:	50010c00 	adr	x0, 32e2 <_binary_shell_bin_size-0x100dd1e>
    1164:	00008402 	udf	#33794
    1168:	0007470b 	.inst	0x0007470b ; undefined
    116c:	0c018b00 	.inst	0x0c018b00 ; undefined
    1170:	10035201 	adr	x1, 7bb0 <_binary_shell_bin_size-0x1009450>
    1174:	010c4080 	.inst	0x010c4080 ; undefined
    1178:	008f0251 	.inst	0x008f0251 ; undefined
    117c:	0250010c 	.inst	0x0250010c ; undefined
    1180:	0b000084 	add	w4, w4, w0
    1184:	0000073c 	udf	#1852
    1188:	010c018c 	.inst	0x010c018c ; undefined
    118c:	00840252 	.inst	0x00840252 ; undefined
    1190:	0251010c 	.inst	0x0251010c ; undefined
    1194:	00000083 	udf	#131
    1198:	08005441 	stxrb	w0, w1, [x2]
    119c:	0000b702 	udf	#46850
    11a0:	00514200 	.inst	0x00514200 ; undefined
    11a4:	00b70208 	.inst	0x00b70208 ; undefined
    11a8:	38000000 	sturb	w0, [x0]
    11ac:	0174018d 	.inst	0x0174018d ; undefined
    11b0:	6d010000 	stp	d0, d0, [x0, #16]
    11b4:	02460069 	.inst	0x02460069 ; undefined
    11b8:	000fec39 	.inst	0x000fec39 ; undefined
    11bc:	04018e00 	lsr	z0.h, p3/m, z0.h, #16
    11c0:	00000000 	udf	#0
    11c4:	3105024a 	adds	w10, w18, #0x140
    11c8:	000ff170 	.inst	0x000ff170 ; undefined
    11cc:	fa003100 	.inst	0xfa003100 ; undefined
    11d0:	0000000f 	udf	#15
    11d4:	20018f30 	.inst	0x20018f30 ; undefined
    11d8:	45000000 	.inst	0x45000000 ; undefined
    11dc:	7a7c9102 	.inst	0x7a7c9102 ; undefined
    11e0:	8a024e00 	and	x0, x16, x2, lsl #19
    11e4:	00000016 	udf	#22
    11e8:	000fec39 	.inst	0x000fec39 ; undefined
    11ec:	04019000 	.inst	0x04019000 ; undefined
    11f0:	00000000 	udf	#0
    11f4:	31050251 	adds	w17, w18, #0x140
    11f8:	000ff170 	.inst	0x000ff170 ; undefined
    11fc:	fa013100 	.inst	0xfa013100 ; undefined
    1200:	0000000f 	udf	#15
    1204:	000fd939 	.inst	0x000fd939 ; undefined
    1208:	04019100 	lsr	z0.b, p4/m, z0.b, #8
    120c:	00000000 	udf	#0
    1210:	31170257 	adds	w23, w18, #0x5c0
    1214:	000fe270 	.inst	0x000fe270 ; undefined
    1218:	ec390000 	.inst	0xec390000 ; undefined
    121c:	9200000f 	and	x15, x0, #0x100000001
    1220:	00000401 	udf	#1025
    1224:	02560000 	.inst	0x02560000 ; undefined
    1228:	f1703105 	subs	x5, x8, #0xc0c, lsl #12
    122c:	1c00000f 	ldr	s15, 122c <_binary_shell_bin_size-0x100fdd4>
    1230:	0ffa5801 	.inst	0x0ffa5801 ; undefined
    1234:	39000000 	strb	w0, [x0]
    1238:	00000fd9 	udf	#4057
    123c:	00040193 	.inst	0x00040193 ; undefined
    1240:	5d000000 	.inst	0x5d000000 ; undefined
    1244:	70311702 	adr	x2, 63527 <_binary_shell_bin_size-0xfadad9>
    1248:	00000fe2 	udf	#4066
    124c:	0fec3900 	.inst	0x0fec3900 ; undefined
    1250:	01940000 	.inst	0x01940000 ; undefined
    1254:	00000004 	udf	#4
    1258:	05025c00 	orr	z0.d, z0.d, #0xffe00000003fffff
    125c:	0ff17031 	.inst	0x0ff17031 ; undefined
    1260:	011c0000 	.inst	0x011c0000 ; undefined
    1264:	000ffa58 	.inst	0x000ffa58 ; undefined
    1268:	d9390000 	.inst	0xd9390000 ; undefined
    126c:	9500000f 	bl	40012a8 <_binary_shell_bin_size+0x2ff02a8>
    1270:	00000401 	udf	#1025
    1274:	02690000 	.inst	0x02690000 ; undefined
    1278:	e2703117 	.inst	0xe2703117 ; undefined
    127c:	0000000f 	udf	#15
    1280:	000fec39 	.inst	0x000fec39 ; undefined
    1284:	04019600 	lsr	z0.h, p5/m, z0.h, #16
    1288:	00000000 	udf	#0
    128c:	31050268 	adds	w8, w19, #0x140
    1290:	000ff170 	.inst	0x000ff170 ; undefined
    1294:	58011c00 	ldr	x0, 3614 <_binary_shell_bin_size-0x100d9ec>
    1298:	00000ffa 	udf	#4090
    129c:	11983900 	.inst	0x11983900 ; undefined
    12a0:	01970000 	.inst	0x01970000 ; undefined
    12a4:	00000004 	udf	#4
    12a8:	14026e00 	b	9caa8 <_binary_shell_bin_size-0xf74558>
    12ac:	a1028031 	ld1b	{z17.b, z21.b, z25.b, z29.b}, pn8/z, [x1, x2]
    12b0:	00000011 	udf	#17
    12b4:	0007673d 	.inst	0x0007673d ; undefined
    12b8:	72000f00 	ands	w0, w24, #0xf
    12bc:	52091502 	eor	w2, w8, #0x1f800000
    12c0:	0000076f 	udf	#1903
    12c4:	0777530a 	.inst	0x0777530a ; undefined
    12c8:	27000000 	.inst	0x27000000 ; undefined
    12cc:	0000073c 	udf	#1852
    12d0:	5b0b018e 	.inst	0x5b0b018e ; undefined
    12d4:	98000010 	ldrsw	x16, 12d4 <_binary_shell_bin_size-0x100fd2c>
    12d8:	50010c01 	adr	x1, 345a <_binary_shell_bin_size-0x100dba6>
    12dc:	00008f02 	udf	#36610
    12e0:	00073c27 	.inst	0x00073c27 ; undefined
    12e4:	0b019900 	.inst	0x0b019900 ; undefined
    12e8:	0000073c 	udf	#1852
    12ec:	010c019a 	.inst	0x010c019a ; undefined
    12f0:	74100252 	.inst	0x74100252 ; undefined
    12f4:	073c0b00 	.inst	0x073c0b00 ; undefined
    12f8:	019b0000 	.inst	0x019b0000 ; undefined
    12fc:	0352010c 	.inst	0x0352010c ; undefined
    1300:	0004e410 	.inst	0x0004e410 ; undefined
    1304:	0007470b 	.inst	0x0007470b ; undefined
    1308:	0c019c00 	.inst	0x0c019c00 ; undefined
    130c:	10035201 	adr	x1, 7d4c <_binary_shell_bin_size-0x10092b4>
    1310:	010c2080 	.inst	0x010c2080 ; undefined
    1314:	008f0251 	.inst	0x008f0251 ; undefined
    1318:	0250010c 	.inst	0x0250010c ; undefined
    131c:	0b000083 	add	w3, w4, w0
    1320:	00000747 	udf	#1863
    1324:	010c019d 	.inst	0x010c019d ; undefined
    1328:	91100352 	add	x18, x26, #0x400
    132c:	51010c04 	sub	w4, w0, #0x43
    1330:	0c008f02 	.inst	0x0c008f02 ; undefined
    1334:	83025001 	.inst	0x83025001 ; undefined
    1338:	38000000 	sturb	w0, [x0]
    133c:	0040019e 	.inst	0x0040019e ; undefined
    1340:	6f010000 	.inst	0x6f010000 ; undefined
    1344:	027c006a 	.inst	0x027c006a ; undefined
    1348:	b6500144 	tbz	x4, #42, 1370 <_binary_shell_bin_size-0x100fc90>
    134c:	ec027c00 	.inst	0xec027c00 ; undefined
    1350:	44000003 	.inst	0x44000003 ; undefined
    1354:	00b85101 	.inst	0x00b85101 ; undefined
    1358:	0385027c 	.inst	0x0385027c ; undefined
    135c:	ec390000 	.inst	0xec390000 ; undefined
    1360:	9f00000f 	.inst	0x9f00000f ; undefined
    1364:	00000401 	udf	#1025
    1368:	02810000 	.inst	0x02810000 ; undefined
    136c:	f1503105 	subs	x5, x8, #0x40c, lsl #12
    1370:	1c00000f 	ldr	s15, 1370 <_binary_shell_bin_size-0x100fc90>
    1374:	0ffa5801 	.inst	0x0ffa5801 ; undefined
    1378:	00000000 	udf	#0
    137c:	1401a03b 	b	69468 <_binary_shell_bin_size-0xfa7b98>
    1380:	01000000 	.inst	0x01000000 ; undefined
    1384:	86006b6f 	.inst	0x86006b6f ; undefined
    1388:	00154c02 	.inst	0x00154c02 ; undefined
    138c:	b6543c00 	tbz	x0, #42, ffffffffffff9b0c <__free_ram_end+0xffffffffbcdb5b0c>
    1390:	ec028600 	.inst	0xec028600 ; undefined
    1394:	00000003 	udf	#3
    1398:	dc01a138 	.inst	0xdc01a138 ; undefined
    139c:	01000001 	.inst	0x01000001 ; undefined
    13a0:	8b006d6d 	add	x13, x11, x0, lsl #27
    13a4:	b9553c02 	ldr	w2, [x0, #5436]
    13a8:	7b028b00 	.inst	0x7b028b00 ; undefined
    13ac:	3c000005 	stur	b5, [x0]
    13b0:	8b003356 	add	x22, x26, x0, lsl #12
    13b4:	00047d02 	.inst	0x00047d02 ; undefined
    13b8:	ba573c00 	.inst	0xba573c00 ; undefined
    13bc:	85028b00 	.inst	0x85028b00 ; undefined
    13c0:	35000003 	cbnz	w3, 13c0 <_binary_shell_bin_size-0x100fc40>
    13c4:	8e00b658 	.inst	0x8e00b658 ; undefined
    13c8:	0003ec02 	.inst	0x0003ec02 ; undefined
    13cc:	b8593500 	ldr	w0, [x8], #-109
    13d0:	81028f00 	.inst	0x81028f00 ; undefined
    13d4:	36000004 	tbz	w4, #0, 13d4 <_binary_shell_bin_size-0x100fc2c>
    13d8:	02bb00bb 	.inst	0x02bb00bb ; undefined
    13dc:	00000481 	udf	#1153
    13e0:	000fec39 	.inst	0x000fec39 ; undefined
    13e4:	0401a200 	.inst	0x0401a200 ; undefined
    13e8:	00000000 	udf	#0
    13ec:	310502be 	adds	w30, w21, #0x140
    13f0:	000ff150 	.inst	0x000ff150 ; undefined
    13f4:	59011c00 	.inst	0x59011c00 ; undefined
    13f8:	00000ffa 	udf	#4090
    13fc:	073c0b00 	.inst	0x073c0b00 ; undefined
    1400:	01a30000 	.inst	0x01a30000 ; undefined
    1404:	0252010c 	.inst	0x0252010c ; undefined
    1408:	0b000085 	add	w5, w4, w0
    140c:	00000d62 	udf	#3426
    1410:	010c01a4 	.inst	0x010c01a4 ; undefined
    1414:	80100352 	.inst	0x80100352 ; undefined
    1418:	51010c04 	sub	w4, w0, #0x43
    141c:	00008302 	udf	#33538
    1420:	00073c0b 	.inst	0x00073c0b ; undefined
    1424:	0c01a500 	.inst	0x0c01a500 ; undefined
    1428:	85025101 	ld1w	{z1.s}, p4/z, [x8, z2.s, uxtw]
    142c:	3c280000 	.inst	0x3c280000 ; undefined
    1430:	a6000007 	.inst	0xa6000007 ; undefined
    1434:	0d620b01 	.inst	0x0d620b01 ; undefined
    1438:	01a70000 	.inst	0x01a70000 ; undefined
    143c:	0352010c 	.inst	0x0352010c ; undefined
    1440:	0c048010 	.inst	0x0c048010 ; undefined
    1444:	83025001 	.inst	0x83025001 ; undefined
    1448:	3c0b0000 	stur	b0, [x0, #176]
    144c:	a8000007 	stnp	x7, x0, [x0]
    1450:	51010c01 	sub	w1, w0, #0x43
    1454:	00008302 	udf	#33538
    1458:	00553700 	.inst	0x00553700 ; undefined
    145c:	00562048 	.inst	0x00562048 ; undefined
    1460:	0000b749 	udf	#46921
    1464:	00572000 	.inst	0x00572000 ; undefined
    1468:	0000b75d 	udf	#46941
    146c:	a9380000 	stp	x0, x0, [x0, #-128]
    1470:	0000e401 	udf	#58369
    1474:	6e6d0100 	uaddl2	v0.4s, v8.8h, v13.8h
    1478:	45030a00 	.inst	0x45030a00 ; undefined
    147c:	b9008f02 	str	w2, [x24, #140]
    1480:	8f033800 	.inst	0x8f033800 ; undefined
    1484:	39000016 	strb	w22, [x0]
    1488:	00001459 	udf	#5209
    148c:	005801aa 	.inst	0x005801aa ; undefined
    1490:	18000000 	ldr	w0, 1490 <_binary_shell_bin_size-0x100fb70>
    1494:	5a0a0503 	.inst	0x5a0a0503 ; undefined
    1498:	0000145d 	udf	#5213
    149c:	14655b0a 	b	19580c4 <_binary_shell_bin_size+0x9470c4>
    14a0:	0b000000 	add	w0, w0, w0
    14a4:	00000747 	udf	#1863
    14a8:	010c01aa 	.inst	0x010c01aa ; undefined
    14ac:	008f0251 	.inst	0x008f0251 ; undefined
    14b0:	07062700 	.inst	0x07062700 ; undefined
    14b4:	01ab0000 	.inst	0x01ab0000 ; undefined
    14b8:	00073c27 	.inst	0x00073c27 ; undefined
    14bc:	2701ac00 	.inst	0x2701ac00 ; undefined
    14c0:	0000073c 	udf	#1852
    14c4:	ab2701ad 	adds	x13, x13, w7, uxtb
    14c8:	ae000011 	.inst	0xae000011 ; undefined
    14cc:	13980b01 	ror	w1, w24, #2
    14d0:	01af0000 	.inst	0x01af0000 ; undefined
    14d4:	0252010c 	.inst	0x0252010c ; undefined
    14d8:	010c008f 	.inst	0x010c008f ; undefined
    14dc:	008f0251 	.inst	0x008f0251 ; undefined
    14e0:	0250010c 	.inst	0x0250010c ; undefined
    14e4:	0b00008f 	add	w15, w4, w0
    14e8:	0000073c 	udf	#1852
    14ec:	010c01b0 	.inst	0x010c01b0 ; undefined
    14f0:	008f0251 	.inst	0x008f0251 ; undefined
    14f4:	152c0b00 	b	4b040f4 <_binary_shell_bin_size+0x3af30f4>
    14f8:	01b10000 	.inst	0x01b10000 ; undefined
    14fc:	0250010c 	.inst	0x0250010c ; undefined
    1500:	0b00008f 	add	w15, w4, w0
    1504:	00001398 	udf	#5016
    1508:	010c01b2 	.inst	0x010c01b2 ; undefined
    150c:	0c310152 	.inst	0x0c310152 ; undefined
    1510:	8f025101 	.inst	0x8f025101 ; undefined
    1514:	50010c00 	adr	x0, 3696 <_binary_shell_bin_size-0x100d96a>
    1518:	00008f02 	udf	#36610
    151c:	00073c0b 	.inst	0x00073c0b ; undefined
    1520:	0c01b300 	.inst	0x0c01b300 ; undefined
    1524:	10035201 	adr	x1, 7f64 <_binary_shell_bin_size-0x100909c>
    1528:	000006bf 	udf	#1727
    152c:	1a01582c 	.inst	0x1a01582c ; undefined
    1530:	00000598 	udf	#1432
    1534:	0005982a 	.inst	0x0005982a ; undefined
    1538:	06412a00 	.inst	0x06412a00 ; undefined
    153c:	3a000000 	adcs	w0, w0, w0
    1540:	001801b4 	.inst	0x001801b4 ; undefined
    1544:	6f010000 	.inst	0x6f010000 ; undefined
    1548:	0347006f 	.inst	0x0347006f ; undefined
    154c:	0003850d 	.inst	0x0003850d ; undefined
    1550:	03016c00 	.inst	0x03016c00 ; undefined
    1554:	00155914 	.inst	0x00155914 ; undefined
    1558:	08ab1100 	.inst	0x08ab1100 ; undefined
    155c:	12090201 	and	w1, w16, #0x800000
    1560:	0000b78a 	udf	#46986
    1564:	000a0200 	.inst	0x000a0200 ; undefined
    1568:	00b78b12 	.inst	0x00b78b12 ; undefined
    156c:	0b020000 	add	w0, w0, w2
    1570:	b78c1208 	tbnz	x8, #49, ffffffffffff97b0 <__free_ram_end+0xffffffffbcdb57b0>
    1574:	02000000 	.inst	0x02000000 ; undefined
    1578:	8d12100c 	.inst	0x8d12100c ; undefined
    157c:	000000b7 	udf	#183
    1580:	12180d02 	and	w2, w8, #0xf00
    1584:	0000b78e 	udf	#46990
    1588:	200e0200 	.inst	0x200e0200 ; undefined
    158c:	00b78f12 	.inst	0x00b78f12 ; undefined
    1590:	0f020000 	.inst	0x0f020000 ; undefined
    1594:	b7901228 	tbnz	x8, #50, 17d8 <_binary_shell_bin_size-0x100f828>
    1598:	02000000 	.inst	0x02000000 ; undefined
    159c:	91123010 	add	x16, x0, #0x48c
    15a0:	000000b7 	udf	#183
    15a4:	12381102 	and	w2, w8, #0x1f00
    15a8:	0000b792 	udf	#46994
    15ac:	40120200 	.inst	0x40120200 ; undefined
    15b0:	00b79312 	.inst	0x00b79312 ; undefined
    15b4:	13020000 	sbfiz	w0, w0, #30, #1
    15b8:	b7941248 	tbnz	x8, #50, ffffffffffff9800 <__free_ram_end+0xffffffffbcdb5800>
    15bc:	02000000 	.inst	0x02000000 ; undefined
    15c0:	95125014 	bl	4495610 <_binary_shell_bin_size+0x3484610>
    15c4:	000000b7 	udf	#183
    15c8:	12581502 	.inst	0x12581502 ; undefined
    15cc:	0000b796 	udf	#46998
    15d0:	60160200 	.inst	0x60160200 ; undefined
    15d4:	00b79712 	.inst	0x00b79712 ; undefined
    15d8:	17020000 	b	fffffffffc0815d8 <__free_ram_end+0xffffffffb8e3d5d8>
    15dc:	b7981268 	tbnz	x8, #51, 1828 <_binary_shell_bin_size-0x100f7d8>
    15e0:	02000000 	.inst	0x02000000 ; undefined
    15e4:	99127018 	stlur	w24, [x0, #-217]
    15e8:	000000b7 	udf	#183
    15ec:	12781902 	.inst	0x12781902 ; undefined
    15f0:	0000b79a 	udf	#47002
    15f4:	801a0200 	.inst	0x801a0200 ; undefined
    15f8:	00b79b12 	.inst	0x00b79b12 ; undefined
    15fc:	1b020000 	madd	w0, w0, w2, w0
    1600:	b79c1288 	tbnz	x8, #51, ffffffffffff9850 <__free_ram_end+0xffffffffbcdb5850>
    1604:	02000000 	.inst	0x02000000 ; undefined
    1608:	9d12901c 	.inst	0x9d12901c ; undefined
    160c:	000000b7 	udf	#183
    1610:	12981d02 	mov	w2, #0xffff3f17            	// #-49385
    1614:	0000b79e 	udf	#47006
    1618:	a01e0200 	ld1b	{z0.b-z1.b}, pn8/z, [x16, x30]
    161c:	00b79f12 	.inst	0x00b79f12 ; undefined
    1620:	1f020000 	fmadd	s0, s0, s2, s0
    1624:	b7a012a8 	tbnz	x8, #52, 1878 <_binary_shell_bin_size-0x100f788>
    1628:	02000000 	.inst	0x02000000 ; undefined
    162c:	a112b020 	ld1h	{z0.h, z4.h, z8.h, z12.h}, pn12/z, [x1, x18, lsl #1]
    1630:	000000b7 	udf	#183
    1634:	12b82102 	mov	w2, #0x3ef7ffff            	// #1056440319
    1638:	0000b7a2 	udf	#47010
    163c:	c0220200 	.inst	0xc0220200 ; undefined
    1640:	00b7a312 	.inst	0x00b7a312 ; undefined
    1644:	23020000 	.inst	0x23020000 ; undefined
    1648:	b7a412c8 	tbnz	x8, #52, ffffffffffff98a0 <__free_ram_end+0xffffffffbcdb58a0>
    164c:	02000000 	.inst	0x02000000 ; undefined
    1650:	a512d024 	ldnt1w	{z4.s}, p4/z, [x1, x18, lsl #2]
    1654:	000000b7 	udf	#183
    1658:	12d82502 	.inst	0x12d82502 ; undefined
    165c:	0000b7a6 	udf	#47014
    1660:	e0260200 	st1b	{za0h.b[w12, 0]}, p0, [x16, x6]
    1664:	00b7a712 	.inst	0x00b7a712 ; undefined
    1668:	27020000 	.inst	0x27020000 ; undefined
    166c:	b7a812e8 	tbnz	x8, #53, 18c8 <_binary_shell_bin_size-0x100f738>
    1670:	02000000 	.inst	0x02000000 ; undefined
    1674:	a912f028 	stp	x8, x28, [x1, #296]
    1678:	000000b7 	udf	#183
    167c:	18f82902 	ldr	w2, ffffffffffff1b9c <__free_ram_end+0xffffffffbcdadb9c>
    1680:	0000b7aa 	udf	#47018
    1684:	002a0200 	.inst	0x002a0200 ; NYI
    1688:	851b0001 	.inst	0x851b0001 ; undefined
    168c:	04000003 	add	z3.b, p0/m, z3.b, z0.b
    1690:	0000004d 	udf	#77
    1694:	00005115 	udf	#20757
    1698:	00020000 	.inst	0x00020000 ; undefined
    169c:	00025600 	.inst	0x00025600 ; undefined
    16a0:	01000500 	.inst	0x01000500 ; undefined
    16a4:	0003a608 	.inst	0x0003a608 ; undefined
    16a8:	1d000100 	.inst	0x1d000100 ; undefined
    16ac:	03000100 	.inst	0x03000100 ; undefined
    16b0:	092b0000 	.inst	0x092b0000 ; undefined
    16b4:	01020000 	.inst	0x01020000 ; undefined
    16b8:	00000404 	udf	#1028
    16bc:	000005b8 	udf	#1464
    16c0:	00000144 	udf	#324
    16c4:	0000099a 	udf	#2458
    16c8:	00003502 	udf	#13570
    16cc:	025c0000 	.inst	0x025c0000 ; undefined
    16d0:	410300a1 	.inst	0x410300a1 ; undefined
    16d4:	04000000 	add	z0.b, p0/m, z0.b, z0.b
    16d8:	00000045 	udf	#69
    16dc:	03050011 	.inst	0x03050011 ; undefined
    16e0:	04060108 	.inst	0x04060108 ; undefined
    16e4:	4e070708 	dup	v8.16b, v24.b[3]
    16e8:	08000000 	stxrb	w0, w0, [x0]
    16ec:	00000056 	udf	#86
    16f0:	05040106 	.inst	0x05040106 ; undefined
    16f4:	07010805 	.inst	0x07010805 ; undefined
    16f8:	0000005f 	udf	#95
    16fc:	00004e09 	udf	#19977
    1700:	00560700 	.inst	0x00560700 ; undefined
    1704:	010a0000 	.inst	0x010a0000 ; undefined
    1708:	000000c8 	udf	#200
    170c:	00086f01 	.inst	0x00086f01 ; undefined
    1710:	0001f005 	.inst	0x0001f005 ; undefined
    1714:	50010b00 	adr	x0, 3876 <_binary_shell_bin_size-0x100d78a>
    1718:	f005000e 	adrp	x14, a004000 <_binary_shell_bin_size+0x8ff3000>
    171c:	0b000001 	add	w1, w0, w0
    1720:	000f5101 	.inst	0x000f5101 ; undefined
    1724:	0001fa05 	.inst	0x0001fa05 ; undefined
    1728:	12020c00 	and	w0, w0, #0xc0000003
    172c:	02000500 	.inst	0x02000500 ; undefined
    1730:	000d0000 	.inst	0x000d0000 ; undefined
    1734:	49060010 	.inst	0x49060010 ; undefined
    1738:	0d000000 	st1	{v0.b}[0], [x0]
    173c:	07001101 	.inst	0x07001101 ; undefined
    1740:	0000005a 	udf	#90
    1744:	a0020a00 	ld1b	{z0.b-z1.b}, pn10/z, [x16, x2]
    1748:	01000000 	.inst	0x01000000 ; undefined
    174c:	0d00096f 	st1	{v15.b}[2], [x11]
    1750:	000001f0 	udf	#496
    1754:	1650010b 	b	fffffffff9401b80 <__free_ram_end+0xffffffffb61bdb80>
    1758:	01f00d00 	.inst	0x01f00d00 ; undefined
    175c:	010b0000 	.inst	0x010b0000 ; undefined
    1760:	0d001751 	st1	{v17.b}[5], [x26]
    1764:	00000041 	udf	#65
    1768:	0012040c 	.inst	0x0012040c ; undefined
    176c:	0002000d 	.inst	0x0002000d ; undefined
    1770:	18030d00 	ldr	w0, 7910 <_binary_shell_bin_size-0x10096f0>
    1774:	00490e00 	.inst	0x00490e00 ; undefined
    1778:	0a000000 	and	w0, w0, w0
    177c:	00002803 	udf	#10243
    1780:	0a6f0100 	bic	w0, w8, w15, lsr #0
    1784:	01f11400 	.inst	0x01f11400 ; undefined
    1788:	010b0000 	.inst	0x010b0000 ; undefined
    178c:	14000e50 	b	50cc <_binary_shell_bin_size-0x100bf34>
    1790:	000001f1 	udf	#497
    1794:	000f050c 	.inst	0x000f050c ; undefined
    1798:	00021414 	.inst	0x00021414 ; undefined
    179c:	10060d00 	adr	x0, d93c <_binary_shell_bin_size-0x10036c4>
    17a0:	01f11500 	.inst	0x01f11500 ; undefined
    17a4:	0a000000 	and	w0, w0, w0
    17a8:	00003004 	udf	#12292
    17ac:	0b6f0100 	.inst	0x0b6f0100 ; undefined
    17b0:	01f61c00 	.inst	0x01f61c00 ; undefined
    17b4:	070c0000 	.inst	0x070c0000 ; undefined
    17b8:	141c0019 	b	70181c <_binary_shell_bin_size-0x90f7e4>
    17bc:	0b000002 	add	w2, w0, w0
    17c0:	001a5101 	.inst	0x001a5101 ; undefined
    17c4:	0002141c 	.inst	0x0002141c ; undefined
    17c8:	050e0000 	.inst	0x050e0000 ; undefined
    17cc:	00000244 	udf	#580
    17d0:	000d6d01 	.inst	0x000d6d01 ; undefined
    17d4:	23080c27 	.inst	0x23080c27 ; undefined
    17d8:	02142700 	.inst	0x02142700 ; undefined
    17dc:	020f0000 	.inst	0x020f0000 ; undefined
    17e0:	001b6091 	.inst	0x001b6091 ; undefined
    17e4:	00021e28 	.inst	0x00021e28 ; undefined
    17e8:	002a1000 	.inst	0x002a1000 ; NYI
    17ec:	00110c6a 	.inst	0x00110c6a ; undefined
    17f0:	0024090d 	.inst	0x0024090d ; NYI
    17f4:	0002103f 	.inst	0x0002103f ; undefined
    17f8:	250a0d00 	cmpge	p0.b, p3/z, z8.b, #10
    17fc:	01f63e00 	.inst	0x01f63e00 ; undefined
    1800:	0b0d0000 	add	w0, w0, w13
    1804:	10450026 	adr	x6, 8b808 <_binary_shell_bin_size-0xf857f8>
    1808:	00000002 	udf	#2
    180c:	0e0d0111 	tbl	v17.8b, {v8.16b}, v13.8b
    1810:	f6580028 	.inst	0xf6580028 ; undefined
    1814:	0d000001 	st1	{v1.b}[0], [x0]
    1818:	5700250f 	.inst	0x5700250f ; undefined
    181c:	00000255 	udf	#597
    1820:	00240612 	.inst	0x00240612 ; NYI
    1824:	0d0d0000 	.inst	0x0d0d0000 ; undefined
    1828:	f6590027 	.inst	0xf6590027 ; undefined
    182c:	11000001 	add	w1, w0, #0x0
    1830:	002b1302 	.inst	0x002b1302 ; NYI
    1834:	0002105a 	.inst	0x0002105a ; undefined
    1838:	00000000 	udf	#0
    183c:	0c0d0311 	.inst	0x0c0d0311 ; undefined
    1840:	14360011 	b	d81884 <_binary_shell_bin_size-0x28f77c>
    1844:	00000002 	udf	#2
    1848:	01e61514 	.inst	0x01e61514 ; undefined
    184c:	16070000 	b	fffffffff81c184c <__free_ram_end+0xffffffffb4f7d84c>
    1850:	000001e6 	udf	#486
    1854:	50011708 	adr	x8, 3b36 <_binary_shell_bin_size-0x100d4ca>
    1858:	002d1002 	.inst	0x002d1002 ; NYI
    185c:	0001e616 	.inst	0x0001e616 ; undefined
    1860:	01170900 	.inst	0x01170900 ; undefined
    1864:	30880250 	adr	x16, fffffffffff118ad <__free_ram_end+0xffffffffbcccd8ad>
    1868:	01e61500 	.inst	0x01e61500 ; undefined
    186c:	150a0000 	b	428186c <_binary_shell_bin_size+0x327086c>
    1870:	000001e6 	udf	#486
    1874:	01e6160b 	.inst	0x01e6160b ; undefined
    1878:	170c0000 	b	fffffffffc301878 <__free_ram_end+0xffffffffb90bd878>
    187c:	10025001 	adr	x1, 627c <_binary_shell_bin_size-0x100ad84>
    1880:	18000025 	ldr	w5, 1884 <_binary_shell_bin_size-0x100f77c>
    1884:	19030007 	stlurb	w7, [x0, #48]
    1888:	00000041 	udf	#65
    188c:	41071a00 	.inst	0x41071a00 ; undefined
    1890:	05000000 	orr	z0.s, z0.s, #0x1
    1894:	0704050c 	.inst	0x0704050c ; undefined
    1898:	000001ff 	udf	#511
    189c:	0208081b 	.inst	0x0208081b ; undefined
    18a0:	01150000 	.inst	0x01150000 ; undefined
    18a4:	02100808 	.inst	0x02100808 ; undefined
    18a8:	01140000 	.inst	0x01140000 ; undefined
    18ac:	07130506 	.inst	0x07130506 ; undefined
    18b0:	02190704 	.inst	0x02190704 ; undefined
    18b4:	41090000 	.inst	0x41090000 ; undefined
    18b8:	1c000000 	ldr	s0, 18b8 <_binary_shell_bin_size-0x100f748>
    18bc:	00000224 	udf	#548
    18c0:	20211d22 	.inst	0x20211d22 ; undefined
    18c4:	01f01c1e 	.inst	0x01f01c1e ; undefined
    18c8:	28000000 	stnp	w0, w0, [x0]
    18cc:	f01d1e00 	adrp	x0, 3a3c4000 <_binary_shell_bin_size+0x393b3000>
    18d0:	00000001 	udf	#1
    18d4:	1e1e0828 	.inst	0x1e1e0828 ; undefined
    18d8:	000001f0 	udf	#496
    18dc:	1e102800 	.inst	0x1e102800 ; undefined
    18e0:	0001f61f 	.inst	0x0001f61f ; undefined
    18e4:	18280000 	ldr	w0, 518e4 <_binary_shell_bin_size-0xfbf71c>
    18e8:	01f6201e 	.inst	0x01f6201e ; undefined
    18ec:	28000000 	stnp	w0, w0, [x0]
    18f0:	2905001c 	stp	w28, w0, [x0, #40]
    18f4:	7b000807 	.inst	0x7b000807 ; undefined
    18f8:	05000001 	orr	z1.s, z1.s, #0x1
    18fc:	0a080100 	and	w0, w8, w8
    1900:	01000005 	.inst	0x01000005 ; undefined
    1904:	00000b33 	udf	#2867
    1908:	40201678 	.inst	0x40201678 ; undefined
    190c:	00000000 	udf	#0
    1910:	40201764 	.inst	0x40201764 ; undefined
    1914:	00000000 	udf	#0
    1918:	74636576 	.inst	0x74636576 ; undefined
    191c:	2f00732e 	.inst	0x2f00732e ; undefined
    1920:	656d6f68 	fnmls	z8.h, p3/m, z27.h, z13.h
    1924:	686f722f 	.inst	0x686f722f ; undefined
    1928:	2f687469 	.inst	0x2f687469 ; undefined
    192c:	2f6e7566 	.inst	0x2f6e7566 ; undefined
    1930:	696e694d 	ldpsw	x13, x26, [x10, #-144]
    1934:	2d534f2d 	ldp	s13, s19, [x25, #152]
    1938:	00766564 	.inst	0x00766564 ; undefined
    193c:	6e756255 	rsubhn2	v21.8h, v18.4s, v21.4s
    1940:	63207574 	.inst	0x63207574 ; undefined
    1944:	676e616c 	.inst	0x676e616c ; undefined
    1948:	72657620 	.inst	0x72657620 ; undefined
    194c:	6e6f6973 	.inst	0x6e6f6973 ; undefined
    1950:	2e383120 	usubw	v0.8h, v9.8h, v24.8b
    1954:	20332e31 	.inst	0x20332e31 ; undefined
    1958:	62753128 	.inst	0x62753128 ; undefined
    195c:	75746e75 	.inst	0x75746e75 ; undefined
    1960:	01002931 	.inst	0x01002931 ; undefined
    1964:	79730280 	ldrh	w0, [x20, #6528]
    1968:	655f636e 	fcmeq	p14.h, p0/z, z27.h, z31.h
    196c:	685f316c 	.inst	0x685f316c ; undefined
    1970:	6c646e61 	ldnp	d1, d27, [x19, #-448]
    1974:	00007265 	udf	#29285
    1978:	02000000 	.inst	0x02000000 ; undefined
    197c:	78000000 	sturh	w0, [x0]
    1980:	00402016 	.inst	0x00402016 ; undefined
    1984:	02000000 	.inst	0x02000000 ; undefined
    1988:	5f717269 	sqdmlsl	s9, h19, v1.h[3]
    198c:	5f316c65 	.inst	0x5f316c65 ; undefined
    1990:	646e6168 	.inst	0x646e6168 ; undefined
    1994:	0072656c 	.inst	0x0072656c ; undefined
    1998:	00000000 	udf	#0
    199c:	0000003d 	udf	#61
    19a0:	4020172c 	.inst	0x4020172c ; undefined
    19a4:	00000000 	udf	#0
    19a8:	71696602 	subs	w2, w16, #0xa59, lsl #12
    19ac:	316c655f 	cmn	w10, #0xb19, lsl #12
    19b0:	6e61685f 	fcvtxn2	v31.4s, v2.2d
    19b4:	72656c64 	.inst	0x72656c64 ; undefined
    19b8:	00000000 	udf	#0
    19bc:	00004200 	udf	#16896
    19c0:	20173400 	.inst	0x20173400 ; undefined
    19c4:	00000040 	udf	#64
    19c8:	65730200 	fmla	z0.h, p0/m, z16.h, z19.h
    19cc:	726f7272 	.inst	0x726f7272 ; undefined
    19d0:	316c655f 	cmn	w10, #0xb19, lsl #12
    19d4:	6e61685f 	fcvtxn2	v31.4s, v2.2d
    19d8:	72656c64 	.inst	0x72656c64 ; undefined
    19dc:	00000000 	udf	#0
    19e0:	00004700 	udf	#18176
    19e4:	20173c00 	.inst	0x20173c00 ; undefined
    19e8:	00000040 	udf	#64
    19ec:	79730200 	ldrh	w0, [x16, #6528]
    19f0:	655f636e 	fcmeq	p14.h, p0/z, z27.h, z31.h
    19f4:	685f326c 	.inst	0x685f326c ; undefined
    19f8:	6c646e61 	ldnp	d1, d27, [x19, #-448]
    19fc:	00007265 	udf	#29285
    1a00:	4c000000 	st4	{v0.16b-v3.16b}, [x0]
    1a04:	44000000 	.inst	0x44000000 ; undefined
    1a08:	00402017 	.inst	0x00402017 ; undefined
    1a0c:	02000000 	.inst	0x02000000 ; undefined
    1a10:	5f717269 	sqdmlsl	s9, h19, v1.h[3]
    1a14:	5f326c65 	.inst	0x5f326c65 ; undefined
    1a18:	646e6168 	.inst	0x646e6168 ; undefined
    1a1c:	0072656c 	.inst	0x0072656c ; undefined
    1a20:	00000000 	udf	#0
    1a24:	00000051 	udf	#81
    1a28:	4020174c 	.inst	0x4020174c ; undefined
    1a2c:	00000000 	udf	#0
    1a30:	71696602 	subs	w2, w16, #0xa59, lsl #12
    1a34:	326c655f 	.inst	0x326c655f ; undefined
    1a38:	6e61685f 	fcvtxn2	v31.4s, v2.2d
    1a3c:	72656c64 	.inst	0x72656c64 ; undefined
    1a40:	00000000 	udf	#0
    1a44:	00005600 	udf	#22016
    1a48:	20175400 	.inst	0x20175400 ; undefined
    1a4c:	00000040 	udf	#64
    1a50:	65730200 	fmla	z0.h, p0/m, z16.h, z19.h
    1a54:	726f7272 	.inst	0x726f7272 ; undefined
    1a58:	326c655f 	.inst	0x326c655f ; undefined
    1a5c:	6e61685f 	fcvtxn2	v31.4s, v2.2d
    1a60:	72656c64 	.inst	0x72656c64 ; undefined
    1a64:	00000000 	udf	#0
    1a68:	00005b00 	udf	#23296
    1a6c:	20175c00 	.inst	0x20175c00 ; undefined
    1a70:	00000040 	udf	#64
    1a74:	00910000 	.inst	0x00910000 ; undefined
    1a78:	00050000 	.inst	0x00050000 ; undefined
    1a7c:	052b0801 	ext	z1.b, z1.b, z0.b, #90
    1a80:	c3010000 	.inst	0xc3010000 ; undefined
    1a84:	0000000b 	udf	#11
    1a88:	00402020 	.inst	0x00402020 ; undefined
    1a8c:	84000000 	ld1sb	{z0.s}, p0/z, [x0, z0.s, uxtw]
    1a90:	00402027 	.inst	0x00402027 ; undefined
    1a94:	76000000 	.inst	0x76000000 ; undefined
    1a98:	6f746365 	umlsl2	v5.4s, v27.8h, v4.h[3]
    1a9c:	61745f72 	.inst	0x61745f72 ; undefined
    1aa0:	2e656c62 	umin	v2.4h, v3.4h, v5.4h
    1aa4:	682f0073 	.inst	0x682f0073 ; undefined
    1aa8:	2f656d6f 	.inst	0x2f656d6f ; undefined
    1aac:	69686f72 	ldpsw	x18, x27, [x27, #-192]
    1ab0:	662f6874 	.inst	0x662f6874 ; undefined
    1ab4:	4d2f6e75 	.inst	0x4d2f6e75 ; undefined
    1ab8:	2d696e69 	ldp	s9, s27, [x19, #-184]
    1abc:	642d534f 	.inst	0x642d534f ; undefined
    1ac0:	55007665 	.inst	0x55007665 ; undefined
    1ac4:	746e7562 	.inst	0x746e7562 ; undefined
    1ac8:	6c632075 	ldnp	d21, d8, [x3, #-464]
    1acc:	20676e61 	.inst	0x20676e61 ; undefined
    1ad0:	73726576 	.inst	0x73726576 ; undefined
    1ad4:	206e6f69 	.inst	0x206e6f69 ; undefined
    1ad8:	312e3831 	adds	w17, w1, #0xb8e
    1adc:	2820332e 	stnp	w14, w12, [x25, #-256]
    1ae0:	75627531 	.inst	0x75627531 ; undefined
    1ae4:	3175746e 	adds	w14, w3, #0xd5d, lsl #12
    1ae8:	80010029 	.inst	0x80010029 ; undefined
    1aec:	63657602 	.inst	0x63657602 ; undefined
    1af0:	5f726f74 	.inst	0x5f726f74 ; undefined
    1af4:	6c626174 	ldnp	d20, d24, [x11, #-480]
    1af8:	00000065 	udf	#101
    1afc:	00040000 	.inst	0x00040000 ; undefined
    1b00:	20000000 	.inst	0x20000000 ; undefined
    1b04:	00004020 	udf	#16416
    1b08:	c5000000 	ld1sw	{z0.d}, p0/z, [x0, z0.d, uxtw]
    1b0c:	05000001 	orr	z1.s, z1.s, #0x1
    1b10:	4c080100 	.inst	0x4c080100 ; undefined
    1b14:	01000005 	.inst	0x01000005 ; undefined
    1b18:	01001d00 	.inst	0x01001d00 ; undefined
    1b1c:	000003b8 	udf	#952
    1b20:	00000c55 	udf	#3157
    1b24:	00b40802 	.inst	0x00b40802 ; undefined
    1b28:	06280000 	.inst	0x06280000 ; undefined
    1b2c:	0b360000 	add	w0, w0, w22, uxtb
    1b30:	31020000 	adds	w0, w0, #0x80
    1b34:	00000000 	udf	#0
    1b38:	00a1020f 	.inst	0x00a1020f ; undefined
    1b3c:	00003d03 	udf	#15619
    1b40:	00410400 	.inst	0x00410400 ; undefined
    1b44:	00170000 	.inst	0x00170000 ; undefined
    1b48:	01080305 	.inst	0x01080305 ; undefined
    1b4c:	07080406 	.inst	0x07080406 ; undefined
    1b50:	00004f02 	udf	#20226
    1b54:	02100000 	.inst	0x02100000 ; undefined
    1b58:	3d0301a1 	str	b1, [x13, #192]
    1b5c:	04000000 	add	z0.b, p0/m, z0.b, z0.b
    1b60:	00000041 	udf	#65
    1b64:	4f02000f 	.inst	0x4f02000f ; undefined
    1b68:	00000000 	udf	#0
    1b6c:	02a10211 	.inst	0x02a10211 ; undefined
    1b70:	00006f02 	udf	#28418
    1b74:	02120000 	.inst	0x02120000 ; undefined
    1b78:	3d0303a1 	str	b1, [x29, #192]
    1b7c:	04000000 	add	z0.b, p0/m, z0.b, z0.b
    1b80:	00000041 	udf	#65
    1b84:	8502000a 	.inst	0x8502000a ; undefined
    1b88:	00000000 	udf	#0
    1b8c:	04a10213 	add	z19.s, z16.s, z1.s
    1b90:	00003d03 	udf	#15619
    1b94:	00410400 	.inst	0x00410400 ; undefined
    1b98:	000c0000 	.inst	0x000c0000 ; undefined
    1b9c:	00009b02 	udf	#39682
    1ba0:	02140000 	.inst	0x02140000 ; undefined
    1ba4:	3d0305a1 	str	b1, [x13, #193]
    1ba8:	04000000 	add	z0.b, p0/m, z0.b, z0.b
    1bac:	00000041 	udf	#65
    1bb0:	b102000b 	adds	x11, x0, #0x80
    1bb4:	00000000 	udf	#0
    1bb8:	06a10215 	.inst	0x06a10215 ; undefined
    1bbc:	00003d03 	udf	#15619
    1bc0:	00410400 	.inst	0x00410400 ; undefined
    1bc4:	00240000 	.inst	0x00240000 ; NYI
    1bc8:	0000c702 	udf	#50946
    1bcc:	02150000 	.inst	0x02150000 ; undefined
    1bd0:	3d0307a1 	str	b1, [x29, #193]
    1bd4:	04000000 	add	z0.b, p0/m, z0.b, z0.b
    1bd8:	00000041 	udf	#65
    1bdc:	08070007 	stxrb	w7, w7, [x0]
    1be0:	00000094 	udf	#148
    1be4:	00066d01 	.inst	0x00066d01 ; undefined
    1be8:	0f000804 	.inst	0x0f000804 ; undefined
    1bec:	01bc0400 	.inst	0x01bc0400 ; undefined
    1bf0:	01080000 	.inst	0x01080000 ; undefined
    1bf4:	bc040012 	stur	s18, [x0, #64]
    1bf8:	09000001 	.inst	0x09000001 ; undefined
    1bfc:	07001302 	.inst	0x07001302 ; undefined
    1c00:	000001bc 	udf	#444
    1c04:	0a00140a 	and	w10, w0, w0, lsl #5
    1c08:	000001bc 	udf	#444
    1c0c:	0d00150a 	st1	{v10.b}[5], [x8]
    1c10:	000001bc 	udf	#444
    1c14:	00014f0b 	.inst	0x00014f0b ; undefined
    1c18:	4f0c0900 	.inst	0x4f0c0900 ; undefined
    1c1c:	0a000001 	and	w1, w0, w0
    1c20:	0251010d 	.inst	0x0251010d ; undefined
    1c24:	0c000083 	st4	{v3.8b-v6.8b}, [x4]
    1c28:	0000014f 	udf	#335
    1c2c:	51010d0b 	sub	w11, w8, #0x43
    1c30:	00008502 	udf	#34050
    1c34:	00014f0c 	.inst	0x00014f0c ; undefined
    1c38:	010d0c00 	.inst	0x010d0c00 ; undefined
    1c3c:	00840251 	.inst	0x00840251 ; undefined
    1c40:	014f0b00 	.inst	0x014f0b00 ; undefined
    1c44:	0b0d0000 	add	w0, w0, w13
    1c48:	0000014f 	udf	#335
    1c4c:	014f0c0e 	.inst	0x014f0c0e ; undefined
    1c50:	0d0f0000 	.inst	0x0d0f0000 ; undefined
    1c54:	45015201 	.inst	0x45015201 ; undefined
    1c58:	050e0000 	.inst	0x050e0000 ; undefined
    1c5c:	5a0f1c01 	.inst	0x5a0f1c01 ; undefined
    1c60:	10000001 	adr	x1, 1c60 <_binary_shell_bin_size-0x100f3a0>
    1c64:	015f1100 	.inst	0x015f1100 ; undefined
    1c68:	3d120000 	str	b0, [x0, #1152]
    1c6c:	13000000 	sbfx	w0, w0, #0, #1
    1c70:	00000410 	udf	#1040
    1c74:	076f0100 	.inst	0x076f0100 ; undefined
    1c78:	11131900 	add	w0, w8, #0x4c6
    1c7c:	00000004 	udf	#4
    1c80:	00086f01 	.inst	0x00086f01 ; undefined
    1c84:	0412131f 	smulh	z31.b, p4/m, z31.b, z24.b
    1c88:	01000000 	.inst	0x01000000 ; undefined
    1c8c:	2500096f 	cmpge	p15.b, p2/z, z11.b, #0
    1c90:	00041313 	.inst	0x00041313 ; undefined
    1c94:	6f010000 	.inst	0x6f010000 ; undefined
    1c98:	132b000a 	.inst	0x132b000a ; undefined
    1c9c:	00000414 	udf	#1044
    1ca0:	0b6f0100 	.inst	0x0b6f0100 ; undefined
    1ca4:	15133200 	b	44ce4a4 <_binary_shell_bin_size+0x34bd4a4>
    1ca8:	00000004 	udf	#4
    1cac:	000c6f01 	.inst	0x000c6f01 ; undefined
    1cb0:	04161338 	.inst	0x04161338 ; undefined
    1cb4:	01000000 	.inst	0x01000000 ; undefined
    1cb8:	3e000d6f 	.inst	0x3e000d6f ; undefined
    1cbc:	00041713 	.inst	0x00041713 ; undefined
    1cc0:	6f010000 	.inst	0x6f010000 ; undefined
    1cc4:	1444000e 	b	1101cfc <_binary_shell_bin_size+0xf0cfc>
    1cc8:	000001c4 	udf	#452
    1ccc:	05070111 	.inst	0x05070111 ; undefined
    1cd0:	00080710 	.inst	0x00080710 ; undefined

Disassembly of section .debug_rnglists:

0000000000000000 <.debug_rnglists>:
   0:	00000134 	udf	#308
   4:	00080005 	.inst	0x00080005 ; undefined
   8:	00000011 	udf	#17
   c:	00000044 	udf	#68
  10:	00000051 	udf	#81
  14:	0000005e 	udf	#94
  18:	0000006b 	udf	#107
  1c:	00000078 	udf	#120
  20:	00000085 	udf	#133
  24:	00000092 	udf	#146
  28:	000000ae 	udf	#174
  2c:	000000bb 	udf	#187
  30:	000000c8 	udf	#200
  34:	000000d5 	udf	#213
  38:	000000e2 	udf	#226
  3c:	000000ef 	udf	#239
  40:	000000fc 	udf	#252
  44:	00000109 	udf	#265
  48:	00000116 	udf	#278
  4c:	00000123 	udf	#291
  50:	d4042e01 	svc	#0x2170
  54:	0405a004 	.inst	0x0405a004 ; undefined
  58:	05d005a8 	mov	z8.d, p0/z, #45
  5c:	042e0100 	add	z0.b, z8.b, z14.b
  60:	05a004d4 	zip2	z20.q, z6.q, z0.q
  64:	ac05a804 	stnp	q4, q10, [x0, #176]
  68:	2e010005 	ext	v5.8b, v0.8b, v1.8b, #0
  6c:	b405e804 	cbz	x4, bd6c <_binary_shell_bin_size-0x1005294>
  70:	06bc0406 	.inst	0x06bc0406 ; undefined
  74:	010006e4 	.inst	0x010006e4 ; undefined
  78:	05e8042e 	.inst	0x05e8042e ; undefined
  7c:	bc0406b4 	str	s20, [x21], #64
  80:	0006c006 	.inst	0x0006c006 ; undefined
  84:	b8042e01 	str	w1, [x16, #66]!
  88:	0408e408 	msb	z8.b, p1/m, z8.b, z0.b
  8c:	0cbc08ec 	.inst	0x0cbc08ec ; undefined
  90:	042e0100 	add	z0.b, z8.b, z14.b
  94:	08e408b8 	.inst	0x08e408b8 ; undefined
  98:	bc08ec04 	str	s4, [x0, #142]!
  9c:	2e01000c 	ext	v12.8b, v0.8b, v1.8b, #0
  a0:	9c109804 	ldr	q4, 213a0 <_binary_shell_bin_size-0xfefc60>
  a4:	10a00410 	adr	x16, fffffffffff40124 <__free_ram_end+0xffffffffbccfc124>
  a8:	ac0410a4 	stnp	q4, q4, [x5, #128]
  ac:	0410b410 	.inst	0x0410b410 ; undefined
  b0:	10c010b8 	adr	x24, fffffffffff802c4 <__free_ram_end+0xffffffffbcd3c2c4>
  b4:	8c10d804 	.inst	0x8c10d804 ; undefined
  b8:	2e010011 	ext	v17.8b, v0.8b, v1.8b, #0
  bc:	8c129804 	.inst	0x8c129804 ; undefined
  c0:	14fc0413 	b	3f0110c <_binary_shell_bin_size+0x2ef010c>
  c4:	01001598 	.inst	0x01001598 ; undefined
  c8:	12a8042e 	mov	w14, #0xbfdeffff            	// #-1075904513
  cc:	fc0412fc 	stur	d28, [x23, #65]
  d0:	00159814 	.inst	0x00159814 ; undefined
  d4:	a8042e01 	stnp	x1, x11, [x16, #64]
  d8:	0412cc12 	mad	z18.b, p3/m, z18.b, z0.b
  dc:	159814fc 	b	66054cc <_binary_shell_bin_size+0x55f44cc>
  e0:	042e0100 	add	z0.b, z8.b, z14.b
  e4:	13cc138c 	.inst	0x13cc138c ; undefined
  e8:	d413d004 	.inst	0xd413d004 ; undefined
  ec:	2e010013 	ext	v19.8b, v0.8b, v1.8b, #0
  f0:	b813f404 	str	w4, [x0], #-193
  f4:	15980414 	b	6601144 <_binary_shell_bin_size+0x55f0144>
  f8:	010015b4 	.inst	0x010015b4 ; undefined
  fc:	13f4042e 	.inst	0x13f4042e ; undefined
 100:	980414ac 	ldrsw	x12, 8394 <_binary_shell_bin_size-0x1008c6c>
 104:	0015b415 	.inst	0x0015b415 ; undefined
 108:	f4042e01 	.inst	0xf4042e01 ; undefined
 10c:	04149813 	asrr	z19.b, p6/m, z19.b, z0.b
 110:	15b41598 	b	6d05770 <_binary_shell_bin_size+0x5cf4770>
 114:	042e0100 	add	z0.b, z8.b, z14.b
 118:	16ac15ec 	b	fffffffffab058c8 <__free_ram_end+0xffffffffb78c18c8>
 11c:	8016fc04 	.inst	0x8016fc04 ; undefined
 120:	2e010017 	ext	v23.8b, v0.8b, v1.8b, #0
 124:	e41da804 	st1b	{z4.d}, p2, [x0, z29.d]
 128:	1e80041d 	.inst	0x1e80041d ; undefined
 12c:	03001e90 	.inst	0x03001e90 ; undefined
 130:	0324dc2e 	.inst	0x0324dc2e ; undefined
 134:	001801b4 	.inst	0x001801b4 ; undefined
 138:	00000044 	udf	#68
 13c:	00080005 	.inst	0x00080005 ; undefined
 140:	00000004 	udf	#4
 144:	00000010 	udf	#16
 148:	0000001b 	udf	#27
 14c:	00000026 	udf	#38
 150:	00000031 	udf	#49
 154:	a404f804 	ldnt1b	{z4.b}, p6/z, [x0, #4, mul vl]
 158:	05fc0405 	.inst	0x05fc0405 ; undefined
 15c:	040006e4 	add	z4.b, p1/m, z4.b, z23.b
 160:	05d805b4 	mov	z20.d, p8/z, #45
 164:	d0079004 	adrp	x4, f202000 <_binary_shell_bin_size+0xe1f1000>
 168:	ac040007 	stnp	q7, q0, [x0, #128]
 16c:	0407bc07 	.inst	0x0407bc07 ; undefined
 170:	07d007c8 	.inst	0x07d007c8 ; undefined
 174:	05d80400 	mov	z0.d, p8/z, #32
 178:	e40405fc 	.inst	0xe40405fc ; undefined
 17c:	00079006 	.inst	0x00079006 ; undefined

Disassembly of section .debug_str_offsets:

0000000000000000 <.debug_str_offsets>:
   0:	000002f4 	udf	#756
   4:	00000005 	udf	#5
   8:	0000026a 	udf	#618
   c:	0000003e 	udf	#62
  10:	00000079 	udf	#121
  14:	00000389 	udf	#905
  18:	00000538 	udf	#1336
  1c:	0000012b 	udf	#299
  20:	00000000 	udf	#0
  24:	00000482 	udf	#1154
  28:	00000159 	udf	#345
  2c:	0000067c 	udf	#1660
  30:	0000038e 	udf	#910
  34:	00000392 	udf	#914
  38:	000001db 	udf	#475
  3c:	000003d3 	udf	#979
  40:	0000054c 	udf	#1356
  44:	0000040f 	udf	#1039
  48:	0000041a 	udf	#1050
  4c:	00000366 	udf	#870
  50:	000005a5 	udf	#1445
  54:	00000161 	udf	#353
  58:	000006de 	udf	#1758
  5c:	0000070d 	udf	#1805
  60:	000002ed 	udf	#749
  64:	00000291 	udf	#657
  68:	000002fa 	udf	#762
  6c:	00000193 	udf	#403
  70:	000000e6 	udf	#230
  74:	00000047 	udf	#71
  78:	0000048b 	udf	#1163
  7c:	00000309 	udf	#777
  80:	000005ad 	udf	#1453
  84:	00000013 	udf	#19
  88:	00000096 	udf	#150
  8c:	000004ff 	udf	#1279
  90:	00000396 	udf	#918
  94:	0000061e 	udf	#1566
  98:	000000eb 	udf	#235
  9c:	00000230 	udf	#560
  a0:	00000624 	udf	#1572
  a4:	000003a1 	udf	#929
  a8:	00000714 	udf	#1812
  ac:	000003a9 	udf	#937
  b0:	000002bc 	udf	#700
  b4:	00000630 	udf	#1584
  b8:	00000498 	udf	#1176
  bc:	0000020f 	udf	#527
  c0:	000004a4 	udf	#1188
  c4:	00000235 	udf	#565
  c8:	00000199 	udf	#409
  cc:	000005b3 	udf	#1459
  d0:	00000312 	udf	#786
  d4:	00000682 	udf	#1666
  d8:	0000063b 	udf	#1595
  dc:	0000029b 	udf	#667
  e0:	000006b0 	udf	#1712
  e4:	0000009f 	udf	#159
  e8:	000005b8 	udf	#1464
  ec:	0000004b 	udf	#75
  f0:	000001c4 	udf	#452
  f4:	000000f1 	udf	#241
  f8:	00000504 	udf	#1284
  fc:	00000719 	udf	#1817
 100:	000004b4 	udf	#1204
 104:	0000044e 	udf	#1102
 108:	000001e1 	udf	#481
 10c:	0000021a 	udf	#538
 110:	000000fc 	udf	#252
 114:	00000136 	udf	#310
 118:	000002a2 	udf	#674
 11c:	00000689 	udf	#1673
 120:	000003ac 	udf	#940
 124:	000001cb 	udf	#459
 128:	00000139 	udf	#313
 12c:	000004b7 	udf	#1207
 130:	0000071c 	udf	#1820
 134:	000001e6 	udf	#486
 138:	00000507 	udf	#1287
 13c:	00000554 	udf	#1364
 140:	000001a1 	udf	#417
 144:	00000022 	udf	#34
 148:	000005c5 	udf	#1477
 14c:	00000648 	udf	#1608
 150:	0000031b 	udf	#795
 154:	000003e7 	udf	#999
 158:	000003b3 	udf	#947
 15c:	000001ed 	udf	#493
 160:	00000101 	udf	#257
 164:	00000560 	udf	#1376
 168:	000002a6 	udf	#678
 16c:	0000013b 	udf	#315
 170:	0000050f 	udf	#1295
 174:	00000357 	udf	#855
 178:	00000451 	udf	#1105
 17c:	0000032e 	udf	#814
 180:	000003ed 	udf	#1005
 184:	00000169 	udf	#361
 188:	000005d7 	udf	#1495
 18c:	00000374 	udf	#884
 190:	0000033d 	udf	#829
 194:	000000ad 	udf	#173
 198:	00000522 	udf	#1314
 19c:	000004bd 	udf	#1213
 1a0:	000003d6 	udf	#982
 1a4:	00000566 	udf	#1382
 1a8:	000002cc 	udf	#716
 1ac:	00000174 	udf	#372
 1b0:	00000420 	udf	#1056
 1b4:	00000724 	udf	#1828
 1b8:	000001a7 	udf	#423
 1bc:	00000732 	udf	#1842
 1c0:	00000050 	udf	#80
 1c4:	0000021f 	udf	#543
 1c8:	000001fd 	udf	#509
 1cc:	000005dd 	udf	#1501
 1d0:	000005e3 	udf	#1507
 1d4:	000005ec 	udf	#1516
 1d8:	000002d7 	udf	#727
 1dc:	000006bf 	udf	#1727
 1e0:	0000034a 	udf	#842
 1e4:	0000042b 	udf	#1067
 1e8:	000006e5 	udf	#1765
 1ec:	000004cc 	udf	#1228
 1f0:	0000005c 	udf	#92
 1f4:	0000045a 	udf	#1114
 1f8:	00000224 	udf	#548
 1fc:	000003e2 	udf	#994
 200:	000006ee 	udf	#1774
 204:	000003f3 	udf	#1011
 208:	00000690 	udf	#1680
 20c:	0000046a 	udf	#1130
 210:	00000580 	udf	#1408
 214:	00000353 	udf	#851
 218:	000002e0 	udf	#736
 21c:	0000010c 	udf	#268
 220:	00000242 	udf	#578
 224:	000000b8 	udf	#184
 228:	00000434 	udf	#1076
 22c:	000003fb 	udf	#1019
 230:	00000116 	udf	#278
 234:	00000252 	udf	#594
 238:	000001ac 	udf	#428
 23c:	000006c8 	udf	#1736
 240:	000003c8 	udf	#968
 244:	000006f8 	udf	#1784
 248:	000003c5 	udf	#965
 24c:	00000742 	udf	#1858
 250:	000000c5 	udf	#197
 254:	000006cb 	udf	#1739
 258:	000005f6 	udf	#1526
 25c:	00000206 	udf	#518
 260:	0000043e 	udf	#1086
 264:	0000005e 	udf	#94
 268:	000002e5 	udf	#741
 26c:	000005fa 	udf	#1530
 270:	0000014e 	udf	#334
 274:	000001d7 	udf	#471
 278:	000002e9 	udf	#745
 27c:	000002ad 	udf	#685
 280:	000001af 	udf	#431
 284:	00000381 	udf	#897
 288:	000000c8 	udf	#200
 28c:	00000442 	udf	#1090
 290:	00000255 	udf	#597
 294:	00000062 	udf	#98
 298:	000000cc 	udf	#204
 29c:	00000640 	udf	#1600
 2a0:	00000066 	udf	#102
 2a4:	00000385 	udf	#901
 2a8:	00000152 	udf	#338
 2ac:	0000064f 	udf	#1615
 2b0:	000000d0 	udf	#208
 2b4:	0000006a 	udf	#106
 2b8:	00000446 	udf	#1094
 2bc:	00000654 	udf	#1620
 2c0:	00000745 	udf	#1861
 2c4:	0000069a 	udf	#1690
 2c8:	00000752 	udf	#1874
 2cc:	0000069e 	udf	#1694
 2d0:	0000058b 	udf	#1419
 2d4:	00000531 	udf	#1329
 2d8:	000001b3 	udf	#435
 2dc:	0000058f 	udf	#1423
 2e0:	00000156 	udf	#342
 2e4:	000005fe 	udf	#1534
 2e8:	000002b1 	udf	#689
 2ec:	000001b7 	udf	#439
 2f0:	00000470 	udf	#1136
 2f4:	000004d5 	udf	#1237
 2f8:	000000b4 	udf	#180
 2fc:	00000005 	udf	#5
 300:	0000026a 	udf	#618
 304:	000001bb 	udf	#443
 308:	00000079 	udf	#121
 30c:	00000389 	udf	#905
 310:	00000538 	udf	#1336
 314:	00000366 	udf	#870
 318:	000005a5 	udf	#1445
 31c:	0000071c 	udf	#1820
 320:	000001e6 	udf	#486
 324:	000003ac 	udf	#940
 328:	000002a6 	udf	#678
 32c:	0000059e 	udf	#1438
 330:	00000392 	udf	#914
 334:	00000689 	udf	#1673
 338:	00000075 	udf	#117
 33c:	00000362 	udf	#866
 340:	0000060a 	udf	#1546
 344:	00000229 	udf	#553
 348:	00000139 	udf	#313
 34c:	0000048b 	udf	#1163
 350:	00000309 	udf	#777
 354:	000001c4 	udf	#452
 358:	000001b7 	udf	#439
 35c:	0000020a 	udf	#522
 360:	00000119 	udf	#281
 364:	0000020c 	udf	#524
 368:	000004de 	udf	#1246
 36c:	00000755 	udf	#1877
 370:	000003cb 	udf	#971
 374:	0000065d 	udf	#1629
 378:	00000479 	udf	#1145
 37c:	0000075b 	udf	#1883
 380:	00000034 	udf	#52
 384:	000000d4 	udf	#212
 388:	0000060c 	udf	#1548
 38c:	000006a4 	udf	#1700
 390:	00000259 	udf	#601
 394:	000003e7 	udf	#999
 398:	000006a8 	udf	#1704
 39c:	0000005c 	udf	#92
 3a0:	000000de 	udf	#222
 3a4:	00000000 	udf	#0
 3a8:	00000644 	udf	#1604
 3ac:	00000263 	udf	#611
 3b0:	0000005c 	udf	#92
 3b4:	00000005 	udf	#5
 3b8:	0000026a 	udf	#618
 3bc:	00000666 	udf	#1638
 3c0:	00000079 	udf	#121
 3c4:	00000389 	udf	#905
 3c8:	00000538 	udf	#1336
 3cc:	00000689 	udf	#1673
 3d0:	00000022 	udf	#34
 3d4:	000006ce 	udf	#1742
 3d8:	000004e1 	udf	#1249
 3dc:	000004f0 	udf	#1264
 3e0:	000003fd 	udf	#1021
 3e4:	0000011b 	udf	#283
 3e8:	00000184 	udf	#388
 3ec:	0000066d 	udf	#1645
 3f0:	000006fb 	udf	#1787
 3f4:	0000069a 	udf	#1690
 3f8:	00000000 	udf	#0
 3fc:	00000482 	udf	#1154
 400:	0000058b 	udf	#1419
 404:	00000752 	udf	#1874
 408:	0000022b 	udf	#555
 40c:	000001b3 	udf	#435

Disassembly of section .debug_str:

0000000000000000 <.debug_str>:
   0:	69736e75 	ldpsw	x21, x27, [x19, #-104]
   4:	64656e67 	.inst	0x64656e67 ; undefined
   8:	6e6f6c20 	umin	v0.8h, v1.8h, v15.8h
   c:	6f6c2067 	umlal2	v7.4s, v3.8h, v12.h[2]
  10:	7500676e 	.inst	0x7500676e ; undefined
  14:	6769736e 	.inst	0x6769736e ; undefined
  18:	2064656e 	.inst	0x2064656e ; undefined
  1c:	726f6873 	.inst	0x726f6873 ; undefined
  20:	61680074 	.inst	0x61680074 ; undefined
  24:	656c646e 	fnmls	z14.h, p1/m, z3.h, z12.h
  28:	7461645f 	.inst	0x7461645f ; undefined
  2c:	62615f61 	.inst	0x62615f61 ; undefined
  30:	0074726f 	.inst	0x0074726f ; undefined
  34:	72765f5f 	.inst	0x72765f5f ; undefined
  38:	66666f5f 	.inst	0x66666f5f ; undefined
  3c:	656b0073 	fmla	z19.h, p0/m, z3.h, z11.h
  40:	6c656e72 	ldnp	d18, d27, [x19, #-432]
  44:	6c00632e 	stnp	d14, d24, [x25]
  48:	6c006e65 	stnp	d5, d27, [x19]
  4c:	00676e6f 	.inst	0x00676e6f ; undefined
  50:	6e72656b 	umax	v11.8h, v11.8h, v18.8h
  54:	6d5f6c65 	ldp	d5, d27, [x3, #496]
  58:	006e6961 	.inst	0x006e6961 ; undefined
  5c:	31580069 	adds	w9, w3, #0x600, lsl #12
  60:	32580033 	.inst	0x32580033 ; undefined
  64:	32580035 	.inst	0x32580035 ; undefined
  68:	72740038 	.inst	0x72740038 ; undefined
  6c:	665f7061 	.inst	0x665f7061 ; undefined
  70:	656d6172 	fnmls	z18.h, p0/m, z11.h, z13.h
  74:	74736400 	.inst	0x74736400 ; undefined
  78:	6f682f00 	.inst	0x6f682f00 ; undefined
  7c:	722f656d 	ands	w13, w11, #0xfffe07ff
  80:	7469686f 	.inst	0x7469686f ; undefined
  84:	75662f68 	.inst	0x75662f68 ; undefined
  88:	694d2f6e 	ldpsw	x14, x11, [x27, #104]
  8c:	4f2d696e 	.inst	0x4f2d696e ; undefined
  90:	65642d53 	fmls	z19.h, p3/m, z10.h, z4.h
  94:	69750076 	ldpsw	x22, x0, [x3, #-88]
  98:	3631746e 	tbz	w14, #6, 2f24 <_binary_shell_bin_size-0x100e0dc>
  9c:	6200745f 	.inst	0x6200745f ; undefined
  a0:	725f6b6c 	.inst	0x725f6b6c ; undefined
  a4:	705f7165 	adr	x5, beed3 <_binary_shell_bin_size-0xf5212d>
  a8:	72646461 	.inst	0x72646461 ; undefined
  ac:	65737500 	fnmls	z0.h, p5/m, z8.h, z19.h
  b0:	6e655f72 	uqrshl	v18.8h, v27.8h, v5.8h
  b4:	00797274 	.inst	0x00797274 ; undefined
  b8:	63617473 	.inst	0x63617473 ; undefined
  bc:	6f625f6b 	.inst	0x6f625f6b ; undefined
  c0:	6d6f7474 	ldp	d20, d29, [x3, #-272]
  c4:	00385800 	.inst	0x00385800 ; NYI
  c8:	00323258 	.inst	0x00323258 ; NYI
  cc:	00363258 	.inst	0x00363258 ; NYI
  d0:	00726c65 	.inst	0x00726c65 ; undefined
  d4:	61765f5f 	.inst	0x61765f5f ; undefined
  d8:	73696c5f 	.inst	0x73696c5f ; undefined
  dc:	74730074 	.inst	0x74730074 ; undefined
  e0:	65747261 	fnmls	z1.h, p4/m, z19.h, z20.h
  e4:	64610064 	fmla	z4.h, z3.h, z1.h[4]
  e8:	69007264 	stgp	x4, x28, [x19]
  ec:	7865646e 	.inst	0x7865646e ; undefined
  f0:	6f627500 	uqshl	v0.2d, v8.2d, #34
  f4:	635f746f 	.inst	0x635f746f ; undefined
  f8:	006c6c61 	.inst	0x006c6c61 ; undefined
  fc:	30785f72 	adr	x18, f0ce9 <_binary_shell_bin_size-0xf20317>
 100:	72756300 	.inst	0x72756300 ; undefined
 104:	746e6572 	.inst	0x746e6572 ; undefined
 108:	006c655f 	.inst	0x006c655f ; undefined
 10c:	79706f63 	ldrh	w3, [x27, #6198]
 110:	7a69735f 	.inst	0x7a69735f ; undefined
 114:	30580065 	adr	x5, b0121 <_binary_shell_bin_size-0xf60edf>
 118:	68007000 	.inst	0x68007000 ; undefined
 11c:	6c646e61 	ldnp	d1, d27, [x19, #-448]
 120:	79735f65 	ldrh	w5, [x27, #6574]
 124:	655f636e 	fcmeq	p14.h, p0/z, z27.h, z31.h
 128:	6e00326c 	ext	v12.16b, v19.16b, v0.16b, #6
 12c:	5f747865 	sqdmlsl	s5, h3, v4.h[7]
 130:	64646170 	.inst	0x64646170 ; undefined
 134:	31780072 	adds	w18, w3, #0xe00, lsl #12
 138:	44006e00 	.inst	0x44006e00 ; undefined
 13c:	54415f57 	bc.vc	82d24 <_binary_shell_bin_size-0xf8e2dc>
 140:	6e755f45 	uqrshl	v5.8h, v26.8h, v21.8h
 144:	6e676973 	.inst	0x6e676973 ; undefined
 148:	315f6465 	adds	w5, w3, #0x7d9, lsl #12
 14c:	31580036 	adds	w22, w1, #0x600, lsl #12
 150:	33580036 	.inst	0x33580036 ; undefined
 154:	71760030 	subs	w16, w1, #0xd80, lsl #12
 158:	64617000 	.inst	0x64617000 ; undefined
 15c:	745f7264 	.inst	0x745f7264 ; undefined
 160:	6f727000 	fcmla	v0.8h, v0.8h, v18.h[1], #270
 164:	73736563 	.inst	0x73736563 ; undefined
 168:	756d6d00 	.inst	0x756d6d00 ; undefined
 16c:	616e655f 	.inst	0x616e655f ; undefined
 170:	00656c62 	.inst	0x00656c62 ; undefined
 174:	74726976 	.inst	0x74726976 ; undefined
 178:	625f6f69 	.inst	0x625f6f69 ; undefined
 17c:	695f6b6c 	ldpsw	x12, x26, [x27, #248]
 180:	0074696e 	.inst	0x0074696e ; undefined
 184:	646e6168 	.inst	0x646e6168 ; undefined
 188:	695f656c 	ldpsw	x12, x25, [x11, #248]
 18c:	655f7172 	fcmne	p2.h, p4/z, z11.h, z31.h
 190:	6400326c 	.inst	0x6400326c ; undefined
 194:	73637365 	.inst	0x73637365 ; undefined
 198:	6b6c6200 	.inst	0x6b6c6200 ; undefined
 19c:	7165725f 	cmp	w18, #0x95c, lsl #12
 1a0:	72617000 	.inst	0x72617000 ; undefined
 1a4:	62006d61 	.inst	0x62006d61 ; undefined
 1a8:	006c6f6f 	.inst	0x006c6f6f ; undefined
 1ac:	58003258 	ldr	x24, 7f4 <_binary_shell_bin_size-0x101080c>
 1b0:	69003032 	stgp	x18, x12, [x1]
 1b4:	62007373 	.inst	0x62007373 ; undefined
 1b8:	63006675 	.inst	0x63006675 ; undefined
 1bc:	6f6d6d6f 	.inst	0x6f6d6d6f ; undefined
 1c0:	00632e6e 	.inst	0x00632e6e ; undefined
 1c4:	657a6973 	fnmls	z19.h, p2/m, z11.h, z26.h
 1c8:	6100745f 	.inst	0x6100745f ; undefined
 1cc:	636f6c6c 	.inst	0x636f6c6c ; undefined
 1d0:	6761705f 	.inst	0x6761705f ; undefined
 1d4:	58007365 	ldr	x5, 1040 <_binary_shell_bin_size-0x100ffc0>
 1d8:	73003731 	.inst	0x73003731 ; undefined
 1dc:	65746174 	fnmls	z20.h, p0/m, z11.h, z20.h
 1e0:	785f7200 	ldurh	w0, [x16, #-9]
 1e4:	656d0037 	fmla	z23.h, p0/m, z1.h, z13.h
 1e8:	7970636d 	ldrh	w13, [x27, #6192]
 1ec:	696e6900 	ldpsw	x0, x26, [x8, #-144]
 1f0:	78655f74 	.inst	0x78655f74 ; undefined
 1f4:	74706563 	.inst	0x74706563 ; undefined
 1f8:	736e6f69 	.inst	0x736e6f69 ; undefined
 1fc:	5f306c00 	.inst	0x5f306c00 ; undefined
 200:	6c626174 	ldnp	d20, d24, [x11, #-480]
 204:	31580065 	adds	w5, w3, #0x600, lsl #12
 208:	00630031 	.inst	0x00630031 ; undefined
 20c:	6e003173 	ext	v19.16b, v11.16b, v0.16b, #6
 210:	5f747865 	sqdmlsl	s5, h3, v4.h[7]
 214:	69617661 	ldpsw	x1, x29, [x19, #-248]
 218:	5f72006c 	.inst	0x5f72006c ; undefined
 21c:	62003278 	.inst	0x62003278 ; undefined
 220:	00746f6f 	.inst	0x00746f6f ; undefined
 224:	636f7270 	.inst	0x636f7270 ; undefined
 228:	64007300 	.inst	0x64007300 ; undefined
 22c:	00637366 	.inst	0x00637366 ; undefined
 230:	676e6972 	.inst	0x676e6972 ; undefined
 234:	72697600 	.inst	0x72697600 ; undefined
 238:	5f6f6974 	.inst	0x5f6f6974 ; undefined
 23c:	74726976 	.inst	0x74726976 ; undefined
 240:	78650071 	ldaddlh	w5, w17, [x3]
 244:	74706563 	.inst	0x74706563 ; undefined
 248:	5f6e6f69 	.inst	0x5f6e6f69 ; undefined
 24c:	63617473 	.inst	0x63617473 ; undefined
 250:	3158006b 	adds	w11, w3, #0x600, lsl #12
 254:	34325800 	cbz	w0, 64d54 <_binary_shell_bin_size-0xfac2ac>
 258:	67616d00 	.inst	0x67616d00 ; undefined
 25c:	7574696e 	.inst	0x7574696e ; undefined
 260:	6e006564 	.inst	0x6e006564 ; undefined
 264:	6c626269 	ldnp	d9, d24, [x19, #-480]
 268:	62550065 	.inst	0x62550065 ; undefined
 26c:	75746e75 	.inst	0x75746e75 ; undefined
 270:	616c6320 	.inst	0x616c6320 ; undefined
 274:	7620676e 	.inst	0x7620676e ; undefined
 278:	69737265 	ldpsw	x5, x28, [x19, #-104]
 27c:	31206e6f 	adds	w15, w19, #0x81b
 280:	2e312e38 	uqsub	v24.8b, v17.8b, v17.8b
 284:	31282033 	adds	w19, w1, #0xa08
 288:	6e756275 	rsubhn2	v21.8h, v19.4s, v21.4s
 28c:	29317574 	stp	w20, w29, [x11, #-120]
 290:	6c646900 	ldnp	d0, d26, [x8, #-448]
 294:	72705f65 	.inst	0x72705f65 ; undefined
 298:	7300636f 	.inst	0x7300636f ; undefined
 29c:	75746174 	.inst	0x75746174 ; undefined
 2a0:	65720073 	fmla	z19.h, p0/m, z3.h, z18.h
 2a4:	74730074 	.inst	0x74730074 ; undefined
 2a8:	79706372 	ldrh	w18, [x27, #6192]
 2ac:	39315800 	strb	w0, [x0, #3158]
 2b0:	73656400 	.inst	0x73656400 ; undefined
 2b4:	6e695f63 	uqrshl	v3.8h, v27.8h, v9.8h
 2b8:	00786564 	.inst	0x00786564 ; undefined
 2bc:	74726976 	.inst	0x74726976 ; undefined
 2c0:	73755f71 	.inst	0x73755f71 ; undefined
 2c4:	655f6465 	fcmeq	p5.h, p1/z, z3.h, z31.h
 2c8:	006d656c 	.inst	0x006d656c ; undefined
 2cc:	74726976 	.inst	0x74726976 ; undefined
 2d0:	6e695f71 	uqrshl	v17.8h, v27.8h, v9.8h
 2d4:	6c007469 	stnp	d9, d29, [x3]
 2d8:	61745f31 	.inst	0x61745f31 ; undefined
 2dc:	00656c62 	.inst	0x00656c62 ; undefined
 2e0:	65676170 	fnmls	z16.h, p0/m, z11.h, z7.h
 2e4:	34315800 	cbz	w0, 62de4 <_binary_shell_bin_size-0xfae21c>
 2e8:	38315800 	strb	w0, [x0, w17, uxtw #0]
 2ec:	72756300 	.inst	0x72756300 ; undefined
 2f0:	746e6572 	.inst	0x746e6572 ; undefined
 2f4:	6f72705f 	fcmla	v31.8h, v2.8h, v18.h[1], #270
 2f8:	6c620063 	ldnp	d3, d0, [x3, #-480]
 2fc:	65725f6b 	fnmla	z11.h, p7/m, z27.h, z18.h
 300:	73657571 	.inst	0x73657571 ; undefined
 304:	71765f74 	subs	w20, w27, #0xd97, lsl #12
 308:	6e697500 	uabd	v0.8h, v8.8h, v9.8h
 30c:	5f323374 	.inst	0x5f323374 ; undefined
 310:	65720074 	fmla	z20.h, p0/m, z3.h, z18.h
 314:	76726573 	.inst	0x76726573 ; undefined
 318:	76006465 	.inst	0x76006465 ; undefined
 31c:	69747269 	ldpsw	x9, x28, [x19, #-96]
 320:	65725f6f 	fnmla	z15.h, p7/m, z27.h, z18.h
 324:	72775f67 	.inst	0x72775f67 ; undefined
 328:	33657469 	.inst	0x33657469 ; undefined
 32c:	77730032 	.inst	0x77730032 ; undefined
 330:	68637469 	.inst	0x68637469 ; undefined
 334:	6e6f635f 	rsubhn2	v31.8h, v26.4s, v15.4s
 338:	74786574 	.inst	0x74786574 ; undefined
 33c:	6f727000 	fcmla	v0.8h, v0.8h, v18.h[1], #270
 340:	5f625f63 	.inst	0x5f625f63 ; undefined
 344:	72746e65 	.inst	0x72746e65 ; undefined
 348:	326c0079 	.inst	0x326c0079 ; undefined
 34c:	6261745f 	.inst	0x6261745f ; undefined
 350:	6f00656c 	mvni	v12.4s, #0xb, lsl #24
 354:	73006666 	.inst	0x73006666 ; undefined
 358:	70757465 	adr	x5, eb1e7 <_binary_shell_bin_size-0xf25e19>
 35c:	6365765f 	.inst	0x6365765f ; undefined
 360:	72730074 	.inst	0x72730074 ; undefined
 364:	6e750063 	uaddl2	v3.4s, v3.8h, v21.8h
 368:	6e676973 	.inst	0x6e676973 ; undefined
 36c:	63206465 	.inst	0x63206465 ; undefined
 370:	00726168 	.inst	0x00726168 ; undefined
 374:	636f7270 	.inst	0x636f7270 ; undefined
 378:	655f615f 	fcmne	p15.h, p0/z, z10.h, z31.h
 37c:	7972746e 	ldrh	w14, [x3, #6458]
 380:	31325800 	adds	w0, w0, #0xc96
 384:	39325800 	strb	w0, [x0, #3222]
 388:	61686300 	.inst	0x61686300 ; undefined
 38c:	69700072 	ldpsw	x18, x0, [x3, #-128]
 390:	6e690064 	uaddl2	v4.4s, v3.8h, v9.8h
 394:	69760074 	ldpsw	x20, x0, [x3, #-80]
 398:	5f717472 	sqshl	d18, d3, #49
 39c:	63736564 	.inst	0x63736564 ; undefined
 3a0:	64617000 	.inst	0x64617000 ; undefined
 3a4:	676e6964 	.inst	0x676e6964 ; undefined
 3a8:	00646900 	.inst	0x00646900 ; undefined
 3ac:	736d656d 	.inst	0x736d656d ; undefined
 3b0:	76007465 	.inst	0x76007465 ; undefined
 3b4:	69747269 	ldpsw	x9, x28, [x19, #-96]
 3b8:	65725f6f 	fnmla	z15.h, p7/m, z27.h, z18.h
 3bc:	65725f67 	fnmla	z7.h, p7/m, z27.h, z18.h
 3c0:	34366461 	cbz	w1, 6d04c <_binary_shell_bin_size-0xfa3fb4>
 3c4:	00365800 	.inst	0x00365800 ; NYI
 3c8:	5f003458 	.inst	0x5f003458 ; undefined
 3cc:	6174735f 	.inst	0x6174735f ; undefined
 3d0:	73006b63 	.inst	0x73006b63 ; undefined
 3d4:	61680070 	.inst	0x61680070 ; undefined
 3d8:	656c646e 	fnmls	z14.h, p1/m, z3.h, z12.h
 3dc:	6172745f 	.inst	0x6172745f ; undefined
 3e0:	72700070 	.inst	0x72700070 ; undefined
 3e4:	76007665 	.inst	0x76007665 ; undefined
 3e8:	65756c61 	fnmls	z1.h, p3/m, z3.h, z21.h
 3ec:	6c656400 	ldnp	d0, d25, [x0, #-432]
 3f0:	6e007961 	ext	v1.16b, v11.16b, v0.16b, #15
 3f4:	5f747865 	sqdmlsl	s5, h3, v4.h[7]
 3f8:	66007073 	.inst	0x66007073 ; undefined
 3fc:	6e616800 	fcvtxn2	v0.4s, v0.2d
 400:	5f656c64 	.inst	0x5f656c64 ; undefined
 404:	72726573 	.inst	0x72726573 ; undefined
 408:	655f726f 	fcmeq	p15.h, p4/z, z19.h, z31.h
 40c:	7000316c 	adr	x12, a3b <_binary_shell_bin_size-0x10105c5>
 410:	5f656761 	.inst	0x5f656761 ; undefined
 414:	6c626174 	ldnp	d20, d24, [x11, #-480]
 418:	74730065 	.inst	0x74730065 ; undefined
 41c:	006b6361 	.inst	0x006b6361 ; undefined
 420:	74726976 	.inst	0x74726976 ; undefined
 424:	696b5f71 	ldpsw	x17, x23, [x27, #-168]
 428:	6c006b63 	stnp	d3, d26, [x27]
 42c:	6e695f32 	uqrshl	v18.8h, v25.8h, v9.8h
 430:	00786564 	.inst	0x00786564 ; undefined
 434:	616d6572 	.inst	0x616d6572 ; undefined
 438:	6e696e69 	umin	v9.8h, v19.8h, v9.8h
 43c:	31580067 	adds	w7, w3, #0x600, lsl #12
 440:	32580032 	.inst	0x32580032 ; undefined
 444:	79730033 	ldrh	w19, [x1, #6528]
 448:	6c616373 	ldnp	d19, d24, [x27, #-496]
 44c:	3778006c 	tbnz	w12, #15, 458 <_binary_shell_bin_size-0x1010ba8>
 450:	70616d00 	adr	x0, c31f3 <_binary_shell_bin_size-0xf4de0d>
 454:	6761705f 	.inst	0x6761705f ; undefined
 458:	61700065 	.inst	0x61700065 ; undefined
 45c:	745f6567 	.inst	0x745f6567 ; undefined
 460:	656c6261 	fnmls	z1.h, p0/m, z19.h, z12.h
 464:	7968705f 	ldrh	wzr, [x2, #5176]
 468:	6d690073 	ldp	d19, d0, [x3, #-368]
 46c:	00656761 	.inst	0x00656761 ; undefined
 470:	775f7369 	.inst	0x775f7369 ; undefined
 474:	65746972 	fnmls	z18.h, p2/m, z11.h, z20.h
 478:	765f5f00 	.inst	0x765f5f00 ; undefined
 47c:	6f745f72 	.inst	0x6f745f72 ; undefined
 480:	69750070 	ldpsw	x16, x0, [x3, #-88]
 484:	3436746e 	cbz	w14, 6d310 <_binary_shell_bin_size-0xfa3cf0>
 488:	7500745f 	.inst	0x7500745f ; undefined
 48c:	6769736e 	.inst	0x6769736e ; undefined
 490:	2064656e 	.inst	0x2064656e ; undefined
 494:	00746e69 	.inst	0x00746e69 ; undefined
 498:	75657571 	.inst	0x75657571 ; undefined
 49c:	6e695f65 	uqrshl	v5.8h, v27.8h, v9.8h
 4a0:	00786564 	.inst	0x00786564 ; undefined
 4a4:	7473616c 	.inst	0x7473616c ; undefined
 4a8:	6573755f 	fnmls	z31.h, p5/m, z10.h, z19.h
 4ac:	6e695f64 	uqrshl	v4.8h, v27.8h, v9.8h
 4b0:	00786564 	.inst	0x00786564 ; undefined
 4b4:	70003278 	adr	x24, b03 <_binary_shell_bin_size-0x10104fd>
 4b8:	72646461 	.inst	0x72646461 ; undefined
 4bc:	6e616800 	fcvtxn2	v0.4s, v0.2d
 4c0:	5f656c64 	.inst	0x5f656c64 ; undefined
 4c4:	63737973 	.inst	0x63737973 ; undefined
 4c8:	006c6c61 	.inst	0x006c6c61 ; undefined
 4cc:	695f336c 	.inst	0x695f336c ; undefined
 4d0:	7865646e 	.inst	0x7865646e ; undefined
 4d4:	65737500 	fnmls	z0.h, p5/m, z8.h, z19.h
 4d8:	64695f64 	.inst	0x64695f64 ; undefined
 4dc:	32730078 	.inst	0x32730078 ; undefined
 4e0:	6e616800 	fcvtxn2	v0.4s, v0.2d
 4e4:	5f656c64 	.inst	0x5f656c64 ; undefined
 4e8:	5f717269 	sqdmlsl	s9, h19, v1.h[3]
 4ec:	00316c65 	.inst	0x00316c65 ; NYI
 4f0:	646e6168 	.inst	0x646e6168 ; undefined
 4f4:	665f656c 	.inst	0x665f656c ; undefined
 4f8:	655f7169 	fcmeq	p9.h, p4/z, z11.h, z31.h
 4fc:	6e00316c 	ext	v12.16b, v11.16b, v0.16b, #6
 500:	00747865 	.inst	0x00747865 ; undefined
 504:	67003078 	.inst	0x67003078 ; undefined
 508:	68637465 	.inst	0x68637465 ; undefined
 50c:	44007261 	sqrdmlah	z1.b, z19.b, z0.b
 510:	54415f57 	bc.vc	830f8 <_binary_shell_bin_size-0xf8df08>
 514:	6e755f45 	uqrshl	v5.8h, v26.8h, v21.8h
 518:	6e676973 	.inst	0x6e676973 ; undefined
 51c:	365f6465 	tbz	w5, #11, fffffffffffff1a8 <__free_ram_end+0xffffffffbcdbb1a8>
 520:	72630034 	.inst	0x72630034 ; undefined
 524:	65746165 	fnmls	z5.h, p0/m, z11.h, z20.h
 528:	6f72705f 	fcmla	v31.8h, v2.8h, v18.h[1], #270
 52c:	73736563 	.inst	0x73736563 ; undefined
 530:	5f707300 	sqdmlsl	s0, h24, v0.h[3]
 534:	00306c65 	.inst	0x00306c65 ; NYI
 538:	52415f5f 	.inst	0x52415f5f ; undefined
 53c:	5f594152 	.inst	0x5f594152 ; undefined
 540:	455a4953 	uaddwb	z19.h, z10.h, z26.b
 544:	5059545f 	adr	xzr, b2fce <_binary_shell_bin_size-0xf5e032>
 548:	005f5f45 	.inst	0x005f5f45 ; undefined
 54c:	64646176 	.inst	0x64646176 ; undefined
 550:	00745f72 	.inst	0x00745f72 ; undefined
 554:	6e676973 	.inst	0x6e676973 ; undefined
 558:	63206465 	.inst	0x63206465 ; undefined
 55c:	00726168 	.inst	0x00726168 ; undefined
 560:	6c746373 	ldnp	d19, d24, [x27, #-192]
 564:	69760072 	ldpsw	x18, x0, [x3, #-80]
 568:	6f697472 	uqshl	v18.2d, v3.2d, #41
 56c:	6765725f 	.inst	0x6765725f ; undefined
 570:	7465665f 	.inst	0x7465665f ; undefined
 574:	615f6863 	.inst	0x615f6863 ; undefined
 578:	6f5f646e 	sqshlu	v14.2d, v3.2d, #31
 57c:	00323372 	.inst	0x00323372 ; NYI
 580:	67616d69 	.inst	0x67616d69 ; undefined
 584:	69735f65 	ldpsw	x5, x23, [x27, #-104]
 588:	6600657a 	.inst	0x6600657a ; undefined
 58c:	6d007261 	stp	d1, d28, [x19]
 590:	715f7861 	subs	w1, w3, #0x7de, lsl #12
 594:	65756575 	fnmls	z21.h, p1/m, z11.h, z21.h
 598:	7a69735f 	.inst	0x7a69735f ; undefined
 59c:	74730065 	.inst	0x74730065 ; undefined
 5a0:	706d6372 	adr	x18, db20f <_binary_shell_bin_size-0xf35df1>
 5a4:	6e697500 	uabd	v0.8h, v8.8h, v9.8h
 5a8:	745f3874 	.inst	0x745f3874 ; undefined
 5ac:	616c6600 	.inst	0x616c6600 ; undefined
 5b0:	74007367 	.inst	0x74007367 ; undefined
 5b4:	00657079 	.inst	0x00657079 ; undefined
 5b8:	5f6b6c62 	.inst	0x5f6b6c62 ; undefined
 5bc:	61706163 	.inst	0x61706163 ; undefined
 5c0:	79746963 	ldrh	w3, [x11, #6708]
 5c4:	72697600 	.inst	0x72697600 ; undefined
 5c8:	5f6f6974 	.inst	0x5f6f6974 ; undefined
 5cc:	5f676572 	.inst	0x5f676572 ; undefined
 5d0:	64616572 	.inst	0x64616572 ; undefined
 5d4:	79003233 	strh	w19, [x17, #24]
 5d8:	646c6569 	.inst	0x646c6569 ; undefined
 5dc:	64617600 	.inst	0x64617600 ; undefined
 5e0:	6c007264 	stnp	d4, d28, [x19]
 5e4:	6e695f30 	uqrshl	v16.8h, v25.8h, v9.8h
 5e8:	00786564 	.inst	0x00786564 ; undefined
 5ec:	5f77656e 	.inst	0x5f77656e ; undefined
 5f0:	6c626174 	ldnp	d20, d24, [x11, #-480]
 5f4:	31580065 	adds	w5, w3, #0x600, lsl #12
 5f8:	31580030 	adds	w16, w1, #0x600, lsl #12
 5fc:	69760035 	ldpsw	x21, x0, [x1, #-80]
 600:	5f717472 	sqshl	d18, d3, #49
 604:	64646170 	.inst	0x64646170 ; undefined
 608:	00640072 	.inst	0x00640072 ; undefined
 60c:	75625f5f 	.inst	0x75625f5f ; undefined
 610:	69746c69 	ldpsw	x9, x27, [x3, #-96]
 614:	61765f6e 	.inst	0x61765f6e ; undefined
 618:	73696c5f 	.inst	0x73696c5f ; undefined
 61c:	76610074 	.inst	0x76610074 ; undefined
 620:	006c6961 	.inst	0x006c6961 ; undefined
 624:	74726976 	.inst	0x74726976 ; undefined
 628:	76615f71 	.inst	0x76615f71 ; undefined
 62c:	006c6961 	.inst	0x006c6961 ; undefined
 630:	74726976 	.inst	0x74726976 ; undefined
 634:	73755f71 	.inst	0x73755f71 ; undefined
 638:	64006465 	.inst	0x64006465 ; undefined
 63c:	00617461 	.inst	0x00617461 ; undefined
 640:	00373258 	.inst	0x00373258 ; NYI
 644:	00646e65 	.inst	0x00646e65 ; undefined
 648:	7366666f 	.inst	0x7366666f ; undefined
 64c:	73007465 	.inst	0x73007465 ; undefined
 650:	00727370 	.inst	0x00727370 ; undefined
 654:	65747461 	fnmls	z1.h, p5/m, z3.h, z20.h
 658:	7374706d 	.inst	0x7374706d ; undefined
 65c:	675f5f00 	.inst	0x675f5f00 ; undefined
 660:	6f745f72 	.inst	0x6f745f72 ; undefined
 664:	65760070 	fmla	z16.h, p0/m, z3.h, z22.h
 668:	632e7463 	.inst	0x632e7463 ; undefined
 66c:	6e616800 	fcvtxn2	v0.4s, v0.2d
 670:	5f656c64 	.inst	0x5f656c64 ; undefined
 674:	5f716966 	.inst	0x5f716966 ; undefined
 678:	00326c65 	.inst	0x00326c65 ; NYI
 67c:	636f7270 	.inst	0x636f7270 ; undefined
 680:	65730073 	fmla	z19.h, p0/m, z3.h, z19.h
 684:	726f7463 	.inst	0x726f7463 ; undefined
 688:	69727000 	ldpsw	x0, x28, [x0, #-112]
 68c:	0066746e 	.inst	0x0066746e ; undefined
 690:	5f77656e 	.inst	0x5f77656e ; undefined
 694:	63617473 	.inst	0x63617473 ; undefined
 698:	7365006b 	.inst	0x7365006b ; undefined
 69c:	74740072 	.inst	0x74740072 ; undefined
 6a0:	00307262 	.inst	0x00307262 ; NYI
 6a4:	00746d66 	.inst	0x00746d66 ; undefined
 6a8:	69766964 	ldpsw	x4, x26, [x11, #-80]
 6ac:	00726f73 	.inst	0x00726f73 ; undefined
 6b0:	74726976 	.inst	0x74726976 ; undefined
 6b4:	625f6f69 	.inst	0x625f6f69 ; undefined
 6b8:	725f6b6c 	.inst	0x725f6b6c ; undefined
 6bc:	6c007165 	stnp	d5, d28, [x11]
 6c0:	6e695f31 	uqrshl	v17.8h, v25.8h, v9.8h
 6c4:	00786564 	.inst	0x00786564 ; undefined
 6c8:	58003358 	ldr	x24, d30 <_binary_shell_bin_size-0x10102d0>
 6cc:	61680039 	.inst	0x61680039 ; undefined
 6d0:	656c646e 	fnmls	z14.h, p1/m, z3.h, z12.h
 6d4:	6e79735f 	uabdl2	v31.4s, v26.8h, v25.8h
 6d8:	6c655f63 	ldnp	d3, d23, [x27, #-432]
 6dc:	72700031 	.inst	0x72700031 ; undefined
 6e0:	615f636f 	.inst	0x615f636f ; undefined
 6e4:	5f336c00 	.inst	0x5f336c00 ; undefined
 6e8:	6c626174 	ldnp	d20, d24, [x11, #-480]
 6ec:	656e0065 	fmla	z5.h, p0/m, z3.h, z14.h
 6f0:	74745f77 	.inst	0x74745f77 ; undefined
 6f4:	00307262 	.inst	0x00307262 ; NYI
 6f8:	68003558 	.inst	0x68003558 ; undefined
 6fc:	6c646e61 	ldnp	d1, d27, [x19, #-448]
 700:	65735f65 	fnmla	z5.h, p7/m, z27.h, z19.h
 704:	726f7272 	.inst	0x726f7272 ; undefined
 708:	326c655f 	.inst	0x326c655f ; undefined
 70c:	6f727000 	fcmla	v0.8h, v0.8h, v18.h[1], #270
 710:	00625f63 	.inst	0x00625f63 ; undefined
 714:	64657375 	.inst	0x64657375 ; undefined
 718:	00686300 	.inst	0x00686300 ; undefined
 71c:	63747570 	.inst	0x63747570 ; undefined
 720:	00726168 	.inst	0x00726168 ; undefined
 724:	74726976 	.inst	0x74726976 ; undefined
 728:	73695f71 	.inst	0x73695f71 ; undefined
 72c:	7375625f 	.inst	0x7375625f ; undefined
 730:	65720079 	fmla	z25.h, p0/m, z3.h, z18.h
 734:	775f6461 	.inst	0x775f6461 ; undefined
 738:	65746972 	fnmls	z18.h, p2/m, z11.h, z20.h
 73c:	7369645f 	.inst	0x7369645f ; undefined
 740:	3758006b 	tbnz	w11, #11, 74c <_binary_shell_bin_size-0x10108b4>
 744:	78616d00 	.inst	0x78616d00 ; undefined
 748:	7474615f 	.inst	0x7474615f ; undefined
 74c:	74706d65 	.inst	0x74706d65 ; undefined
 750:	63650073 	.inst	0x63650073 ; undefined
 754:	72617600 	.inst	0x72617600 ; undefined
 758:	5f007367 	.inst	0x5f007367 ; undefined
 75c:	5f72675f 	.inst	0x5f72675f ; undefined
 760:	7366666f 	.inst	0x7366666f ; undefined
	...

Disassembly of section .debug_addr:

0000000000000000 <.debug_addr>:
   0:	000005ac 	udf	#1452
   4:	00080005 	.inst	0x00080005 ; undefined
   8:	402029a3 	.inst	0x402029a3 ; undefined
   c:	00000000 	udf	#0
  10:	40202943 	.inst	0x40202943 ; undefined
  14:	00000000 	udf	#0
  18:	40202c00 	.inst	0x40202c00 ; undefined
  1c:	00000000 	udf	#0
  20:	40202963 	.inst	0x40202963 ; undefined
  24:	00000000 	udf	#0
  28:	40202790 	.inst	0x40202790 ; undefined
  2c:	00000000 	udf	#0
  30:	40202980 	.inst	0x40202980 ; undefined
  34:	00000000 	udf	#0
  38:	4020286c 	.inst	0x4020286c ; undefined
  3c:	00000000 	udf	#0
  40:	4020288f 	.inst	0x4020288f ; undefined
  44:	00000000 	udf	#0
  48:	402027f6 	.inst	0x402027f6 ; undefined
  4c:	00000000 	udf	#0
  50:	40202b37 	.inst	0x40202b37 ; undefined
  54:	00000000 	udf	#0
  58:	40202a7a 	.inst	0x40202a7a ; undefined
  5c:	00000000 	udf	#0
  60:	40202a54 	.inst	0x40202a54 ; undefined
  64:	00000000 	udf	#0
  68:	40202b96 	.inst	0x40202b96 ; undefined
  6c:	00000000 	udf	#0
  70:	402029c9 	.inst	0x402029c9 ; undefined
  74:	00000000 	udf	#0
  78:	402027c0 	.inst	0x402027c0 ; undefined
  7c:	00000000 	udf	#0
  80:	40202a19 	.inst	0x40202a19 ; undefined
  84:	00000000 	udf	#0
  88:	402028c5 	.inst	0x402028c5 ; undefined
  8c:	00000000 	udf	#0
  90:	40202aa0 	.inst	0x40202aa0 ; undefined
  94:	00000000 	udf	#0
  98:	40202a69 	.inst	0x40202a69 ; undefined
  9c:	00000000 	udf	#0
  a0:	40202b5c 	.inst	0x40202b5c ; undefined
  a4:	00000000 	udf	#0
  a8:	40202bd8 	.inst	0x40202bd8 ; undefined
  ac:	00000000 	udf	#0
  b0:	40202ab1 	.inst	0x40202ab1 ; undefined
  b4:	00000000 	udf	#0
  b8:	40202b82 	.inst	0x40202b82 ; undefined
  bc:	00000000 	udf	#0
  c0:	40202adb 	.inst	0x40202adb ; undefined
  c4:	00000000 	udf	#0
  c8:	402029de 	.inst	0x402029de ; undefined
  cc:	00000000 	udf	#0
  d0:	40202bb3 	.inst	0x40202bb3 ; undefined
  d4:	00000000 	udf	#0
  d8:	402028ec 	.inst	0x402028ec ; undefined
  dc:	00000000 	udf	#0
  e0:	402028a3 	.inst	0x402028a3 ; undefined
  e4:	00000000 	udf	#0
  e8:	4020280a 	.inst	0x4020280a ; undefined
  ec:	00000000 	udf	#0
  f0:	40202824 	.inst	0x40202824 ; undefined
  f4:	00000000 	udf	#0
  f8:	4020291a 	.inst	0x4020291a ; undefined
  fc:	00000000 	udf	#0
 100:	4020282a 	.inst	0x4020282a ; undefined
 104:	00000000 	udf	#0
 108:	40202799 	.inst	0x40202799 ; undefined
 10c:	00000000 	udf	#0
 110:	40202853 	.inst	0x40202853 ; undefined
 114:	00000000 	udf	#0
 118:	40202a07 	.inst	0x40202a07 ; undefined
 11c:	00000000 	udf	#0
 120:	40202afa 	.inst	0x40202afa ; undefined
 124:	00000000 	udf	#0
 128:	402027df 	.inst	0x402027df ; undefined
 12c:	00000000 	udf	#0
 130:	41213c20 	.inst	0x41213c20 ; undefined
 134:	00000000 	udf	#0
 138:	41223d48 	.inst	0x41223d48 ; undefined
 13c:	00000000 	udf	#0
 140:	41223d50 	.inst	0x41223d50 ; undefined
 144:	00000000 	udf	#0
 148:	41223d20 	.inst	0x41223d20 ; undefined
 14c:	00000000 	udf	#0
 150:	41213c10 	.inst	0x41213c10 ; undefined
 154:	00000000 	udf	#0
 158:	41223d28 	.inst	0x41223d28 ; undefined
 15c:	00000000 	udf	#0
 160:	41223d40 	.inst	0x41223d40 ; undefined
 164:	00000000 	udf	#0
 168:	41223d38 	.inst	0x41223d38 ; undefined
 16c:	00000000 	udf	#0
 170:	41223d30 	.inst	0x41223d30 ; undefined
 174:	00000000 	udf	#0
 178:	40200018 	.inst	0x40200018 ; undefined
 17c:	00000000 	udf	#0
 180:	40200034 	.inst	0x40200034 ; undefined
 184:	00000000 	udf	#0
 188:	4020003c 	.inst	0x4020003c ; undefined
 18c:	00000000 	udf	#0
 190:	40200058 	.inst	0x40200058 ; undefined
 194:	00000000 	udf	#0
 198:	40200060 	.inst	0x40200060 ; undefined
 19c:	00000000 	udf	#0
 1a0:	40200084 	.inst	0x40200084 ; undefined
 1a4:	00000000 	udf	#0
 1a8:	4020009c 	.inst	0x4020009c ; undefined
 1ac:	00000000 	udf	#0
 1b0:	402000cc 	.inst	0x402000cc ; undefined
 1b4:	00000000 	udf	#0
 1b8:	402000ec 	.inst	0x402000ec ; undefined
 1bc:	00000000 	udf	#0
 1c0:	402000f8 	.inst	0x402000f8 ; undefined
 1c4:	00000000 	udf	#0
 1c8:	402000fc 	.inst	0x402000fc ; undefined
 1cc:	00000000 	udf	#0
 1d0:	40200144 	.inst	0x40200144 ; undefined
 1d4:	00000000 	udf	#0
 1d8:	40200154 	.inst	0x40200154 ; undefined
 1dc:	00000000 	udf	#0
 1e0:	40200164 	.inst	0x40200164 ; undefined
 1e4:	00000000 	udf	#0
 1e8:	402001d8 	.inst	0x402001d8 ; undefined
 1ec:	00000000 	udf	#0
 1f0:	402001a0 	.inst	0x402001a0 ; undefined
 1f4:	00000000 	udf	#0
 1f8:	402001c8 	.inst	0x402001c8 ; undefined
 1fc:	00000000 	udf	#0
 200:	40200210 	.inst	0x40200210 ; undefined
 204:	00000000 	udf	#0
 208:	40200230 	.inst	0x40200230 ; undefined
 20c:	00000000 	udf	#0
 210:	40200240 	.inst	0x40200240 ; undefined
 214:	00000000 	udf	#0
 218:	402002a4 	.inst	0x402002a4 ; undefined
 21c:	00000000 	udf	#0
 220:	402002c4 	.inst	0x402002c4 ; undefined
 224:	00000000 	udf	#0
 228:	402002d4 	.inst	0x402002d4 ; undefined
 22c:	00000000 	udf	#0
 230:	40200338 	.inst	0x40200338 ; undefined
 234:	00000000 	udf	#0
 238:	40200358 	.inst	0x40200358 ; undefined
 23c:	00000000 	udf	#0
 240:	40200368 	.inst	0x40200368 ; undefined
 244:	00000000 	udf	#0
 248:	402003ac 	.inst	0x402003ac ; undefined
 24c:	00000000 	udf	#0
 250:	402003f0 	.inst	0x402003f0 ; undefined
 254:	00000000 	udf	#0
 258:	402003f8 	.inst	0x402003f8 ; undefined
 25c:	00000000 	udf	#0
 260:	40200408 	.inst	0x40200408 ; undefined
 264:	00000000 	udf	#0
 268:	4020044c 	.inst	0x4020044c ; undefined
 26c:	00000000 	udf	#0
 270:	402006a4 	.inst	0x402006a4 ; undefined
 274:	00000000 	udf	#0
 278:	402006ac 	.inst	0x402006ac ; undefined
 27c:	00000000 	udf	#0
 280:	402006cc 	.inst	0x402006cc ; undefined
 284:	00000000 	udf	#0
 288:	402006c4 	.inst	0x402006c4 ; undefined
 28c:	00000000 	udf	#0
 290:	402006e4 	.inst	0x402006e4 ; undefined
 294:	00000000 	udf	#0
 298:	402006e8 	.inst	0x402006e8 ; undefined
 29c:	00000000 	udf	#0
 2a0:	40200708 	.inst	0x40200708 ; undefined
 2a4:	00000000 	udf	#0
 2a8:	40200700 	.inst	0x40200700 ; undefined
 2ac:	00000000 	udf	#0
 2b0:	40200720 	.inst	0x40200720 ; undefined
 2b4:	00000000 	udf	#0
 2b8:	40200724 	.inst	0x40200724 ; undefined
 2bc:	00000000 	udf	#0
 2c0:	40200740 	.inst	0x40200740 ; undefined
 2c4:	00000000 	udf	#0
 2c8:	402008c8 	.inst	0x402008c8 ; undefined
 2cc:	00000000 	udf	#0
 2d0:	402007e0 	.inst	0x402007e0 ; undefined
 2d4:	00000000 	udf	#0
 2d8:	40200890 	.inst	0x40200890 ; undefined
 2dc:	00000000 	udf	#0
 2e0:	402008a4 	.inst	0x402008a4 ; undefined
 2e4:	00000000 	udf	#0
 2e8:	402008c4 	.inst	0x402008c4 ; undefined
 2ec:	00000000 	udf	#0
 2f0:	402008f4 	.inst	0x402008f4 ; undefined
 2f4:	00000000 	udf	#0
 2f8:	4020090c 	.inst	0x4020090c ; undefined
 2fc:	00000000 	udf	#0
 300:	40200920 	.inst	0x40200920 ; undefined
 304:	00000000 	udf	#0
 308:	40200930 	.inst	0x40200930 ; undefined
 30c:	00000000 	udf	#0
 310:	40200964 	.inst	0x40200964 ; undefined
 314:	00000000 	udf	#0
 318:	40200980 	.inst	0x40200980 ; undefined
 31c:	00000000 	udf	#0
 320:	40200994 	.inst	0x40200994 ; undefined
 324:	00000000 	udf	#0
 328:	402009d0 	.inst	0x402009d0 ; undefined
 32c:	00000000 	udf	#0
 330:	402009ec 	.inst	0x402009ec ; undefined
 334:	00000000 	udf	#0
 338:	40200a00 	.inst	0x40200a00 ; undefined
 33c:	00000000 	udf	#0
 340:	40200a30 	.inst	0x40200a30 ; undefined
 344:	00000000 	udf	#0
 348:	40200a44 	.inst	0x40200a44 ; undefined
 34c:	00000000 	udf	#0
 350:	40200aac 	.inst	0x40200aac ; undefined
 354:	00000000 	udf	#0
 358:	40200ac8 	.inst	0x40200ac8 ; undefined
 35c:	00000000 	udf	#0
 360:	40200acc 	.inst	0x40200acc ; undefined
 364:	00000000 	udf	#0
 368:	40200b04 	.inst	0x40200b04 ; undefined
 36c:	00000000 	udf	#0
 370:	40200b20 	.inst	0x40200b20 ; undefined
 374:	00000000 	udf	#0
 378:	40200b44 	.inst	0x40200b44 ; undefined
 37c:	00000000 	udf	#0
 380:	40200b48 	.inst	0x40200b48 ; undefined
 384:	00000000 	udf	#0
 388:	40200b78 	.inst	0x40200b78 ; undefined
 38c:	00000000 	udf	#0
 390:	40200b90 	.inst	0x40200b90 ; undefined
 394:	00000000 	udf	#0
 398:	40200ba4 	.inst	0x40200ba4 ; undefined
 39c:	00000000 	udf	#0
 3a0:	40200bf4 	.inst	0x40200bf4 ; undefined
 3a4:	00000000 	udf	#0
 3a8:	40200c0c 	.inst	0x40200c0c ; undefined
 3ac:	00000000 	udf	#0
 3b0:	40200c1c 	.inst	0x40200c1c ; undefined
 3b4:	00000000 	udf	#0
 3b8:	40200c2c 	.inst	0x40200c2c ; undefined
 3bc:	00000000 	udf	#0
 3c0:	40200c40 	.inst	0x40200c40 ; undefined
 3c4:	00000000 	udf	#0
 3c8:	40200c58 	.inst	0x40200c58 ; undefined
 3cc:	00000000 	udf	#0
 3d0:	40200c74 	.inst	0x40200c74 ; undefined
 3d4:	00000000 	udf	#0
 3d8:	40200c8c 	.inst	0x40200c8c ; undefined
 3dc:	00000000 	udf	#0
 3e0:	40200c90 	.inst	0x40200c90 ; undefined
 3e4:	00000000 	udf	#0
 3e8:	40200c9c 	.inst	0x40200c9c ; undefined
 3ec:	00000000 	udf	#0
 3f0:	40200ca8 	.inst	0x40200ca8 ; undefined
 3f4:	00000000 	udf	#0
 3f8:	40200cb4 	.inst	0x40200cb4 ; undefined
 3fc:	00000000 	udf	#0
 400:	40200cb8 	.inst	0x40200cb8 ; undefined
 404:	00000000 	udf	#0
 408:	40200cc0 	.inst	0x40200cc0 ; undefined
 40c:	00000000 	udf	#0
 410:	40200cc8 	.inst	0x40200cc8 ; undefined
 414:	00000000 	udf	#0
 418:	40200cf4 	.inst	0x40200cf4 ; undefined
 41c:	00000000 	udf	#0
 420:	40200d08 	.inst	0x40200d08 ; undefined
 424:	00000000 	udf	#0
 428:	40200d34 	.inst	0x40200d34 ; undefined
 42c:	00000000 	udf	#0
 430:	40200d9c 	.inst	0x40200d9c ; undefined
 434:	00000000 	udf	#0
 438:	40200dc8 	.inst	0x40200dc8 ; undefined
 43c:	00000000 	udf	#0
 440:	40200d14 	.inst	0x40200d14 ; undefined
 444:	00000000 	udf	#0
 448:	40200d2c 	.inst	0x40200d2c ; undefined
 44c:	00000000 	udf	#0
 450:	40200d6c 	.inst	0x40200d6c ; undefined
 454:	00000000 	udf	#0
 458:	40200d80 	.inst	0x40200d80 ; undefined
 45c:	00000000 	udf	#0
 460:	40200d90 	.inst	0x40200d90 ; undefined
 464:	00000000 	udf	#0
 468:	40200dd8 	.inst	0x40200dd8 ; undefined
 46c:	00000000 	udf	#0
 470:	40200dec 	.inst	0x40200dec ; undefined
 474:	00000000 	udf	#0
 478:	40200e18 	.inst	0x40200e18 ; undefined
 47c:	00000000 	udf	#0
 480:	40200e24 	.inst	0x40200e24 ; undefined
 484:	00000000 	udf	#0
 488:	40200e4c 	.inst	0x40200e4c ; undefined
 48c:	00000000 	udf	#0
 490:	40200e58 	.inst	0x40200e58 ; undefined
 494:	00000000 	udf	#0
 498:	40200e60 	.inst	0x40200e60 ; undefined
 49c:	00000000 	udf	#0
 4a0:	40200e6c 	.inst	0x40200e6c ; undefined
 4a4:	00000000 	udf	#0
 4a8:	40200e74 	.inst	0x40200e74 ; undefined
 4ac:	00000000 	udf	#0
 4b0:	40200e90 	.inst	0x40200e90 ; undefined
 4b4:	00000000 	udf	#0
 4b8:	40200ea0 	.inst	0x40200ea0 ; undefined
 4bc:	00000000 	udf	#0
 4c0:	40200eac 	.inst	0x40200eac ; undefined
 4c4:	00000000 	udf	#0
 4c8:	40200e84 	.inst	0x40200e84 ; undefined
 4cc:	00000000 	udf	#0
 4d0:	40200ec0 	.inst	0x40200ec0 ; undefined
 4d4:	00000000 	udf	#0
 4d8:	40200ef8 	.inst	0x40200ef8 ; undefined
 4dc:	00000000 	udf	#0
 4e0:	40200f14 	.inst	0x40200f14 ; undefined
 4e4:	00000000 	udf	#0
 4e8:	40200f28 	.inst	0x40200f28 ; undefined
 4ec:	00000000 	udf	#0
 4f0:	40200f48 	.inst	0x40200f48 ; undefined
 4f4:	00000000 	udf	#0
 4f8:	40200f60 	.inst	0x40200f60 ; undefined
 4fc:	00000000 	udf	#0
 500:	40200f8c 	.inst	0x40200f8c ; undefined
 504:	00000000 	udf	#0
 508:	40200fa0 	.inst	0x40200fa0 ; undefined
 50c:	00000000 	udf	#0
 510:	40200fb4 	.inst	0x40200fb4 ; undefined
 514:	00000000 	udf	#0
 518:	402010f8 	.inst	0x402010f8 ; undefined
 51c:	00000000 	udf	#0
 520:	40201000 	.inst	0x40201000 ; undefined
 524:	00000000 	udf	#0
 528:	4020103c 	.inst	0x4020103c ; undefined
 52c:	00000000 	udf	#0
 530:	40201108 	.inst	0x40201108 ; undefined
 534:	00000000 	udf	#0
 538:	40201148 	.inst	0x40201148 ; undefined
 53c:	00000000 	udf	#0
 540:	40201160 	.inst	0x40201160 ; undefined
 544:	00000000 	udf	#0
 548:	40201170 	.inst	0x40201170 ; undefined
 54c:	00000000 	udf	#0
 550:	40201190 	.inst	0x40201190 ; undefined
 554:	00000000 	udf	#0
 558:	402011bc 	.inst	0x402011bc ; undefined
 55c:	00000000 	udf	#0
 560:	402011e4 	.inst	0x402011e4 ; undefined
 564:	00000000 	udf	#0
 568:	40201204 	.inst	0x40201204 ; undefined
 56c:	00000000 	udf	#0
 570:	40201214 	.inst	0x40201214 ; undefined
 574:	00000000 	udf	#0
 578:	40201218 	.inst	0x40201218 ; undefined
 57c:	00000000 	udf	#0
 580:	40201228 	.inst	0x40201228 ; undefined
 584:	00000000 	udf	#0
 588:	40201238 	.inst	0x40201238 ; undefined
 58c:	00000000 	udf	#0
 590:	40201248 	.inst	0x40201248 ; undefined
 594:	00000000 	udf	#0
 598:	40201258 	.inst	0x40201258 ; undefined
 59c:	00000000 	udf	#0
 5a0:	40201270 	.inst	0x40201270 ; undefined
 5a4:	00000000 	udf	#0
 5a8:	40200000 	.inst	0x40200000 ; undefined
 5ac:	00000000 	udf	#0
 5b0:	0000006c 	udf	#108
 5b4:	00080005 	.inst	0x00080005 ; undefined
 5b8:	40202b10 	.inst	0x40202b10 ; undefined
 5bc:	00000000 	udf	#0
 5c0:	40201274 	.inst	0x40201274 ; undefined
 5c4:	00000000 	udf	#0
 5c8:	4020133c 	.inst	0x4020133c ; undefined
 5cc:	00000000 	udf	#0
 5d0:	402013dc 	.inst	0x402013dc ; undefined
 5d4:	00000000 	udf	#0
 5d8:	40201404 	.inst	0x40201404 ; undefined
 5dc:	00000000 	udf	#0
 5e0:	40201434 	.inst	0x40201434 ; undefined
 5e4:	00000000 	udf	#0
 5e8:	40201620 	.inst	0x40201620 ; undefined
 5ec:	00000000 	udf	#0
 5f0:	402014c8 	.inst	0x402014c8 ; undefined
 5f4:	00000000 	udf	#0
 5f8:	4020158c 	.inst	0x4020158c ; undefined
 5fc:	00000000 	udf	#0
 600:	402015bc 	.inst	0x402015bc ; undefined
 604:	00000000 	udf	#0
 608:	402015f8 	.inst	0x402015f8 ; undefined
 60c:	00000000 	udf	#0
 610:	4020162c 	.inst	0x4020162c ; undefined
 614:	00000000 	udf	#0
 618:	4020165c 	.inst	0x4020165c ; undefined
 61c:	00000000 	udf	#0
 620:	000000c4 	udf	#196
 624:	00080005 	.inst	0x00080005 ; undefined
 628:	40202a3d 	.inst	0x40202a3d ; undefined
 62c:	00000000 	udf	#0
 630:	40202acc 	.inst	0x40202acc ; undefined
 634:	00000000 	udf	#0
 638:	40202b21 	.inst	0x40202b21 ; undefined
 63c:	00000000 	udf	#0
 640:	40202862 	.inst	0x40202862 ; undefined
 644:	00000000 	udf	#0
 648:	40202ba7 	.inst	0x40202ba7 ; undefined
 64c:	00000000 	udf	#0
 650:	40202a32 	.inst	0x40202a32 ; undefined
 654:	00000000 	udf	#0
 658:	4020291f 	.inst	0x4020291f ; undefined
 65c:	00000000 	udf	#0
 660:	40202b30 	.inst	0x40202b30 ; undefined
 664:	00000000 	udf	#0
 668:	40201764 	.inst	0x40201764 ; undefined
 66c:	00000000 	udf	#0
 670:	4020178c 	.inst	0x4020178c ; undefined
 674:	00000000 	udf	#0
 678:	4020179c 	.inst	0x4020179c ; undefined
 67c:	00000000 	udf	#0
 680:	402017ac 	.inst	0x402017ac ; undefined
 684:	00000000 	udf	#0
 688:	402017bc 	.inst	0x402017bc ; undefined
 68c:	00000000 	udf	#0
 690:	402017cc 	.inst	0x402017cc ; undefined
 694:	00000000 	udf	#0
 698:	402017dc 	.inst	0x402017dc ; undefined
 69c:	00000000 	udf	#0
 6a0:	402017f4 	.inst	0x402017f4 ; undefined
 6a4:	00000000 	udf	#0
 6a8:	402017f8 	.inst	0x402017f8 ; undefined
 6ac:	00000000 	udf	#0
 6b0:	402017fc 	.inst	0x402017fc ; undefined
 6b4:	00000000 	udf	#0
 6b8:	40201800 	.inst	0x40201800 ; undefined
 6bc:	00000000 	udf	#0
 6c0:	40201804 	.inst	0x40201804 ; undefined
 6c4:	00000000 	udf	#0
 6c8:	40201808 	.inst	0x40201808 ; undefined
 6cc:	00000000 	udf	#0
 6d0:	4020180c 	.inst	0x4020180c ; undefined
 6d4:	00000000 	udf	#0
 6d8:	40201810 	.inst	0x40201810 ; undefined
 6dc:	00000000 	udf	#0
 6e0:	40201814 	.inst	0x40201814 ; undefined
 6e4:	00000000 	udf	#0

Disassembly of section .comment:

0000000000000000 <.comment>:
   0:	75625500 	.inst	0x75625500 ; undefined
   4:	2075746e 	.inst	0x2075746e ; undefined
   8:	6e616c63 	umin	v3.8h, v3.8h, v1.8h
   c:	65762067 	fmls	z7.h, p0/m, z3.h, z22.h
  10:	6f697372 	fcmla	v18.8h, v27.8h, v9.h[1], #270
  14:	3831206e 	ldeorb	w17, w14, [x3]
  18:	332e312e 	.inst	0x332e312e ; undefined
  1c:	75312820 	.inst	0x75312820 ; undefined
  20:	746e7562 	.inst	0x746e7562 ; undefined
  24:	00293175 	.inst	0x00293175 ; NYI
  28:	6b6e694c 	.inst	0x6b6e694c ; undefined
  2c:	203a7265 	.inst	0x203a7265 ; undefined
  30:	6e756255 	rsubhn2	v21.8h, v18.4s, v21.4s
  34:	4c207574 	.inst	0x4c207574 ; undefined
  38:	3120444c 	adds	w12, w2, #0x811
  3c:	2e312e38 	uqsub	v24.8b, v17.8b, v17.8b
  40:	Address 0x40 is out of bounds.


Disassembly of section .debug_frame:

0000000000000000 <.debug_frame>:
   0:	00000014 	udf	#20
   4:	ffffffff 	.inst	0xffffffff ; undefined
   8:	00080004 	.inst	0x00080004 ; undefined
   c:	0c1e7c01 	.inst	0x0c1e7c01 ; undefined
  10:	0000001f 	udf	#31
  14:	00000000 	udf	#0
  18:	0000001c 	udf	#28
  1c:	00000000 	udf	#0
  20:	40200018 	.inst	0x40200018 ; undefined
  24:	00000000 	udf	#0
  28:	0000001c 	udf	#28
  2c:	00000000 	udf	#0
  30:	00100e44 	.inst	0x00100e44 ; undefined
  34:	00000000 	udf	#0
  38:	0000001c 	udf	#28
  3c:	00000000 	udf	#0
  40:	40200034 	.inst	0x40200034 ; undefined
  44:	00000000 	udf	#0
  48:	00000024 	udf	#36
  4c:	00000000 	udf	#0
  50:	00100e44 	.inst	0x00100e44 ; undefined
  54:	00000000 	udf	#0
  58:	0000001c 	udf	#28
  5c:	00000000 	udf	#0
  60:	40200058 	.inst	0x40200058 ; undefined
  64:	00000000 	udf	#0
  68:	0000002c 	udf	#44
  6c:	00000000 	udf	#0
  70:	00100e44 	.inst	0x00100e44 ; undefined
  74:	00000000 	udf	#0
  78:	00000014 	udf	#20
  7c:	00000000 	udf	#0
  80:	40200084 	.inst	0x40200084 ; undefined
  84:	00000000 	udf	#0
  88:	00000018 	udf	#24
  8c:	00000000 	udf	#0
  90:	0000001c 	udf	#28
  94:	00000000 	udf	#0
  98:	4020009c 	.inst	0x4020009c ; undefined
  9c:	00000000 	udf	#0
  a0:	00000060 	udf	#96
  a4:	00000000 	udf	#0
  a8:	101d0c58 	adr	x24, 3a230 <_binary_shell_bin_size-0xfd6dd0>
  ac:	049d029e 	.inst	0x049d029e ; undefined
  b0:	00000024 	udf	#36
  b4:	00000000 	udf	#0
  b8:	402000fc 	.inst	0x402000fc ; undefined
  bc:	00000000 	udf	#0
  c0:	00000068 	udf	#104
  c4:	00000000 	udf	#0
  c8:	201d0c4c 	.inst	0x201d0c4c ; undefined
  cc:	069e0493 	.inst	0x069e0493 ; undefined
  d0:	0000089d 	udf	#2205
  d4:	00000000 	udf	#0
  d8:	0000002c 	udf	#44
  dc:	00000000 	udf	#0
  e0:	40200164 	.inst	0x40200164 ; undefined
  e4:	00000000 	udf	#0
  e8:	00000248 	udf	#584
  ec:	00000000 	udf	#0
  f0:	401d0c54 	.inst	0x401d0c54 ; undefined
  f4:	04940293 	sdiv	z19.s, p0/m, z19.s, z20.s
  f8:	08960695 	stllrb	w21, [x20]
  fc:	0c980a97 	st4	{v23.2s-v26.2s}, [x20], x24
 100:	109d0e9e 	adr	x30, fffffffffff3a2d0 <__free_ram_end+0xffffffffbccf62d0>
 104:	00000000 	udf	#0
 108:	00000014 	udf	#20
 10c:	00000000 	udf	#0
 110:	402003ac 	.inst	0x402003ac ; undefined
 114:	00000000 	udf	#0
 118:	00000044 	udf	#68
 11c:	00000000 	udf	#0
 120:	00000014 	udf	#20
 124:	00000000 	udf	#0
 128:	402003f0 	.inst	0x402003f0 ; undefined
 12c:	00000000 	udf	#0
 130:	00000018 	udf	#24
 134:	00000000 	udf	#0
 138:	00000014 	udf	#20
 13c:	00000000 	udf	#0
 140:	40200408 	.inst	0x40200408 ; undefined
 144:	00000000 	udf	#0
 148:	00000044 	udf	#68
 14c:	00000000 	udf	#0
 150:	00000014 	udf	#20
 154:	00000000 	udf	#0
 158:	4020044c 	.inst	0x4020044c ; undefined
 15c:	00000000 	udf	#0
 160:	00000260 	udf	#608
 164:	00000000 	udf	#0
 168:	00000024 	udf	#36
 16c:	00000000 	udf	#0
 170:	402006ac 	.inst	0x402006ac ; undefined
 174:	00000000 	udf	#0
 178:	0000003c 	udf	#60
 17c:	00000000 	udf	#0
 180:	201d0c4c 	.inst	0x201d0c4c ; undefined
 184:	069e0493 	.inst	0x069e0493 ; undefined
 188:	0000089d 	udf	#2205
 18c:	00000000 	udf	#0
 190:	00000024 	udf	#36
 194:	00000000 	udf	#0
 198:	402006e8 	.inst	0x402006e8 ; undefined
 19c:	00000000 	udf	#0
 1a0:	0000003c 	udf	#60
 1a4:	00000000 	udf	#0
 1a8:	201d0c4c 	.inst	0x201d0c4c ; undefined
 1ac:	069e0493 	.inst	0x069e0493 ; undefined
 1b0:	0000089d 	udf	#2205
 1b4:	00000000 	udf	#0
 1b8:	00000014 	udf	#20
 1bc:	00000000 	udf	#0
 1c0:	40200724 	.inst	0x40200724 ; undefined
 1c4:	00000000 	udf	#0
 1c8:	0000001c 	udf	#28
 1cc:	00000000 	udf	#0
 1d0:	00000034 	udf	#52
 1d4:	00000000 	udf	#0
 1d8:	40200740 	.inst	0x40200740 ; undefined
 1dc:	00000000 	udf	#0
 1e0:	0000038c 	udf	#908
 1e4:	00000000 	udf	#0
 1e8:	601d0c60 	.inst	0x601d0c60 ; undefined
 1ec:	04940293 	sdiv	z19.s, p0/m, z19.s, z20.s
 1f0:	08960695 	stllrb	w21, [x20]
 1f4:	0c980a97 	st4	{v23.2s-v26.2s}, [x20], x24
 1f8:	109a0e99 	adr	x25, fffffffffff343c8 <__free_ram_end+0xffffffffbccf03c8>
 1fc:	149c129b 	b	2704c68 <_binary_shell_bin_size+0x16f3c68>
 200:	189d169e 	ldr	w30, fffffffffff3a4d0 <__free_ram_end+0xffffffffbccf64d0>
 204:	00000000 	udf	#0
 208:	0000001c 	udf	#28
 20c:	00000000 	udf	#0
 210:	40200acc 	.inst	0x40200acc ; undefined
 214:	00000000 	udf	#0
 218:	000000d8 	udf	#216
 21c:	00000000 	udf	#0
 220:	101d0c4c 	adr	x12, 3a3a8 <_binary_shell_bin_size-0xfd6c58>
 224:	049d029e 	.inst	0x049d029e ; undefined
 228:	00000024 	udf	#36
 22c:	00000000 	udf	#0
 230:	40200ba4 	.inst	0x40200ba4 ; undefined
 234:	00000000 	udf	#0
 238:	000000ec 	udf	#236
 23c:	00000000 	udf	#0
 240:	301d0c50 	adr	x16, 3a3c9 <_binary_shell_bin_size-0xfd6c37>
 244:	04940293 	sdiv	z19.s, p0/m, z19.s, z20.s
 248:	08960695 	stllrb	w21, [x20]
 24c:	0c9d0a9e 	st4	{v30.2s-v1.2s}, [x20], x29
 250:	00000014 	udf	#20
 254:	00000000 	udf	#0
 258:	40200c90 	.inst	0x40200c90 ; undefined
 25c:	00000000 	udf	#0
 260:	0000000c 	udf	#12
 264:	00000000 	udf	#0
 268:	00000014 	udf	#20
 26c:	00000000 	udf	#0
 270:	40200c9c 	.inst	0x40200c9c ; undefined
 274:	00000000 	udf	#0
 278:	0000000c 	udf	#12
 27c:	00000000 	udf	#0
 280:	00000014 	udf	#20
 284:	00000000 	udf	#0
 288:	40200ca8 	.inst	0x40200ca8 ; undefined
 28c:	00000000 	udf	#0
 290:	0000000c 	udf	#12
 294:	00000000 	udf	#0
 298:	00000014 	udf	#20
 29c:	00000000 	udf	#0
 2a0:	40200cb4 	.inst	0x40200cb4 ; undefined
 2a4:	00000000 	udf	#0
 2a8:	00000014 	udf	#20
 2ac:	00000000 	udf	#0
 2b0:	00000024 	udf	#36
 2b4:	00000000 	udf	#0
 2b8:	40200cc8 	.inst	0x40200cc8 ; undefined
 2bc:	00000000 	udf	#0
 2c0:	00000124 	udf	#292
 2c4:	00000000 	udf	#0
 2c8:	301d0c50 	adr	x16, 3a451 <_binary_shell_bin_size-0xfd6baf>
 2cc:	04940293 	sdiv	z19.s, p0/m, z19.s, z20.s
 2d0:	0a9e0895 	and	w21, w4, w30, asr #2
 2d4:	00000c9d 	udf	#3229
 2d8:	00000024 	udf	#36
 2dc:	00000000 	udf	#0
 2e0:	40200dec 	.inst	0x40200dec ; undefined
 2e4:	00000000 	udf	#0
 2e8:	00000174 	udf	#372
 2ec:	00000000 	udf	#0
 2f0:	201d0c50 	.inst	0x201d0c50 ; undefined
 2f4:	04940293 	sdiv	z19.s, p0/m, z19.s, z20.s
 2f8:	089d069e 	stllrb	w30, [x20]
 2fc:	00000000 	udf	#0
 300:	00000014 	udf	#20
 304:	00000000 	udf	#0
 308:	40200f60 	.inst	0x40200f60 ; undefined
 30c:	00000000 	udf	#0
 310:	00000040 	udf	#64
 314:	00000000 	udf	#0
 318:	00000014 	udf	#20
 31c:	00000000 	udf	#0
 320:	40200fa0 	.inst	0x40200fa0 ; undefined
 324:	00000000 	udf	#0
 328:	00000014 	udf	#20
 32c:	00000000 	udf	#0
 330:	0000002c 	udf	#44
 334:	00000000 	udf	#0
 338:	40200fb4 	.inst	0x40200fb4 ; undefined
 33c:	00000000 	udf	#0
 340:	000001dc 	udf	#476
 344:	00000000 	udf	#0
 348:	401d0c54 	.inst	0x401d0c54 ; undefined
 34c:	04940293 	sdiv	z19.s, p0/m, z19.s, z20.s
 350:	08960695 	stllrb	w21, [x20]
 354:	0c980a97 	st4	{v23.2s-v26.2s}, [x20], x24
 358:	109d0e9e 	adr	x30, fffffffffff3a528 <__free_ram_end+0xffffffffbccf6528>
 35c:	00000000 	udf	#0
 360:	00000024 	udf	#36
 364:	00000000 	udf	#0
 368:	40201190 	.inst	0x40201190 ; undefined
 36c:	00000000 	udf	#0
 370:	000000e4 	udf	#228
 374:	00000000 	udf	#0
 378:	201d0c50 	.inst	0x201d0c50 ; undefined
 37c:	069e049c 	.inst	0x069e049c ; undefined
 380:	0000089d 	udf	#2205
 384:	00000000 	udf	#0
 388:	00000014 	udf	#20
 38c:	00000000 	udf	#0
 390:	40200000 	.inst	0x40200000 ; undefined
 394:	00000000 	udf	#0
 398:	00000018 	udf	#24
 39c:	00000000 	udf	#0
 3a0:	00000014 	udf	#20
 3a4:	ffffffff 	.inst	0xffffffff ; undefined
 3a8:	00080004 	.inst	0x00080004 ; undefined
 3ac:	0c1e7c01 	.inst	0x0c1e7c01 ; undefined
 3b0:	0000001f 	udf	#31
 3b4:	00000000 	udf	#0
 3b8:	00000014 	udf	#20
 3bc:	000003a0 	udf	#928
 3c0:	40201274 	.inst	0x40201274 ; undefined
 3c4:	00000000 	udf	#0
 3c8:	000000c8 	udf	#200
 3cc:	00000000 	udf	#0
 3d0:	00000014 	udf	#20
 3d4:	000003a0 	udf	#928
 3d8:	4020133c 	.inst	0x4020133c ; undefined
 3dc:	00000000 	udf	#0
 3e0:	000000a0 	udf	#160
 3e4:	00000000 	udf	#0
 3e8:	00000014 	udf	#20
 3ec:	000003a0 	udf	#928
 3f0:	402013dc 	.inst	0x402013dc ; undefined
 3f4:	00000000 	udf	#0
 3f8:	00000028 	udf	#40
 3fc:	00000000 	udf	#0
 400:	00000014 	udf	#20
 404:	000003a0 	udf	#928
 408:	40201404 	.inst	0x40201404 ; undefined
 40c:	00000000 	udf	#0
 410:	00000030 	udf	#48
 414:	00000000 	udf	#0
 418:	0000002c 	udf	#44
 41c:	000003a0 	udf	#928
 420:	40201434 	.inst	0x40201434 ; undefined
 424:	00000000 	udf	#0
 428:	00000244 	udf	#580
 42c:	00000000 	udf	#0
 430:	501d0c5c 	adr	x28, 3a5ba <_binary_shell_bin_size-0xfd6a46>
 434:	04940293 	sdiv	z19.s, p0/m, z19.s, z20.s
 438:	08960695 	stllrb	w21, [x20]
 43c:	0c980a97 	st4	{v23.2s-v26.2s}, [x20], x24
 440:	129e109c 	mov	w28, #0xffff0f7b            	// #-61573
 444:	0000149d 	udf	#5277
 448:	00000014 	udf	#20
 44c:	ffffffff 	.inst	0xffffffff ; undefined
 450:	00080004 	.inst	0x00080004 ; undefined
 454:	0c1e7c01 	.inst	0x0c1e7c01 ; undefined
 458:	0000001f 	udf	#31
 45c:	00000000 	udf	#0
 460:	00000024 	udf	#36
 464:	00000448 	udf	#1096
 468:	40201764 	.inst	0x40201764 ; undefined
 46c:	00000000 	udf	#0
 470:	00000094 	udf	#148
 474:	00000000 	udf	#0
 478:	301d0c50 	adr	x16, 3a601 <_binary_shell_bin_size-0xfd69ff>
 47c:	04940293 	sdiv	z19.s, p0/m, z19.s, z20.s
 480:	0a9e0895 	and	w21, w4, w30, asr #2
 484:	00000c9d 	udf	#3229
 488:	00000014 	udf	#20
 48c:	00000448 	udf	#1096
 490:	402017f8 	.inst	0x402017f8 ; undefined
 494:	00000000 	udf	#0
 498:	00000004 	udf	#4
 49c:	00000000 	udf	#0
 4a0:	00000014 	udf	#20
 4a4:	00000448 	udf	#1096
 4a8:	402017fc 	.inst	0x402017fc ; undefined
 4ac:	00000000 	udf	#0
 4b0:	00000004 	udf	#4
 4b4:	00000000 	udf	#0
 4b8:	00000014 	udf	#20
 4bc:	00000448 	udf	#1096
 4c0:	40201800 	.inst	0x40201800 ; undefined
 4c4:	00000000 	udf	#0
 4c8:	00000004 	udf	#4
 4cc:	00000000 	udf	#0
 4d0:	00000014 	udf	#20
 4d4:	00000448 	udf	#1096
 4d8:	40201804 	.inst	0x40201804 ; undefined
 4dc:	00000000 	udf	#0
 4e0:	00000004 	udf	#4
 4e4:	00000000 	udf	#0
 4e8:	00000014 	udf	#20
 4ec:	00000448 	udf	#1096
 4f0:	40201808 	.inst	0x40201808 ; undefined
 4f4:	00000000 	udf	#0
 4f8:	00000004 	udf	#4
 4fc:	00000000 	udf	#0
 500:	00000014 	udf	#20
 504:	00000448 	udf	#1096
 508:	4020180c 	.inst	0x4020180c ; undefined
 50c:	00000000 	udf	#0
 510:	00000004 	udf	#4
 514:	00000000 	udf	#0
 518:	00000014 	udf	#20
 51c:	00000448 	udf	#1096
 520:	40201810 	.inst	0x40201810 ; undefined
 524:	00000000 	udf	#0
 528:	00000004 	udf	#4
 52c:	00000000 	udf	#0
 530:	00000014 	udf	#20
 534:	00000448 	udf	#1096
 538:	40201814 	.inst	0x40201814 ; undefined
 53c:	00000000 	udf	#0
 540:	00000004 	udf	#4
 544:	00000000 	udf	#0

Disassembly of section .debug_line:

0000000000000000 <.debug_line>:
   0:	00000927 	udf	#2343
   4:	00080005 	.inst	0x00080005 ; undefined
   8:	00000065 	udf	#101
   c:	fb010101 	.inst	0xfb010101 ; undefined
  10:	01000d0e 	.inst	0x01000d0e ; undefined
  14:	00010101 	.inst	0x00010101 ; undefined
  18:	00010000 	.inst	0x00010000 ; undefined
  1c:	01010100 	.inst	0x01010100 ; undefined
  20:	0009021f 	.inst	0x0009021f ; undefined
  24:	00470000 	.inst	0x00470000 ; undefined
  28:	01030000 	.inst	0x01030000 ; undefined
  2c:	050f021f 	.inst	0x050f021f ; undefined
  30:	0000031e 	udf	#798
  34:	b8000000 	stur	w0, [x0]
  38:	77e65a01 	.inst	0x77e65a01 ; undefined
  3c:	6f0c1dd1 	.inst	0x6f0c1dd1 ; undefined
  40:	d819f436 	prfm	pstslckeep, 33ec4 <_binary_shell_bin_size-0xfdd13c>
  44:	57857343 	.inst	0x57857343 ; undefined
  48:	01000000 	.inst	0x01000000 ; undefined
  4c:	e0269fcf 	st1b	{za0v.b[w12, 15]}, p7, [x30, x6]
  50:	c14b1482 	.inst	0xc14b1482 ; undefined
  54:	248d0d4d 	cmphs	p13.s, p3/z, z10.s, z13.s
  58:	dff95277 	.inst	0xdff95277 ; undefined
  5c:	00000026 	udf	#38
  60:	ebcaf801 	.inst	0xebcaf801 ; undefined
  64:	a7ca4b57 	.inst	0xa7ca4b57 ; undefined
  68:	17e740b3 	b	ffffffffff9d0334 <__free_ram_end+0xffffffffbc78c334>
  6c:	03d32895 	.inst	0x03d32895 ; undefined
  70:	00000440 	udf	#1088
  74:	00180209 	.inst	0x00180209 ; undefined
  78:	00004020 	udf	#16416
  7c:	14030000 	b	c007c <_binary_shell_bin_size-0xf50f84>
  80:	0a050501 	and	w1, w8, w5, lsl #1
  84:	05be0b89 	uzp1	z9.q, z28.q, z30.q
  88:	05058500 	.inst	0x05058500 ; undefined
  8c:	8279030a 	.inst	0x8279030a ; undefined
  90:	030b0205 	.inst	0x030b0205 ; undefined
  94:	053c0809 	ext	z9.b, z9.b, z0.b, #226
  98:	05058400 	.inst	0x05058400 ; undefined
  9c:	8275030a 	.inst	0x8275030a ; undefined
  a0:	1a030605 	.inst	0x1a030605 ; undefined
  a4:	0b063c08 	add	w8, w0, w6, lsl #15
  a8:	06000582 	.inst	0x06000582 ; undefined
  ac:	0a050588 	and	w8, w12, w5, lsl #1
  b0:	0d030a4b 	.inst	0x0d030a4b ; undefined
  b4:	1d053c08 	.inst	0x1d053c08 ; undefined
  b8:	4c09054b 	.inst	0x4c09054b ; undefined
  bc:	79080505 	strh	w5, [x8, #1026]
  c0:	03064ec2 	.inst	0x03064ec2 ; undefined
  c4:	064a7fa2 	.inst	0x064a7fa2 ; undefined
  c8:	4a00ea03 	.inst	0x4a00ea03 ; undefined
  cc:	78030b05 	sttrh	w5, [x24, #48]
  d0:	4b050582 	sub	w2, w12, w5, lsl #1
  d4:	0905890b 	.inst	0x0905890b ; undefined
  d8:	05826403 	and	z3.d, z3.d, #0xfff00000001fffff
  dc:	ba200300 	.inst	0xba200300 ; undefined
  e0:	bc0a1505 	str	s5, [x8], #161
  e4:	4c14054b 	.inst	0x4c14054b ; undefined
  e8:	057f1505 	ext	z5.b, {z8.b-z9.b}, #253
  ec:	09054b10 	.inst	0x09054b10 ; undefined
  f0:	4810054c 	stxrh	w16, w12, [x10]
  f4:	4b4c0905 	sub	w5, w8, w12, lsr #2
  f8:	ae080505 	.inst	0xae080505 ; undefined
  fc:	4a0b06bb 	eor	w27, w21, w11, lsl #1
 100:	bd060005 	str	s5, [x0, #1536]
 104:	080a0a05 	stxrb	w10, w5, [x16]
 108:	06090575 	.inst	0x06090575 ; undefined
 10c:	054b064a 	.inst	0x054b064a ; undefined
 110:	05e5080a 	.inst	0x05e5080a ; undefined
 114:	064a0609 	.inst	0x064a0609 ; undefined
 118:	0827054b 	.inst	0x0827054b ; undefined
 11c:	4c0a05e7 	.inst	0x4c0a05e7 ; undefined
 120:	4a060905 	eor	w5, w8, w6, lsl #2
 124:	03061505 	.inst	0x03061505 ; undefined
 128:	14054a6d 	b	152adc <_binary_shell_bin_size-0xebe524>
 12c:	7f15054d 	.inst	0x7f15054d ; undefined
 130:	054b1005 	.inst	0x054b1005 ; undefined
 134:	10054c09 	adr	x9, aab4 <_binary_shell_bin_size-0x100654c>
 138:	4c090548 	.inst	0x4c090548 ; undefined
 13c:	8c03064b 	.inst	0x8c03064b ; undefined
 140:	05ac087f 	uzp1	z31.q, z3.q, z12.q
 144:	f6030605 	.inst	0xf6030605 ; undefined
 148:	09054a00 	.inst	0x09054a00 ; undefined
 14c:	74080f03 	.inst	0x74080f03 ; undefined
 150:	05f32905 	tbl	z5.d, {z8.d-z9.d}, z19.d
 154:	05ba0643 	zip2	z3.q, z18.q, z26.q
 158:	30054a1c 	adr	x28, aa99 <_binary_shell_bin_size-0x1006567>
 15c:	20054c06 	.inst	0x20054c06 ; undefined
 160:	4c0a054d 	.inst	0x4c0a054d ; undefined
 164:	ba060905 	.inst	0xba060905 ; undefined
 168:	03061505 	.inst	0x03061505 ; undefined
 16c:	14054a63 	b	152af8 <_binary_shell_bin_size-0xebe508>
 170:	7f15054d 	.inst	0x7f15054d ; undefined
 174:	054b1005 	.inst	0x054b1005 ; undefined
 178:	10054c09 	adr	x9, aaf8 <_binary_shell_bin_size-0x1006508>
 17c:	4c090548 	.inst	0x4c090548 ; undefined
 180:	0805054b 	stxrb	w5, w11, [x10]
 184:	060005ae 	.inst	0x060005ae ; undefined
 188:	f27f8a03 	ands	x3, x16, #0xffffffffe
 18c:	f6030505 	.inst	0xf6030505 ; undefined
 190:	09058200 	.inst	0x09058200 ; undefined
 194:	4a190306 	eor	w6, w24, w25
 198:	05f32905 	tbl	z5.d, {z8.d-z9.d}, z19.d
 19c:	05ba0643 	zip2	z3.q, z18.q, z26.q
 1a0:	30054a1c 	adr	x28, aae1 <_binary_shell_bin_size-0x100651f>
 1a4:	20054c06 	.inst	0x20054c06 ; undefined
 1a8:	4c0a054d 	.inst	0x4c0a054d ; undefined
 1ac:	ba060905 	.inst	0xba060905 ; undefined
 1b0:	03061505 	.inst	0x03061505 ; undefined
 1b4:	14054a59 	b	152b18 <_binary_shell_bin_size-0xebe4e8>
 1b8:	7f15054d 	.inst	0x7f15054d ; undefined
 1bc:	054b1005 	.inst	0x054b1005 ; undefined
 1c0:	10054c09 	adr	x9, ab40 <_binary_shell_bin_size-0x10064c0>
 1c4:	4c090548 	.inst	0x4c090548 ; undefined
 1c8:	0805054b 	stxrb	w5, w11, [x10]
 1cc:	060005ae 	.inst	0x060005ae ; undefined
 1d0:	f27f8a03 	ands	x3, x16, #0xffffffffe
 1d4:	f6030505 	.inst	0xf6030505 ; undefined
 1d8:	09058200 	.inst	0x09058200 ; undefined
 1dc:	4a230306 	eon	w6, w24, w3
 1e0:	05f32905 	tbl	z5.d, {z8.d-z9.d}, z19.d
 1e4:	05ba0643 	zip2	z3.q, z18.q, z26.q
 1e8:	20054a1c 	.inst	0x20054a1c ; undefined
 1ec:	30054f06 	adr	x6, abcd <_binary_shell_bin_size-0x1006433>
 1f0:	4e4e0547 	fmaxnm	v7.8h, v10.8h, v14.8h
 1f4:	850b0105 	.inst	0x850b0105 ; undefined
 1f8:	05470505 	.inst	0x05470505 ; undefined
 1fc:	4e054d01 	.inst	0x4e054d01 ; undefined
 200:	0618057f 	.inst	0x0618057f ; undefined
 204:	0601054a 	.inst	0x0601054a ; undefined
 208:	0a05054d 	and	w13, w10, w5, lsl #1
 20c:	03000586 	.inst	0x03000586 ; undefined
 210:	01440220 	.inst	0x01440220 ; undefined
 214:	830a1705 	.inst	0x830a1705 ; undefined
 218:	054b0905 	.inst	0x054b0905 ; undefined
 21c:	01054905 	.inst	0x01054905 ; undefined
 220:	4c00054c 	st4	{v12.8h-v15.8h}, [x10]
 224:	080a0505 	stxrb	w10, w5, [x8]
 228:	0301053f 	.inst	0x0301053f ; undefined
 22c:	012c021c 	.inst	0x012c021c ; undefined
 230:	09030005 	.inst	0x09030005 ; undefined
 234:	0a13054a 	and	w10, w10, w19, lsl #1
 238:	b93f054f 	str	w15, [x10, #16132]
 23c:	05f31305 	.inst	0x05f31305 ; undefined
 240:	2a05ef1c 	.inst	0x2a05ef1c ; undefined
 244:	81210585 	.inst	0x81210585 ; undefined
 248:	05bb3305 	tbl	z5.s, {z24.s}, z27.s
 24c:	054a060d 	.inst	0x054a060d ; undefined
 250:	0581063a 	and	z26.b, z26.b, #0x3
 254:	054a063f 	.inst	0x054a063f ; undefined
 258:	05f30613 	.inst	0x05f30613 ; undefined
 25c:	0582062a 	and	z10.d, z10.d, #0x3ffffffffffff
 260:	05810621 	and	z1.b, z1.b, #0x3
 264:	0d05bb33 	.inst	0x0d05bb33 ; undefined
 268:	3a054a06 	.inst	0x3a054a06 ; undefined
 26c:	3f058106 	.inst	0x3f058106 ; undefined
 270:	13054a06 	sbfx	w6, w16, #5, #14
 274:	2a05f306 	.inst	0x2a05f306 ; undefined
 278:	2105ba06 	.inst	0x2105ba06 ; undefined
 27c:	33058106 	.inst	0x33058106 ; undefined
 280:	060d05bb 	.inst	0x060d05bb ; undefined
 284:	063a054a 	.inst	0x063a054a ; undefined
 288:	063f0581 	.inst	0x063f0581 ; undefined
 28c:	0613054a 	.inst	0x0613054a ; undefined
 290:	062a05f3 	.inst	0x062a05f3 ; undefined
 294:	06210582 	.inst	0x06210582 ; undefined
 298:	bb330581 	.inst	0xbb330581 ; undefined
 29c:	4a060d05 	eor	w5, w8, w6, lsl #3
 2a0:	81063a05 	.inst	0x81063a05 ; undefined
 2a4:	4a063f05 	eor	w5, w24, w6, lsl #15
 2a8:	f3061305 	.inst	0xf3061305 ; undefined
 2ac:	ba062a05 	.inst	0xba062a05 ; undefined
 2b0:	81062105 	.inst	0x81062105 ; undefined
 2b4:	05bb3305 	tbl	z5.s, {z24.s}, z27.s
 2b8:	054a060d 	.inst	0x054a060d ; undefined
 2bc:	0581063a 	and	z26.b, z26.b, #0x3
 2c0:	054a063f 	.inst	0x054a063f ; undefined
 2c4:	05f30613 	.inst	0x05f30613 ; undefined
 2c8:	0582062a 	and	z10.d, z10.d, #0x3ffffffffffff
 2cc:	05810621 	and	z1.b, z1.b, #0x3
 2d0:	0d05bb33 	.inst	0x0d05bb33 ; undefined
 2d4:	3a054a06 	.inst	0x3a054a06 ; undefined
 2d8:	3f058106 	.inst	0x3f058106 ; undefined
 2dc:	13054a06 	sbfx	w6, w16, #5, #14
 2e0:	2a05f306 	.inst	0x2a05f306 ; undefined
 2e4:	2105ba06 	.inst	0x2105ba06 ; undefined
 2e8:	33058106 	.inst	0x33058106 ; undefined
 2ec:	060d05bb 	.inst	0x060d05bb ; undefined
 2f0:	063a054a 	.inst	0x063a054a ; undefined
 2f4:	063f0581 	.inst	0x063f0581 ; undefined
 2f8:	0613054a 	.inst	0x0613054a ; undefined
 2fc:	062a05f3 	.inst	0x062a05f3 ; undefined
 300:	06210582 	.inst	0x06210582 ; undefined
 304:	bb330581 	.inst	0xbb330581 ; undefined
 308:	4a060d05 	eor	w5, w8, w6, lsl #3
 30c:	827e8703 	.inst	0x827e8703 ; undefined
 310:	03060905 	.inst	0x03060905 ; undefined
 314:	064a0280 	.inst	0x064a0280 ; undefined
 318:	827e8003 	.inst	0x827e8003 ; undefined
 31c:	03061205 	.inst	0x03061205 ; undefined
 320:	054a0285 	.inst	0x054a0285 ; undefined
 324:	2005502b 	.inst	0x2005502b ; undefined
 328:	03050547 	.inst	0x03050547 ; undefined
 32c:	1b054a09 	madd	w9, w16, w5, w18
 330:	2c021a03 	stnp	s3, s6, [x16, #16]
 334:	06260501 	.inst	0x06260501 ; undefined
 338:	4a05054a 	eor	w10, w10, w5, lsl #1
 33c:	4e060105 	tbl	v5.16b, {v8.16b}, v6.16b
 340:	054c0005 	.inst	0x054c0005 ; undefined
 344:	06bb0a05 	.inst	0x06bb0a05 ; undefined
 348:	ba7dce03 	.inst	0xba7dce03 ; undefined
 34c:	821c0306 	.inst	0x821c0306 ; undefined
 350:	9b030305 	madd	x5, x24, x3, x0
 354:	053c0802 	ext	z2.b, z2.b, z0.b, #226
 358:	00054605 	.inst	0x00054605 ; undefined
 35c:	0a050552 	and	w18, w10, w5, lsl #1
 360:	c40306bb 	ld1sb	{z27.d}, p1/z, [x21, z3.d, uxtw]
 364:	0306ba7d 	.inst	0x0306ba7d ; undefined
 368:	0305821c 	.inst	0x0305821c ; undefined
 36c:	0802a503 	stlxrb	w2, w3, [x8]
 370:	4605053c 	.inst	0x4605053c ; undefined
 374:	05520005 	mov	z5.h, p2/z, #0
 378:	05830a05 	and	z5.d, z5.d, #0xffff80000000
 37c:	080f0300 	stxrb	w15, w0, [x24]
 380:	0a16053c 	and	w28, w9, w22, lsl #1
 384:	0306e808 	.inst	0x0306e808 ; undefined
 388:	03827da7 	.inst	0x03827da7 ; undefined
 38c:	054a02d9 	.inst	0x054a02d9 ; undefined
 390:	16054a0d 	b	fffffffff8152bc4 <__free_ram_end+0xffffffffb4f0ebc4>
 394:	820d054a 	.inst	0x820d054a ; undefined
 398:	054a1605 	.inst	0x054a1605 ; undefined
 39c:	1605820d 	b	fffffffff8160bd0 <__free_ram_end+0xffffffffb4f1cbd0>
 3a0:	820d054a 	.inst	0x820d054a ; undefined
 3a4:	054a1605 	.inst	0x054a1605 ; undefined
 3a8:	1605820d 	b	fffffffff8160bdc <__free_ram_end+0xffffffffb4f1cbdc>
 3ac:	820d054a 	.inst	0x820d054a ; undefined
 3b0:	054a1605 	.inst	0x054a1605 ; undefined
 3b4:	1605820d 	b	fffffffff8160be8 <__free_ram_end+0xffffffffb4f1cbe8>
 3b8:	820d054a 	.inst	0x820d054a ; undefined
 3bc:	52060905 	eor	w5, w8, #0x1c000000
 3c0:	7d9f0306 	.inst	0x7d9f0306 ; undefined
 3c4:	0605ac08 	.inst	0x0605ac08 ; undefined
 3c8:	02e70306 	.inst	0x02e70306 ; undefined
 3cc:	05014002 	orr	z2.s, z2.s, #0x1000000
 3d0:	7e890315 	.inst	0x7e890315 ; undefined
 3d4:	030b05ba 	.inst	0x030b05ba ; undefined
 3d8:	054a01fa 	.inst	0x054a01fa ; undefined
 3dc:	7e860315 	.inst	0x7e860315 ; undefined
 3e0:	030b054a 	.inst	0x030b054a ; undefined
 3e4:	054a01f7 	.inst	0x054a01f7 ; undefined
 3e8:	7e8c0314 	.inst	0x7e8c0314 ; undefined
 3ec:	030b0582 	.inst	0x030b0582 ; undefined
 3f0:	058201f4 	and	z20.d, z20.d, #0xffff
 3f4:	7e8a0310 	.inst	0x7e8a0310 ; undefined
 3f8:	4c09054a 	.inst	0x4c09054a ; undefined
 3fc:	f5030b05 	.inst	0xf5030b05 ; undefined
 400:	4c4c4a01 	.inst	0x4c4c4a01 ; undefined
 404:	054c4c4c 	.inst	0x054c4c4c ; undefined
 408:	7dff0310 	.inst	0x7dff0310 ; undefined
 40c:	4c09054a 	.inst	0x4c09054a ; undefined
 410:	0805054b 	stxrb	w5, w11, [x10]
 414:	031e05ae 	.inst	0x031e05ae ; undefined
 418:	05f201ff 	.inst	0x05f201ff ; undefined
 41c:	064a0609 	.inst	0x064a0609 ; undefined
 420:	0805054c 	stxrb	w5, w12, [x10]
 424:	850306b0 	.inst	0x850306b0 ; undefined
 428:	053c087d 	ext	z29.b, z29.b, z3.b, #226
 42c:	fd030609 	str	d9, [x16, #1544]
 430:	32058202 	orr	w2, w16, #0x8000800
 434:	490505f1 	.inst	0x490505f1 ; undefined
 438:	4008bc85 	.inst	0x4008bc85 ; undefined
 43c:	fb0306f3 	.inst	0xfb0306f3 ; undefined
 440:	15054a7c 	b	4152e30 <_binary_shell_bin_size+0x3141e30>
 444:	00f00306 	.inst	0x00f00306 ; undefined
 448:	4b1005ba 	sub	w26, w13, w16, lsl #1
 44c:	054c0905 	.inst	0x054c0905 ; undefined
 450:	09054810 	.inst	0x09054810 ; undefined
 454:	4d05054c 	.inst	0x4d05054c ; undefined
 458:	95031c05 	bl	40c746c <_binary_shell_bin_size+0x30b646c>
 45c:	0905f202 	.inst	0x0905f202 ; undefined
 460:	471c0585 	.inst	0x471c0585 ; undefined
 464:	7cf50306 	.inst	0x7cf50306 ; undefined
 468:	0625054a 	.inst	0x0625054a ; undefined
 46c:	4a038e03 	.inst	0x4a038e03 ; undefined
 470:	4a060905 	eor	w5, w8, w6, lsl #2
 474:	32054b06 	orr	w6, w24, #0xf8003fff
 478:	3c087603 	str	b3, [x16], #135
 47c:	7cfb0306 	.inst	0x7cfb0306 ; undefined
 480:	0305054a 	.inst	0x0305054a ; undefined
 484:	054a0385 	.inst	0x054a0385 ; undefined
 488:	eb030615 	subs	x21, x16, x3, lsl #1
 48c:	1005827d 	adr	x29, b4d8 <_binary_shell_bin_size-0x1005b28>
 490:	4c09054b 	.inst	0x4c09054b ; undefined
 494:	05481005 	.inst	0x05481005 ; undefined
 498:	064b4c09 	.inst	0x064b4c09 ; undefined
 49c:	087f8c03 	.inst	0x087f8c03 ; undefined
 4a0:	060505ac 	.inst	0x060505ac ; undefined
 4a4:	4a00f603 	.inst	0x4a00f603 ; undefined
 4a8:	03060005 	.inst	0x03060005 ; undefined
 4ac:	05ba7f8a 	.inst	0x05ba7f8a ; undefined
 4b0:	00f60305 	.inst	0x00f60305 ; undefined
 4b4:	9e03064a 	ucvtf	s10, x18, #63
 4b8:	03064a02 	.inst	0x03064a02 ; undefined
 4bc:	3c087cec 	str	b12, [x7, #135]!
 4c0:	03061505 	.inst	0x03061505 ; undefined
 4c4:	05ba00f0 	zip1	z16.q, z7.q, z26.q
 4c8:	09054b10 	.inst	0x09054b10 ; undefined
 4cc:	4810054c 	stxrh	w16, w12, [x10]
 4d0:	054c0905 	.inst	0x054c0905 ; undefined
 4d4:	09054d05 	.inst	0x09054d05 ; undefined
 4d8:	f202a503 	ands	x3, x8, #0xc0ffc0ffc0ffc0ff
 4dc:	3a082005 	.inst	0x3a082005 ; undefined
 4e0:	4a060505 	eor	w5, w8, w6, lsl #1
 4e4:	827ce703 	.inst	0x827ce703 ; undefined
 4e8:	03060d05 	.inst	0x03060d05 ; undefined
 4ec:	058202d9 	and	z25.d, z25.d, #0x7fffff
 4f0:	cc030b05 	.inst	0xcc030b05 ; undefined
 4f4:	0d058200 	.inst	0x0d058200 ; undefined
 4f8:	4a7fb403 	.inst	0x4a7fb403 ; undefined
 4fc:	cc030505 	.inst	0xcc030505 ; undefined
 500:	13054a00 	sbfx	w0, w16, #5, #14
 504:	4f05057d 	movi	v29.4s, #0xab
 508:	057f0e05 	ext	z5.b, {z16.b-z17.b}, #251
 50c:	0f054d05 	.inst	0x0f054d05 ; undefined
 510:	4f05057d 	movi	v29.4s, #0xab
 514:	cf030905 	.inst	0xcf030905 ; undefined
 518:	0806827d 	stlxrb	w6, w29, [x19]
 51c:	060005ac 	.inst	0x060005ac ; undefined
 520:	0802b703 	stlxrb	w2, w3, [x24]
 524:	0a1b05ac 	and	w12, w13, w27, lsl #1
 528:	4b0c05bd 	sub	w29, w13, w12, lsl #1
 52c:	05bb0505 	zip2	z5.q, z8.q, z27.q
 530:	0505490c 	.inst	0x0505490c ; undefined
 534:	d003064b 	adrp	x11, 60ca000 <_binary_shell_bin_size+0x50b9000>
 538:	0306ba7c 	.inst	0x0306ba7c ; undefined
 53c:	1505821c 	b	4160dac <_binary_shell_bin_size+0x314fdac>
 540:	0803a403 	stlxrb	w3, w3, [x0]
 544:	c003063c 	.inst	0xc003063c ; undefined
 548:	23054a7c 	.inst	0x23054a7c ; undefined
 54c:	03c70306 	.inst	0x03c70306 ; undefined
 550:	4b15054a 	sub	w10, w10, w21, lsl #1
 554:	05491105 	.inst	0x05491105 ; undefined
 558:	0d054819 	.inst	0x0d054819 ; undefined
 55c:	064a7803 	.inst	0x064a7803 ; undefined
 560:	827cc303 	.inst	0x827cc303 ; undefined
 564:	03062105 	.inst	0x03062105 ; undefined
 568:	05ba03b2 	zip1	z18.q, z29.q, z26.q
 56c:	7cea0305 	.inst	0x7cea0305 ; undefined
 570:	0312054a 	.inst	0x0312054a ; undefined
 574:	740803ba 	.inst	0x740803ba ; undefined
 578:	05470505 	.inst	0x05470505 ; undefined
 57c:	05bb7e0d 	.inst	0x05bb7e0d ; undefined
 580:	b0030600 	adrp	x0, 60c1000 <_binary_shell_bin_size+0x50b0000>
 584:	05ac087c 	uzp1	z28.q, z3.q, z12.q
 588:	030b0601 	.inst	0x030b0601 ; undefined
 58c:	054a03d9 	.inst	0x054a03d9 ; undefined
 590:	0505bc00 	.inst	0x0505bc00 ; undefined
 594:	1f05f50a 	fmsub	s10, s8, s5, s29
 598:	510505f9 	sub	w25, w15, #0x141
 59c:	9103064d 	add	x13, x18, #0xc1
 5a0:	0d05827c 	.inst	0x0d05827c ; undefined
 5a4:	03f80306 	.inst	0x03f80306 ; undefined
 5a8:	05bb3c08 	.inst	0x05bb3c08 ; undefined
 5ac:	826d0318 	.inst	0x826d0318 ; undefined
 5b0:	13030d05 	sbfx	w5, w8, #3, #1
 5b4:	f3f3bb4a 	.inst	0xf3f3bb4a ; undefined
 5b8:	03820b06 	.inst	0x03820b06 ; undefined
 5bc:	06f27c84 	.inst	0x06f27c84 ; undefined
 5c0:	03f1030b 	.inst	0x03f1030b ; undefined
 5c4:	f20e0382 	ands	x2, x28, #0x4000000040000
 5c8:	67031805 	.inst	0x67031805 ; undefined
 5cc:	030d0582 	.inst	0x030d0582 ; undefined
 5d0:	05bb4a19 	.inst	0x05bb4a19 ; undefined
 5d4:	05b00800 	uzp1	z0.q, z0.q, z16.q
 5d8:	054b0a0c 	.inst	0x054b0a0c ; undefined
 5dc:	054a0605 	.inst	0x054a0605 ; undefined
 5e0:	054d0600 	.inst	0x054d0600 ; undefined
 5e4:	054b0a0c 	.inst	0x054b0a0c ; undefined
 5e8:	054a0605 	.inst	0x054a0605 ; undefined
 5ec:	054d0600 	.inst	0x054d0600 ; undefined
 5f0:	054b0a3a 	.inst	0x054b0a3a ; undefined
 5f4:	00054b01 	.inst	0x00054b01 ; undefined
 5f8:	0a0c054c 	and	w12, w10, w12, lsl #1
 5fc:	054a7503 	.inst	0x054a7503 ; undefined
 600:	4a0c033a 	eor	w26, w25, w12
 604:	4f010546 	movi	v6.4s, #0x2a
 608:	05520005 	mov	z5.h, p2/z, #0
 60c:	75080a05 	.inst	0x75080a05 ; undefined
 610:	72033a05 	ands	w5, w16, #0xe0000fff
 614:	05053c08 	.inst	0x05053c08 ; undefined
 618:	7e4a1603 	.inst	0x7e4a1603 ; undefined
 61c:	030c054b 	.inst	0x030c054b ; undefined
 620:	05054a65 	.inst	0x05054a65 ; undefined
 624:	054a1e03 	.inst	0x054a1e03 ; undefined
 628:	0905841d 	.inst	0x0905841d ; undefined
 62c:	da030683 	.inst	0xda030683 ; undefined
 630:	1505f27b 	b	417d01c <_binary_shell_bin_size+0x316c01c>
 634:	00f00306 	.inst	0x00f00306 ; undefined
 638:	4d140582 	.inst	0x4d140582 ; undefined
 63c:	057f1505 	ext	z5.b, {z8.b-z9.b}, #253
 640:	09054b10 	.inst	0x09054b10 ; undefined
 644:	4810054c 	stxrh	w16, w12, [x10]
 648:	4b4c0905 	sub	w5, w8, w12, lsr #2
 64c:	ae080505 	.inst	0xae080505 ; undefined
 650:	f203b703 	ands	x3, x24, #0xe7ffe7ffe7ffe7ff
 654:	7bd30306 	.inst	0x7bd30306 ; undefined
 658:	063a05f2 	.inst	0x063a05f2 ; undefined
 65c:	8204bd03 	.inst	0x8204bd03 ; undefined
 660:	054a5003 	.inst	0x054a5003 ; undefined
 664:	4a340305 	eon	w5, w24, w20
 668:	4b827003 	sub	w3, w0, w2, asr #28
 66c:	054d1505 	.inst	0x054d1505 ; undefined
 670:	05054b14 	.inst	0x05054b14 ; undefined
 674:	034a0b03 	.inst	0x034a0b03 ; undefined
 678:	054b8278 	.inst	0x054b8278 ; undefined
 67c:	4a53033a 	eor	w26, w25, w19, lsr #0
 680:	31030505 	adds	w5, w8, #0xc1
 684:	054c4b4a 	.inst	0x054c4b4a ; undefined
 688:	0b064c01 	add	w1, w0, w6, lsl #19
 68c:	0600054a 	.inst	0x0600054a ; undefined
 690:	0a0505f5 	and	w21, w15, w5, lsl #1
 694:	3a057508 	.inst	0x3a057508 ; undefined
 698:	3c084603 	str	b3, [x16], #132
 69c:	3e030505 	.inst	0x3e030505 ; undefined
 6a0:	16054b4a 	b	fffffffff81533c8 <__free_ram_end+0xffffffffb4f0f3c8>
 6a4:	061b054c 	.inst	0x061b054c ; undefined
 6a8:	4a05054a 	eor	w10, w10, w5, lsl #1
 6ac:	03822705 	.inst	0x03822705 ; undefined
 6b0:	05f27bb2 	.inst	0x05f27bb2 ; undefined
 6b4:	e2030616 	.inst	0xe2030616 ; undefined
 6b8:	3a054a04 	.inst	0x3a054a04 ; undefined
 6bc:	4a7fab03 	.inst	0x4a7fab03 ; undefined
 6c0:	c5030505 	ld1sw	{z5.d}, p1/z, [x8, z3.d, uxtw]
 6c4:	054b4a00 	.inst	0x054b4a00 ; undefined
 6c8:	7fb2030c 	.inst	0x7fb2030c ; undefined
 6cc:	0343054a 	.inst	0x0343054a ; undefined
 6d0:	054a00d2 	.inst	0x054a00d2 ; undefined
 6d4:	7fb6033a 	.inst	0x7fb6033a ; undefined
 6d8:	0305054a 	.inst	0x0305054a ; undefined
 6dc:	4b4a00cb 	sub	w11, w6, w10, lsr #0
 6e0:	ac030c05 	stnp	q5, q3, [x0, #96]
 6e4:	43054a7f 	.inst	0x43054a7f ; undefined
 6e8:	4a00d803 	.inst	0x4a00d803 ; undefined
 6ec:	b0033a05 	adrp	x5, 6741000 <_binary_shell_bin_size+0x5730000>
 6f0:	05054a7f 	.inst	0x05054a7f ; undefined
 6f4:	4a00d103 	.inst	0x4a00d103 ; undefined
 6f8:	4d16054b 	.inst	0x4d16054b ; undefined
 6fc:	4a061405 	eor	w5, w0, w6, lsl #5
 700:	83060905 	.inst	0x83060905 ; undefined
 704:	a2030c05 	.inst	0xa2030c05 ; undefined
 708:	05054a7f 	.inst	0x05054a7f ; undefined
 70c:	4a00ea03 	.inst	0x4a00ea03 ; undefined
 710:	7a034305 	.inst	0x7a034305 ; undefined
 714:	033a0582 	.inst	0x033a0582 ; undefined
 718:	054a7fa4 	.inst	0x054a7fa4 ; undefined
 71c:	00dd0305 	.inst	0x00dd0305 ; undefined
 720:	0c054b4a 	.inst	0x0c054b4a ; undefined
 724:	4a7f9e03 	.inst	0x4a7f9e03 ; undefined
 728:	e5031405 	.inst	0xe5031405 ; undefined
 72c:	12054a00 	and	w0, w16, #0xf8003fff
 730:	05054a06 	.inst	0x05054a06 ; undefined
 734:	15058306 	b	416134c <_binary_shell_bin_size+0x315034c>
 738:	4a7c8103 	.inst	0x4a7c8103 ; undefined
 73c:	054d1405 	.inst	0x054d1405 ; undefined
 740:	10057f15 	adr	x21, b720 <_binary_shell_bin_size-0x10058e0>
 744:	4c09054b 	.inst	0x4c09054b ; undefined
 748:	05481005 	.inst	0x05481005 ; undefined
 74c:	034b4c09 	.inst	0x034b4c09 ; undefined
 750:	ac0803f0 	stnp	q16, q0, [sp, #256]
 754:	92030505 	and	x5, x8, #0x6000000060000000
 758:	05ac087c 	uzp1	z28.q, z3.q, z12.q
 75c:	03fc0313 	.inst	0x03fc0313 ; undefined
 760:	4b0d05f2 	sub	w18, w15, w13, lsl #1
 764:	054b0505 	.inst	0x054b0505 ; undefined
 768:	0d05b813 	.inst	0x0d05b813 ; undefined
 76c:	4b05054b 	sub	w11, w10, w5, lsl #1
 770:	01054b4b 	.inst	0x01054b4b ; undefined
 774:	1e054b0b 	.inst	0x1e054b0b ; undefined
 778:	0505f80a 	.inst	0x0505f80a ; undefined
 77c:	14054a06 	b	152f94 <_binary_shell_bin_size-0xebe06c>
 780:	1e054b06 	.inst	0x1e054b06 ; undefined
 784:	4b140549 	sub	w9, w10, w20, lsl #1
 788:	05493705 	.inst	0x05493705 ; undefined
 78c:	054b8405 	.inst	0x054b8405 ; undefined
 790:	3a054b35 	.inst	0x3a054b35 ; undefined
 794:	827f8c03 	.inst	0x827f8c03 ; undefined
 798:	f5031805 	.inst	0xf5031805 ; undefined
 79c:	01054a00 	.inst	0x01054a00 ; undefined
 7a0:	0a1005bb 	and	w27, w13, w16, lsl #1
 7a4:	0627054e 	.inst	0x0627054e ; undefined
 7a8:	4a20054a 	eon	w10, w10, w0, lsl #1
 7ac:	05820505 	and	z5.d, z5.d, #0x1ffffffffff
 7b0:	054e0600 	.inst	0x054e0600 ; undefined
 7b4:	75080a2a 	.inst	0x75080a2a ; undefined
 7b8:	7af40306 	.inst	0x7af40306 ; undefined
 7bc:	8c037408 	.inst	0x8c037408 ; undefined
 7c0:	05054a05 	.inst	0x05054a05 ; undefined
 7c4:	ba2a054a 	.inst	0xba2a054a ; undefined
 7c8:	064a0505 	.inst	0x064a0505 ; undefined
 7cc:	461f0550 	.inst	0x461f0550 ; undefined
 7d0:	054e0505 	.inst	0x054e0505 ; undefined
 7d4:	1705461f 	b	fffffffffc152050 <__free_ram_end+0xffffffffb8f0e050>
 7d8:	48130550 	stxrh	w19, w16, [x10]
 7dc:	05471f05 	.inst	0x05471f05 ; undefined
 7e0:	05834f15 	and	z21.d, z21.d, #0xffffffffff80ffff
 7e4:	19054c09 	.inst	0x19054c09 ; undefined
 7e8:	0609054b 	.inst	0x0609054b ; undefined
 7ec:	7ae8034a 	.inst	0x7ae8034a ; undefined
 7f0:	060505ba 	.inst	0x060505ba ; undefined
 7f4:	ba059d03 	.inst	0xba059d03 ; undefined
 7f8:	4a062205 	eor	w5, w16, w6, lsl #8
 7fc:	bd062e05 	str	s5, [x16, #1580]
 800:	23030505 	.inst	0x23030505 ; undefined
 804:	031f054a 	.inst	0x031f054a ; undefined
 808:	2205825b 	.inst	0x2205825b ; undefined
 80c:	4c210549 	.inst	0x4c210549 ; undefined
 810:	054b2205 	.inst	0x054b2205 ; undefined
 814:	054a0620 	.inst	0x054a0620 ; undefined
 818:	054d0605 	.inst	0x054d0605 ; undefined
 81c:	4a7a0320 	eon	w0, w25, w26, lsr #0
 820:	05503405 	mov	z5.h, p0/z, #-24576
 824:	05820624 	and	z4.d, z4.d, #0x3ffffffffffff
 828:	05500632 	mov	z18.h, p0/z, #49
 82c:	23054d26 	.inst	0x23054d26 ; undefined
 830:	054a7803 	.inst	0x054a7803 ; undefined
 834:	05054f26 	.inst	0x05054f26 ; undefined
 838:	0600054d 	.inst	0x0600054d ; undefined
 83c:	4a7ad403 	.inst	0x4a7ad403 ; undefined
 840:	ac033405 	stnp	q5, q13, [x0, #96]
 844:	24054a05 	cmpge	p5.b, p2/z, z16.b, z5.d
 848:	05857f06 	.inst	0x05857f06 ; undefined
 84c:	054b8705 	.inst	0x054b8705 ; undefined
 850:	3705f51e 	tbnz	w30, #0, ffffffffffffc6f0 <__free_ram_end+0xffffffffbcdb86f0>
 854:	05054a06 	.inst	0x05054a06 ; undefined
 858:	054b4b06 	.inst	0x054b4b06 ; undefined
 85c:	35054b14 	cbnz	w20, b1bc <_binary_shell_bin_size-0x1005e44>
 860:	47220550 	.inst	0x47220550 ; undefined
 864:	05471405 	.inst	0x05471405 ; undefined
 868:	820b0305 	.inst	0x820b0305 ; undefined
 86c:	ca033a05 	eor	x5, x16, x3, lsl #14
 870:	05054a7e 	.inst	0x05054a7e ; undefined
 874:	4a01b203 	.inst	0x4a01b203 ; undefined
 878:	15054d4b 	b	4153da4 <_binary_shell_bin_size+0x3142da4>
 87c:	0605054d 	.inst	0x0605054d ; undefined
 880:	7aba034a 	.inst	0x7aba034a ; undefined
 884:	05c60382 	.inst	0x05c60382 ; undefined
 888:	0609054a 	.inst	0x0609054a ; undefined
 88c:	4905054b 	.inst	0x4905054b ; undefined
 890:	054f0905 	.inst	0x054f0905 ; undefined
 894:	054a0612 	.inst	0x054a0612 ; undefined
 898:	0b064a09 	add	w9, w16, w6, lsl #18
 89c:	05b0084b 	uzp1	z11.q, z2.q, z16.q
 8a0:	09054b1e 	.inst	0x09054b1e ; undefined
 8a4:	bb064a06 	.inst	0xbb064a06 ; undefined
 8a8:	05f62205 	mov	z5.h, z16.h[29]
 8ac:	064b0b01 	.inst	0x064b0b01 ; undefined
 8b0:	4a7aa903 	.inst	0x4a7aa903 ; undefined
 8b4:	4a05d703 	.inst	0x4a05d703 ; undefined
 8b8:	49061405 	.inst	0x49061405 ; undefined
 8bc:	054b0105 	.inst	0x054b0105 ; undefined
 8c0:	ba330300 	.inst	0xba330300 ; undefined
 8c4:	f30a0505 	.inst	0xf30a0505 ; undefined
 8c8:	087abf03 	.inst	0x087abf03 ; undefined
 8cc:	4b1d05ac 	sub	w12, w13, w29, lsl #1
 8d0:	064c0905 	.inst	0x064c0905 ; undefined
 8d4:	827fb303 	.inst	0x827fb303 ; undefined
 8d8:	03060505 	.inst	0x03060505 ; undefined
 8dc:	c28200d2 	.inst	0xc28200d2 ; undefined
 8e0:	a203064e 	.inst	0xa203064e ; undefined
 8e4:	03064a7f 	.inst	0x03064a7f ; undefined
 8e8:	054a00ea 	.inst	0x054a00ea ; undefined
 8ec:	8278030b 	.inst	0x8278030b ; undefined
 8f0:	894b0505 	.inst	0x894b0505 ; undefined
 8f4:	7f960306 	.inst	0x7f960306 ; undefined
 8f8:	0609054a 	.inst	0x0609054a ; undefined
 8fc:	4a00ce03 	.inst	0x4a00ce03 ; undefined
 900:	e9030505 	.inst	0xe9030505 ; undefined
 904:	f34cba05 	.inst	0xf34cba05 ; undefined
 908:	0205f3f4 	.inst	0x0205f3f4 ; undefined
 90c:	001c02f4 	.inst	0x001c02f4 ; undefined
 910:	00040101 	.inst	0x00040101 ; undefined
 914:	000a0505 	.inst	0x000a0505 ; undefined
 918:	00000209 	udf	#521
 91c:	00004020 	udf	#16416
 920:	c7030000 	.inst	0xc7030000 ; undefined
 924:	18020106 	ldr	w6, 4944 <_binary_shell_bin_size-0x100c6bc>
 928:	04010100 	sub	z0.b, p0/m, z0.b, z8.b
 92c:	05000002 	orr	z2.s, z2.s, #0x1
 930:	50000800 	adr	x0, a32 <_binary_shell_bin_size-0x10105ce>
 934:	01000000 	.inst	0x01000000 ; undefined
 938:	0efb0101 	.inst	0x0efb0101 ; undefined
 93c:	0101000d 	.inst	0x0101000d ; undefined
 940:	00000101 	udf	#257
 944:	00000100 	udf	#256
 948:	1f010101 	fmadd	s1, s8, s1, s0
 94c:	00000902 	udf	#2306
 950:	00004700 	udf	#18176
 954:	1f010300 	fmadd	s0, s24, s1, s0
 958:	1e050f02 	.inst	0x1e050f02 ; undefined
 95c:	00003e02 	udf	#15874
 960:	8ac70000 	and	x0, x0, x7, ror #0
 964:	f5e118f3 	.inst	0xf5e118f3 ; undefined
 968:	99c80d0e 	.inst	0x99c80d0e ; undefined
 96c:	09de0812 	.inst	0x09de0812 ; undefined
 970:	0057c361 	.inst	0x0057c361 ; undefined
 974:	cf010000 	.inst	0xcf010000 ; undefined
 978:	82e0269f 	.inst	0x82e0269f ; undefined
 97c:	4dc14b14 	ld1	{v20.h}[5], [x24], x1
 980:	77248d0d 	.inst	0x77248d0d ; undefined
 984:	04dff952 	msb	z18.d, p6/m, z31.d, z10.d
 988:	0a050500 	and	w0, w8, w5, lsl #1
 98c:	74020900 	.inst	0x74020900 ; undefined
 990:	00402012 	.inst	0x00402012 ; undefined
 994:	19000000 	stlurb	w0, [x0]
 998:	02780306 	.inst	0x02780306 ; undefined
 99c:	44080124 	.inst	0x44080124 ; undefined
 9a0:	f3061005 	.inst	0xf3061005 ; undefined
 9a4:	ba060e05 	.inst	0xba060e05 ; undefined
 9a8:	b9060505 	str	w5, [x8, #1540]
 9ac:	2c021005 	stnp	s5, s4, [x0, #16]
 9b0:	060e0513 	.inst	0x060e0513 ; undefined
 9b4:	06050582 	.inst	0x06050582 ; undefined
 9b8:	78030681 	strh	w1, [x20], #48
 9bc:	061005ba 	.inst	0x061005ba ; undefined
 9c0:	05ba0903 	uzp1	z3.q, z8.q, z26.q
 9c4:	0e05490d 	.inst	0x0e05490d ; undefined
 9c8:	4905054b 	.inst	0x4905054b ; undefined
 9cc:	064f0a4c 	.inst	0x064f0a4c ; undefined
 9d0:	03ba7103 	.inst	0x03ba7103 ; undefined
 9d4:	7103820f 	subs	w15, w16, #0xe0
 9d8:	820f03ba 	.inst	0x820f03ba ; undefined
 9dc:	f3060e05 	.inst	0xf3060e05 ; undefined
 9e0:	06f10505 	.inst	0x06f10505 ; undefined
 9e4:	28027103 	stnp	w3, w28, [x8, #16]
 9e8:	060e0501 	.inst	0x060e0501 ; undefined
 9ec:	054a1003 	.inst	0x054a1003 ; undefined
 9f0:	03068105 	.inst	0x03068105 ; undefined
 9f4:	0d05ba71 	.inst	0x0d05ba71 ; undefined
 9f8:	05820f03 	and	z3.d, z3.d, #0x80ffffffffffffff
 9fc:	054b060e 	.inst	0x054b060e ; undefined
 a00:	054c4905 	.inst	0x054c4905 ; undefined
 a04:	054f0a0c 	.inst	0x054f0a0c ; undefined
 a08:	05820605 	and	z5.d, z5.d, #0x1ffffffffffff
 a0c:	05bb060e 	zip2	z14.q, z16.q, z27.q
 a10:	0505490c 	.inst	0x0505490c ; undefined
 a14:	08054a06 	stxrb	w5, w6, [x16]
 a18:	05054c06 	.inst	0x05054c06 ; undefined
 a1c:	0a0c054b 	and	w11, w10, w12, lsl #1
 a20:	0610054e 	.inst	0x0610054e ; undefined
 a24:	4a05054a 	eor	w10, w10, w5, lsl #1
 a28:	054a1305 	.inst	0x054a1305 ; undefined
 a2c:	0c054a05 	.inst	0x0c054a05 ; undefined
 a30:	060b0582 	.inst	0x060b0582 ; undefined
 a34:	4610054e 	.inst	0x4610054e ; undefined
 a38:	05512305 	mov	z5.h, p1/z, #6144
 a3c:	054a0621 	.inst	0x054a0621 ; undefined
 a40:	00054a05 	.inst	0x00054a05 ; undefined
 a44:	05054d06 	.inst	0x05054d06 ; undefined
 a48:	142c020a 	b	b01270 <_binary_shell_bin_size-0x50fd90>
 a4c:	4c020d05 	.inst	0x4c020d05 ; undefined
 a50:	030c0517 	.inst	0x030c0517 ; undefined
 a54:	44034a39 	.inst	0x44034a39 ; undefined
 a58:	0605054a 	.inst	0x0605054a ; undefined
 a5c:	0300054a 	.inst	0x0300054a ; undefined
 a60:	0c05ba55 	.inst	0x0c05ba55 ; undefined
 a64:	00e70306 	.inst	0x00e70306 ; undefined
 a68:	9903064a 	.inst	0x9903064a ; undefined
 a6c:	15054a7f 	b	4153468 <_binary_shell_bin_size+0x3142468>
 a70:	4a2e0306 	eon	w6, w24, w14
 a74:	4a060d05 	eor	w5, w8, w6, lsl #3
 a78:	03062105 	.inst	0x03062105 ; undefined
 a7c:	06740810 	.inst	0x06740810 ; undefined
 a80:	24024203 	cmpge	p3.b, p0/z, z16.b, z2.d
 a84:	060d0501 	.inst	0x060d0501 ; undefined
 a88:	05822e03 	and	z3.d, z3.d, #0xf8000fffffffffff
 a8c:	f2290321 	ands	x1, x25, #0x80000000800000
 a90:	5f032505 	.inst	0x5f032505 ; undefined
 a94:	05012402 	orr	z2.h, z2.h, #0x1000
 a98:	1a240221 	.inst	0x1a240221 ; undefined
 a9c:	4bf41905 	.inst	0x4bf41905 ; undefined
 aa0:	06832505 	.inst	0x06832505 ; undefined
 aa4:	4a7fbe03 	.inst	0x4a7fbe03 ; undefined
 aa8:	03061505 	.inst	0x03061505 ; undefined
 aac:	054a00c6 	.inst	0x054a00c6 ; undefined
 ab0:	26058321 	.inst	0x26058321 ; undefined
 ab4:	06150581 	.inst	0x06150581 ; undefined
 ab8:	0631054a 	.inst	0x0631054a ; undefined
 abc:	06210586 	.inst	0x06210586 ; undefined
 ac0:	4a19054a 	eor	w10, w10, w25, lsl #1
 ac4:	4c062105 	.inst	0x4c062105 ; undefined
 ac8:	05471505 	.inst	0x05471505 ; undefined
 acc:	03068521 	.inst	0x03068521 ; undefined
 ad0:	054a7fb4 	.inst	0x054a7fb4 ; undefined
 ad4:	c9030615 	.inst	0xc9030615 ; undefined
 ad8:	25054a00 	eor	p0.b, p2/z, p0.b, p5.b
 adc:	05826d03 	and	z3.d, z3.d, #0xfff800000fffffff
 ae0:	1505f31c 	b	417d750 <_binary_shell_bin_size+0x316c750>
 ae4:	19054a06 	.inst	0x19054a06 ; undefined
 ae8:	1c058306 	ldr	s6, bb48 <_binary_shell_bin_size-0x10054b8>
 aec:	06150549 	.inst	0x06150549 ; undefined
 af0:	0621054a 	.inst	0x0621054a ; undefined
 af4:	06822003 	.inst	0x06822003 ; undefined
 af8:	f27fa903 	ands	x3, x8, #0xffffffffffe
 afc:	03061205 	.inst	0x03061205 ; undefined
 b00:	05ba00dc 	zip1	z28.q, z6.q, z26.q
 b04:	034a060a 	.inst	0x034a060a ; undefined
 b08:	05827fa4 	and	z4.d, z4.d, #0xfffe7fffffffffff
 b0c:	d9030619 	.inst	0xd9030619 ; undefined
 b10:	06054a00 	.inst	0x06054a00 ; undefined
 b14:	21054a06 	.inst	0x21054a06 ; undefined
 b18:	13058306 	.inst	0x13058306 ; undefined
 b1c:	a503064b 	ld1rqw	{z11.s}, p1/z, [x18, x3, lsl #2]
 b20:	15054a7f 	b	415351c <_binary_shell_bin_size+0x314251c>
 b24:	f2300306 	ands	x6, x24, #0x1000000010000
 b28:	030b0105 	.inst	0x030b0105 ; undefined
 b2c:	1c02823c 	ldr	s28, 5b70 <_binary_shell_bin_size-0x100b490>
 b30:	8c010100 	.inst	0x8c010100 ; undefined
 b34:	05000000 	orr	z0.s, z0.s, #0x1
 b38:	37000800 	tbnz	w0, #0, c38 <_binary_shell_bin_size-0x10103c8>
 b3c:	01000000 	.inst	0x01000000 ; undefined
 b40:	0efb0101 	.inst	0x0efb0101 ; undefined
 b44:	0101000d 	.inst	0x0101000d ; undefined
 b48:	00000101 	udf	#257
 b4c:	00000100 	udf	#256
 b50:	1f010101 	fmadd	s1, s8, s1, s0
 b54:	00000901 	udf	#2305
 b58:	1f010300 	fmadd	s0, s24, s1, s0
 b5c:	1e050f02 	.inst	0x1e050f02 ; undefined
 b60:	00004901 	udf	#18689
 b64:	79bc0000 	ldrsh	x0, [x0, #7680]
 b68:	edb745be 	.inst	0xedb745be ; undefined
 b6c:	e095bcd9 	.inst	0xe095bcd9 ; undefined
 b70:	fb48f363 	.inst	0xfb48f363 ; undefined
 b74:	000434bd 	.inst	0x000434bd ; undefined
 b78:	78020900 	sttrh	w0, [x8, #32]
 b7c:	00402016 	.inst	0x00402016 ; undefined
 b80:	16000000 	b	fffffffff8000b80 <__free_ram_end+0xffffffffb4dbcb80>
 b84:	4b4b4b4e 	sub	w14, w26, w11, lsr #18
 b88:	4b4b4b4b 	sub	w11, w26, w11, lsr #18
 b8c:	4b4b4b4b 	sub	w11, w26, w11, lsr #18
 b90:	4b4b4b4b 	sub	w11, w26, w11, lsr #18
 b94:	4b4b4b4b 	sub	w11, w26, w11, lsr #18
 b98:	4b4d4b4f 	sub	w15, w26, w13, lsr #18
 b9c:	4b4b4b4b 	sub	w11, w26, w11, lsr #18
 ba0:	4b4b4b4b 	sub	w11, w26, w11, lsr #18
 ba4:	4b4b4b4b 	sub	w11, w26, w11, lsr #18
 ba8:	4b4b4b4b 	sub	w11, w26, w11, lsr #18
 bac:	4b4b4b4b 	sub	w11, w26, w11, lsr #18
 bb0:	4b4e4b4e 	sub	w14, w26, w14, lsr #18
 bb4:	4b4e4b4e 	sub	w14, w26, w14, lsr #18
 bb8:	4b4e4b4e 	sub	w14, w26, w14, lsr #18
 bbc:	04024b4e 	mla	z14.b, p2/m, z26.b, z2.b
 bc0:	8e010100 	.inst	0x8e010100 ; undefined
 bc4:	05000000 	orr	z0.s, z0.s, #0x1
 bc8:	37000800 	tbnz	w0, #0, cc8 <_binary_shell_bin_size-0x1010338>
 bcc:	01000000 	.inst	0x01000000 ; undefined
 bd0:	0efb0101 	.inst	0x0efb0101 ; undefined
 bd4:	0101000d 	.inst	0x0101000d ; undefined
 bd8:	00000101 	udf	#257
 bdc:	00000100 	udf	#256
 be0:	1f010101 	fmadd	s1, s8, s1, s0
 be4:	00000901 	udf	#2305
 be8:	1f010300 	fmadd	s0, s24, s1, s0
 bec:	1e050f02 	.inst	0x1e050f02 ; undefined
 bf0:	00002f01 	udf	#12033
 bf4:	59800000 	ldapursh	x0, [x0]
 bf8:	0b65af51 	.inst	0x0b65af51 ; undefined
 bfc:	046aacc4 	adr	z4.d, [z6.d, z10.d, uxtw #3]
 c00:	b0abeaae 	adrp	x14, ffffffff57d55000 <__free_ram_end+0xffffffff14b11000>
 c04:	00044d7a 	.inst	0x00044d7a ; undefined
 c08:	00020900 	.inst	0x00020900 ; undefined
 c0c:	00402020 	.inst	0x00402020 ; undefined
 c10:	18000000 	ldr	w0, c10 <_binary_shell_bin_size-0x10103f0>
 c14:	14018002 	b	60c1c <_binary_shell_bin_size-0xfb03e4>
 c18:	14018002 	b	60c20 <_binary_shell_bin_size-0xfb03e0>
 c1c:	14018002 	b	60c24 <_binary_shell_bin_size-0xfb03dc>
 c20:	16018002 	b	fffffffff8060c28 <__free_ram_end+0xffffffffb4e1cc28>
 c24:	14018002 	b	60c2c <_binary_shell_bin_size-0xfb03d4>
 c28:	14018002 	b	60c30 <_binary_shell_bin_size-0xfb03d0>
 c2c:	14018002 	b	60c34 <_binary_shell_bin_size-0xfb03cc>
 c30:	16018002 	b	fffffffff8060c38 <__free_ram_end+0xffffffffb4e1cc38>
 c34:	14018002 	b	60c3c <_binary_shell_bin_size-0xfb03c4>
 c38:	14018002 	b	60c40 <_binary_shell_bin_size-0xfb03c0>
 c3c:	14018002 	b	60c44 <_binary_shell_bin_size-0xfb03bc>
 c40:	16018002 	b	fffffffff8060c48 <__free_ram_end+0xffffffffb4e1cc48>
 c44:	14018002 	b	60c4c <_binary_shell_bin_size-0xfb03b4>
 c48:	14018002 	b	60c50 <_binary_shell_bin_size-0xfb03b0>
 c4c:	14018002 	b	60c54 <_binary_shell_bin_size-0xfb03ac>
 c50:	01000402 	.inst	0x01000402 ; undefined
 c54:	00009c01 	udf	#39937
 c58:	08000500 	stxrb	w0, w0, [x8]
 c5c:	00005000 	udf	#20480
 c60:	01010100 	.inst	0x01010100 ; undefined
 c64:	000d0efb 	.inst	0x000d0efb ; undefined
 c68:	01010101 	.inst	0x01010101 ; undefined
 c6c:	01000000 	.inst	0x01000000 ; undefined
 c70:	01010000 	.inst	0x01010000 ; undefined
 c74:	09021f01 	.inst	0x09021f01 ; undefined
 c78:	47000000 	.inst	0x47000000 ; undefined
 c7c:	03000000 	.inst	0x03000000 ; undefined
 c80:	0f021f01 	.inst	0x0f021f01 ; undefined
 c84:	50021e05 	adr	x5, 5046 <_binary_shell_bin_size-0x100bfba>
 c88:	00000000 	udf	#0
 c8c:	e9e984e1 	.inst	0xe9e984e1 ; undefined
 c90:	c1538c3d 	suvdot	za.s[w8, 5, vgx4], {z0.b-z3.b}, z3.b[3]
 c94:	0e3201cd 	saddl	v13.8h, v14.8b, v18.8b
 c98:	925083b3 	and	x19, x29, #0xffff00000001ffff
 c9c:	00000057 	udf	#87
 ca0:	269fcf01 	.inst	0x269fcf01 ; undefined
 ca4:	4b1482e0 	.inst	0x4b1482e0 ; undefined
 ca8:	8d0d4dc1 	.inst	0x8d0d4dc1 ; undefined
 cac:	f9527724 	ldr	x4, [x25, #9448]
 cb0:	000004df 	udf	#1247
 cb4:	17640209 	b	fffffffffd9014d8 <__free_ram_end+0xffffffffba6bd4d8>
 cb8:	00004020 	udf	#16416
 cbc:	05150000 	mov	z0.b, p5/z, #0
 cc0:	3f080a1f 	.inst	0x3f080a1f ; undefined
 cc4:	f3520505 	.inst	0xf3520505 ; undefined
 cc8:	05f3f3f3 	mov	z19.d, p12/m, z31.d
 ccc:	82770319 	.inst	0x82770319 ; undefined
 cd0:	09030505 	.inst	0x09030505 ; undefined
 cd4:	18054b4a 	ldr	w10, b63c <_binary_shell_bin_size-0x10059c4>
 cd8:	05827903 	and	z3.d, z3.d, #0x3fe000000000000
 cdc:	0a4b5105 	and	w5, w8, w11, lsr #20
 ce0:	500ab108 	adr	x8, 16302 <_binary_shell_bin_size-0xffacfe>
 ce4:	500a500a 	adr	x10, 156e6 <_binary_shell_bin_size-0xffb91a>
 ce8:	500a510a 	adr	x10, 1570a <_binary_shell_bin_size-0xffb8f6>
 cec:	500a500a 	adr	x10, 156ee <_binary_shell_bin_size-0xffb912>
 cf0:	01000402 	.inst	0x01000402 ; undefined
 cf4:	Address 0xcf4 is out of bounds.


Disassembly of section .debug_line_str:

0000000000000000 <.debug_line_str>:
   0:	6e72656b 	umax	v11.8h, v11.8h, v18.8h
   4:	632e6c65 	.inst	0x632e6c65 ; undefined
   8:	6f682f00 	.inst	0x6f682f00 ; undefined
   c:	722f656d 	ands	w13, w11, #0xfffe07ff
  10:	7469686f 	.inst	0x7469686f ; undefined
  14:	75662f68 	.inst	0x75662f68 ; undefined
  18:	694d2f6e 	ldpsw	x14, x11, [x27, #104]
  1c:	4f2d696e 	.inst	0x4f2d696e ; undefined
  20:	65642d53 	fmls	z19.h, p3/m, z10.h, z4.h
  24:	656b0076 	fmla	z22.h, p0/m, z3.h, z11.h
  28:	6c656e72 	ldnp	d18, d27, [x19, #-432]
  2c:	7600682e 	.inst	0x7600682e ; undefined
  30:	6f746365 	umlsl2	v5.4s, v27.8h, v4.h[3]
  34:	61745f72 	.inst	0x61745f72 ; undefined
  38:	2e656c62 	umin	v2.4h, v3.4h, v5.4h
  3c:	6f630073 	mla	v19.8h, v3.8h, v3.h[2]
  40:	6e6f6d6d 	umin	v13.8h, v11.8h, v15.8h
  44:	2e00632e 	.inst	0x2e00632e ; undefined
  48:	63657600 	.inst	0x63657600 ; undefined
  4c:	00732e74 	.inst	0x00732e74 ; undefined
  50:	74636576 	.inst	0x74636576 ; undefined
  54:	6300632e 	.inst	0x6300632e ; undefined
  58:	6f6d6d6f 	.inst	0x6f6d6d6f ; undefined
  5c:	00682e6e 	.inst	0x00682e6e ; undefined

Disassembly of section .debug_aranges:

0000000000000000 <.debug_aranges>:
   0:	0000002c 	udf	#44
   4:	18f70002 	ldr	w2, fffffffffffee004 <__free_ram_end+0xffffffffbcdaa004>
   8:	00080000 	.inst	0x00080000 ; undefined
   c:	00000000 	udf	#0
  10:	40201678 	.inst	0x40201678 ; undefined
  14:	00000000 	udf	#0
  18:	000000ec 	udf	#236
	...
  30:	0000002c 	udf	#44
  34:	1a760002 	.inst	0x1a760002 ; undefined
  38:	00080000 	.inst	0x00080000 ; undefined
  3c:	00000000 	udf	#0
  40:	40202000 	.inst	0x40202000 ; undefined
  44:	00000000 	udf	#0
  48:	00000784 	udf	#1924
	...
