
kernel.elf:     file format elf64-littleaarch64


Disassembly of section .text:

0000000040200000 <boot>:
    40200000:	f0008208 	adrp	x8, 41243000 <__bss_end+0x1fb08>
    40200004:	91140108 	add	x8, x8, #0x500
    40200008:	d2800002 	mov	x2, #0x0                   	// #0
    4020000c:	d5184202 	msr	spsel, x2
    40200010:	9100011f 	mov	sp, x8
    40200014:	94000434 	bl	402010e4 <kernel_main>

0000000040200018 <uboot_call>:
    40200018:	d10043ff 	sub	sp, sp, #0x10
    4020001c:	390033e1 	strb	w1, [sp, #12]
    40200020:	910033e1 	add	x1, sp, #0xc
    40200024:	aa0303e7 	mov	x7, x3
    40200028:	d45e0000 	hlt	#0xf000
    4020002c:	910043ff 	add	sp, sp, #0x10
    40200030:	d65f03c0 	ret

0000000040200034 <putchar>:
    40200034:	d10043ff 	sub	sp, sp, #0x10
    40200038:	390033e0 	strb	w0, [sp, #12]
    4020003c:	52800060 	mov	w0, #0x3                   	// #3
    40200040:	910033e1 	add	x1, sp, #0xc
    40200044:	52800022 	mov	w2, #0x1                   	// #1
    40200048:	52800807 	mov	w7, #0x40                  	// #64
    4020004c:	d45e0000 	hlt	#0xf000
    40200050:	910043ff 	add	sp, sp, #0x10
    40200054:	d65f03c0 	ret

0000000040200058 <getchar>:
    40200058:	d10043ff 	sub	sp, sp, #0x10
    4020005c:	390033ff 	strb	wzr, [sp, #12]
    40200060:	52800060 	mov	w0, #0x3                   	// #3
    40200064:	910033e1 	add	x1, sp, #0xc
    40200068:	aa1f03e2 	mov	x2, xzr
    4020006c:	52800807 	mov	w7, #0x40                  	// #64
    40200070:	d45e0000 	hlt	#0xf000
    40200074:	f100001f 	cmp	x0, #0x0
    40200078:	5a9f03e0 	csetm	w0, ne	// ne = any
    4020007c:	910043ff 	add	sp, sp, #0x10
    40200080:	d65f03c0 	ret

0000000040200084 <setup_vect>:
    40200084:	52a8e028 	mov	w8, #0x47010000            	// #1191247872
    40200088:	1000bbc0 	adr	x0, 40201800 <_vector_table>
    4020008c:	d518c000 	msr	vbar_el1, x0
    40200090:	9100011f 	mov	sp, x8
    40200094:	d5033fdf 	isb
    40200098:	d65f03c0 	ret

000000004020009c <init_exceptions>:
    4020009c:	d5384248 	mrs	x8, currentel
    402000a0:	d342fd01 	lsr	x1, x8, #2
    402000a4:	f100043f 	cmp	x1, #0x1
    402000a8:	54000241 	b.ne	402000f0 <init_exceptions+0x54>  // b.any
    402000ac:	a9bf7bfd 	stp	x29, x30, [sp, #-16]!
    402000b0:	910003fd 	mov	x29, sp
    402000b4:	5286a208 	mov	w8, #0x3510                	// #13584
    402000b8:	52801fe9 	mov	w9, #0xff                  	// #255
    402000bc:	d518a209 	msr	mair_el1, x9
    402000c0:	d5182048 	msr	tcr_el1, x8
    402000c4:	d5033fdf 	isb
    402000c8:	97ffffef 	bl	40200084 <setup_vect>
    402000cc:	d5381008 	mrs	x8, sctlr_el1
    402000d0:	528201a9 	mov	w9, #0x100d                	// #4109
    402000d4:	d0000000 	adrp	x0, 40202000 <_vector_table+0x800>
    402000d8:	91047800 	add	x0, x0, #0x11e
    402000dc:	aa090108 	orr	x8, x8, x9
    402000e0:	d5181008 	msr	sctlr_el1, x8
    402000e4:	d5033fdf 	isb
    402000e8:	a8c17bfd 	ldp	x29, x30, [sp], #16
    402000ec:	140004a7 	b	40201388 <printf>
    402000f0:	d503201f 	nop
    402000f4:	50010440 	adr	x0, 4020217e <_vector_table+0x97e>
    402000f8:	140004a4 	b	40201388 <printf>

00000000402000fc <alloc_pages>:
    402000fc:	a9be7bfd 	stp	x29, x30, [sp, #-32]!
    40200100:	f9000bf3 	str	x19, [sp, #16]
    40200104:	910003fd 	mov	x29, sp
    40200108:	d0000008 	adrp	x8, 40202000 <_vector_table+0x800>
    4020010c:	53144c02 	lsl	w2, w0, #12
    40200110:	9001822a 	adrp	x10, 43244000 <__free_ram_end>
    40200114:	9100014a 	add	x10, x10, #0x0
    40200118:	f941d113 	ldr	x19, [x8, #928]
    4020011c:	8b020269 	add	x9, x19, x2
    40200120:	eb0a013f 	cmp	x9, x10
    40200124:	f901d109 	str	x9, [x8, #928]
    40200128:	54000109 	b.ls	40200148 <alloc_pages+0x4c>  // b.plast
    4020012c:	d0000000 	adrp	x0, 40202000 <_vector_table+0x800>
    40200130:	9104f800 	add	x0, x0, #0x13e
    40200134:	b0000001 	adrp	x1, 40201000 <read_write_disk+0x84>
    40200138:	913e4021 	add	x1, x1, #0xf90
    4020013c:	52800e82 	mov	w2, #0x74                  	// #116
    40200140:	94000492 	bl	40201388 <printf>
    40200144:	14000000 	b	40200144 <alloc_pages+0x48>
    40200148:	aa1303e0 	mov	x0, x19
    4020014c:	2a1f03e1 	mov	w1, wzr
    40200150:	94000450 	bl	40201290 <memset>
    40200154:	aa1303e0 	mov	x0, x19
    40200158:	f9400bf3 	ldr	x19, [sp, #16]
    4020015c:	a8c27bfd 	ldp	x29, x30, [sp], #32
    40200160:	d65f03c0 	ret

0000000040200164 <map_page>:
    40200164:	a9bc7bfd 	stp	x29, x30, [sp, #-64]!
    40200168:	a9015ff8 	stp	x24, x23, [sp, #16]
    4020016c:	a90257f6 	stp	x22, x21, [sp, #32]
    40200170:	a9034ff4 	stp	x20, x19, [sp, #48]
    40200174:	910003fd 	mov	x29, sp
    40200178:	aa0103f3 	mov	x19, x1
    4020017c:	f2402c3f 	tst	x1, #0xfff
    40200180:	54000120 	b.eq	402001a4 <map_page+0x40>  // b.none
    40200184:	d0000000 	adrp	x0, 40202000 <_vector_table+0x800>
    40200188:	91056c00 	add	x0, x0, #0x15b
    4020018c:	b0000001 	adrp	x1, 40201000 <read_write_disk+0x84>
    40200190:	913e4021 	add	x1, x1, #0xf90
    40200194:	52800f82 	mov	w2, #0x7c                  	// #124
    40200198:	aa1303e3 	mov	x3, x19
    4020019c:	9400047b 	bl	40201388 <printf>
    402001a0:	14000000 	b	402001a0 <map_page+0x3c>
    402001a4:	f2402c5f 	tst	x2, #0xfff
    402001a8:	54000120 	b.eq	402001cc <map_page+0x68>  // b.none
    402001ac:	d0000000 	adrp	x0, 40202000 <_vector_table+0x800>
    402001b0:	9100fc00 	add	x0, x0, #0x3f
    402001b4:	b0000001 	adrp	x1, 40201000 <read_write_disk+0x84>
    402001b8:	913e4021 	add	x1, x1, #0xf90
    402001bc:	aa0203e3 	mov	x3, x2
    402001c0:	52800fc2 	mov	w2, #0x7e                  	// #126
    402001c4:	94000471 	bl	40201388 <printf>
    402001c8:	14000000 	b	402001c8 <map_page+0x64>
    402001cc:	d367be75 	ubfx	x21, x19, #39, #9
    402001d0:	f8757808 	ldr	x8, [x0, x21, lsl #3]
    402001d4:	37000408 	tbnz	w8, #0, 40200254 <map_page+0xf0>
    402001d8:	d0000008 	adrp	x8, 40202000 <_vector_table+0x800>
    402001dc:	9001822a 	adrp	x10, 43244000 <__free_ram_end>
    402001e0:	9100014a 	add	x10, x10, #0x0
    402001e4:	f941d114 	ldr	x20, [x8, #928]
    402001e8:	91400689 	add	x9, x20, #0x1, lsl #12
    402001ec:	eb0a013f 	cmp	x9, x10
    402001f0:	f901d109 	str	x9, [x8, #928]
    402001f4:	54000109 	b.ls	40200214 <map_page+0xb0>  // b.plast
    402001f8:	d0000000 	adrp	x0, 40202000 <_vector_table+0x800>
    402001fc:	9104f800 	add	x0, x0, #0x13e
    40200200:	b0000001 	adrp	x1, 40201000 <read_write_disk+0x84>
    40200204:	913e4021 	add	x1, x1, #0xf90
    40200208:	52800e82 	mov	w2, #0x74                  	// #116
    4020020c:	9400045f 	bl	40201388 <printf>
    40200210:	14000000 	b	40200210 <map_page+0xac>
    40200214:	aa0003f8 	mov	x24, x0
    40200218:	aa1403e0 	mov	x0, x20
    4020021c:	2a1f03e1 	mov	w1, wzr
    40200220:	aa0203f6 	mov	x22, x2
    40200224:	52820002 	mov	w2, #0x1000                	// #4096
    40200228:	aa0303f7 	mov	x23, x3
    4020022c:	94000419 	bl	40201290 <memset>
    40200230:	aa1403e0 	mov	x0, x20
    40200234:	2a1f03e1 	mov	w1, wzr
    40200238:	52820002 	mov	w2, #0x1000                	// #4096
    4020023c:	94000415 	bl	40201290 <memset>
    40200240:	9274ce88 	and	x8, x20, #0xfffffffffffff000
    40200244:	aa1703e3 	mov	x3, x23
    40200248:	aa1603e2 	mov	x2, x22
    4020024c:	b2400508 	orr	x8, x8, #0x3
    40200250:	f8357b08 	str	x8, [x24, x21, lsl #3]
    40200254:	9274cd15 	and	x21, x8, #0xfffffffffffff000
    40200258:	d35efe68 	lsr	x8, x19, #30
    4020025c:	aa1503e9 	mov	x9, x21
    40200260:	b37d2109 	bfi	x9, x8, #3, #9
    40200264:	f9400128 	ldr	x8, [x9]
    40200268:	37000408 	tbnz	w8, #0, 402002e8 <map_page+0x184>
    4020026c:	d0000008 	adrp	x8, 40202000 <_vector_table+0x800>
    40200270:	9001822a 	adrp	x10, 43244000 <__free_ram_end>
    40200274:	9100014a 	add	x10, x10, #0x0
    40200278:	f941d114 	ldr	x20, [x8, #928]
    4020027c:	91400689 	add	x9, x20, #0x1, lsl #12
    40200280:	eb0a013f 	cmp	x9, x10
    40200284:	f901d109 	str	x9, [x8, #928]
    40200288:	54000109 	b.ls	402002a8 <map_page+0x144>  // b.plast
    4020028c:	d0000000 	adrp	x0, 40202000 <_vector_table+0x800>
    40200290:	9104f800 	add	x0, x0, #0x13e
    40200294:	b0000001 	adrp	x1, 40201000 <read_write_disk+0x84>
    40200298:	913e4021 	add	x1, x1, #0xf90
    4020029c:	52800e82 	mov	w2, #0x74                  	// #116
    402002a0:	9400043a 	bl	40201388 <printf>
    402002a4:	14000000 	b	402002a4 <map_page+0x140>
    402002a8:	aa1403e0 	mov	x0, x20
    402002ac:	2a1f03e1 	mov	w1, wzr
    402002b0:	aa0203f6 	mov	x22, x2
    402002b4:	52820002 	mov	w2, #0x1000                	// #4096
    402002b8:	d35e9a78 	ubfx	x24, x19, #30, #9
    402002bc:	aa0303f7 	mov	x23, x3
    402002c0:	940003f4 	bl	40201290 <memset>
    402002c4:	aa1403e0 	mov	x0, x20
    402002c8:	2a1f03e1 	mov	w1, wzr
    402002cc:	52820002 	mov	w2, #0x1000                	// #4096
    402002d0:	940003f0 	bl	40201290 <memset>
    402002d4:	9274ce88 	and	x8, x20, #0xfffffffffffff000
    402002d8:	aa1703e3 	mov	x3, x23
    402002dc:	aa1603e2 	mov	x2, x22
    402002e0:	b2400508 	orr	x8, x8, #0x3
    402002e4:	f8387aa8 	str	x8, [x21, x24, lsl #3]
    402002e8:	9274cd15 	and	x21, x8, #0xfffffffffffff000
    402002ec:	d355fe68 	lsr	x8, x19, #21
    402002f0:	aa1503e9 	mov	x9, x21
    402002f4:	b37d2109 	bfi	x9, x8, #3, #9
    402002f8:	f9400128 	ldr	x8, [x9]
    402002fc:	37000408 	tbnz	w8, #0, 4020037c <map_page+0x218>
    40200300:	d0000008 	adrp	x8, 40202000 <_vector_table+0x800>
    40200304:	9001822a 	adrp	x10, 43244000 <__free_ram_end>
    40200308:	9100014a 	add	x10, x10, #0x0
    4020030c:	f941d114 	ldr	x20, [x8, #928]
    40200310:	91400689 	add	x9, x20, #0x1, lsl #12
    40200314:	eb0a013f 	cmp	x9, x10
    40200318:	f901d109 	str	x9, [x8, #928]
    4020031c:	54000109 	b.ls	4020033c <map_page+0x1d8>  // b.plast
    40200320:	d0000000 	adrp	x0, 40202000 <_vector_table+0x800>
    40200324:	9104f800 	add	x0, x0, #0x13e
    40200328:	b0000001 	adrp	x1, 40201000 <read_write_disk+0x84>
    4020032c:	913e4021 	add	x1, x1, #0xf90
    40200330:	52800e82 	mov	w2, #0x74                  	// #116
    40200334:	94000415 	bl	40201388 <printf>
    40200338:	14000000 	b	40200338 <map_page+0x1d4>
    4020033c:	aa1403e0 	mov	x0, x20
    40200340:	2a1f03e1 	mov	w1, wzr
    40200344:	aa0203f6 	mov	x22, x2
    40200348:	52820002 	mov	w2, #0x1000                	// #4096
    4020034c:	d3557678 	ubfx	x24, x19, #21, #9
    40200350:	aa0303f7 	mov	x23, x3
    40200354:	940003cf 	bl	40201290 <memset>
    40200358:	aa1403e0 	mov	x0, x20
    4020035c:	2a1f03e1 	mov	w1, wzr
    40200360:	52820002 	mov	w2, #0x1000                	// #4096
    40200364:	940003cb 	bl	40201290 <memset>
    40200368:	9274ce88 	and	x8, x20, #0xfffffffffffff000
    4020036c:	aa1703e3 	mov	x3, x23
    40200370:	aa1603e2 	mov	x2, x22
    40200374:	b2400508 	orr	x8, x8, #0x3
    40200378:	f8387aa8 	str	x8, [x21, x24, lsl #3]
    4020037c:	d34cfe69 	lsr	x9, x19, #12
    40200380:	9274cd08 	and	x8, x8, #0xfffffffffffff000
    40200384:	aa03004a 	orr	x10, x2, x3
    40200388:	5280806b 	mov	w11, #0x403                 	// #1027
    4020038c:	a9434ff4 	ldp	x20, x19, [sp, #48]
    40200390:	b37d2128 	bfi	x8, x9, #3, #9
    40200394:	a94257f6 	ldp	x22, x21, [sp, #32]
    40200398:	a9415ff8 	ldp	x24, x23, [sp, #16]
    4020039c:	aa0b0149 	orr	x9, x10, x11
    402003a0:	f9000109 	str	x9, [x8]
    402003a4:	a8c47bfd 	ldp	x29, x30, [sp], #64
    402003a8:	d65f03c0 	ret

00000000402003ac <switch_context>:
    402003ac:	a9ba53f3 	stp	x19, x20, [sp, #-96]!
    402003b0:	a9015bf5 	stp	x21, x22, [sp, #16]
    402003b4:	a90263f7 	stp	x23, x24, [sp, #32]
    402003b8:	a9036bf9 	stp	x25, x26, [sp, #48]
    402003bc:	a90473fb 	stp	x27, x28, [sp, #64]
    402003c0:	a9057bfd 	stp	x29, x30, [sp, #80]
    402003c4:	910003e2 	mov	x2, sp
    402003c8:	f9000002 	str	x2, [x0]
    402003cc:	f9400022 	ldr	x2, [x1]
    402003d0:	9100005f 	mov	sp, x2
    402003d4:	a8c153f3 	ldp	x19, x20, [sp], #16
    402003d8:	a8c15bf5 	ldp	x21, x22, [sp], #16
    402003dc:	a8c163f7 	ldp	x23, x24, [sp], #16
    402003e0:	a8c16bf9 	ldp	x25, x26, [sp], #16
    402003e4:	a8c173fb 	ldp	x27, x28, [sp], #16
    402003e8:	a8c17bfd 	ldp	x29, x30, [sp], #16
    402003ec:	d65f03c0 	ret

00000000402003f0 <delay>:
    402003f0:	52987008 	mov	w8, #0xc380                	// #50048
    402003f4:	72a03928 	movk	w8, #0x1c9, lsl #16
    402003f8:	71000508 	subs	w8, w8, #0x1
    402003fc:	d503201f 	nop
    40200400:	54ffffc1 	b.ne	402003f8 <delay+0x8>  // b.any
    40200404:	d65f03c0 	ret

0000000040200408 <mmu_enable>:
    40200408:	528203ab 	mov	w11, #0x101d                	// #4125
    4020040c:	aa0003e8 	mov	x8, x0
    40200410:	5286a209 	mov	w9, #0x3510                	// #13584
    40200414:	52801fea 	mov	w10, #0xff                  	// #255
    40200418:	72a0100b 	movk	w11, #0x80, lsl #16
    4020041c:	d5033b9f 	dsb	ish
    40200420:	d5033fdf 	isb
    40200424:	d518a20a 	msr	mair_el1, x10
    40200428:	d5182049 	msr	tcr_el1, x9
    4020042c:	d5033fdf 	isb
    40200430:	d5182008 	msr	ttbr0_el1, x8
    40200434:	d5033fdf 	isb
    40200438:	d5381000 	mrs	x0, sctlr_el1
    4020043c:	aa0b0000 	orr	x0, x0, x11
    40200440:	d5181000 	msr	sctlr_el1, x0
    40200444:	d5033fdf 	isb
    40200448:	d65f03c0 	ret

000000004020044c <yield>:
    4020044c:	f0008109 	adrp	x9, 41223000 <procs+0xfc40>
    40200450:	5284040e 	mov	w14, #0x2020                	// #8224
    40200454:	f9426128 	ldr	x8, [x9, #1216]
    40200458:	b940010c 	ldr	w12, [x8]
    4020045c:	6b0c03ea 	negs	w10, w12
    40200460:	1200098b 	and	w11, w12, #0x7
    40200464:	1200094a 	and	w10, w10, #0x7
    40200468:	5a8a456d 	csneg	w13, w11, w10, mi	// mi = first
    4020046c:	f000808b 	adrp	x11, 41213000 <_binary_shell_bin_start+0x1010c58>
    40200470:	910f016b 	add	x11, x11, #0x3c0
    40200474:	9b2e2daa 	smaddl	x10, w13, w14, x11
    40200478:	b940054f 	ldr	w15, [x10, #4]
    4020047c:	f000808a 	adrp	x10, 41213000 <_binary_shell_bin_start+0x1010c58>
    40200480:	f941d94a 	ldr	x10, [x10, #944]
    40200484:	710005ff 	cmp	w15, #0x1
    40200488:	540000e1 	b.ne	402004a4 <yield+0x58>  // b.any
    4020048c:	93407dad 	sxtw	x13, w13
    40200490:	5284040f 	mov	w15, #0x2020                	// #8224
    40200494:	9b2f2dad 	smaddl	x13, w13, w15, x11
    40200498:	b94001af 	ldr	w15, [x13]
    4020049c:	710001ff 	cmp	w15, #0x0
    402004a0:	54000dcc 	b.gt	40200658 <yield+0x20c>
    402004a4:	1100058d 	add	w13, w12, #0x1
    402004a8:	6b0d03ef 	negs	w15, w13
    402004ac:	120009ad 	and	w13, w13, #0x7
    402004b0:	120009ef 	and	w15, w15, #0x7
    402004b4:	5a8f45ad 	csneg	w13, w13, w15, mi	// mi = first
    402004b8:	9b2e2dae 	smaddl	x14, w13, w14, x11
    402004bc:	b94005ce 	ldr	w14, [x14, #4]
    402004c0:	710005df 	cmp	w14, #0x1
    402004c4:	540000e1 	b.ne	402004e0 <yield+0x94>  // b.any
    402004c8:	93407dad 	sxtw	x13, w13
    402004cc:	5284040e 	mov	w14, #0x2020                	// #8224
    402004d0:	9b2e2dad 	smaddl	x13, w13, w14, x11
    402004d4:	b94001ae 	ldr	w14, [x13]
    402004d8:	710001df 	cmp	w14, #0x0
    402004dc:	54000bec 	b.gt	40200658 <yield+0x20c>
    402004e0:	1100098d 	add	w13, w12, #0x2
    402004e4:	6b0d03ee 	negs	w14, w13
    402004e8:	120009ad 	and	w13, w13, #0x7
    402004ec:	120009ce 	and	w14, w14, #0x7
    402004f0:	5a8e45ad 	csneg	w13, w13, w14, mi	// mi = first
    402004f4:	5284040e 	mov	w14, #0x2020                	// #8224
    402004f8:	9b2e2daf 	smaddl	x15, w13, w14, x11
    402004fc:	b94005ef 	ldr	w15, [x15, #4]
    40200500:	710005ff 	cmp	w15, #0x1
    40200504:	540000e1 	b.ne	40200520 <yield+0xd4>  // b.any
    40200508:	93407dad 	sxtw	x13, w13
    4020050c:	5284040f 	mov	w15, #0x2020                	// #8224
    40200510:	9b2f2dad 	smaddl	x13, w13, w15, x11
    40200514:	b94001af 	ldr	w15, [x13]
    40200518:	710001ff 	cmp	w15, #0x0
    4020051c:	540009ec 	b.gt	40200658 <yield+0x20c>
    40200520:	11000d8d 	add	w13, w12, #0x3
    40200524:	6b0d03ef 	negs	w15, w13
    40200528:	120009ad 	and	w13, w13, #0x7
    4020052c:	120009ef 	and	w15, w15, #0x7
    40200530:	5a8f45ad 	csneg	w13, w13, w15, mi	// mi = first
    40200534:	9b2e2dae 	smaddl	x14, w13, w14, x11
    40200538:	b94005ce 	ldr	w14, [x14, #4]
    4020053c:	710005df 	cmp	w14, #0x1
    40200540:	540000e1 	b.ne	4020055c <yield+0x110>  // b.any
    40200544:	93407dad 	sxtw	x13, w13
    40200548:	5284040e 	mov	w14, #0x2020                	// #8224
    4020054c:	9b2e2dad 	smaddl	x13, w13, w14, x11
    40200550:	b94001ae 	ldr	w14, [x13]
    40200554:	710001df 	cmp	w14, #0x0
    40200558:	5400080c 	b.gt	40200658 <yield+0x20c>
    4020055c:	1100118d 	add	w13, w12, #0x4
    40200560:	6b0d03ee 	negs	w14, w13
    40200564:	120009ad 	and	w13, w13, #0x7
    40200568:	120009ce 	and	w14, w14, #0x7
    4020056c:	5a8e45ad 	csneg	w13, w13, w14, mi	// mi = first
    40200570:	5284040e 	mov	w14, #0x2020                	// #8224
    40200574:	9b2e2daf 	smaddl	x15, w13, w14, x11
    40200578:	b94005ef 	ldr	w15, [x15, #4]
    4020057c:	710005ff 	cmp	w15, #0x1
    40200580:	540000e1 	b.ne	4020059c <yield+0x150>  // b.any
    40200584:	93407dad 	sxtw	x13, w13
    40200588:	5284040f 	mov	w15, #0x2020                	// #8224
    4020058c:	9b2f2dad 	smaddl	x13, w13, w15, x11
    40200590:	b94001af 	ldr	w15, [x13]
    40200594:	710001ff 	cmp	w15, #0x0
    40200598:	5400060c 	b.gt	40200658 <yield+0x20c>
    4020059c:	1100158d 	add	w13, w12, #0x5
    402005a0:	6b0d03ef 	negs	w15, w13
    402005a4:	120009ad 	and	w13, w13, #0x7
    402005a8:	120009ef 	and	w15, w15, #0x7
    402005ac:	5a8f45ad 	csneg	w13, w13, w15, mi	// mi = first
    402005b0:	9b2e2dae 	smaddl	x14, w13, w14, x11
    402005b4:	b94005ce 	ldr	w14, [x14, #4]
    402005b8:	710005df 	cmp	w14, #0x1
    402005bc:	540000e1 	b.ne	402005d8 <yield+0x18c>  // b.any
    402005c0:	93407dad 	sxtw	x13, w13
    402005c4:	5284040e 	mov	w14, #0x2020                	// #8224
    402005c8:	9b2e2dad 	smaddl	x13, w13, w14, x11
    402005cc:	b94001ae 	ldr	w14, [x13]
    402005d0:	710001df 	cmp	w14, #0x0
    402005d4:	5400042c 	b.gt	40200658 <yield+0x20c>
    402005d8:	1100198d 	add	w13, w12, #0x6
    402005dc:	6b0d03ee 	negs	w14, w13
    402005e0:	120009ad 	and	w13, w13, #0x7
    402005e4:	120009ce 	and	w14, w14, #0x7
    402005e8:	5a8e45ad 	csneg	w13, w13, w14, mi	// mi = first
    402005ec:	5284040e 	mov	w14, #0x2020                	// #8224
    402005f0:	9b2e2daf 	smaddl	x15, w13, w14, x11
    402005f4:	b94005ef 	ldr	w15, [x15, #4]
    402005f8:	710005ff 	cmp	w15, #0x1
    402005fc:	540000e1 	b.ne	40200618 <yield+0x1cc>  // b.any
    40200600:	93407dad 	sxtw	x13, w13
    40200604:	5284040f 	mov	w15, #0x2020                	// #8224
    40200608:	9b2f2dad 	smaddl	x13, w13, w15, x11
    4020060c:	b94001af 	ldr	w15, [x13]
    40200610:	710001ff 	cmp	w15, #0x0
    40200614:	5400022c 	b.gt	40200658 <yield+0x20c>
    40200618:	11001d8c 	add	w12, w12, #0x7
    4020061c:	6b0c03ed 	negs	w13, w12
    40200620:	1200098c 	and	w12, w12, #0x7
    40200624:	120009ad 	and	w13, w13, #0x7
    40200628:	5a8d458c 	csneg	w12, w12, w13, mi	// mi = first
    4020062c:	9b2e2d8d 	smaddl	x13, w12, w14, x11
    40200630:	b94005ad 	ldr	w13, [x13, #4]
    40200634:	710005bf 	cmp	w13, #0x1
    40200638:	540000e1 	b.ne	40200654 <yield+0x208>  // b.any
    4020063c:	93407d8c 	sxtw	x12, w12
    40200640:	5284040d 	mov	w13, #0x2020                	// #8224
    40200644:	9b2d2d8d 	smaddl	x13, w12, w13, x11
    40200648:	b94001ab 	ldr	w11, [x13]
    4020064c:	7100017f 	cmp	w11, #0x0
    40200650:	5400004c 	b.gt	40200658 <yield+0x20c>
    40200654:	aa0a03ed 	mov	x13, x10
    40200658:	eb0801bf 	cmp	x13, x8
    4020065c:	54000260 	b.eq	402006a8 <yield+0x25c>  // b.none
    40200660:	5284040a 	mov	w10, #0x2020                	// #8224
    40200664:	f902612d 	str	x13, [x9, #1216]
    40200668:	f94009ab 	ldr	x11, [x13, #16]
    4020066c:	8b0a01a9 	add	x9, x13, x10
    40200670:	d5033a9f 	dsb	ishst
    40200674:	d508871f 	tlbi	vmalle1
    40200678:	d5033b9f 	dsb	ish
    4020067c:	d5033fdf 	isb
    40200680:	aa0b03e0 	mov	x0, x11
    40200684:	d5382001 	mrs	x1, ttbr0_el1
    40200688:	d5381002 	mrs	x2, sctlr_el1
    4020068c:	d518200b 	msr	ttbr0_el1, x11
    40200690:	d5382003 	mrs	x3, ttbr0_el1
    40200694:	d5033fdf 	isb
    40200698:	d518d089 	msr	tpidr_el1, x9
    4020069c:	91002100 	add	x0, x8, #0x8
    402006a0:	910021a1 	add	x1, x13, #0x8
    402006a4:	17ffff42 	b	402003ac <switch_context>
    402006a8:	d65f03c0 	ret

00000000402006ac <proc_a_entry>:
    402006ac:	a9be7bfd 	stp	x29, x30, [sp, #-32]!
    402006b0:	f9000bf3 	str	x19, [sp, #16]
    402006b4:	910003fd 	mov	x29, sp
    402006b8:	d0000000 	adrp	x0, 40202000 <_vector_table+0x800>
    402006bc:	91018800 	add	x0, x0, #0x62
    402006c0:	94000332 	bl	40201388 <printf>
    402006c4:	52800833 	mov	w19, #0x41                  	// #65
    402006c8:	390073b3 	strb	w19, [x29, #28]
    402006cc:	52800060 	mov	w0, #0x3                   	// #3
    402006d0:	910073a1 	add	x1, x29, #0x1c
    402006d4:	52800022 	mov	w2, #0x1                   	// #1
    402006d8:	52800807 	mov	w7, #0x40                  	// #64
    402006dc:	d45e0000 	hlt	#0xf000
    402006e0:	97ffff5b 	bl	4020044c <yield>
    402006e4:	17fffff9 	b	402006c8 <proc_a_entry+0x1c>

00000000402006e8 <proc_b_entry>:
    402006e8:	a9be7bfd 	stp	x29, x30, [sp, #-32]!
    402006ec:	f9000bf3 	str	x19, [sp, #16]
    402006f0:	910003fd 	mov	x29, sp
    402006f4:	d0000000 	adrp	x0, 40202000 <_vector_table+0x800>
    402006f8:	91008400 	add	x0, x0, #0x21
    402006fc:	94000323 	bl	40201388 <printf>
    40200700:	52800853 	mov	w19, #0x42                  	// #66
    40200704:	390073b3 	strb	w19, [x29, #28]
    40200708:	52800060 	mov	w0, #0x3                   	// #3
    4020070c:	910073a1 	add	x1, x29, #0x1c
    40200710:	52800022 	mov	w2, #0x1                   	// #1
    40200714:	52800807 	mov	w7, #0x40                  	// #64
    40200718:	d45e0000 	hlt	#0xf000
    4020071c:	97ffff4c 	bl	4020044c <yield>
    40200720:	17fffff9 	b	40200704 <proc_b_entry+0x1c>

0000000040200724 <user_entry>:
    40200724:	52a8c008 	mov	w8, #0x46000000            	// #1174405120
    40200728:	52800089 	mov	w9, #0x4                   	// #4
    4020072c:	d5184028 	msr	elr_el1, x8
    40200730:	d5184009 	msr	spsr_el1, x9
    40200734:	d5384021 	mrs	x1, elr_el1
    40200738:	d5384002 	mrs	x2, spsr_el1
    4020073c:	d69f03e0 	eret

0000000040200740 <create_process>:
    40200740:	d101c3ff 	sub	sp, sp, #0x70
    40200744:	a9017bfd 	stp	x29, x30, [sp, #16]
    40200748:	a9026ffc 	stp	x28, x27, [sp, #32]
    4020074c:	a90367fa 	stp	x26, x25, [sp, #48]
    40200750:	a9045ff8 	stp	x24, x23, [sp, #64]
    40200754:	a90557f6 	stp	x22, x21, [sp, #80]
    40200758:	a9064ff4 	stp	x20, x19, [sp, #96]
    4020075c:	910043fd 	add	x29, sp, #0x10
    40200760:	f0008088 	adrp	x8, 41213000 <_binary_shell_bin_start+0x1010c58>
    40200764:	2a0103f7 	mov	w23, w1
    40200768:	f90007e0 	str	x0, [sp, #8]
    4020076c:	b943c508 	ldr	w8, [x8, #964]
    40200770:	340003a8 	cbz	w8, 402007e4 <create_process+0xa4>
    40200774:	b00080a8 	adrp	x8, 41215000 <procs+0x1c40>
    40200778:	b943e508 	ldr	w8, [x8, #996]
    4020077c:	34000388 	cbz	w8, 402007ec <create_process+0xac>
    40200780:	f00080a8 	adrp	x8, 41217000 <procs+0x3c40>
    40200784:	b9440508 	ldr	w8, [x8, #1028]
    40200788:	34000368 	cbz	w8, 402007f4 <create_process+0xb4>
    4020078c:	b00080c8 	adrp	x8, 41219000 <procs+0x5c40>
    40200790:	b9442508 	ldr	w8, [x8, #1060]
    40200794:	34000348 	cbz	w8, 402007fc <create_process+0xbc>
    40200798:	f00080c8 	adrp	x8, 4121b000 <procs+0x7c40>
    4020079c:	b9444508 	ldr	w8, [x8, #1092]
    402007a0:	34000328 	cbz	w8, 40200804 <create_process+0xc4>
    402007a4:	b00080e8 	adrp	x8, 4121d000 <procs+0x9c40>
    402007a8:	b9446508 	ldr	w8, [x8, #1124]
    402007ac:	34000308 	cbz	w8, 4020080c <create_process+0xcc>
    402007b0:	f00080e8 	adrp	x8, 4121f000 <procs+0xbc40>
    402007b4:	b9448508 	ldr	w8, [x8, #1156]
    402007b8:	340002e8 	cbz	w8, 40200814 <create_process+0xd4>
    402007bc:	b0008108 	adrp	x8, 41221000 <procs+0xdc40>
    402007c0:	b944a508 	ldr	w8, [x8, #1188]
    402007c4:	340002c8 	cbz	w8, 4020081c <create_process+0xdc>
    402007c8:	d0000000 	adrp	x0, 40202000 <_vector_table+0x800>
    402007cc:	910c4000 	add	x0, x0, #0x310
    402007d0:	b0000001 	adrp	x1, 40201000 <read_write_disk+0x84>
    402007d4:	913e4021 	add	x1, x1, #0xf90
    402007d8:	52802c22 	mov	w2, #0x161                 	// #353
    402007dc:	940002eb 	bl	40201388 <printf>
    402007e0:	14000000 	b	402007e0 <create_process+0xa0>
    402007e4:	aa1f03f4 	mov	x20, xzr
    402007e8:	1400000e 	b	40200820 <create_process+0xe0>
    402007ec:	52800034 	mov	w20, #0x1                   	// #1
    402007f0:	1400000c 	b	40200820 <create_process+0xe0>
    402007f4:	52800054 	mov	w20, #0x2                   	// #2
    402007f8:	1400000a 	b	40200820 <create_process+0xe0>
    402007fc:	52800074 	mov	w20, #0x3                   	// #3
    40200800:	14000008 	b	40200820 <create_process+0xe0>
    40200804:	52800094 	mov	w20, #0x4                   	// #4
    40200808:	14000006 	b	40200820 <create_process+0xe0>
    4020080c:	528000b4 	mov	w20, #0x5                   	// #5
    40200810:	14000004 	b	40200820 <create_process+0xe0>
    40200814:	528000d4 	mov	w20, #0x6                   	// #6
    40200818:	14000002 	b	40200820 <create_process+0xe0>
    4020081c:	528000f4 	mov	w20, #0x7                   	// #7
    40200820:	52840408 	mov	w8, #0x2020                	// #8224
    40200824:	f0008089 	adrp	x9, 41213000 <_binary_shell_bin_start+0x1010c58>
    40200828:	910f0129 	add	x9, x9, #0x3c0
    4020082c:	9ba8269b 	umaddl	x27, w20, w8, x9
    40200830:	d0000019 	adrp	x25, 40202000 <_vector_table+0x800>
    40200834:	6f00e400 	movi	v0.2d, #0x0
    40200838:	f941d333 	ldr	x19, [x25, #928]
    4020083c:	d503201f 	nop
    40200840:	10fff728 	adr	x8, 40200724 <user_entry>
    40200844:	9001823a 	adrp	x26, 43244000 <__free_ram_end>
    40200848:	9100035a 	add	x26, x26, #0x0
    4020084c:	f9100f68 	str	x8, [x27, #8216]
    40200850:	91400668 	add	x8, x19, #0x1, lsl #12
    40200854:	eb1a011f 	cmp	x8, x26
    40200858:	f9100b7f 	str	xzr, [x27, #8208]
    4020085c:	3d880360 	str	q0, [x27, #8192]
    40200860:	3d87ff60 	str	q0, [x27, #8176]
    40200864:	3d87fb60 	str	q0, [x27, #8160]
    40200868:	3d87f760 	str	q0, [x27, #8144]
    4020086c:	3d87f360 	str	q0, [x27, #8128]
    40200870:	f901d328 	str	x8, [x25, #928]
    40200874:	54000109 	b.ls	40200894 <create_process+0x154>  // b.plast
    40200878:	d0000000 	adrp	x0, 40202000 <_vector_table+0x800>
    4020087c:	9104f800 	add	x0, x0, #0x13e
    40200880:	b0000001 	adrp	x1, 40201000 <read_write_disk+0x84>
    40200884:	913e4021 	add	x1, x1, #0xf90
    40200888:	52800e82 	mov	w2, #0x74                  	// #116
    4020088c:	940002bf 	bl	40201388 <printf>
    40200890:	14000000 	b	40200890 <create_process+0x150>
    40200894:	aa1303e0 	mov	x0, x19
    40200898:	2a1f03e1 	mov	w1, wzr
    4020089c:	52820002 	mov	w2, #0x1000                	// #4096
    402008a0:	9400027c 	bl	40201290 <memset>
    402008a4:	f2402e7f 	tst	x19, #0xfff
    402008a8:	54000100 	b.eq	402008c8 <create_process+0x188>  // b.none
    402008ac:	d0000000 	adrp	x0, 40202000 <_vector_table+0x800>
    402008b0:	91095400 	add	x0, x0, #0x255
    402008b4:	b0000001 	adrp	x1, 40201000 <read_write_disk+0x84>
    402008b8:	913e4021 	add	x1, x1, #0xf90
    402008bc:	52802ee2 	mov	w2, #0x177                 	// #375
    402008c0:	940002b2 	bl	40201388 <printf>
    402008c4:	14000000 	b	402008c4 <create_process+0x184>
    402008c8:	d503201f 	nop
    402008cc:	10ffb9a8 	adr	x8, 40200000 <boot>
    402008d0:	f90003f4 	str	x20, [sp]
    402008d4:	eb1a011f 	cmp	x8, x26
    402008d8:	54000142 	b.cs	40200900 <create_process+0x1c0>  // b.hs, b.nlast
    402008dc:	d503201f 	nop
    402008e0:	10ffb916 	adr	x22, 40200000 <boot>
    402008e4:	aa1303e0 	mov	x0, x19
    402008e8:	aa1603e1 	mov	x1, x22
    402008ec:	aa1603e2 	mov	x2, x22
    402008f0:	97fffe1d 	bl	40200164 <map_page>
    402008f4:	914006d6 	add	x22, x22, #0x1, lsl #12
    402008f8:	eb1a02df 	cmp	x22, x26
    402008fc:	54ffff43 	b.cc	402008e4 <create_process+0x1a4>  // b.lo, b.ul, b.last
    40200900:	d0000000 	adrp	x0, 40202000 <_vector_table+0x800>
    40200904:	91081800 	add	x0, x0, #0x206
    40200908:	940002a0 	bl	40201388 <printf>
    4020090c:	d0000000 	adrp	x0, 40202000 <_vector_table+0x800>
    40200910:	910d6c00 	add	x0, x0, #0x35b
    40200914:	2a1703e1 	mov	w1, w23
    40200918:	9400029c 	bl	40201388 <printf>
    4020091c:	340003b7 	cbz	w23, 40200990 <create_process+0x250>
    40200920:	aa1f03fc 	mov	x28, xzr
    40200924:	2a1703f8 	mov	w24, w23
    40200928:	52a8c014 	mov	w20, #0x46000000            	// #1174405120
    4020092c:	f941d336 	ldr	x22, [x25, #928]
    40200930:	914006c8 	add	x8, x22, #0x1, lsl #12
    40200934:	eb1a011f 	cmp	x8, x26
    40200938:	f901d328 	str	x8, [x25, #928]
    4020093c:	54000ae8 	b.hi	40200a98 <create_process+0x358>  // b.pmore
    40200940:	aa1603e0 	mov	x0, x22
    40200944:	2a1f03e1 	mov	w1, wzr
    40200948:	52820002 	mov	w2, #0x1000                	// #4096
    4020094c:	94000251 	bl	40201290 <memset>
    40200950:	714006f5 	subs	w21, w23, #0x1, lsl #12
    40200954:	52820008 	mov	w8, #0x1000                	// #4096
    40200958:	aa1603e0 	mov	x0, x22
    4020095c:	1a8832e2 	csel	w2, w23, w8, cc	// cc = lo, ul, last
    40200960:	f94007e8 	ldr	x8, [sp, #8]
    40200964:	8b1c0101 	add	x1, x8, x28
    40200968:	94000218 	bl	402011c8 <memcpy>
    4020096c:	8b140381 	add	x1, x28, x20
    40200970:	aa1303e0 	mov	x0, x19
    40200974:	aa1603e2 	mov	x2, x22
    40200978:	52808003 	mov	w3, #0x400                 	// #1024
    4020097c:	97fffdfa 	bl	40200164 <map_page>
    40200980:	9140079c 	add	x28, x28, #0x1, lsl #12
    40200984:	2a1503f7 	mov	w23, w21
    40200988:	eb18039f 	cmp	x28, x24
    4020098c:	54fffd03 	b.cc	4020092c <create_process+0x1ec>  // b.lo, b.ul, b.last
    40200990:	f941d334 	ldr	x20, [x25, #928]
    40200994:	91400688 	add	x8, x20, #0x1, lsl #12
    40200998:	eb1a011f 	cmp	x8, x26
    4020099c:	f901d328 	str	x8, [x25, #928]
    402009a0:	54000109 	b.ls	402009c0 <create_process+0x280>  // b.plast
    402009a4:	d0000000 	adrp	x0, 40202000 <_vector_table+0x800>
    402009a8:	9104f800 	add	x0, x0, #0x13e
    402009ac:	b0000001 	adrp	x1, 40201000 <read_write_disk+0x84>
    402009b0:	913e4021 	add	x1, x1, #0xf90
    402009b4:	52800e82 	mov	w2, #0x74                  	// #116
    402009b8:	94000274 	bl	40201388 <printf>
    402009bc:	14000000 	b	402009bc <create_process+0x27c>
    402009c0:	5283f808 	mov	w8, #0x1fc0                	// #8128
    402009c4:	aa1403e0 	mov	x0, x20
    402009c8:	2a1f03e1 	mov	w1, wzr
    402009cc:	52820002 	mov	w2, #0x1000                	// #4096
    402009d0:	8b080375 	add	x21, x27, x8
    402009d4:	9400022f 	bl	40201290 <memset>
    402009d8:	aa1303e0 	mov	x0, x19
    402009dc:	52a8e001 	mov	w1, #0x47000000            	// #1191182336
    402009e0:	aa1403e2 	mov	x2, x20
    402009e4:	52808003 	mov	w3, #0x400                 	// #1024
    402009e8:	97fffddf 	bl	40200164 <map_page>
    402009ec:	52820017 	mov	w23, #0x1000                	// #4096
    402009f0:	9281fff6 	mov	x22, #0xfffffffffffff000    	// #-4096
    402009f4:	72a8dff7 	movk	w23, #0x46ff, lsl #16
    402009f8:	f941d334 	ldr	x20, [x25, #928]
    402009fc:	91400688 	add	x8, x20, #0x1, lsl #12
    40200a00:	eb1a011f 	cmp	x8, x26
    40200a04:	f901d328 	str	x8, [x25, #928]
    40200a08:	54000568 	b.hi	40200ab4 <create_process+0x374>  // b.pmore
    40200a0c:	aa1403e0 	mov	x0, x20
    40200a10:	2a1f03e1 	mov	w1, wzr
    40200a14:	52820002 	mov	w2, #0x1000                	// #4096
    40200a18:	9400021e 	bl	40201290 <memset>
    40200a1c:	8b1702c1 	add	x1, x22, x23
    40200a20:	aa1303e0 	mov	x0, x19
    40200a24:	aa1403e2 	mov	x2, x20
    40200a28:	52808003 	mov	w3, #0x400                 	// #1024
    40200a2c:	97fffdce 	bl	40200164 <map_page>
    40200a30:	914006d6 	add	x22, x22, #0x1, lsl #12
    40200a34:	f1403edf 	cmp	x22, #0xf, lsl #12
    40200a38:	54fffe03 	b.cc	402009f8 <create_process+0x2b8>  // b.lo, b.ul, b.last
    40200a3c:	f94003f6 	ldr	x22, [sp]
    40200a40:	52840408 	mov	w8, #0x2020                	// #8224
    40200a44:	aa1303e0 	mov	x0, x19
    40200a48:	52a14001 	mov	w1, #0xa000000             	// #167772160
    40200a4c:	52a14002 	mov	w2, #0xa000000             	// #167772160
    40200a50:	52808003 	mov	w3, #0x400                 	// #1024
    40200a54:	f0008089 	adrp	x9, 41213000 <_binary_shell_bin_start+0x1010c58>
    40200a58:	910f0129 	add	x9, x9, #0x3c0
    40200a5c:	9ba826d4 	umaddl	x20, w22, w8, x9
    40200a60:	97fffdc1 	bl	40200164 <map_page>
    40200a64:	110006c8 	add	w8, w22, #0x1
    40200a68:	52800029 	mov	w9, #0x1                   	// #1
    40200a6c:	a900ce95 	stp	x21, x19, [x20, #8]
    40200a70:	29002688 	stp	w8, w9, [x20]
    40200a74:	aa1403e0 	mov	x0, x20
    40200a78:	a9464ff4 	ldp	x20, x19, [sp, #96]
    40200a7c:	a94557f6 	ldp	x22, x21, [sp, #80]
    40200a80:	a9445ff8 	ldp	x24, x23, [sp, #64]
    40200a84:	a94367fa 	ldp	x26, x25, [sp, #48]
    40200a88:	a9426ffc 	ldp	x28, x27, [sp, #32]
    40200a8c:	a9417bfd 	ldp	x29, x30, [sp, #16]
    40200a90:	9101c3ff 	add	sp, sp, #0x70
    40200a94:	d65f03c0 	ret
    40200a98:	d0000000 	adrp	x0, 40202000 <_vector_table+0x800>
    40200a9c:	9104f800 	add	x0, x0, #0x13e
    40200aa0:	b0000001 	adrp	x1, 40201000 <read_write_disk+0x84>
    40200aa4:	913e4021 	add	x1, x1, #0xf90
    40200aa8:	52800e82 	mov	w2, #0x74                  	// #116
    40200aac:	94000237 	bl	40201388 <printf>
    40200ab0:	14000000 	b	40200ab0 <create_process+0x370>
    40200ab4:	d0000000 	adrp	x0, 40202000 <_vector_table+0x800>
    40200ab8:	9104f800 	add	x0, x0, #0x13e
    40200abc:	b0000001 	adrp	x1, 40201000 <read_write_disk+0x84>
    40200ac0:	913e4021 	add	x1, x1, #0xf90
    40200ac4:	52800e82 	mov	w2, #0x74                  	// #116
    40200ac8:	94000230 	bl	40201388 <printf>
    40200acc:	14000000 	b	40200acc <create_process+0x38c>

0000000040200ad0 <handle_syscall>:
    40200ad0:	d10083ff 	sub	sp, sp, #0x20
    40200ad4:	a9017bfd 	stp	x29, x30, [sp, #16]
    40200ad8:	910043fd 	add	x29, sp, #0x10
    40200adc:	f9402001 	ldr	x1, [x0, #64]
    40200ae0:	f9408009 	ldr	x9, [x0, #256]
    40200ae4:	aa0003e8 	mov	x8, x0
    40200ae8:	91001129 	add	x9, x9, #0x4
    40200aec:	f100043f 	cmp	x1, #0x1
    40200af0:	f9008009 	str	x9, [x0, #256]
    40200af4:	540002a0 	b.eq	40200b48 <handle_syscall+0x78>  // b.none
    40200af8:	f100083f 	cmp	x1, #0x2
    40200afc:	540003a1 	b.ne	40200b70 <handle_syscall+0xa0>  // b.any
    40200b00:	2a1f03e9 	mov	w9, wzr
    40200b04:	381fc3bf 	sturb	wzr, [x29, #-4]
    40200b08:	52800060 	mov	w0, #0x3                   	// #3
    40200b0c:	d10013a1 	sub	x1, x29, #0x4
    40200b10:	aa1f03e2 	mov	x2, xzr
    40200b14:	52800807 	mov	w7, #0x40                  	// #64
    40200b18:	d45e0000 	hlt	#0xf000
    40200b1c:	b40003e0 	cbz	x0, 40200b98 <handle_syscall+0xc8>
    40200b20:	52807d0a 	mov	w10, #0x3e8                 	// #1000
    40200b24:	7100054a 	subs	w10, w10, #0x1
    40200b28:	d503201f 	nop
    40200b2c:	54ffffc1 	b.ne	40200b24 <handle_syscall+0x54>  // b.any
    40200b30:	11000529 	add	w9, w9, #0x1
    40200b34:	710fa13f 	cmp	w9, #0x3e8
    40200b38:	54fffe61 	b.ne	40200b04 <handle_syscall+0x34>  // b.any
    40200b3c:	92800009 	mov	x9, #0xffffffffffffffff    	// #-1
    40200b40:	f9000109 	str	x9, [x8]
    40200b44:	14000008 	b	40200b64 <handle_syscall+0x94>
    40200b48:	f9400109 	ldr	x9, [x8]
    40200b4c:	52800060 	mov	w0, #0x3                   	// #3
    40200b50:	910023e1 	add	x1, sp, #0x8
    40200b54:	52800022 	mov	w2, #0x1                   	// #1
    40200b58:	52800807 	mov	w7, #0x40                  	// #64
    40200b5c:	390023e9 	strb	w9, [sp, #8]
    40200b60:	d45e0000 	hlt	#0xf000
    40200b64:	f9408108 	ldr	x8, [x8, #256]
    40200b68:	d5184028 	msr	elr_el1, x8
    40200b6c:	1400000c 	b	40200b9c <handle_syscall+0xcc>
    40200b70:	d0000000 	adrp	x0, 40202000 <_vector_table+0x800>
    40200b74:	91069000 	add	x0, x0, #0x1a4
    40200b78:	94000204 	bl	40201388 <printf>
    40200b7c:	b0000000 	adrp	x0, 40201000 <read_write_disk+0x84>
    40200b80:	913e6400 	add	x0, x0, #0xf99
    40200b84:	b0000001 	adrp	x1, 40201000 <read_write_disk+0x84>
    40200b88:	913e4021 	add	x1, x1, #0xf90
    40200b8c:	528039e2 	mov	w2, #0x1cf                 	// #463
    40200b90:	940001fe 	bl	40201388 <printf>
    40200b94:	14000000 	b	40200b94 <handle_syscall+0xc4>
    40200b98:	f900011f 	str	xzr, [x8]
    40200b9c:	a9417bfd 	ldp	x29, x30, [sp, #16]
    40200ba0:	910083ff 	add	sp, sp, #0x20
    40200ba4:	d65f03c0 	ret

0000000040200ba8 <handle_trap>:
    40200ba8:	a9bd7bfd 	stp	x29, x30, [sp, #-48]!
    40200bac:	a90157f6 	stp	x22, x21, [sp, #16]
    40200bb0:	a9024ff4 	stp	x20, x19, [sp, #32]
    40200bb4:	910003fd 	mov	x29, sp
    40200bb8:	d5385214 	mrs	x20, esr_el1
    40200bbc:	d5386015 	mrs	x21, far_el1
    40200bc0:	d5384033 	mrs	x19, elr_el1
    40200bc4:	d5384108 	mrs	x8, sp_el0
    40200bc8:	d35a7e96 	ubfx	x22, x20, #26, #6
    40200bcc:	d5382008 	mrs	x8, ttbr0_el1
    40200bd0:	f10096df 	cmp	x22, #0x25
    40200bd4:	54000468 	b.hi	40200c60 <handle_trap+0xb8>  // b.pmore
    40200bd8:	52800028 	mov	w8, #0x1                   	// #1
    40200bdc:	d2c00669 	mov	x9, #0x3300000000          	// #219043332096
    40200be0:	9ad62108 	lsl	x8, x8, x22
    40200be4:	ea09011f 	tst	x8, x9
    40200be8:	54000300 	b.eq	40200c48 <handle_trap+0xa0>  // b.none
    40200bec:	d0000000 	adrp	x0, 40202000 <_vector_table+0x800>
    40200bf0:	91072c00 	add	x0, x0, #0x1cb
    40200bf4:	940001e5 	bl	40201388 <printf>
    40200bf8:	d0000000 	adrp	x0, 40202000 <_vector_table+0x800>
    40200bfc:	91026000 	add	x0, x0, #0x98
    40200c00:	92406283 	and	x3, x20, #0x1ffffff
    40200c04:	aa1403e1 	mov	x1, x20
    40200c08:	aa1603e2 	mov	x2, x22
    40200c0c:	940001df 	bl	40201388 <printf>
    40200c10:	d0000000 	adrp	x0, 40202000 <_vector_table+0x800>
    40200c14:	9109ec00 	add	x0, x0, #0x27b
    40200c18:	aa1503e1 	mov	x1, x21
    40200c1c:	940001db 	bl	40201388 <printf>
    40200c20:	d0000000 	adrp	x0, 40202000 <_vector_table+0x800>
    40200c24:	91086c00 	add	x0, x0, #0x21b
    40200c28:	aa1303e1 	mov	x1, x19
    40200c2c:	940001d7 	bl	40201388 <printf>
    40200c30:	aa1403e0 	mov	x0, x20
    40200c34:	aa1503e1 	mov	x1, x21
    40200c38:	a9424ff4 	ldp	x20, x19, [sp, #32]
    40200c3c:	a94157f6 	ldp	x22, x21, [sp, #16]
    40200c40:	a8c37bfd 	ldp	x29, x30, [sp], #48
    40200c44:	1400029d 	b	402016b8 <handle_data_abort>
    40200c48:	f10056df 	cmp	x22, #0x15
    40200c4c:	540000a1 	b.ne	40200c60 <handle_trap+0xb8>  // b.any
    40200c50:	a9424ff4 	ldp	x20, x19, [sp, #32]
    40200c54:	a94157f6 	ldp	x22, x21, [sp, #16]
    40200c58:	a8c37bfd 	ldp	x29, x30, [sp], #48
    40200c5c:	17ffff9d 	b	40200ad0 <handle_syscall>
    40200c60:	d0000000 	adrp	x0, 40202000 <_vector_table+0x800>
    40200c64:	910cd400 	add	x0, x0, #0x335
    40200c68:	92406282 	and	x2, x20, #0x1ffffff
    40200c6c:	aa1603e1 	mov	x1, x22
    40200c70:	aa1303e3 	mov	x3, x19
    40200c74:	940001c5 	bl	40201388 <printf>
    40200c78:	d0000000 	adrp	x0, 40202000 <_vector_table+0x800>
    40200c7c:	910de000 	add	x0, x0, #0x378
    40200c80:	b0000001 	adrp	x1, 40201000 <read_write_disk+0x84>
    40200c84:	913e4021 	add	x1, x1, #0xf90
    40200c88:	52803fe2 	mov	w2, #0x1ff                 	// #511
    40200c8c:	940001bf 	bl	40201388 <printf>
    40200c90:	14000000 	b	40200c90 <handle_trap+0xe8>

0000000040200c94 <virtio_reg_read32>:
    40200c94:	52a14008 	mov	w8, #0xa000000             	// #167772160
    40200c98:	b8686800 	ldr	w0, [x0, x8]
    40200c9c:	d65f03c0 	ret

0000000040200ca0 <virtio_reg_read64>:
    40200ca0:	52a14008 	mov	w8, #0xa000000             	// #167772160
    40200ca4:	f8686800 	ldr	x0, [x0, x8]
    40200ca8:	d65f03c0 	ret

0000000040200cac <virtio_reg_write32>:
    40200cac:	52a14008 	mov	w8, #0xa000000             	// #167772160
    40200cb0:	b8286801 	str	w1, [x0, x8]
    40200cb4:	d65f03c0 	ret

0000000040200cb8 <virtio_reg_fetch_and_or32>:
    40200cb8:	52a14008 	mov	w8, #0xa000000             	// #167772160
    40200cbc:	b8686809 	ldr	w9, [x0, x8]
    40200cc0:	2a010129 	orr	w9, w9, w1
    40200cc4:	b8286809 	str	w9, [x0, x8]
    40200cc8:	d65f03c0 	ret

0000000040200ccc <virtq_init>:
    40200ccc:	a9be7bfd 	stp	x29, x30, [sp, #-32]!
    40200cd0:	a9014ff4 	stp	x20, x19, [sp, #16]
    40200cd4:	910003fd 	mov	x29, sp
    40200cd8:	d0000008 	adrp	x8, 40202000 <_vector_table+0x800>
    40200cdc:	9001822a 	adrp	x10, 43244000 <__free_ram_end>
    40200ce0:	9100014a 	add	x10, x10, #0x0
    40200ce4:	f941d113 	ldr	x19, [x8, #928]
    40200ce8:	91400a69 	add	x9, x19, #0x2, lsl #12
    40200cec:	eb0a013f 	cmp	x9, x10
    40200cf0:	f901d109 	str	x9, [x8, #928]
    40200cf4:	54000109 	b.ls	40200d14 <virtq_init+0x48>  // b.plast
    40200cf8:	d0000000 	adrp	x0, 40202000 <_vector_table+0x800>
    40200cfc:	9104f800 	add	x0, x0, #0x13e
    40200d00:	b0000001 	adrp	x1, 40201000 <read_write_disk+0x84>
    40200d04:	913e4021 	add	x1, x1, #0xf90
    40200d08:	52800e82 	mov	w2, #0x74                  	// #116
    40200d0c:	9400019f 	bl	40201388 <printf>
    40200d10:	14000000 	b	40200d10 <virtq_init+0x44>
    40200d14:	2a0003f4 	mov	w20, w0
    40200d18:	aa1303e0 	mov	x0, x19
    40200d1c:	2a1f03e1 	mov	w1, wzr
    40200d20:	52840002 	mov	w2, #0x2000                	// #8192
    40200d24:	9400015b 	bl	40201290 <memset>
    40200d28:	52820048 	mov	w8, #0x1002                	// #4098
    40200d2c:	52800609 	mov	w9, #0x30                  	// #48
    40200d30:	b9108674 	str	w20, [x19, #4228]
    40200d34:	8b080268 	add	x8, x19, x8
    40200d38:	72a14009 	movk	w9, #0xa00, lsl #16
    40200d3c:	aa1303e0 	mov	x0, x19
    40200d40:	f9084668 	str	x8, [x19, #4232]
    40200d44:	52800208 	mov	w8, #0x10                  	// #16
    40200d48:	b9000134 	str	w20, [x9]
    40200d4c:	b9000928 	str	w8, [x9, #8]
    40200d50:	b9000d3f 	str	wzr, [x9, #12]
    40200d54:	b9001133 	str	w19, [x9, #16]
    40200d58:	a9414ff4 	ldp	x20, x19, [sp, #16]
    40200d5c:	a8c27bfd 	ldp	x29, x30, [sp], #32
    40200d60:	d65f03c0 	ret

0000000040200d64 <virtio_blk_init>:
    40200d64:	a9bd7bfd 	stp	x29, x30, [sp, #-48]!
    40200d68:	a90157f6 	stp	x22, x21, [sp, #16]
    40200d6c:	a9024ff4 	stp	x20, x19, [sp, #32]
    40200d70:	910003fd 	mov	x29, sp
    40200d74:	52a14008 	mov	w8, #0xa000000             	// #167772160
    40200d78:	528d2ec9 	mov	w9, #0x6976                	// #26998
    40200d7c:	b9400108 	ldr	w8, [x8]
    40200d80:	72ae8e49 	movk	w9, #0x7472, lsl #16
    40200d84:	6b09011f 	cmp	w8, w9
    40200d88:	54000441 	b.ne	40200e10 <virtio_blk_init+0xac>  // b.any
    40200d8c:	52800e14 	mov	w20, #0x70                  	// #112
    40200d90:	72a14014 	movk	w20, #0xa00, lsl #16
    40200d94:	b8594288 	ldur	w8, [x20, #-108]
    40200d98:	7100051f 	cmp	w8, #0x1
    40200d9c:	54000481 	b.ne	40200e2c <virtio_blk_init+0xc8>  // b.any
    40200da0:	b8598288 	ldur	w8, [x20, #-104]
    40200da4:	7100091f 	cmp	w8, #0x2
    40200da8:	54000501 	b.ne	40200e48 <virtio_blk_init+0xe4>  // b.any
    40200dac:	b900029f 	str	wzr, [x20]
    40200db0:	d0000015 	adrp	x21, 40202000 <_vector_table+0x800>
    40200db4:	90018236 	adrp	x22, 43244000 <__free_ram_end>
    40200db8:	910002d6 	add	x22, x22, #0x0
    40200dbc:	b9400288 	ldr	w8, [x20]
    40200dc0:	32000108 	orr	w8, w8, #0x1
    40200dc4:	b9000288 	str	w8, [x20]
    40200dc8:	b9400288 	ldr	w8, [x20]
    40200dcc:	321f0108 	orr	w8, w8, #0x2
    40200dd0:	b9000288 	str	w8, [x20]
    40200dd4:	b9400288 	ldr	w8, [x20]
    40200dd8:	321d0108 	orr	w8, w8, #0x8
    40200ddc:	b9000288 	str	w8, [x20]
    40200de0:	f941d2b3 	ldr	x19, [x21, #928]
    40200de4:	91400a68 	add	x8, x19, #0x2, lsl #12
    40200de8:	eb16011f 	cmp	x8, x22
    40200dec:	f901d2a8 	str	x8, [x21, #928]
    40200df0:	540003a9 	b.ls	40200e64 <virtio_blk_init+0x100>  // b.plast
    40200df4:	d0000000 	adrp	x0, 40202000 <_vector_table+0x800>
    40200df8:	9104f800 	add	x0, x0, #0x13e
    40200dfc:	b0000001 	adrp	x1, 40201000 <read_write_disk+0x84>
    40200e00:	913e4021 	add	x1, x1, #0xf90
    40200e04:	52800e82 	mov	w2, #0x74                  	// #116
    40200e08:	94000160 	bl	40201388 <printf>
    40200e0c:	14000000 	b	40200e0c <virtio_blk_init+0xa8>
    40200e10:	b0000000 	adrp	x0, 40201000 <read_write_disk+0x84>
    40200e14:	913ee000 	add	x0, x0, #0xfb8
    40200e18:	b0000001 	adrp	x1, 40201000 <read_write_disk+0x84>
    40200e1c:	913e4021 	add	x1, x1, #0xf90
    40200e20:	52804582 	mov	w2, #0x22c                 	// #556
    40200e24:	94000159 	bl	40201388 <printf>
    40200e28:	14000000 	b	40200e28 <virtio_blk_init+0xc4>
    40200e2c:	b0000000 	adrp	x0, 40201000 <read_write_disk+0x84>
    40200e30:	913fe800 	add	x0, x0, #0xffa
    40200e34:	b0000001 	adrp	x1, 40201000 <read_write_disk+0x84>
    40200e38:	913e4021 	add	x1, x1, #0xf90
    40200e3c:	528045c2 	mov	w2, #0x22e                 	// #558
    40200e40:	94000152 	bl	40201388 <printf>
    40200e44:	14000000 	b	40200e44 <virtio_blk_init+0xe0>
    40200e48:	d0000000 	adrp	x0, 40202000 <_vector_table+0x800>
    40200e4c:	9108b000 	add	x0, x0, #0x22c
    40200e50:	b0000001 	adrp	x1, 40201000 <read_write_disk+0x84>
    40200e54:	913e4021 	add	x1, x1, #0xf90
    40200e58:	52804602 	mov	w2, #0x230                 	// #560
    40200e5c:	9400014b 	bl	40201388 <printf>
    40200e60:	14000000 	b	40200e60 <virtio_blk_init+0xfc>
    40200e64:	aa1303e0 	mov	x0, x19
    40200e68:	2a1f03e1 	mov	w1, wzr
    40200e6c:	52840002 	mov	w2, #0x2000                	// #8192
    40200e70:	94000108 	bl	40201290 <memset>
    40200e74:	52800208 	mov	w8, #0x10                  	// #16
    40200e78:	b910867f 	str	wzr, [x19, #4228]
    40200e7c:	52820049 	mov	w9, #0x1002                	// #4098
    40200e80:	b81c029f 	stur	wzr, [x20, #-64]
    40200e84:	d0000000 	adrp	x0, 40202000 <_vector_table+0x800>
    40200e88:	9101d800 	add	x0, x0, #0x76
    40200e8c:	b81c8288 	stur	w8, [x20, #-56]
    40200e90:	f0008108 	adrp	x8, 41223000 <procs+0xfc40>
    40200e94:	b81cc29f 	stur	wzr, [x20, #-52]
    40200e98:	b81d0293 	stur	w19, [x20, #-48]
    40200e9c:	f9026513 	str	x19, [x8, #1224]
    40200ea0:	8b090268 	add	x8, x19, x9
    40200ea4:	f9084668 	str	x8, [x19, #4232]
    40200ea8:	52800088 	mov	w8, #0x4                   	// #4
    40200eac:	7921227f 	strh	wzr, [x19, #4240]
    40200eb0:	b9000288 	str	w8, [x20]
    40200eb4:	f9404a88 	ldr	x8, [x20, #144]
    40200eb8:	53185d01 	lsl	w1, w8, #8
    40200ebc:	f0008108 	adrp	x8, 41223000 <procs+0xfc40>
    40200ec0:	b904d101 	str	w1, [x8, #1232]
    40200ec4:	94000131 	bl	40201388 <printf>
    40200ec8:	f941d2b3 	ldr	x19, [x21, #928]
    40200ecc:	91400668 	add	x8, x19, #0x1, lsl #12
    40200ed0:	eb16011f 	cmp	x8, x22
    40200ed4:	f901d2a8 	str	x8, [x21, #928]
    40200ed8:	54000109 	b.ls	40200ef8 <virtio_blk_init+0x194>  // b.plast
    40200edc:	d0000000 	adrp	x0, 40202000 <_vector_table+0x800>
    40200ee0:	9104f800 	add	x0, x0, #0x13e
    40200ee4:	b0000001 	adrp	x1, 40201000 <read_write_disk+0x84>
    40200ee8:	913e4021 	add	x1, x1, #0xf90
    40200eec:	52800e82 	mov	w2, #0x74                  	// #116
    40200ef0:	94000126 	bl	40201388 <printf>
    40200ef4:	14000000 	b	40200ef4 <virtio_blk_init+0x190>
    40200ef8:	aa1303e0 	mov	x0, x19
    40200efc:	2a1f03e1 	mov	w1, wzr
    40200f00:	52820002 	mov	w2, #0x1000                	// #4096
    40200f04:	940000e3 	bl	40201290 <memset>
    40200f08:	f0008108 	adrp	x8, 41223000 <procs+0xfc40>
    40200f0c:	f0008109 	adrp	x9, 41223000 <procs+0xfc40>
    40200f10:	f9026d13 	str	x19, [x8, #1240]
    40200f14:	a94157f6 	ldp	x22, x21, [sp, #16]
    40200f18:	f9027133 	str	x19, [x9, #1248]
    40200f1c:	a9424ff4 	ldp	x20, x19, [sp, #32]
    40200f20:	a8c37bfd 	ldp	x29, x30, [sp], #48
    40200f24:	d65f03c0 	ret

0000000040200f28 <virtq_kick>:
    40200f28:	79420408 	ldrh	w8, [x0, #258]
    40200f2c:	92400d09 	and	x9, x8, #0xf
    40200f30:	11000508 	add	w8, w8, #0x1
    40200f34:	8b090409 	add	x9, x0, x9, lsl #1
    40200f38:	79020408 	strh	w8, [x0, #258]
    40200f3c:	79020921 	strh	w1, [x9, #260]
    40200f40:	52800a09 	mov	w9, #0x50                  	// #80
    40200f44:	d5033bbf 	dmb	ish
    40200f48:	72a14009 	movk	w9, #0xa00, lsl #16
    40200f4c:	b9508408 	ldr	w8, [x0, #4228]
    40200f50:	b9000128 	str	w8, [x9]
    40200f54:	79612008 	ldrh	w8, [x0, #4240]
    40200f58:	11000508 	add	w8, w8, #0x1
    40200f5c:	79212008 	strh	w8, [x0, #4240]
    40200f60:	d65f03c0 	ret

0000000040200f64 <virtq_is_busy>:
    40200f64:	f9484408 	ldr	x8, [x0, #4232]
    40200f68:	79612009 	ldrh	w9, [x0, #4240]
    40200f6c:	79400108 	ldrh	w8, [x8]
    40200f70:	6b08013f 	cmp	w9, w8
    40200f74:	1a9f07e0 	cset	w0, ne	// ne = any
    40200f78:	d65f03c0 	ret

0000000040200f7c <read_write_disk>:
    40200f7c:	a9bd7bfd 	stp	x29, x30, [sp, #-48]!
    40200f80:	a90157f6 	stp	x22, x21, [sp, #16]
    40200f84:	a9024ff4 	stp	x20, x19, [sp, #32]
    40200f88:	910003fd 	mov	x29, sp
    40200f8c:	f0008108 	adrp	x8, 41223000 <procs+0xfc40>
    40200f90:	2a0203f3 	mov	w19, w2
    40200f94:	b944d108 	ldr	w8, [x8, #1232]
    40200f98:	53087d02 	lsr	w2, w8, #8
    40200f9c:	6b01005f 	cmp	w2, w1
    40200fa0:	54000229 	b.ls	40200fe4 <read_write_disk+0x68>  // b.plast
    40200fa4:	f0008115 	adrp	x21, 41223000 <procs+0xfc40>
    40200fa8:	7100027f 	cmp	w19, #0x0
    40200fac:	aa0003f4 	mov	x20, x0
    40200fb0:	f94272a8 	ldr	x8, [x21, #1248]
    40200fb4:	2a0103f6 	mov	w22, w1
    40200fb8:	2a0103e9 	mov	w9, w1
    40200fbc:	1a9f07ea 	cset	w10, ne	// ne = any
    40200fc0:	f9000509 	str	x9, [x8, #8]
    40200fc4:	b900010a 	str	w10, [x8]
    40200fc8:	34000153 	cbz	w19, 40200ff0 <read_write_disk+0x74>
    40200fcc:	91004100 	add	x0, x8, #0x10
    40200fd0:	aa1403e1 	mov	x1, x20
    40200fd4:	52802002 	mov	w2, #0x100                 	// #256
    40200fd8:	9400007c 	bl	402011c8 <memcpy>
    40200fdc:	52800028 	mov	w8, #0x1                   	// #1
    40200fe0:	14000005 	b	40200ff4 <read_write_disk+0x78>
    40200fe4:	d0000000 	adrp	x0, 40202000 <_vector_table+0x800>
    40200fe8:	91038c00 	add	x0, x0, #0xe3
    40200fec:	1400002e 	b	402010a4 <read_write_disk+0x128>
    40200ff0:	52800068 	mov	w8, #0x3                   	// #3
    40200ff4:	f0008109 	adrp	x9, 41223000 <procs+0xfc40>
    40200ff8:	f000810a 	adrp	x10, 41223000 <procs+0xfc40>
    40200ffc:	f942652b 	ldr	x11, [x9, #1224]
    40201000:	f9426d49 	ldr	x9, [x10, #1240]
    40201004:	d280020a 	mov	x10, #0x10                  	// #16
    40201008:	f2c0002a 	movk	x10, #0x1, lsl #32
    4020100c:	f2e0002a 	movk	x10, #0x1, lsl #48
    40201010:	79003968 	strh	w8, [x11, #28]
    40201014:	91084128 	add	x8, x9, #0x210
    40201018:	a9002969 	stp	x9, x10, [x11]
    4020101c:	5280200a 	mov	w10, #0x100                 	// #256
    40201020:	b900196a 	str	w10, [x11, #24]
    40201024:	9100412a 	add	x10, x9, #0x10
    40201028:	79420569 	ldrh	w9, [x11, #258]
    4020102c:	f9001168 	str	x8, [x11, #32]
    40201030:	52800028 	mov	w8, #0x1                   	// #1
    40201034:	b9002968 	str	w8, [x11, #40]
    40201038:	92400d28 	and	x8, x9, #0xf
    4020103c:	11000529 	add	w9, w9, #0x1
    40201040:	8b080568 	add	x8, x11, x8, lsl #1
    40201044:	f900096a 	str	x10, [x11, #16]
    40201048:	5280004a 	mov	w10, #0x2                   	// #2
    4020104c:	79003d6a 	strh	w10, [x11, #30]
    40201050:	7900596a 	strh	w10, [x11, #44]
    40201054:	7902091f 	strh	wzr, [x8, #260]
    40201058:	79020569 	strh	w9, [x11, #258]
    4020105c:	52800a09 	mov	w9, #0x50                  	// #80
    40201060:	d5033bbf 	dmb	ish
    40201064:	72a14009 	movk	w9, #0xa00, lsl #16
    40201068:	b9508568 	ldr	w8, [x11, #4228]
    4020106c:	b9000128 	str	w8, [x9]
    40201070:	79612168 	ldrh	w8, [x11, #4240]
    40201074:	f9484569 	ldr	x9, [x11, #4232]
    40201078:	11000508 	add	w8, w8, #0x1
    4020107c:	79212168 	strh	w8, [x11, #4240]
    40201080:	7940012a 	ldrh	w10, [x9]
    40201084:	6b28215f 	cmp	w10, w8, uxth
    40201088:	54ffffc1 	b.ne	40201080 <read_write_disk+0x104>  // b.any
    4020108c:	f94272a8 	ldr	x8, [x21, #1248]
    40201090:	39484102 	ldrb	w2, [x8, #528]
    40201094:	34000102 	cbz	w2, 402010b4 <read_write_disk+0x138>
    40201098:	2a1603e1 	mov	w1, w22
    4020109c:	b0000000 	adrp	x0, 40202000 <_vector_table+0x800>
    402010a0:	910a3000 	add	x0, x0, #0x28c
    402010a4:	a9424ff4 	ldp	x20, x19, [sp, #32]
    402010a8:	a94157f6 	ldp	x22, x21, [sp, #16]
    402010ac:	a8c37bfd 	ldp	x29, x30, [sp], #48
    402010b0:	140000b6 	b	40201388 <printf>
    402010b4:	340000b3 	cbz	w19, 402010c8 <read_write_disk+0x14c>
    402010b8:	a9424ff4 	ldp	x20, x19, [sp, #32]
    402010bc:	a94157f6 	ldp	x22, x21, [sp, #16]
    402010c0:	a8c37bfd 	ldp	x29, x30, [sp], #48
    402010c4:	d65f03c0 	ret
    402010c8:	aa1403e0 	mov	x0, x20
    402010cc:	a9424ff4 	ldp	x20, x19, [sp, #32]
    402010d0:	a94157f6 	ldp	x22, x21, [sp, #16]
    402010d4:	91004101 	add	x1, x8, #0x10
    402010d8:	52802002 	mov	w2, #0x100                 	// #256
    402010dc:	a8c37bfd 	ldp	x29, x30, [sp], #48
    402010e0:	1400003a 	b	402011c8 <memcpy>

00000000402010e4 <kernel_main>:
    402010e4:	d10483ff 	sub	sp, sp, #0x120
    402010e8:	a9107bfd 	stp	x29, x30, [sp, #256]
    402010ec:	f9008bfc 	str	x28, [sp, #272]
    402010f0:	910403fd 	add	x29, sp, #0x100
    402010f4:	d0008080 	adrp	x0, 41213000 <_binary_shell_bin_start+0x1010c58>
    402010f8:	910ec000 	add	x0, x0, #0x3b0
    402010fc:	d0008108 	adrp	x8, 41223000 <procs+0xfc40>
    40201100:	9113e108 	add	x8, x8, #0x4f8
    40201104:	2a1f03e1 	mov	w1, wzr
    40201108:	4b000102 	sub	w2, w8, w0
    4020110c:	94000061 	bl	40201290 <memset>
    40201110:	d5384248 	mrs	x8, currentel
    40201114:	d342fd01 	lsr	x1, x8, #2
    40201118:	f100043f 	cmp	x1, #0x1
    4020111c:	54000201 	b.ne	4020115c <kernel_main+0x78>  // b.any
    40201120:	5286a208 	mov	w8, #0x3510                	// #13584
    40201124:	52801fe9 	mov	w9, #0xff                  	// #255
    40201128:	d518a209 	msr	mair_el1, x9
    4020112c:	d5182048 	msr	tcr_el1, x8
    40201130:	d5033fdf 	isb
    40201134:	97fffbd4 	bl	40200084 <setup_vect>
    40201138:	d5381008 	mrs	x8, sctlr_el1
    4020113c:	528201a9 	mov	w9, #0x100d                	// #4109
    40201140:	b0000000 	adrp	x0, 40202000 <_vector_table+0x800>
    40201144:	91047800 	add	x0, x0, #0x11e
    40201148:	aa090108 	orr	x8, x8, x9
    4020114c:	d5181008 	msr	sctlr_el1, x8
    40201150:	d5033fdf 	isb
    40201154:	9400008d 	bl	40201388 <printf>
    40201158:	14000004 	b	40201168 <kernel_main+0x84>
    4020115c:	d503201f 	nop
    40201160:	500080e0 	adr	x0, 4020217e <_vector_table+0x97e>
    40201164:	94000089 	bl	40201388 <printf>
    40201168:	97fffeff 	bl	40200d64 <virtio_blk_init>
    4020116c:	910003e0 	mov	x0, sp
    40201170:	2a1f03e1 	mov	w1, wzr
    40201174:	2a1f03e2 	mov	w2, wzr
    40201178:	97ffff81 	bl	40200f7c <read_write_disk>
    4020117c:	b0000000 	adrp	x0, 40202000 <_vector_table+0x800>
    40201180:	9106e400 	add	x0, x0, #0x1b9
    40201184:	910003e1 	mov	x1, sp
    40201188:	94000080 	bl	40201388 <printf>
    4020118c:	b0000001 	adrp	x1, 40202000 <_vector_table+0x800>
    40201190:	910b4c21 	add	x1, x1, #0x2d3
    40201194:	910003e0 	mov	x0, sp
    40201198:	94000066 	bl	40201330 <strcpy>
    4020119c:	910003e0 	mov	x0, sp
    402011a0:	2a1f03e1 	mov	w1, wzr
    402011a4:	52800022 	mov	w2, #0x1                   	// #1
    402011a8:	97ffff75 	bl	40200f7c <read_write_disk>
    402011ac:	90000000 	adrp	x0, 40201000 <read_write_disk+0x84>
    402011b0:	913f8c00 	add	x0, x0, #0xfe3
    402011b4:	90000001 	adrp	x1, 40201000 <read_write_disk+0x84>
    402011b8:	913e4021 	add	x1, x1, #0xf90
    402011bc:	52805842 	mov	w2, #0x2c2                 	// #706
    402011c0:	94000072 	bl	40201388 <printf>
    402011c4:	14000000 	b	402011c4 <kernel_main+0xe0>

00000000402011c8 <memcpy>:
    402011c8:	34000622 	cbz	w2, 4020128c <memcpy+0xc4>
    402011cc:	7100205f 	cmp	w2, #0x8
    402011d0:	54000123 	b.cc	402011f4 <memcpy+0x2c>  // b.lo, b.ul, b.last
    402011d4:	cb010008 	sub	x8, x0, x1
    402011d8:	f100811f 	cmp	x8, #0x20
    402011dc:	540000c3 	b.cc	402011f4 <memcpy+0x2c>  // b.lo, b.ul, b.last
    402011e0:	7100805f 	cmp	w2, #0x20
    402011e4:	2a0203e8 	mov	w8, w2
    402011e8:	540000c2 	b.cs	40201200 <memcpy+0x38>  // b.hs, b.nlast
    402011ec:	aa1f03eb 	mov	x11, xzr
    402011f0:	14000012 	b	40201238 <memcpy+0x70>
    402011f4:	aa0103e9 	mov	x9, x1
    402011f8:	aa0003ea 	mov	x10, x0
    402011fc:	14000020 	b	4020127c <memcpy+0xb4>
    40201200:	927b690b 	and	x11, x8, #0xffffffe0
    40201204:	91004009 	add	x9, x0, #0x10
    40201208:	9100402a 	add	x10, x1, #0x10
    4020120c:	aa0b03ec 	mov	x12, x11
    40201210:	ad7f8540 	ldp	q0, q1, [x10, #-16]
    40201214:	f100818c 	subs	x12, x12, #0x20
    40201218:	9100814a 	add	x10, x10, #0x20
    4020121c:	ad3f8520 	stp	q0, q1, [x9, #-16]
    40201220:	91008129 	add	x9, x9, #0x20
    40201224:	54ffff61 	b.ne	40201210 <memcpy+0x48>  // b.any
    40201228:	eb08017f 	cmp	x11, x8
    4020122c:	54000300 	b.eq	4020128c <memcpy+0xc4>  // b.none
    40201230:	f27d051f 	tst	x8, #0x18
    40201234:	540001e0 	b.eq	40201270 <memcpy+0xa8>  // b.none
    40201238:	927d710c 	and	x12, x8, #0xfffffff8
    4020123c:	8b0b000d 	add	x13, x0, x11
    40201240:	8b0b002e 	add	x14, x1, x11
    40201244:	8b0c0029 	add	x9, x1, x12
    40201248:	8b0c000a 	add	x10, x0, x12
    4020124c:	4b0c0042 	sub	w2, w2, w12
    40201250:	cb0c016b 	sub	x11, x11, x12
    40201254:	fc4085c0 	ldr	d0, [x14], #8
    40201258:	b100216b 	adds	x11, x11, #0x8
    4020125c:	fc0085a0 	str	d0, [x13], #8
    40201260:	54ffffa1 	b.ne	40201254 <memcpy+0x8c>  // b.any
    40201264:	eb08019f 	cmp	x12, x8
    40201268:	540000a1 	b.ne	4020127c <memcpy+0xb4>  // b.any
    4020126c:	14000008 	b	4020128c <memcpy+0xc4>
    40201270:	4b0b0042 	sub	w2, w2, w11
    40201274:	8b0b000a 	add	x10, x0, x11
    40201278:	8b0b0029 	add	x9, x1, x11
    4020127c:	38401528 	ldrb	w8, [x9], #1
    40201280:	71000442 	subs	w2, w2, #0x1
    40201284:	38001548 	strb	w8, [x10], #1
    40201288:	54ffffa1 	b.ne	4020127c <memcpy+0xb4>  // b.any
    4020128c:	d65f03c0 	ret

0000000040201290 <memset>:
    40201290:	340004e2 	cbz	w2, 4020132c <memset+0x9c>
    40201294:	7100205f 	cmp	w2, #0x8
    40201298:	54000062 	b.cs	402012a4 <memset+0x14>  // b.hs, b.nlast
    4020129c:	aa0003e9 	mov	x9, x0
    402012a0:	14000020 	b	40201320 <memset+0x90>
    402012a4:	7100805f 	cmp	w2, #0x20
    402012a8:	2a0203e8 	mov	w8, w2
    402012ac:	54000062 	b.cs	402012b8 <memset+0x28>  // b.hs, b.nlast
    402012b0:	aa1f03ea 	mov	x10, xzr
    402012b4:	1400000d 	b	402012e8 <memset+0x58>
    402012b8:	4e010c20 	dup	v0.16b, w1
    402012bc:	927b690a 	and	x10, x8, #0xffffffe0
    402012c0:	91004009 	add	x9, x0, #0x10
    402012c4:	aa0a03eb 	mov	x11, x10
    402012c8:	ad3f8120 	stp	q0, q0, [x9, #-16]
    402012cc:	f100816b 	subs	x11, x11, #0x20
    402012d0:	91008129 	add	x9, x9, #0x20
    402012d4:	54ffffa1 	b.ne	402012c8 <memset+0x38>  // b.any
    402012d8:	eb08015f 	cmp	x10, x8
    402012dc:	54000280 	b.eq	4020132c <memset+0x9c>  // b.none
    402012e0:	f27d051f 	tst	x8, #0x18
    402012e4:	540001a0 	b.eq	40201318 <memset+0x88>  // b.none
    402012e8:	0e010c20 	dup	v0.8b, w1
    402012ec:	927d710b 	and	x11, x8, #0xfffffff8
    402012f0:	8b0a000c 	add	x12, x0, x10
    402012f4:	8b0b0009 	add	x9, x0, x11
    402012f8:	4b0b0042 	sub	w2, w2, w11
    402012fc:	cb0b014a 	sub	x10, x10, x11
    40201300:	b100214a 	adds	x10, x10, #0x8
    40201304:	fc008580 	str	d0, [x12], #8
    40201308:	54ffffc1 	b.ne	40201300 <memset+0x70>  // b.any
    4020130c:	eb08017f 	cmp	x11, x8
    40201310:	54000081 	b.ne	40201320 <memset+0x90>  // b.any
    40201314:	14000006 	b	4020132c <memset+0x9c>
    40201318:	4b0a0042 	sub	w2, w2, w10
    4020131c:	8b0a0009 	add	x9, x0, x10
    40201320:	71000442 	subs	w2, w2, #0x1
    40201324:	38001521 	strb	w1, [x9], #1
    40201328:	54ffffc1 	b.ne	40201320 <memset+0x90>  // b.any
    4020132c:	d65f03c0 	ret

0000000040201330 <strcpy>:
    40201330:	39400028 	ldrb	w8, [x1]
    40201334:	aa0003e9 	mov	x9, x0
    40201338:	340000c8 	cbz	w8, 40201350 <strcpy+0x20>
    4020133c:	9100042a 	add	x10, x1, #0x1
    40201340:	aa0003e9 	mov	x9, x0
    40201344:	38001528 	strb	w8, [x9], #1
    40201348:	38401548 	ldrb	w8, [x10], #1
    4020134c:	35ffffc8 	cbnz	w8, 40201344 <strcpy+0x14>
    40201350:	3900013f 	strb	wzr, [x9]
    40201354:	d65f03c0 	ret

0000000040201358 <strcmp>:
    40201358:	39400008 	ldrb	w8, [x0]
    4020135c:	34000108 	cbz	w8, 4020137c <strcmp+0x24>
    40201360:	91000409 	add	x9, x0, #0x1
    40201364:	3940002a 	ldrb	w10, [x1]
    40201368:	6b0a011f 	cmp	w8, w10
    4020136c:	54000081 	b.ne	4020137c <strcmp+0x24>  // b.any
    40201370:	38401528 	ldrb	w8, [x9], #1
    40201374:	91000421 	add	x1, x1, #0x1
    40201378:	35ffff68 	cbnz	w8, 40201364 <strcmp+0xc>
    4020137c:	39400029 	ldrb	w9, [x1]
    40201380:	4b090100 	sub	w0, w8, w9
    40201384:	d65f03c0 	ret

0000000040201388 <printf>:
    40201388:	d104c3ff 	sub	sp, sp, #0x130
    4020138c:	a90e7bfd 	stp	x29, x30, [sp, #224]
    40201390:	f9007bfc 	str	x28, [sp, #240]
    40201394:	a9105ff8 	stp	x24, x23, [sp, #256]
    40201398:	a91157f6 	stp	x22, x21, [sp, #272]
    4020139c:	a9124ff4 	stp	x20, x19, [sp, #288]
    402013a0:	910383fd 	add	x29, sp, #0xe0
    402013a4:	928006e8 	mov	x8, #0xffffffffffffffc8    	// #-56
    402013a8:	910003e9 	mov	x9, sp
    402013ac:	d10163aa 	sub	x10, x29, #0x58
    402013b0:	f2dff008 	movk	x8, #0xff80, lsl #32
    402013b4:	91020129 	add	x9, x9, #0x80
    402013b8:	529999b4 	mov	w20, #0xcccd                	// #52429
    402013bc:	aa0003f3 	mov	x19, x0
    402013c0:	a93f23a9 	stp	x9, x8, [x29, #-16]
    402013c4:	9100e148 	add	x8, x10, #0x38
    402013c8:	910143a9 	add	x9, x29, #0x50
    402013cc:	72b99994 	movk	w20, #0xcccc, lsl #16
    402013d0:	d503201f 	nop
    402013d4:	300078b5 	adr	x21, 402022e9 <_vector_table+0xae9>
    402013d8:	a93a8ba1 	stp	x1, x2, [x29, #-88]
    402013dc:	a93b93a3 	stp	x3, x4, [x29, #-72]
    402013e0:	a93c9ba5 	stp	x5, x6, [x29, #-56]
    402013e4:	f81d83a7 	stur	x7, [x29, #-40]
    402013e8:	ad0007e0 	stp	q0, q1, [sp]
    402013ec:	ad010fe2 	stp	q2, q3, [sp, #32]
    402013f0:	ad0217e4 	stp	q4, q5, [sp, #64]
    402013f4:	ad031fe6 	stp	q6, q7, [sp, #96]
    402013f8:	a93e23a9 	stp	x9, x8, [x29, #-32]
    402013fc:	14000003 	b	40201408 <printf+0x80>
    40201400:	34000d40 	cbz	w0, 402015a8 <printf+0x220>
    40201404:	91000673 	add	x19, x19, #0x1
    40201408:	39400260 	ldrb	w0, [x19]
    4020140c:	7100941f 	cmp	w0, #0x25
    40201410:	540000a0 	b.eq	40201424 <printf+0x9c>  // b.none
    40201414:	34000ce0 	cbz	w0, 402015b0 <printf+0x228>
    40201418:	97fffb07 	bl	40200034 <putchar>
    4020141c:	91000673 	add	x19, x19, #0x1
    40201420:	17fffffa 	b	40201408 <printf+0x80>
    40201424:	38401e60 	ldrb	w0, [x19, #1]!
    40201428:	7101c81f 	cmp	w0, #0x72
    4020142c:	5400020c 	b.gt	4020146c <printf+0xe4>
    40201430:	7100941f 	cmp	w0, #0x25
    40201434:	54ffff20 	b.eq	40201418 <printf+0x90>  // b.none
    40201438:	7101901f 	cmp	w0, #0x64
    4020143c:	54fffe21 	b.ne	40201400 <printf+0x78>  // b.any
    40201440:	b89f83a8 	ldursw	x8, [x29, #-8]
    40201444:	36f80408 	tbz	w8, #31, 402014c4 <printf+0x13c>
    40201448:	11002109 	add	w9, w8, #0x8
    4020144c:	3100211f 	cmn	w8, #0x8
    40201450:	b81f83a9 	stur	w9, [x29, #-8]
    40201454:	54000388 	b.hi	402014c4 <printf+0x13c>  // b.pmore
    40201458:	f85e83a9 	ldur	x9, [x29, #-24]
    4020145c:	8b080128 	add	x8, x9, x8
    40201460:	b9400116 	ldr	w22, [x8]
    40201464:	36f80416 	tbz	w22, #31, 402014e4 <printf+0x15c>
    40201468:	1400001c 	b	402014d8 <printf+0x150>
    4020146c:	7101cc1f 	cmp	w0, #0x73
    40201470:	54000180 	b.eq	402014a0 <printf+0x118>  // b.none
    40201474:	7101e01f 	cmp	w0, #0x78
    40201478:	54fffc61 	b.ne	40201404 <printf+0x7c>  // b.any
    4020147c:	b89f83a8 	ldursw	x8, [x29, #-8]
    40201480:	36f806c8 	tbz	w8, #31, 40201558 <printf+0x1d0>
    40201484:	11002109 	add	w9, w8, #0x8
    40201488:	3100211f 	cmn	w8, #0x8
    4020148c:	b81f83a9 	stur	w9, [x29, #-8]
    40201490:	54000648 	b.hi	40201558 <printf+0x1d0>  // b.pmore
    40201494:	f85e83a9 	ldur	x9, [x29, #-24]
    40201498:	8b080129 	add	x9, x9, x8
    4020149c:	14000032 	b	40201564 <printf+0x1dc>
    402014a0:	b89f83a8 	ldursw	x8, [x29, #-8]
    402014a4:	36f80448 	tbz	w8, #31, 4020152c <printf+0x1a4>
    402014a8:	11002109 	add	w9, w8, #0x8
    402014ac:	3100211f 	cmn	w8, #0x8
    402014b0:	b81f83a9 	stur	w9, [x29, #-8]
    402014b4:	540003c8 	b.hi	4020152c <printf+0x1a4>  // b.pmore
    402014b8:	f85e83a9 	ldur	x9, [x29, #-24]
    402014bc:	8b080128 	add	x8, x9, x8
    402014c0:	1400001e 	b	40201538 <printf+0x1b0>
    402014c4:	f85e03a8 	ldur	x8, [x29, #-32]
    402014c8:	91002109 	add	x9, x8, #0x8
    402014cc:	f81e03a9 	stur	x9, [x29, #-32]
    402014d0:	b9400116 	ldr	w22, [x8]
    402014d4:	36f80096 	tbz	w22, #31, 402014e4 <printf+0x15c>
    402014d8:	528005a0 	mov	w0, #0x2d                  	// #45
    402014dc:	97fffad6 	bl	40200034 <putchar>
    402014e0:	4b1603f6 	neg	w22, w22
    402014e4:	52800037 	mov	w23, #0x1                   	// #1
    402014e8:	71002adf 	cmp	w22, #0xa
    402014ec:	540000c3 	b.cc	40201504 <printf+0x17c>  // b.lo, b.ul, b.last
    402014f0:	0b170ae8 	add	w8, w23, w23, lsl #2
    402014f4:	531f7917 	lsl	w23, w8, #1
    402014f8:	1ad70ac8 	udiv	w8, w22, w23
    402014fc:	7100251f 	cmp	w8, #0x9
    40201500:	54ffff88 	b.hi	402014f0 <printf+0x168>  // b.pmore
    40201504:	1ad70ad8 	udiv	w24, w22, w23
    40201508:	1100c300 	add	w0, w24, #0x30
    4020150c:	97fffaca 	bl	40200034 <putchar>
    40201510:	9bb47ee8 	umull	x8, w23, w20
    40201514:	71002aff 	cmp	w23, #0xa
    40201518:	1b17db16 	msub	w22, w24, w23, w22
    4020151c:	d363fd08 	lsr	x8, x8, #35
    40201520:	2a0803f7 	mov	w23, w8
    40201524:	54ffff02 	b.cs	40201504 <printf+0x17c>  // b.hs, b.nlast
    40201528:	17ffffb7 	b	40201404 <printf+0x7c>
    4020152c:	f85e03a8 	ldur	x8, [x29, #-32]
    40201530:	91002109 	add	x9, x8, #0x8
    40201534:	f81e03a9 	stur	x9, [x29, #-32]
    40201538:	f9400108 	ldr	x8, [x8]
    4020153c:	39400100 	ldrb	w0, [x8]
    40201540:	34fff620 	cbz	w0, 40201404 <printf+0x7c>
    40201544:	91000516 	add	x22, x8, #0x1
    40201548:	97fffabb 	bl	40200034 <putchar>
    4020154c:	384016c0 	ldrb	w0, [x22], #1
    40201550:	35ffffc0 	cbnz	w0, 40201548 <printf+0x1c0>
    40201554:	17ffffac 	b	40201404 <printf+0x7c>
    40201558:	f85e03a9 	ldur	x9, [x29, #-32]
    4020155c:	91002128 	add	x8, x9, #0x8
    40201560:	f81e03a8 	stur	x8, [x29, #-32]
    40201564:	f9400136 	ldr	x22, [x9]
    40201568:	2a1f03e8 	mov	w8, wzr
    4020156c:	52800797 	mov	w23, #0x3c                  	// #60
    40201570:	14000008 	b	40201590 <printf+0x208>
    40201574:	92400d28 	and	x8, x9, #0xf
    40201578:	38686aa0 	ldrb	w0, [x21, x8]
    4020157c:	97fffaae 	bl	40200034 <putchar>
    40201580:	52800028 	mov	w8, #0x1                   	// #1
    40201584:	d10012f7 	sub	x23, x23, #0x4
    40201588:	b10012ff 	cmn	x23, #0x4
    4020158c:	54fff3c0 	b.eq	40201404 <printf+0x7c>  // b.none
    40201590:	9ad726c9 	lsr	x9, x22, x23
    40201594:	b4ffff17 	cbz	x23, 40201574 <printf+0x1ec>
    40201598:	12000d2a 	and	w10, w9, #0xf
    4020159c:	2a080148 	orr	w8, w10, w8
    402015a0:	34ffff28 	cbz	w8, 40201584 <printf+0x1fc>
    402015a4:	17fffff4 	b	40201574 <printf+0x1ec>
    402015a8:	528004a0 	mov	w0, #0x25                  	// #37
    402015ac:	97fffaa2 	bl	40200034 <putchar>
    402015b0:	a9524ff4 	ldp	x20, x19, [sp, #288]
    402015b4:	f9407bfc 	ldr	x28, [sp, #240]
    402015b8:	a95157f6 	ldp	x22, x21, [sp, #272]
    402015bc:	a9505ff8 	ldp	x24, x23, [sp, #256]
    402015c0:	a94e7bfd 	ldp	x29, x30, [sp, #224]
    402015c4:	9104c3ff 	add	sp, sp, #0x130
    402015c8:	d65f03c0 	ret

00000000402015cc <sync_el1_handler>:
    402015cc:	d10443ff 	sub	sp, sp, #0x110
    402015d0:	a90007e0 	stp	x0, x1, [sp]
    402015d4:	a9010fe2 	stp	x2, x3, [sp, #16]
    402015d8:	a90217e4 	stp	x4, x5, [sp, #32]
    402015dc:	a9031fe6 	stp	x6, x7, [sp, #48]
    402015e0:	a90427e8 	stp	x8, x9, [sp, #64]
    402015e4:	a9052fea 	stp	x10, x11, [sp, #80]
    402015e8:	a90637ec 	stp	x12, x13, [sp, #96]
    402015ec:	a9073fee 	stp	x14, x15, [sp, #112]
    402015f0:	a90847f0 	stp	x16, x17, [sp, #128]
    402015f4:	a9094ff2 	stp	x18, x19, [sp, #144]
    402015f8:	a90a57f4 	stp	x20, x21, [sp, #160]
    402015fc:	a90b5ff6 	stp	x22, x23, [sp, #176]
    40201600:	a90c67f8 	stp	x24, x25, [sp, #192]
    40201604:	a90d6ffa 	stp	x26, x27, [sp, #208]
    40201608:	a90e77fc 	stp	x28, x29, [sp, #224]
    4020160c:	f9007bfe 	str	x30, [sp, #240]
    40201610:	d5384015 	mrs	x21, spsr_el1
    40201614:	d5384036 	mrs	x22, elr_el1
    40201618:	f9007ff5 	str	x21, [sp, #248]
    4020161c:	f90083f6 	str	x22, [sp, #256]
    40201620:	910003e0 	mov	x0, sp
    40201624:	97fffd61 	bl	40200ba8 <handle_trap>
    40201628:	f94083f5 	ldr	x21, [sp, #256]
    4020162c:	f9407ff6 	ldr	x22, [sp, #248]
    40201630:	d5184035 	msr	elr_el1, x21
    40201634:	d5184016 	msr	spsr_el1, x22
    40201638:	a94007e0 	ldp	x0, x1, [sp]
    4020163c:	a9410fe2 	ldp	x2, x3, [sp, #16]
    40201640:	a94217e4 	ldp	x4, x5, [sp, #32]
    40201644:	a9431fe6 	ldp	x6, x7, [sp, #48]
    40201648:	a94427e8 	ldp	x8, x9, [sp, #64]
    4020164c:	a9452fea 	ldp	x10, x11, [sp, #80]
    40201650:	a94637ec 	ldp	x12, x13, [sp, #96]
    40201654:	a9473fee 	ldp	x14, x15, [sp, #112]
    40201658:	a94847f0 	ldp	x16, x17, [sp, #128]
    4020165c:	a9494ff2 	ldp	x18, x19, [sp, #144]
    40201660:	a94a57f4 	ldp	x20, x21, [sp, #160]
    40201664:	a94b5ff6 	ldp	x22, x23, [sp, #176]
    40201668:	a94c67f8 	ldp	x24, x25, [sp, #192]
    4020166c:	a94d6ffa 	ldp	x26, x27, [sp, #208]
    40201670:	a94e77fc 	ldp	x28, x29, [sp, #224]
    40201674:	f9407bfe 	ldr	x30, [sp, #240]
    40201678:	910443ff 	add	sp, sp, #0x110
    4020167c:	d69f03e0 	eret

0000000040201680 <irq_el1_handler>:
    40201680:	94000034 	bl	40201750 <handle_irq_el1>
    40201684:	14000000 	b	40201684 <irq_el1_handler+0x4>

0000000040201688 <fiq_el1_handler>:
    40201688:	94000033 	bl	40201754 <handle_fiq_el1>
    4020168c:	14000000 	b	4020168c <fiq_el1_handler+0x4>

0000000040201690 <serror_el1_handler>:
    40201690:	94000032 	bl	40201758 <handle_serror_el1>
    40201694:	14000000 	b	40201694 <serror_el1_handler+0x4>

0000000040201698 <sync_el2_handler>:
    40201698:	94000031 	bl	4020175c <handle_sync_el2>
    4020169c:	14000000 	b	4020169c <sync_el2_handler+0x4>

00000000402016a0 <irq_el2_handler>:
    402016a0:	94000030 	bl	40201760 <handle_irq_el2>
    402016a4:	14000000 	b	402016a4 <irq_el2_handler+0x4>

00000000402016a8 <fiq_el2_handler>:
    402016a8:	9400002f 	bl	40201764 <handle_fiq_el2>
    402016ac:	14000000 	b	402016ac <fiq_el2_handler+0x4>

00000000402016b0 <serror_el2_handler>:
    402016b0:	9400002e 	bl	40201768 <handle_serror_el2>
    402016b4:	14000000 	b	402016b4 <serror_el2_handler+0x4>

00000000402016b8 <handle_data_abort>:
    402016b8:	a9bd7bfd 	stp	x29, x30, [sp, #-48]!
    402016bc:	f9000bf5 	str	x21, [sp, #16]
    402016c0:	a9024ff4 	stp	x20, x19, [sp, #32]
    402016c4:	910003fd 	mov	x29, sp
    402016c8:	aa0003f3 	mov	x19, x0
    402016cc:	d35a7c14 	ubfx	x20, x0, #26, #6
    402016d0:	d503201f 	nop
    402016d4:	700058c0 	adr	x0, 402021ef <_vector_table+0x9ef>
    402016d8:	aa0103f5 	mov	x21, x1
    402016dc:	97ffff2b 	bl	40201388 <printf>
    402016e0:	b0000000 	adrp	x0, 40202000 <_vector_table+0x800>
    402016e4:	910b1000 	add	x0, x0, #0x2c4
    402016e8:	aa1303e1 	mov	x1, x19
    402016ec:	97ffff27 	bl	40201388 <printf>
    402016f0:	b0000000 	adrp	x0, 40202000 <_vector_table+0x800>
    402016f4:	910be800 	add	x0, x0, #0x2fa
    402016f8:	aa1503e1 	mov	x1, x21
    402016fc:	97ffff23 	bl	40201388 <printf>
    40201700:	b0000000 	adrp	x0, 40202000 <_vector_table+0x800>
    40201704:	9100d400 	add	x0, x0, #0x35
    40201708:	aa1403e1 	mov	x1, x20
    4020170c:	97ffff1f 	bl	40201388 <printf>
    40201710:	b0000000 	adrp	x0, 40202000 <_vector_table+0x800>
    40201714:	910db000 	add	x0, x0, #0x36c
    40201718:	92401661 	and	x1, x19, #0x3f
    4020171c:	97ffff1b 	bl	40201388 <printf>
    40201720:	b0000000 	adrp	x0, 40202000 <_vector_table+0x800>
    40201724:	91079000 	add	x0, x0, #0x1e4
    40201728:	92406261 	and	x1, x19, #0x1ffffff
    4020172c:	97ffff17 	bl	40201388 <printf>
    40201730:	b0000000 	adrp	x0, 40202000 <_vector_table+0x800>
    40201734:	9102fc00 	add	x0, x0, #0xbf
    40201738:	b0000001 	adrp	x1, 40202000 <_vector_table+0x800>
    4020173c:	910c2421 	add	x1, x1, #0x309
    40201740:	528002a2 	mov	w2, #0x15                  	// #21
    40201744:	97ffff11 	bl	40201388 <printf>
    40201748:	14000000 	b	40201748 <handle_data_abort+0x90>

000000004020174c <handle_sync_el1>:
    4020174c:	14000000 	b	4020174c <handle_sync_el1>

0000000040201750 <handle_irq_el1>:
    40201750:	14000000 	b	40201750 <handle_irq_el1>

0000000040201754 <handle_fiq_el1>:
    40201754:	14000000 	b	40201754 <handle_fiq_el1>

0000000040201758 <handle_serror_el1>:
    40201758:	14000000 	b	40201758 <handle_serror_el1>

000000004020175c <handle_sync_el2>:
    4020175c:	14000000 	b	4020175c <handle_sync_el2>

0000000040201760 <handle_irq_el2>:
    40201760:	14000000 	b	40201760 <handle_irq_el2>

0000000040201764 <handle_fiq_el2>:
    40201764:	14000000 	b	40201764 <handle_fiq_el2>

0000000040201768 <handle_serror_el2>:
    40201768:	14000000 	b	40201768 <handle_serror_el2>

Disassembly of section .vectors:

0000000040201800 <_vector_table>:
    40201800:	17ffff73 	b	402015cc <sync_el1_handler>
    40201804:	d503201f 	nop
    40201808:	d503201f 	nop
    4020180c:	d503201f 	nop
    40201810:	d503201f 	nop
    40201814:	d503201f 	nop
    40201818:	d503201f 	nop
    4020181c:	d503201f 	nop
    40201820:	d503201f 	nop
    40201824:	d503201f 	nop
    40201828:	d503201f 	nop
    4020182c:	d503201f 	nop
    40201830:	d503201f 	nop
    40201834:	d503201f 	nop
    40201838:	d503201f 	nop
    4020183c:	d503201f 	nop
    40201840:	d503201f 	nop
    40201844:	d503201f 	nop
    40201848:	d503201f 	nop
    4020184c:	d503201f 	nop
    40201850:	d503201f 	nop
    40201854:	d503201f 	nop
    40201858:	d503201f 	nop
    4020185c:	d503201f 	nop
    40201860:	d503201f 	nop
    40201864:	d503201f 	nop
    40201868:	d503201f 	nop
    4020186c:	d503201f 	nop
    40201870:	d503201f 	nop
    40201874:	d503201f 	nop
    40201878:	d503201f 	nop
    4020187c:	d503201f 	nop
    40201880:	17ffff80 	b	40201680 <irq_el1_handler>
    40201884:	d503201f 	nop
    40201888:	d503201f 	nop
    4020188c:	d503201f 	nop
    40201890:	d503201f 	nop
    40201894:	d503201f 	nop
    40201898:	d503201f 	nop
    4020189c:	d503201f 	nop
    402018a0:	d503201f 	nop
    402018a4:	d503201f 	nop
    402018a8:	d503201f 	nop
    402018ac:	d503201f 	nop
    402018b0:	d503201f 	nop
    402018b4:	d503201f 	nop
    402018b8:	d503201f 	nop
    402018bc:	d503201f 	nop
    402018c0:	d503201f 	nop
    402018c4:	d503201f 	nop
    402018c8:	d503201f 	nop
    402018cc:	d503201f 	nop
    402018d0:	d503201f 	nop
    402018d4:	d503201f 	nop
    402018d8:	d503201f 	nop
    402018dc:	d503201f 	nop
    402018e0:	d503201f 	nop
    402018e4:	d503201f 	nop
    402018e8:	d503201f 	nop
    402018ec:	d503201f 	nop
    402018f0:	d503201f 	nop
    402018f4:	d503201f 	nop
    402018f8:	d503201f 	nop
    402018fc:	d503201f 	nop
    40201900:	17ffff62 	b	40201688 <fiq_el1_handler>
    40201904:	d503201f 	nop
    40201908:	d503201f 	nop
    4020190c:	d503201f 	nop
    40201910:	d503201f 	nop
    40201914:	d503201f 	nop
    40201918:	d503201f 	nop
    4020191c:	d503201f 	nop
    40201920:	d503201f 	nop
    40201924:	d503201f 	nop
    40201928:	d503201f 	nop
    4020192c:	d503201f 	nop
    40201930:	d503201f 	nop
    40201934:	d503201f 	nop
    40201938:	d503201f 	nop
    4020193c:	d503201f 	nop
    40201940:	d503201f 	nop
    40201944:	d503201f 	nop
    40201948:	d503201f 	nop
    4020194c:	d503201f 	nop
    40201950:	d503201f 	nop
    40201954:	d503201f 	nop
    40201958:	d503201f 	nop
    4020195c:	d503201f 	nop
    40201960:	d503201f 	nop
    40201964:	d503201f 	nop
    40201968:	d503201f 	nop
    4020196c:	d503201f 	nop
    40201970:	d503201f 	nop
    40201974:	d503201f 	nop
    40201978:	d503201f 	nop
    4020197c:	d503201f 	nop
    40201980:	17ffff44 	b	40201690 <serror_el1_handler>
    40201984:	d503201f 	nop
    40201988:	d503201f 	nop
    4020198c:	d503201f 	nop
    40201990:	d503201f 	nop
    40201994:	d503201f 	nop
    40201998:	d503201f 	nop
    4020199c:	d503201f 	nop
    402019a0:	d503201f 	nop
    402019a4:	d503201f 	nop
    402019a8:	d503201f 	nop
    402019ac:	d503201f 	nop
    402019b0:	d503201f 	nop
    402019b4:	d503201f 	nop
    402019b8:	d503201f 	nop
    402019bc:	d503201f 	nop
    402019c0:	d503201f 	nop
    402019c4:	d503201f 	nop
    402019c8:	d503201f 	nop
    402019cc:	d503201f 	nop
    402019d0:	d503201f 	nop
    402019d4:	d503201f 	nop
    402019d8:	d503201f 	nop
    402019dc:	d503201f 	nop
    402019e0:	d503201f 	nop
    402019e4:	d503201f 	nop
    402019e8:	d503201f 	nop
    402019ec:	d503201f 	nop
    402019f0:	d503201f 	nop
    402019f4:	d503201f 	nop
    402019f8:	d503201f 	nop
    402019fc:	d503201f 	nop
    40201a00:	17fffef3 	b	402015cc <sync_el1_handler>
    40201a04:	d503201f 	nop
    40201a08:	d503201f 	nop
    40201a0c:	d503201f 	nop
    40201a10:	d503201f 	nop
    40201a14:	d503201f 	nop
    40201a18:	d503201f 	nop
    40201a1c:	d503201f 	nop
    40201a20:	d503201f 	nop
    40201a24:	d503201f 	nop
    40201a28:	d503201f 	nop
    40201a2c:	d503201f 	nop
    40201a30:	d503201f 	nop
    40201a34:	d503201f 	nop
    40201a38:	d503201f 	nop
    40201a3c:	d503201f 	nop
    40201a40:	d503201f 	nop
    40201a44:	d503201f 	nop
    40201a48:	d503201f 	nop
    40201a4c:	d503201f 	nop
    40201a50:	d503201f 	nop
    40201a54:	d503201f 	nop
    40201a58:	d503201f 	nop
    40201a5c:	d503201f 	nop
    40201a60:	d503201f 	nop
    40201a64:	d503201f 	nop
    40201a68:	d503201f 	nop
    40201a6c:	d503201f 	nop
    40201a70:	d503201f 	nop
    40201a74:	d503201f 	nop
    40201a78:	d503201f 	nop
    40201a7c:	d503201f 	nop
    40201a80:	17ffff00 	b	40201680 <irq_el1_handler>
    40201a84:	d503201f 	nop
    40201a88:	d503201f 	nop
    40201a8c:	d503201f 	nop
    40201a90:	d503201f 	nop
    40201a94:	d503201f 	nop
    40201a98:	d503201f 	nop
    40201a9c:	d503201f 	nop
    40201aa0:	d503201f 	nop
    40201aa4:	d503201f 	nop
    40201aa8:	d503201f 	nop
    40201aac:	d503201f 	nop
    40201ab0:	d503201f 	nop
    40201ab4:	d503201f 	nop
    40201ab8:	d503201f 	nop
    40201abc:	d503201f 	nop
    40201ac0:	d503201f 	nop
    40201ac4:	d503201f 	nop
    40201ac8:	d503201f 	nop
    40201acc:	d503201f 	nop
    40201ad0:	d503201f 	nop
    40201ad4:	d503201f 	nop
    40201ad8:	d503201f 	nop
    40201adc:	d503201f 	nop
    40201ae0:	d503201f 	nop
    40201ae4:	d503201f 	nop
    40201ae8:	d503201f 	nop
    40201aec:	d503201f 	nop
    40201af0:	d503201f 	nop
    40201af4:	d503201f 	nop
    40201af8:	d503201f 	nop
    40201afc:	d503201f 	nop
    40201b00:	17fffee2 	b	40201688 <fiq_el1_handler>
    40201b04:	d503201f 	nop
    40201b08:	d503201f 	nop
    40201b0c:	d503201f 	nop
    40201b10:	d503201f 	nop
    40201b14:	d503201f 	nop
    40201b18:	d503201f 	nop
    40201b1c:	d503201f 	nop
    40201b20:	d503201f 	nop
    40201b24:	d503201f 	nop
    40201b28:	d503201f 	nop
    40201b2c:	d503201f 	nop
    40201b30:	d503201f 	nop
    40201b34:	d503201f 	nop
    40201b38:	d503201f 	nop
    40201b3c:	d503201f 	nop
    40201b40:	d503201f 	nop
    40201b44:	d503201f 	nop
    40201b48:	d503201f 	nop
    40201b4c:	d503201f 	nop
    40201b50:	d503201f 	nop
    40201b54:	d503201f 	nop
    40201b58:	d503201f 	nop
    40201b5c:	d503201f 	nop
    40201b60:	d503201f 	nop
    40201b64:	d503201f 	nop
    40201b68:	d503201f 	nop
    40201b6c:	d503201f 	nop
    40201b70:	d503201f 	nop
    40201b74:	d503201f 	nop
    40201b78:	d503201f 	nop
    40201b7c:	d503201f 	nop
    40201b80:	17fffec4 	b	40201690 <serror_el1_handler>
    40201b84:	d503201f 	nop
    40201b88:	d503201f 	nop
    40201b8c:	d503201f 	nop
    40201b90:	d503201f 	nop
    40201b94:	d503201f 	nop
    40201b98:	d503201f 	nop
    40201b9c:	d503201f 	nop
    40201ba0:	d503201f 	nop
    40201ba4:	d503201f 	nop
    40201ba8:	d503201f 	nop
    40201bac:	d503201f 	nop
    40201bb0:	d503201f 	nop
    40201bb4:	d503201f 	nop
    40201bb8:	d503201f 	nop
    40201bbc:	d503201f 	nop
    40201bc0:	d503201f 	nop
    40201bc4:	d503201f 	nop
    40201bc8:	d503201f 	nop
    40201bcc:	d503201f 	nop
    40201bd0:	d503201f 	nop
    40201bd4:	d503201f 	nop
    40201bd8:	d503201f 	nop
    40201bdc:	d503201f 	nop
    40201be0:	d503201f 	nop
    40201be4:	d503201f 	nop
    40201be8:	d503201f 	nop
    40201bec:	d503201f 	nop
    40201bf0:	d503201f 	nop
    40201bf4:	d503201f 	nop
    40201bf8:	d503201f 	nop
    40201bfc:	d503201f 	nop
    40201c00:	17fffe73 	b	402015cc <sync_el1_handler>
    40201c04:	d503201f 	nop
    40201c08:	d503201f 	nop
    40201c0c:	d503201f 	nop
    40201c10:	d503201f 	nop
    40201c14:	d503201f 	nop
    40201c18:	d503201f 	nop
    40201c1c:	d503201f 	nop
    40201c20:	d503201f 	nop
    40201c24:	d503201f 	nop
    40201c28:	d503201f 	nop
    40201c2c:	d503201f 	nop
    40201c30:	d503201f 	nop
    40201c34:	d503201f 	nop
    40201c38:	d503201f 	nop
    40201c3c:	d503201f 	nop
    40201c40:	d503201f 	nop
    40201c44:	d503201f 	nop
    40201c48:	d503201f 	nop
    40201c4c:	d503201f 	nop
    40201c50:	d503201f 	nop
    40201c54:	d503201f 	nop
    40201c58:	d503201f 	nop
    40201c5c:	d503201f 	nop
    40201c60:	d503201f 	nop
    40201c64:	d503201f 	nop
    40201c68:	d503201f 	nop
    40201c6c:	d503201f 	nop
    40201c70:	d503201f 	nop
    40201c74:	d503201f 	nop
    40201c78:	d503201f 	nop
    40201c7c:	d503201f 	nop
    40201c80:	17fffe80 	b	40201680 <irq_el1_handler>
    40201c84:	d503201f 	nop
    40201c88:	d503201f 	nop
    40201c8c:	d503201f 	nop
    40201c90:	d503201f 	nop
    40201c94:	d503201f 	nop
    40201c98:	d503201f 	nop
    40201c9c:	d503201f 	nop
    40201ca0:	d503201f 	nop
    40201ca4:	d503201f 	nop
    40201ca8:	d503201f 	nop
    40201cac:	d503201f 	nop
    40201cb0:	d503201f 	nop
    40201cb4:	d503201f 	nop
    40201cb8:	d503201f 	nop
    40201cbc:	d503201f 	nop
    40201cc0:	d503201f 	nop
    40201cc4:	d503201f 	nop
    40201cc8:	d503201f 	nop
    40201ccc:	d503201f 	nop
    40201cd0:	d503201f 	nop
    40201cd4:	d503201f 	nop
    40201cd8:	d503201f 	nop
    40201cdc:	d503201f 	nop
    40201ce0:	d503201f 	nop
    40201ce4:	d503201f 	nop
    40201ce8:	d503201f 	nop
    40201cec:	d503201f 	nop
    40201cf0:	d503201f 	nop
    40201cf4:	d503201f 	nop
    40201cf8:	d503201f 	nop
    40201cfc:	d503201f 	nop
    40201d00:	17fffe62 	b	40201688 <fiq_el1_handler>
    40201d04:	d503201f 	nop
    40201d08:	d503201f 	nop
    40201d0c:	d503201f 	nop
    40201d10:	d503201f 	nop
    40201d14:	d503201f 	nop
    40201d18:	d503201f 	nop
    40201d1c:	d503201f 	nop
    40201d20:	d503201f 	nop
    40201d24:	d503201f 	nop
    40201d28:	d503201f 	nop
    40201d2c:	d503201f 	nop
    40201d30:	d503201f 	nop
    40201d34:	d503201f 	nop
    40201d38:	d503201f 	nop
    40201d3c:	d503201f 	nop
    40201d40:	d503201f 	nop
    40201d44:	d503201f 	nop
    40201d48:	d503201f 	nop
    40201d4c:	d503201f 	nop
    40201d50:	d503201f 	nop
    40201d54:	d503201f 	nop
    40201d58:	d503201f 	nop
    40201d5c:	d503201f 	nop
    40201d60:	d503201f 	nop
    40201d64:	d503201f 	nop
    40201d68:	d503201f 	nop
    40201d6c:	d503201f 	nop
    40201d70:	d503201f 	nop
    40201d74:	d503201f 	nop
    40201d78:	d503201f 	nop
    40201d7c:	d503201f 	nop
    40201d80:	17fffe44 	b	40201690 <serror_el1_handler>
    40201d84:	d503201f 	nop
    40201d88:	d503201f 	nop
    40201d8c:	d503201f 	nop
    40201d90:	d503201f 	nop
    40201d94:	d503201f 	nop
    40201d98:	d503201f 	nop
    40201d9c:	d503201f 	nop
    40201da0:	d503201f 	nop
    40201da4:	d503201f 	nop
    40201da8:	d503201f 	nop
    40201dac:	d503201f 	nop
    40201db0:	d503201f 	nop
    40201db4:	d503201f 	nop
    40201db8:	d503201f 	nop
    40201dbc:	d503201f 	nop
    40201dc0:	d503201f 	nop
    40201dc4:	d503201f 	nop
    40201dc8:	d503201f 	nop
    40201dcc:	d503201f 	nop
    40201dd0:	d503201f 	nop
    40201dd4:	d503201f 	nop
    40201dd8:	d503201f 	nop
    40201ddc:	d503201f 	nop
    40201de0:	d503201f 	nop
    40201de4:	d503201f 	nop
    40201de8:	d503201f 	nop
    40201dec:	d503201f 	nop
    40201df0:	d503201f 	nop
    40201df4:	d503201f 	nop
    40201df8:	d503201f 	nop
    40201dfc:	d503201f 	nop
    40201e00:	17fffdf3 	b	402015cc <sync_el1_handler>
    40201e04:	d503201f 	nop
    40201e08:	d503201f 	nop
    40201e0c:	d503201f 	nop
    40201e10:	d503201f 	nop
    40201e14:	d503201f 	nop
    40201e18:	d503201f 	nop
    40201e1c:	d503201f 	nop
    40201e20:	d503201f 	nop
    40201e24:	d503201f 	nop
    40201e28:	d503201f 	nop
    40201e2c:	d503201f 	nop
    40201e30:	d503201f 	nop
    40201e34:	d503201f 	nop
    40201e38:	d503201f 	nop
    40201e3c:	d503201f 	nop
    40201e40:	d503201f 	nop
    40201e44:	d503201f 	nop
    40201e48:	d503201f 	nop
    40201e4c:	d503201f 	nop
    40201e50:	d503201f 	nop
    40201e54:	d503201f 	nop
    40201e58:	d503201f 	nop
    40201e5c:	d503201f 	nop
    40201e60:	d503201f 	nop
    40201e64:	d503201f 	nop
    40201e68:	d503201f 	nop
    40201e6c:	d503201f 	nop
    40201e70:	d503201f 	nop
    40201e74:	d503201f 	nop
    40201e78:	d503201f 	nop
    40201e7c:	d503201f 	nop
    40201e80:	17fffe00 	b	40201680 <irq_el1_handler>
    40201e84:	d503201f 	nop
    40201e88:	d503201f 	nop
    40201e8c:	d503201f 	nop
    40201e90:	d503201f 	nop
    40201e94:	d503201f 	nop
    40201e98:	d503201f 	nop
    40201e9c:	d503201f 	nop
    40201ea0:	d503201f 	nop
    40201ea4:	d503201f 	nop
    40201ea8:	d503201f 	nop
    40201eac:	d503201f 	nop
    40201eb0:	d503201f 	nop
    40201eb4:	d503201f 	nop
    40201eb8:	d503201f 	nop
    40201ebc:	d503201f 	nop
    40201ec0:	d503201f 	nop
    40201ec4:	d503201f 	nop
    40201ec8:	d503201f 	nop
    40201ecc:	d503201f 	nop
    40201ed0:	d503201f 	nop
    40201ed4:	d503201f 	nop
    40201ed8:	d503201f 	nop
    40201edc:	d503201f 	nop
    40201ee0:	d503201f 	nop
    40201ee4:	d503201f 	nop
    40201ee8:	d503201f 	nop
    40201eec:	d503201f 	nop
    40201ef0:	d503201f 	nop
    40201ef4:	d503201f 	nop
    40201ef8:	d503201f 	nop
    40201efc:	d503201f 	nop
    40201f00:	17fffde2 	b	40201688 <fiq_el1_handler>
    40201f04:	d503201f 	nop
    40201f08:	d503201f 	nop
    40201f0c:	d503201f 	nop
    40201f10:	d503201f 	nop
    40201f14:	d503201f 	nop
    40201f18:	d503201f 	nop
    40201f1c:	d503201f 	nop
    40201f20:	d503201f 	nop
    40201f24:	d503201f 	nop
    40201f28:	d503201f 	nop
    40201f2c:	d503201f 	nop
    40201f30:	d503201f 	nop
    40201f34:	d503201f 	nop
    40201f38:	d503201f 	nop
    40201f3c:	d503201f 	nop
    40201f40:	d503201f 	nop
    40201f44:	d503201f 	nop
    40201f48:	d503201f 	nop
    40201f4c:	d503201f 	nop
    40201f50:	d503201f 	nop
    40201f54:	d503201f 	nop
    40201f58:	d503201f 	nop
    40201f5c:	d503201f 	nop
    40201f60:	d503201f 	nop
    40201f64:	d503201f 	nop
    40201f68:	d503201f 	nop
    40201f6c:	d503201f 	nop
    40201f70:	d503201f 	nop
    40201f74:	d503201f 	nop
    40201f78:	d503201f 	nop
    40201f7c:	d503201f 	nop
    40201f80:	17fffdc4 	b	40201690 <serror_el1_handler>

Disassembly of section .rodata:

0000000040201f90 <.rodata>:
    40201f90:	6e72656b 	umax	v11.8h, v11.8h, v18.8h
    40201f94:	632e6c65 	.inst	0x632e6c65 ; undefined
    40201f98:	4e415000 	.inst	0x4e415000 ; undefined
    40201f9c:	203a4349 	.inst	0x203a4349 ; undefined
    40201fa0:	253a7325 	.inst	0x253a7325 ; undefined
    40201fa4:	75203a64 	.inst	0x75203a64 ; undefined
    40201fa8:	6f6e6b6e 	umlsl2	v14.4s, v27.8h, v14.h[6]
    40201fac:	73206e77 	.inst	0x73206e77 ; undefined
    40201fb0:	61637379 	.inst	0x61637379 ; undefined
    40201fb4:	000a6c6c 	.inst	0x000a6c6c ; undefined
    40201fb8:	494e4150 	.inst	0x494e4150 ; undefined
    40201fbc:	25203a43 	.inst	0x25203a43 ; undefined
    40201fc0:	64253a73 	.inst	0x64253a73 ; undefined
    40201fc4:	6976203a 	ldpsw	x26, x8, [x1, #-80]
    40201fc8:	6f697472 	uqshl	v18.2d, v3.2d, #41
    40201fcc:	6e69203a 	usubl2	v26.4s, v1.8h, v9.8h
    40201fd0:	696c6176 	ldpsw	x22, x24, [x11, #-160]
    40201fd4:	616d2064 	.inst	0x616d2064 ; undefined
    40201fd8:	20636967 	.inst	0x20636967 ; undefined
    40201fdc:	756c6176 	.inst	0x756c6176 ; undefined
    40201fe0:	50000a65 	adr	x5, 4020212e <_vector_table+0x92e>
    40201fe4:	43494e41 	.inst	0x43494e41 ; undefined
    40201fe8:	7325203a 	.inst	0x7325203a ; undefined
    40201fec:	3a64253a 	.inst	0x3a64253a ; undefined
    40201ff0:	6f6f6220 	umlsl2	v0.4s, v17.8h, v15.h[2]
    40201ff4:	0a646574 	bic	w20, w11, w4, lsr #25
    40201ff8:	4150000a 	.inst	0x4150000a ; undefined
    40201ffc:	3a43494e 	ccmn	w10, #0x3, #0xe, mi	// mi = first
    40202000:	3a732520 	.inst	0x3a732520 ; undefined
    40202004:	203a6425 	.inst	0x203a6425 ; undefined
    40202008:	74726976 	.inst	0x74726976 ; undefined
    4020200c:	203a6f69 	.inst	0x203a6f69 ; undefined
    40202010:	61766e69 	.inst	0x61766e69 ; undefined
    40202014:	2064696c 	.inst	0x2064696c ; undefined
    40202018:	73726576 	.inst	0x73726576 ; undefined
    4020201c:	0a6e6f69 	bic	w9, w27, w14, lsr #27
    40202020:	61747300 	.inst	0x61747300 ; undefined
    40202024:	6e697472 	uabd	v18.8h, v3.8h, v9.8h
    40202028:	72702067 	.inst	0x72702067 ; undefined
    4020202c:	7365636f 	.inst	0x7365636f ; undefined
    40202030:	0a422073 	and	w19, w3, w2, lsr #8
    40202034:	3a434500 	.inst	0x3a434500 ; undefined
    40202038:	25783020 	whilewr	p0.h, x1, x24
    4020203c:	50000a78 	adr	x24, 4020218a <_vector_table+0x98a>
    40202040:	43494e41 	.inst	0x43494e41 ; undefined
    40202044:	7325203a 	.inst	0x7325203a ; undefined
    40202048:	3a64253a 	.inst	0x3a64253a ; undefined
    4020204c:	616e7520 	.inst	0x616e7520 ; undefined
    40202050:	6e67696c 	.inst	0x6e67696c ; undefined
    40202054:	70206465 	adr	x5, 40242ce3 <_binary_shell_bin_start+0x4093b>
    40202058:	72646461 	.inst	0x72646461 ; undefined
    4020205c:	786c2520 	.inst	0x786c2520 ; undefined
    40202060:	7473000a 	.inst	0x7473000a ; undefined
    40202064:	69747261 	ldpsw	x1, x28, [x19, #-96]
    40202068:	7020676e 	adr	x14, 40242d57 <_binary_shell_bin_start+0x409af>
    4020206c:	65636f72 	fnmls	z18.h, p3/m, z27.h, z3.h
    40202070:	41207373 	.inst	0x41207373 ; undefined
    40202074:	6976000a 	ldpsw	x10, x0, [x0, #-80]
    40202078:	6f697472 	uqshl	v18.2d, v3.2d, #41
    4020207c:	6b6c622d 	.inst	0x6b6c622d ; undefined
    40202080:	6163203a 	.inst	0x6163203a ; undefined
    40202084:	69636170 	ldpsw	x16, x24, [x11, #-232]
    40202088:	69207974 	stgp	x20, x30, [x11, #-1024]
    4020208c:	64252073 	fmul	z19.h, z3.h, z5.h[0]
    40202090:	74796220 	.inst	0x74796220 ; undefined
    40202094:	000a7365 	.inst	0x000a7365 ; undefined
    40202098:	53452020 	.inst	0x53452020 ; undefined
    4020209c:	4c455f52 	.inst	0x4c455f52 ; undefined
    402020a0:	30203a31 	adr	x17, 402427e5 <_binary_shell_bin_start+0x4043d>
    402020a4:	20782578 	.inst	0x20782578 ; undefined
    402020a8:	3a434528 	.inst	0x3a434528 ; undefined
    402020ac:	25783020 	whilewr	p0.h, x1, x24
    402020b0:	49202c78 	.inst	0x49202c78 ; undefined
    402020b4:	203a5353 	.inst	0x203a5353 ; undefined
    402020b8:	78257830 	strh	w16, [x1, x5, lsl #1]
    402020bc:	50000a29 	adr	x9, 40202202 <_vector_table+0xa02>
    402020c0:	43494e41 	.inst	0x43494e41 ; undefined
    402020c4:	7325203a 	.inst	0x7325203a ; undefined
    402020c8:	3a64253a 	.inst	0x3a64253a ; undefined
    402020cc:	74614420 	.inst	0x74614420 ; undefined
    402020d0:	62612061 	.inst	0x62612061 ; undefined
    402020d4:	2074726f 	.inst	0x2074726f ; undefined
    402020d8:	65637865 	fnmls	z5.h, p6/m, z3.h, z3.h
    402020dc:	6f697470 	uqshl	v16.2d, v3.2d, #41
    402020e0:	76000a6e 	.inst	0x76000a6e ; undefined
    402020e4:	69747269 	ldpsw	x9, x28, [x19, #-96]
    402020e8:	74203a6f 	.inst	0x74203a6f ; undefined
    402020ec:	64656972 	.inst	0x64656972 ; undefined
    402020f0:	206f7420 	.inst	0x206f7420 ; undefined
    402020f4:	64616572 	.inst	0x64616572 ; undefined
    402020f8:	6972772f 	ldpsw	x15, x29, [x25, #-112]
    402020fc:	73206574 	.inst	0x73206574 ; undefined
    40202100:	6f746365 	umlsl2	v5.4s, v27.8h, v4.h[3]
    40202104:	64253d72 	.inst	0x64253d72 ; undefined
    40202108:	7562202c 	.inst	0x7562202c ; undefined
    4020210c:	61632074 	.inst	0x61632074 ; undefined
    40202110:	69636170 	ldpsw	x16, x24, [x11, #-232]
    40202114:	69207974 	stgp	x20, x30, [x11, #-1024]
    40202118:	64252073 	fmul	z19.h, z3.h, z5.h[0]
    4020211c:	7845000a 	ldurh	w10, [x0, #80]
    40202120:	74706563 	.inst	0x74706563 ; undefined
    40202124:	206e6f69 	.inst	0x206e6f69 ; undefined
    40202128:	646e6168 	.inst	0x646e6168 ; undefined
    4020212c:	676e696c 	.inst	0x676e696c ; undefined
    40202130:	696e6920 	ldpsw	x0, x26, [x9, #-144]
    40202134:	6c616974 	ldnp	d20, d26, [x11, #-496]
    40202138:	64657a69 	.inst	0x64657a69 ; undefined
    4020213c:	4150000a 	.inst	0x4150000a ; undefined
    40202140:	3a43494e 	ccmn	w10, #0x3, #0xe, mi	// mi = first
    40202144:	3a732520 	.inst	0x3a732520 ; undefined
    40202148:	203a6425 	.inst	0x203a6425 ; undefined
    4020214c:	2074756f 	.inst	0x2074756f ; undefined
    40202150:	6d20666f 	stp	d15, d25, [x19, #-512]
    40202154:	726f6d65 	.inst	0x726f6d65 ; undefined
    40202158:	50000a79 	adr	x25, 402022a6 <_vector_table+0xaa6>
    4020215c:	43494e41 	.inst	0x43494e41 ; undefined
    40202160:	7325203a 	.inst	0x7325203a ; undefined
    40202164:	3a64253a 	.inst	0x3a64253a ; undefined
    40202168:	616e7520 	.inst	0x616e7520 ; undefined
    4020216c:	6e67696c 	.inst	0x6e67696c ; undefined
    40202170:	76206465 	.inst	0x76206465 ; undefined
    40202174:	72646461 	.inst	0x72646461 ; undefined
    40202178:	786c2520 	.inst	0x786c2520 ; undefined
    4020217c:	6157000a 	.inst	0x6157000a ; undefined
    40202180:	6e696e72 	umin	v18.8h, v19.8h, v9.8h
    40202184:	4e203a67 	suqadd	v7.16b, v19.16b
    40202188:	6920746f 	stgp	x15, x29, [x3, #-1024]
    4020218c:	4c45206e 	.inst	0x4c45206e ; undefined
    40202190:	43282031 	.inst	0x43282031 ; undefined
    40202194:	65727275 	fnmls	z21.h, p4/m, z19.h, z18.h
    40202198:	4520746e 	.inst	0x4520746e ; undefined
    4020219c:	25203a4c 	.inst	0x25203a4c ; undefined
    402021a0:	000a2964 	.inst	0x000a2964 ; undefined
    402021a4:	6e6b6e55 	umin	v21.8h, v18.8h, v11.8h
    402021a8:	206e776f 	.inst	0x206e776f ; undefined
    402021ac:	63737973 	.inst	0x63737973 ; undefined
    402021b0:	3a6c6c61 	.inst	0x3a6c6c61 ; undefined
    402021b4:	0a642520 	bic	w0, w9, w4, lsr #9
    402021b8:	72696600 	.inst	0x72696600 ; undefined
    402021bc:	73207473 	.inst	0x73207473 ; undefined
    402021c0:	6f746365 	umlsl2	v5.4s, v27.8h, v4.h[3]
    402021c4:	25203a72 	.inst	0x25203a72 ; undefined
    402021c8:	44000a73 	.inst	0x44000a73 ; undefined
    402021cc:	2f617461 	.inst	0x2f617461 ; undefined
    402021d0:	74736e49 	.inst	0x74736e49 ; undefined
    402021d4:	74637572 	.inst	0x74637572 ; undefined
    402021d8:	206e6f69 	.inst	0x206e6f69 ; undefined
    402021dc:	726f6241 	.inst	0x726f6241 ; undefined
    402021e0:	000a3a74 	.inst	0x000a3a74 ; undefined
    402021e4:	3a535349 	ccmn	w26, w19, #0x9, pl	// pl = nfrst
    402021e8:	25783020 	whilewr	p0.h, x1, x24
    402021ec:	44000a78 	.inst	0x44000a78 ; undefined
    402021f0:	20617461 	.inst	0x20617461 ; undefined
    402021f4:	726f6241 	.inst	0x726f6241 ; undefined
    402021f8:	78452074 	ldurh	w20, [x3, #82]
    402021fc:	74706563 	.inst	0x74706563 ; undefined
    40202200:	216e6f69 	.inst	0x216e6f69 ; undefined
    40202204:	654b000a 	fadd	z10.h, z0.h, z11.h
    40202208:	6c656e72 	ldnp	d18, d27, [x19, #-432]
    4020220c:	67617020 	.inst	0x67617020 ; undefined
    40202210:	6d207365 	stp	d5, d28, [x27, #-512]
    40202214:	65707061 	fnmls	z1.h, p4/m, z3.h, z16.h
    40202218:	20000a64 	.inst	0x20000a64 ; undefined
    4020221c:	524c4520 	.inst	0x524c4520 ; undefined
    40202220:	314c455f 	cmn	w10, #0x311, lsl #12
    40202224:	7830203a 	ldeorh	w16, w26, [x1]
    40202228:	000a7825 	.inst	0x000a7825 ; undefined
    4020222c:	494e4150 	.inst	0x494e4150 ; undefined
    40202230:	25203a43 	.inst	0x25203a43 ; undefined
    40202234:	64253a73 	.inst	0x64253a73 ; undefined
    40202238:	6976203a 	ldpsw	x26, x8, [x1, #-80]
    4020223c:	6f697472 	uqshl	v18.2d, v3.2d, #41
    40202240:	6e69203a 	usubl2	v26.4s, v1.8h, v9.8h
    40202244:	696c6176 	ldpsw	x22, x24, [x11, #-160]
    40202248:	65642064 	fmls	z4.h, p0/m, z3.h, z4.h
    4020224c:	65636976 	fnmls	z22.h, p2/m, z11.h, z3.h
    40202250:	0a646920 	bic	w0, w9, w4, lsr #26
    40202254:	4e415000 	.inst	0x4e415000 ; undefined
    40202258:	203a4349 	.inst	0x203a4349 ; undefined
    4020225c:	253a7325 	.inst	0x253a7325 ; undefined
    40202260:	50203a64 	adr	x4, 402429ae <_binary_shell_bin_start+0x40606>
    40202264:	20656761 	.inst	0x20656761 ; undefined
    40202268:	6c626174 	ldnp	d20, d24, [x11, #-480]
    4020226c:	6f6e2065 	umlal2	v5.4s, v3.8h, v14.h[2]
    40202270:	6c612074 	ldnp	d20, d8, [x3, #-496]
    40202274:	656e6769 	fnmls	z9.h, p1/m, z27.h, z14.h
    40202278:	20000a64 	.inst	0x20000a64 ; undefined
    4020227c:	52414620 	.inst	0x52414620 ; undefined
    40202280:	314c455f 	cmn	w10, #0x311, lsl #12
    40202284:	7830203a 	ldeorh	w16, w26, [x1]
    40202288:	000a7825 	.inst	0x000a7825 ; undefined
    4020228c:	74726976 	.inst	0x74726976 ; undefined
    40202290:	203a6f69 	.inst	0x203a6f69 ; undefined
    40202294:	6e726177 	rsubhn2	v23.8h, v11.4s, v18.4s
    40202298:	6166203a 	.inst	0x6166203a ; undefined
    4020229c:	64656c69 	.inst	0x64656c69 ; undefined
    402022a0:	206f7420 	.inst	0x206f7420 ; undefined
    402022a4:	64616572 	.inst	0x64616572 ; undefined
    402022a8:	6972772f 	ldpsw	x15, x29, [x25, #-112]
    402022ac:	73206574 	.inst	0x73206574 ; undefined
    402022b0:	6f746365 	umlsl2	v5.4s, v27.8h, v4.h[3]
    402022b4:	64253d72 	.inst	0x64253d72 ; undefined
    402022b8:	61747320 	.inst	0x61747320 ; undefined
    402022bc:	3d737574 	ldr	b20, [x11, #3293]
    402022c0:	000a6425 	.inst	0x000a6425 ; undefined
    402022c4:	5f525345 	.inst	0x5f525345 ; undefined
    402022c8:	3a314c45 	.inst	0x3a314c45 ; undefined
    402022cc:	25783020 	whilewr	p0.h, x1, x24
    402022d0:	68000a78 	.inst	0x68000a78 ; undefined
    402022d4:	6f6c6c65 	.inst	0x6f6c6c65 ; undefined
    402022d8:	6f726620 	sqshlu	v0.2d, v17.2d, #50
    402022dc:	656b206d 	fmls	z13.h, p0/m, z3.h, z11.h
    402022e0:	6c656e72 	ldnp	d18, d27, [x19, #-432]
    402022e4:	0a212121 	bic	w1, w9, w1, lsl #8
    402022e8:	32313000 	orr	w0, w0, #0xfff8000
    402022ec:	36353433 	tbz	w19, #6, 401fc970 <_binary_shell_bin_size+0x3f1eb970>
    402022f0:	61393837 	.inst	0x61393837 ; undefined
    402022f4:	65646362 	fnmls	z2.h, p0/m, z27.h, z4.h
    402022f8:	41460066 	.inst	0x41460066 ; undefined
    402022fc:	4c455f52 	.inst	0x4c455f52 ; undefined
    40202300:	30203a31 	adr	x17, 40242a45 <_binary_shell_bin_start+0x4069d>
    40202304:	0a782578 	bic	w24, w11, w24, lsr #9
    40202308:	63657600 	.inst	0x63657600 ; undefined
    4020230c:	00632e74 	.inst	0x00632e74 ; undefined
    40202310:	494e4150 	.inst	0x494e4150 ; undefined
    40202314:	25203a43 	.inst	0x25203a43 ; undefined
    40202318:	64253a73 	.inst	0x64253a73 ; undefined
    4020231c:	6f6e203a 	umlal2	v26.4s, v1.8h, v14.h[2]
    40202320:	65726620 	fnmls	z0.h, p1/m, z17.h, z18.h
    40202324:	72702065 	.inst	0x72702065 ; undefined
    40202328:	7365636f 	.inst	0x7365636f ; undefined
    4020232c:	6c732073 	ldnp	d19, d8, [x3, #-208]
    40202330:	0a73746f 	bic	w15, w3, w19, lsr #29
    40202334:	656e5500 	fnmla	z0.h, p5/m, z8.h, z14.h
    40202338:	63657078 	.inst	0x63657078 ; undefined
    4020233c:	20646574 	.inst	0x20646574 ; undefined
    40202340:	70617274 	adr	x20, 402c518f <_binary_shell_bin_start+0xc2de7>
    40202344:	4345203a 	.inst	0x4345203a ; undefined
    40202348:	2078253d 	.inst	0x2078253d ; undefined
    4020234c:	3d535349 	ldr	b9, [x26, #1236]
    40202350:	45207825 	.inst	0x45207825 ; undefined
    40202354:	253d524c 	.inst	0x253d524c ; undefined
    40202358:	69000a78 	stgp	x24, x2, [x19]
    4020235c:	6567616d 	fnmls	z13.h, p0/m, z11.h, z7.h
    40202360:	7a69735f 	.inst	0x7a69735f ; undefined
    40202364:	203d2065 	.inst	0x203d2065 ; undefined
    40202368:	000a7825 	.inst	0x000a7825 ; undefined
    4020236c:	43534644 	.inst	0x43534644 ; undefined
    40202370:	7830203a 	ldeorh	w16, w26, [x1]
    40202374:	000a7825 	.inst	0x000a7825 ; undefined
    40202378:	494e4150 	.inst	0x494e4150 ; undefined
    4020237c:	25203a43 	.inst	0x25203a43 ; undefined
    40202380:	64253a73 	.inst	0x64253a73 ; undefined
    40202384:	6e75203a 	usubl2	v26.4s, v1.8h, v21.8h
    40202388:	65707865 	fnmls	z5.h, p6/m, z3.h, z16.h
    4020238c:	64657463 	.inst	0x64657463 ; undefined
    40202390:	61727420 	.inst	0x61727420 ; undefined
    40202394:	Address 0x40202394 is out of bounds.


Disassembly of section .data:

00000000402023a0 <alloc_pages.next_paddr>:
    402023a0:	41244000 	.inst	0x41244000 ; undefined
    402023a4:	00000000 	udf	#0

00000000402023a8 <_binary_shell_bin_start>:
    402023a8:	b0008088 	adrp	x8, 41213000 <_binary_shell_bin_start+0x1010c58>
    402023ac:	91000108 	add	x8, x8, #0x0
    402023b0:	9100011f 	mov	sp, x8
    402023b4:	94000002 	bl	402023bc <_binary_shell_bin_start+0x14>
    402023b8:	94000007 	bl	402023d4 <_binary_shell_bin_start+0x2c>
    402023bc:	a9bf7bfd 	stp	x29, x30, [sp, #-16]!
    402023c0:	910003fd 	mov	x29, sp
    402023c4:	d503201f 	nop
    402023c8:	10002320 	adr	x0, 4020282c <_binary_shell_bin_start+0x484>
    402023cc:	94000087 	bl	402025e8 <_binary_shell_bin_start+0x240>
    402023d0:	14000000 	b	402023d0 <_binary_shell_bin_start+0x28>
    402023d4:	14000000 	b	402023d4 <_binary_shell_bin_start+0x2c>
    402023d8:	aa0103e8 	mov	x8, x1
    402023dc:	aa0003e9 	mov	x9, x0
    402023e0:	aa0203e1 	mov	x1, x2
    402023e4:	aa0803e0 	mov	x0, x8
    402023e8:	aa0303e2 	mov	x2, x3
    402023ec:	aa0903e8 	mov	x8, x9
    402023f0:	d4000001 	svc	#0x0
    402023f4:	d65f03c0 	ret
    402023f8:	aa1f03e1 	mov	x1, xzr
    402023fc:	aa1f03e2 	mov	x2, xzr
    40202400:	52800028 	mov	w8, #0x1                   	// #1
    40202404:	92401c00 	and	x0, x0, #0xff
    40202408:	d4000001 	svc	#0x0
    4020240c:	d65f03c0 	ret
    40202410:	aa1f03e0 	mov	x0, xzr
    40202414:	aa1f03e1 	mov	x1, xzr
    40202418:	aa1f03e2 	mov	x2, xzr
    4020241c:	52800048 	mov	w8, #0x2                   	// #2
    40202420:	d4000001 	svc	#0x0
    40202424:	d65f03c0 	ret
    40202428:	34000622 	cbz	w2, 402024ec <_binary_shell_bin_start+0x144>
    4020242c:	7100205f 	cmp	w2, #0x8
    40202430:	54000123 	b.cc	40202454 <_binary_shell_bin_start+0xac>  // b.lo, b.ul, b.last
    40202434:	cb010008 	sub	x8, x0, x1
    40202438:	f100811f 	cmp	x8, #0x20
    4020243c:	540000c3 	b.cc	40202454 <_binary_shell_bin_start+0xac>  // b.lo, b.ul, b.last
    40202440:	7100805f 	cmp	w2, #0x20
    40202444:	2a0203e8 	mov	w8, w2
    40202448:	540000c2 	b.cs	40202460 <_binary_shell_bin_start+0xb8>  // b.hs, b.nlast
    4020244c:	aa1f03eb 	mov	x11, xzr
    40202450:	14000012 	b	40202498 <_binary_shell_bin_start+0xf0>
    40202454:	aa0103e9 	mov	x9, x1
    40202458:	aa0003ea 	mov	x10, x0
    4020245c:	14000020 	b	402024dc <_binary_shell_bin_start+0x134>
    40202460:	927b690b 	and	x11, x8, #0xffffffe0
    40202464:	91004009 	add	x9, x0, #0x10
    40202468:	9100402a 	add	x10, x1, #0x10
    4020246c:	aa0b03ec 	mov	x12, x11
    40202470:	ad7f8540 	ldp	q0, q1, [x10, #-16]
    40202474:	f100818c 	subs	x12, x12, #0x20
    40202478:	9100814a 	add	x10, x10, #0x20
    4020247c:	ad3f8520 	stp	q0, q1, [x9, #-16]
    40202480:	91008129 	add	x9, x9, #0x20
    40202484:	54ffff61 	b.ne	40202470 <_binary_shell_bin_start+0xc8>  // b.any
    40202488:	eb08017f 	cmp	x11, x8
    4020248c:	54000300 	b.eq	402024ec <_binary_shell_bin_start+0x144>  // b.none
    40202490:	f27d051f 	tst	x8, #0x18
    40202494:	540001e0 	b.eq	402024d0 <_binary_shell_bin_start+0x128>  // b.none
    40202498:	927d710c 	and	x12, x8, #0xfffffff8
    4020249c:	8b0b000d 	add	x13, x0, x11
    402024a0:	8b0b002e 	add	x14, x1, x11
    402024a4:	8b0c0029 	add	x9, x1, x12
    402024a8:	8b0c000a 	add	x10, x0, x12
    402024ac:	4b0c0042 	sub	w2, w2, w12
    402024b0:	cb0c016b 	sub	x11, x11, x12
    402024b4:	fc4085c0 	ldr	d0, [x14], #8
    402024b8:	b100216b 	adds	x11, x11, #0x8
    402024bc:	fc0085a0 	str	d0, [x13], #8
    402024c0:	54ffffa1 	b.ne	402024b4 <_binary_shell_bin_start+0x10c>  // b.any
    402024c4:	eb08019f 	cmp	x12, x8
    402024c8:	540000a1 	b.ne	402024dc <_binary_shell_bin_start+0x134>  // b.any
    402024cc:	14000008 	b	402024ec <_binary_shell_bin_start+0x144>
    402024d0:	4b0b0042 	sub	w2, w2, w11
    402024d4:	8b0b000a 	add	x10, x0, x11
    402024d8:	8b0b0029 	add	x9, x1, x11
    402024dc:	38401528 	ldrb	w8, [x9], #1
    402024e0:	71000442 	subs	w2, w2, #0x1
    402024e4:	38001548 	strb	w8, [x10], #1
    402024e8:	54ffffa1 	b.ne	402024dc <_binary_shell_bin_start+0x134>  // b.any
    402024ec:	d65f03c0 	ret
    402024f0:	340004e2 	cbz	w2, 4020258c <_binary_shell_bin_start+0x1e4>
    402024f4:	7100205f 	cmp	w2, #0x8
    402024f8:	54000062 	b.cs	40202504 <_binary_shell_bin_start+0x15c>  // b.hs, b.nlast
    402024fc:	aa0003e9 	mov	x9, x0
    40202500:	14000020 	b	40202580 <_binary_shell_bin_start+0x1d8>
    40202504:	7100805f 	cmp	w2, #0x20
    40202508:	2a0203e8 	mov	w8, w2
    4020250c:	54000062 	b.cs	40202518 <_binary_shell_bin_start+0x170>  // b.hs, b.nlast
    40202510:	aa1f03ea 	mov	x10, xzr
    40202514:	1400000d 	b	40202548 <_binary_shell_bin_start+0x1a0>
    40202518:	4e010c20 	dup	v0.16b, w1
    4020251c:	927b690a 	and	x10, x8, #0xffffffe0
    40202520:	91004009 	add	x9, x0, #0x10
    40202524:	aa0a03eb 	mov	x11, x10
    40202528:	ad3f8120 	stp	q0, q0, [x9, #-16]
    4020252c:	f100816b 	subs	x11, x11, #0x20
    40202530:	91008129 	add	x9, x9, #0x20
    40202534:	54ffffa1 	b.ne	40202528 <_binary_shell_bin_start+0x180>  // b.any
    40202538:	eb08015f 	cmp	x10, x8
    4020253c:	54000280 	b.eq	4020258c <_binary_shell_bin_start+0x1e4>  // b.none
    40202540:	f27d051f 	tst	x8, #0x18
    40202544:	540001a0 	b.eq	40202578 <_binary_shell_bin_start+0x1d0>  // b.none
    40202548:	0e010c20 	dup	v0.8b, w1
    4020254c:	927d710b 	and	x11, x8, #0xfffffff8
    40202550:	8b0a000c 	add	x12, x0, x10
    40202554:	8b0b0009 	add	x9, x0, x11
    40202558:	4b0b0042 	sub	w2, w2, w11
    4020255c:	cb0b014a 	sub	x10, x10, x11
    40202560:	b100214a 	adds	x10, x10, #0x8
    40202564:	fc008580 	str	d0, [x12], #8
    40202568:	54ffffc1 	b.ne	40202560 <_binary_shell_bin_start+0x1b8>  // b.any
    4020256c:	eb08017f 	cmp	x11, x8
    40202570:	54000081 	b.ne	40202580 <_binary_shell_bin_start+0x1d8>  // b.any
    40202574:	14000006 	b	4020258c <_binary_shell_bin_start+0x1e4>
    40202578:	4b0a0042 	sub	w2, w2, w10
    4020257c:	8b0a0009 	add	x9, x0, x10
    40202580:	71000442 	subs	w2, w2, #0x1
    40202584:	38001521 	strb	w1, [x9], #1
    40202588:	54ffffc1 	b.ne	40202580 <_binary_shell_bin_start+0x1d8>  // b.any
    4020258c:	d65f03c0 	ret
    40202590:	39400028 	ldrb	w8, [x1]
    40202594:	aa0003e9 	mov	x9, x0
    40202598:	340000c8 	cbz	w8, 402025b0 <_binary_shell_bin_start+0x208>
    4020259c:	9100042a 	add	x10, x1, #0x1
    402025a0:	aa0003e9 	mov	x9, x0
    402025a4:	38001528 	strb	w8, [x9], #1
    402025a8:	38401548 	ldrb	w8, [x10], #1
    402025ac:	35ffffc8 	cbnz	w8, 402025a4 <_binary_shell_bin_start+0x1fc>
    402025b0:	3900013f 	strb	wzr, [x9]
    402025b4:	d65f03c0 	ret
    402025b8:	39400008 	ldrb	w8, [x0]
    402025bc:	34000108 	cbz	w8, 402025dc <_binary_shell_bin_start+0x234>
    402025c0:	91000409 	add	x9, x0, #0x1
    402025c4:	3940002a 	ldrb	w10, [x1]
    402025c8:	6b0a011f 	cmp	w8, w10
    402025cc:	54000081 	b.ne	402025dc <_binary_shell_bin_start+0x234>  // b.any
    402025d0:	38401528 	ldrb	w8, [x9], #1
    402025d4:	91000421 	add	x1, x1, #0x1
    402025d8:	35ffff68 	cbnz	w8, 402025c4 <_binary_shell_bin_start+0x21c>
    402025dc:	39400029 	ldrb	w9, [x1]
    402025e0:	4b090100 	sub	w0, w8, w9
    402025e4:	d65f03c0 	ret
    402025e8:	d104c3ff 	sub	sp, sp, #0x130
    402025ec:	a90e7bfd 	stp	x29, x30, [sp, #224]
    402025f0:	f9007bfc 	str	x28, [sp, #240]
    402025f4:	a9105ff8 	stp	x24, x23, [sp, #256]
    402025f8:	a91157f6 	stp	x22, x21, [sp, #272]
    402025fc:	a9124ff4 	stp	x20, x19, [sp, #288]
    40202600:	910383fd 	add	x29, sp, #0xe0
    40202604:	928006e8 	mov	x8, #0xffffffffffffffc8    	// #-56
    40202608:	910003e9 	mov	x9, sp
    4020260c:	d10163aa 	sub	x10, x29, #0x58
    40202610:	f2dff008 	movk	x8, #0xff80, lsl #32
    40202614:	91020129 	add	x9, x9, #0x80
    40202618:	529999b4 	mov	w20, #0xcccd                	// #52429
    4020261c:	aa0003f3 	mov	x19, x0
    40202620:	a93f23a9 	stp	x9, x8, [x29, #-16]
    40202624:	9100e148 	add	x8, x10, #0x38
    40202628:	910143a9 	add	x9, x29, #0x50
    4020262c:	72b99994 	movk	w20, #0xcccc, lsl #16
    40202630:	d503201f 	nop
    40202634:	50001035 	adr	x21, 4020283a <_binary_shell_bin_start+0x492>
    40202638:	a93a8ba1 	stp	x1, x2, [x29, #-88]
    4020263c:	a93b93a3 	stp	x3, x4, [x29, #-72]
    40202640:	a93c9ba5 	stp	x5, x6, [x29, #-56]
    40202644:	f81d83a7 	stur	x7, [x29, #-40]
    40202648:	ad0007e0 	stp	q0, q1, [sp]
    4020264c:	ad010fe2 	stp	q2, q3, [sp, #32]
    40202650:	ad0217e4 	stp	q4, q5, [sp, #64]
    40202654:	ad031fe6 	stp	q6, q7, [sp, #96]
    40202658:	a93e23a9 	stp	x9, x8, [x29, #-32]
    4020265c:	14000003 	b	40202668 <_binary_shell_bin_start+0x2c0>
    40202660:	34000d40 	cbz	w0, 40202808 <_binary_shell_bin_start+0x460>
    40202664:	91000673 	add	x19, x19, #0x1
    40202668:	39400260 	ldrb	w0, [x19]
    4020266c:	7100941f 	cmp	w0, #0x25
    40202670:	540000a0 	b.eq	40202684 <_binary_shell_bin_start+0x2dc>  // b.none
    40202674:	34000ce0 	cbz	w0, 40202810 <_binary_shell_bin_start+0x468>
    40202678:	97ffff60 	bl	402023f8 <_binary_shell_bin_start+0x50>
    4020267c:	91000673 	add	x19, x19, #0x1
    40202680:	17fffffa 	b	40202668 <_binary_shell_bin_start+0x2c0>
    40202684:	38401e60 	ldrb	w0, [x19, #1]!
    40202688:	7101c81f 	cmp	w0, #0x72
    4020268c:	5400020c 	b.gt	402026cc <_binary_shell_bin_start+0x324>
    40202690:	7100941f 	cmp	w0, #0x25
    40202694:	54ffff20 	b.eq	40202678 <_binary_shell_bin_start+0x2d0>  // b.none
    40202698:	7101901f 	cmp	w0, #0x64
    4020269c:	54fffe21 	b.ne	40202660 <_binary_shell_bin_start+0x2b8>  // b.any
    402026a0:	b89f83a8 	ldursw	x8, [x29, #-8]
    402026a4:	36f80408 	tbz	w8, #31, 40202724 <_binary_shell_bin_start+0x37c>
    402026a8:	11002109 	add	w9, w8, #0x8
    402026ac:	3100211f 	cmn	w8, #0x8
    402026b0:	b81f83a9 	stur	w9, [x29, #-8]
    402026b4:	54000388 	b.hi	40202724 <_binary_shell_bin_start+0x37c>  // b.pmore
    402026b8:	f85e83a9 	ldur	x9, [x29, #-24]
    402026bc:	8b080128 	add	x8, x9, x8
    402026c0:	b9400116 	ldr	w22, [x8]
    402026c4:	36f80416 	tbz	w22, #31, 40202744 <_binary_shell_bin_start+0x39c>
    402026c8:	1400001c 	b	40202738 <_binary_shell_bin_start+0x390>
    402026cc:	7101cc1f 	cmp	w0, #0x73
    402026d0:	54000180 	b.eq	40202700 <_binary_shell_bin_start+0x358>  // b.none
    402026d4:	7101e01f 	cmp	w0, #0x78
    402026d8:	54fffc61 	b.ne	40202664 <_binary_shell_bin_start+0x2bc>  // b.any
    402026dc:	b89f83a8 	ldursw	x8, [x29, #-8]
    402026e0:	36f806c8 	tbz	w8, #31, 402027b8 <_binary_shell_bin_start+0x410>
    402026e4:	11002109 	add	w9, w8, #0x8
    402026e8:	3100211f 	cmn	w8, #0x8
    402026ec:	b81f83a9 	stur	w9, [x29, #-8]
    402026f0:	54000648 	b.hi	402027b8 <_binary_shell_bin_start+0x410>  // b.pmore
    402026f4:	f85e83a9 	ldur	x9, [x29, #-24]
    402026f8:	8b080129 	add	x9, x9, x8
    402026fc:	14000032 	b	402027c4 <_binary_shell_bin_start+0x41c>
    40202700:	b89f83a8 	ldursw	x8, [x29, #-8]
    40202704:	36f80448 	tbz	w8, #31, 4020278c <_binary_shell_bin_start+0x3e4>
    40202708:	11002109 	add	w9, w8, #0x8
    4020270c:	3100211f 	cmn	w8, #0x8
    40202710:	b81f83a9 	stur	w9, [x29, #-8]
    40202714:	540003c8 	b.hi	4020278c <_binary_shell_bin_start+0x3e4>  // b.pmore
    40202718:	f85e83a9 	ldur	x9, [x29, #-24]
    4020271c:	8b080128 	add	x8, x9, x8
    40202720:	1400001e 	b	40202798 <_binary_shell_bin_start+0x3f0>
    40202724:	f85e03a8 	ldur	x8, [x29, #-32]
    40202728:	91002109 	add	x9, x8, #0x8
    4020272c:	f81e03a9 	stur	x9, [x29, #-32]
    40202730:	b9400116 	ldr	w22, [x8]
    40202734:	36f80096 	tbz	w22, #31, 40202744 <_binary_shell_bin_start+0x39c>
    40202738:	528005a0 	mov	w0, #0x2d                  	// #45
    4020273c:	97ffff2f 	bl	402023f8 <_binary_shell_bin_start+0x50>
    40202740:	4b1603f6 	neg	w22, w22
    40202744:	52800037 	mov	w23, #0x1                   	// #1
    40202748:	71002adf 	cmp	w22, #0xa
    4020274c:	540000c3 	b.cc	40202764 <_binary_shell_bin_start+0x3bc>  // b.lo, b.ul, b.last
    40202750:	0b170ae8 	add	w8, w23, w23, lsl #2
    40202754:	531f7917 	lsl	w23, w8, #1
    40202758:	1ad70ac8 	udiv	w8, w22, w23
    4020275c:	7100251f 	cmp	w8, #0x9
    40202760:	54ffff88 	b.hi	40202750 <_binary_shell_bin_start+0x3a8>  // b.pmore
    40202764:	1ad70ad8 	udiv	w24, w22, w23
    40202768:	1100c300 	add	w0, w24, #0x30
    4020276c:	97ffff23 	bl	402023f8 <_binary_shell_bin_start+0x50>
    40202770:	9bb47ee8 	umull	x8, w23, w20
    40202774:	71002aff 	cmp	w23, #0xa
    40202778:	1b17db16 	msub	w22, w24, w23, w22
    4020277c:	d363fd08 	lsr	x8, x8, #35
    40202780:	2a0803f7 	mov	w23, w8
    40202784:	54ffff02 	b.cs	40202764 <_binary_shell_bin_start+0x3bc>  // b.hs, b.nlast
    40202788:	17ffffb7 	b	40202664 <_binary_shell_bin_start+0x2bc>
    4020278c:	f85e03a8 	ldur	x8, [x29, #-32]
    40202790:	91002109 	add	x9, x8, #0x8
    40202794:	f81e03a9 	stur	x9, [x29, #-32]
    40202798:	f9400108 	ldr	x8, [x8]
    4020279c:	39400100 	ldrb	w0, [x8]
    402027a0:	34fff620 	cbz	w0, 40202664 <_binary_shell_bin_start+0x2bc>
    402027a4:	91000516 	add	x22, x8, #0x1
    402027a8:	97ffff14 	bl	402023f8 <_binary_shell_bin_start+0x50>
    402027ac:	384016c0 	ldrb	w0, [x22], #1
    402027b0:	35ffffc0 	cbnz	w0, 402027a8 <_binary_shell_bin_start+0x400>
    402027b4:	17ffffac 	b	40202664 <_binary_shell_bin_start+0x2bc>
    402027b8:	f85e03a9 	ldur	x9, [x29, #-32]
    402027bc:	91002128 	add	x8, x9, #0x8
    402027c0:	f81e03a8 	stur	x8, [x29, #-32]
    402027c4:	f9400136 	ldr	x22, [x9]
    402027c8:	2a1f03e8 	mov	w8, wzr
    402027cc:	52800797 	mov	w23, #0x3c                  	// #60
    402027d0:	14000008 	b	402027f0 <_binary_shell_bin_start+0x448>
    402027d4:	92400d28 	and	x8, x9, #0xf
    402027d8:	38686aa0 	ldrb	w0, [x21, x8]
    402027dc:	97ffff07 	bl	402023f8 <_binary_shell_bin_start+0x50>
    402027e0:	52800028 	mov	w8, #0x1                   	// #1
    402027e4:	d10012f7 	sub	x23, x23, #0x4
    402027e8:	b10012ff 	cmn	x23, #0x4
    402027ec:	54fff3c0 	b.eq	40202664 <_binary_shell_bin_start+0x2bc>  // b.none
    402027f0:	9ad726c9 	lsr	x9, x22, x23
    402027f4:	b4ffff17 	cbz	x23, 402027d4 <_binary_shell_bin_start+0x42c>
    402027f8:	12000d2a 	and	w10, w9, #0xf
    402027fc:	2a080148 	orr	w8, w10, w8
    40202800:	34ffff28 	cbz	w8, 402027e4 <_binary_shell_bin_start+0x43c>
    40202804:	17fffff4 	b	402027d4 <_binary_shell_bin_start+0x42c>
    40202808:	528004a0 	mov	w0, #0x25                  	// #37
    4020280c:	97fffefb 	bl	402023f8 <_binary_shell_bin_start+0x50>
    40202810:	a9524ff4 	ldp	x20, x19, [sp, #288]
    40202814:	f9407bfc 	ldr	x28, [sp, #240]
    40202818:	a95157f6 	ldp	x22, x21, [sp, #272]
    4020281c:	a9505ff8 	ldp	x24, x23, [sp, #256]
    40202820:	a94e7bfd 	ldp	x29, x30, [sp, #224]
    40202824:	9104c3ff 	add	sp, sp, #0x130
    40202828:	d65f03c0 	ret
    4020282c:	6c6c6548 	ldnp	d8, d25, [x10, #-320]
    40202830:	6f57206f 	umlal2	v15.4s, v3.8h, v7.h[1]
    40202834:	21646c72 	.inst	0x21646c72 ; undefined
    40202838:	3130000a 	adds	w10, w0, #0xc00
    4020283c:	35343332 	cbnz	w18, 4026aea0 <_binary_shell_bin_start+0x68af8>
    40202840:	39383736 	strb	w22, [x25, #3597]
    40202844:	64636261 	.inst	0x64636261 ; undefined
    40202848:	00006665 	udf	#26213
	...

Disassembly of section .debug_loclists:

0000000000000000 <.debug_loclists>:
   0:	000009be 	udf	#2494
   4:	00080005 	.inst	0x00080005 ; undefined
   8:	0000005f 	udf	#95
   c:	0000017c 	udf	#380
  10:	0000018c 	udf	#396
  14:	00000199 	udf	#409
  18:	000001a1 	udf	#417
  1c:	000001a9 	udf	#425
  20:	000001b9 	udf	#441
  24:	000001ca 	udf	#458
  28:	000001d2 	udf	#466
  2c:	000001ea 	udf	#490
  30:	00000201 	udf	#513
  34:	00000226 	udf	#550
  38:	00000230 	udf	#560
  3c:	00000274 	udf	#628
  40:	0000028f 	udf	#655
  44:	000002d3 	udf	#723
  48:	00000317 	udf	#791
  4c:	00000321 	udf	#801
  50:	0000032b 	udf	#811
  54:	00000335 	udf	#821
  58:	0000033f 	udf	#831
  5c:	00000349 	udf	#841
  60:	00000353 	udf	#851
  64:	0000035d 	udf	#861
  68:	00000367 	udf	#871
  6c:	00000371 	udf	#881
  70:	0000037b 	udf	#891
  74:	00000385 	udf	#901
  78:	0000038f 	udf	#911
  7c:	000003b9 	udf	#953
  80:	000003ca 	udf	#970
  84:	00000405 	udf	#1029
  88:	00000459 	udf	#1113
  8c:	0000046a 	udf	#1130
  90:	00000474 	udf	#1140
  94:	0000047e 	udf	#1150
  98:	00000488 	udf	#1160
  9c:	000004a2 	udf	#1186
  a0:	000004bd 	udf	#1213
  a4:	00000559 	udf	#1369
  a8:	0000056b 	udf	#1387
  ac:	000005a5 	udf	#1445
  b0:	000005af 	udf	#1455
  b4:	000005ba 	udf	#1466
  b8:	000005cb 	udf	#1483
  bc:	000005d5 	udf	#1493
  c0:	000005ee 	udf	#1518
  c4:	00000601 	udf	#1537
  c8:	00000612 	udf	#1554
  cc:	0000061c 	udf	#1564
  d0:	00000626 	udf	#1574
  d4:	00000630 	udf	#1584
  d8:	0000063a 	udf	#1594
  dc:	0000065c 	udf	#1628
  e0:	00000679 	udf	#1657
  e4:	0000068c 	udf	#1676
  e8:	0000069d 	udf	#1693
  ec:	000006a7 	udf	#1703
  f0:	000006c6 	udf	#1734
  f4:	000006de 	udf	#1758
  f8:	000006ef 	udf	#1775
  fc:	00000702 	udf	#1794
 100:	00000728 	udf	#1832
 104:	00000735 	udf	#1845
 108:	00000741 	udf	#1857
 10c:	0000074d 	udf	#1869
 110:	00000759 	udf	#1881
 114:	00000766 	udf	#1894
 118:	00000772 	udf	#1906
 11c:	0000077e 	udf	#1918
 120:	00000789 	udf	#1929
 124:	000007ae 	udf	#1966
 128:	000007c6 	udf	#1990
 12c:	000007de 	udf	#2014
 130:	000007f6 	udf	#2038
 134:	00000800 	udf	#2048
 138:	0000080a 	udf	#2058
 13c:	0000081e 	udf	#2078
 140:	00000832 	udf	#2098
 144:	0000085e 	udf	#2142
 148:	00000868 	udf	#2152
 14c:	00000872 	udf	#2162
 150:	0000087c 	udf	#2172
 154:	0000088f 	udf	#2191
 158:	000008a2 	udf	#2210
 15c:	000008b3 	udf	#2227
 160:	000008bd 	udf	#2237
 164:	000008c7 	udf	#2247
 168:	000008d1 	udf	#2257
 16c:	000008e5 	udf	#2277
 170:	00000912 	udf	#2322
 174:	0000092d 	udf	#2349
 178:	0000096a 	udf	#2410
 17c:	0000097b 	udf	#2427
 180:	00000987 	udf	#2439
 184:	0000099f 	udf	#2463
 188:	00042701 	.inst	0x00042701 ; undefined
 18c:	04500114 	mul	z20.h, p0/m, z20.h, z8.h
 190:	a3041c14 	.inst	0xa3041c14 ; undefined
 194:	009f5001 	.inst	0x009f5001 ; undefined
 198:	00042701 	.inst	0x00042701 ; undefined
 19c:	04530110 	umulh	z16.h, p0/m, z16.h, z8.h
 1a0:	57011c10 	.inst	0x57011c10 ; undefined
 1a4:	04270100 	add	z0.b, z8.b, z7.b
 1a8:	50011408 	adr	x8, 242a <_binary_shell_bin_size-0x100ebd6>
 1ac:	04270100 	add	z0.b, z8.b, z7.b
 1b0:	50011c14 	adr	x20, 2532 <_binary_shell_bin_size-0x100eace>
 1b4:	04270100 	add	z0.b, z8.b, z7.b
 1b8:	5001281c 	adr	x28, 26ba <_binary_shell_bin_size-0x100e946>
 1bc:	04402804 	saddv	d4, p2, z0.h
 1c0:	9f5001a3 	.inst	0x9f5001a3 ; undefined
 1c4:	04270100 	add	z0.b, z8.b, z7.b
 1c8:	300a6c44 	adr	x4, 14f51 <_binary_shell_bin_size-0xffc0af>
 1cc:	9308939f 	.inst	0x9308939f ; undefined
 1d0:	939f3108 	.inst	0x939f3108 ; undefined
 1d4:	27010008 	.inst	0x27010008 ; undefined
 1d8:	01645c04 	.inst	0x01645c04 ; undefined
 1dc:	27010050 	.inst	0x27010050 ; undefined
 1e0:	8c018804 	.inst	0x8c018804 ; undefined
 1e4:	04580101 	orr	z1.h, p0/m, z1.h, z8.h
 1e8:	01b4018c 	.inst	0x01b4018c ; undefined
 1ec:	d8045101 	prfm	pldl1strm, 8c0c <_binary_shell_bin_size-0x10083f4>
 1f0:	0101e401 	.inst	0x0101e401 ; undefined
 1f4:	27010051 	.inst	0x27010051 ; undefined
 1f8:	c801b804 	stlxr	w1, x4, [x0]
 1fc:	00780701 	.inst	0x00780701 ; undefined
 200:	21208910 	.inst	0x21208910 ; undefined
 204:	01c8049f 	.inst	0x01c8049f ; undefined
 208:	580101d8 	ldr	x24, 2240 <_binary_shell_bin_size-0x100edc0>
 20c:	04270100 	add	z0.b, z8.b, z7.b
 210:	029801e4 	.inst	0x029801e4 ; undefined
 214:	98045001 	ldrsw	x1, 8c14 <_binary_shell_bin_size-0x10083ec>
 218:	0402b002 	.inst	0x0402b002 ; undefined
 21c:	9f5001a3 	.inst	0x9f5001a3 ; undefined
 220:	b402b004 	cbz	x4, 5820 <_binary_shell_bin_size-0x100b7e0>
 224:	04500102 	mul	z2.h, p0/m, z2.h, z8.h
 228:	02cc02b4 	.inst	0x02cc02b4 ; undefined
 22c:	5001a304 	adr	x4, 368e <_binary_shell_bin_size-0x100d972>
 230:	2701009f 	.inst	0x2701009f ; undefined
 234:	c4028404 	ldnt1sb	{z4.d}, p1/z, [z0.d, x2]
 238:	00630102 	.inst	0x00630102 ; undefined
 23c:	cc042701 	.inst	0xcc042701 ; undefined
 240:	0102f002 	.inst	0x0102f002 ; undefined
 244:	02f00450 	.inst	0x02f00450 ; undefined
 248:	a304038c 	.inst	0xa304038c ; undefined
 24c:	049f5001 	mla	z1.s, p4/m, z0.s, z31.s
 250:	0398038c 	.inst	0x0398038c ; undefined
 254:	98045001 	ldrsw	x1, 8c54 <_binary_shell_bin_size-0x10083ac>
 258:	0403b403 	.inst	0x0403b403 ; undefined
 25c:	9f5001a3 	.inst	0x9f5001a3 ; undefined
 260:	e403b404 	st1b	{z4.d}, p5, [x0, z3.d]
 264:	04500103 	mul	z3.h, p0/m, z3.h, z8.h
 268:	03fc03e4 	.inst	0x03fc03e4 ; undefined
 26c:	5001a304 	adr	x4, 36ce <_binary_shell_bin_size-0x100d932>
 270:	03fc049f 	.inst	0x03fc049f ; undefined
 274:	50010480 	adr	x0, 2306 <_binary_shell_bin_size-0x100ecfa>
 278:	bc048004 	stur	s4, [x0, #72]
 27c:	00680104 	.inst	0x00680104 ; undefined
 280:	cc042701 	.inst	0xcc042701 ; undefined
 284:	0102e402 	.inst	0x0102e402 ; undefined
 288:	02e40451 	.inst	0x02e40451 ; undefined
 28c:	630106f8 	.inst	0x630106f8 ; undefined
 290:	9406f804 	bl	1be2a0 <_binary_shell_bin_size-0xe52d60>
 294:	01a30407 	.inst	0x01a30407 ; undefined
 298:	01009f51 	.inst	0x01009f51 ; undefined
 29c:	02cc0427 	.inst	0x02cc0427 ; undefined
 2a0:	52010380 	eor	w0, w28, #0x80000000
 2a4:	8c038004 	.inst	0x8c038004 ; undefined
 2a8:	01a30403 	.inst	0x01a30403 ; undefined
 2ac:	8c049f52 	.inst	0x8c049f52 ; undefined
 2b0:	0103ac03 	.inst	0x0103ac03 ; undefined
 2b4:	03ac0452 	.inst	0x03ac0452 ; undefined
 2b8:	a30403b4 	.inst	0xa30403b4 ; undefined
 2bc:	049f5201 	mla	z1.s, p4/m, z16.s, z31.s
 2c0:	03f403b4 	.inst	0x03f403b4 ; undefined
 2c4:	f4045201 	.inst	0xf4045201 ; undefined
 2c8:	0403fc03 	msb	z3.b, p7/m, z3.b, z0.b
 2cc:	9f5201a3 	.inst	0x9f5201a3 ; undefined
 2d0:	8c03fc04 	.inst	0x8c03fc04 ; undefined
 2d4:	04520104 	smulh	z4.h, p0/m, z4.h, z8.h
 2d8:	04bc048c 	sub	z12.s, z4.s, z28.s
 2dc:	01006601 	.inst	0x01006601 ; undefined
 2e0:	02cc0427 	.inst	0x02cc0427 ; undefined
 2e4:	53010384 	lsl	w4, w28, #31
 2e8:	8c038404 	.inst	0x8c038404 ; undefined
 2ec:	01a30403 	.inst	0x01a30403 ; undefined
 2f0:	8c049f53 	.inst	0x8c049f53 ; undefined
 2f4:	0103a803 	.inst	0x0103a803 ; undefined
 2f8:	03a80453 	.inst	0x03a80453 ; undefined
 2fc:	a30403b4 	.inst	0xa30403b4 ; undefined
 300:	049f5301 	mla	z1.s, p4/m, z24.s, z31.s
 304:	03f803b4 	.inst	0x03f803b4 ; undefined
 308:	f8045301 	stur	x1, [x24, #69]
 30c:	0403fc03 	msb	z3.b, p7/m, z3.b, z0.b
 310:	9f5301a3 	.inst	0x9f5301a3 ; undefined
 314:	9403fc04 	bl	ff324 <_binary_shell_bin_size-0xf11cdc>
 318:	04530104 	umulh	z4.h, p0/m, z4.h, z8.h
 31c:	04bc0494 	sub	z20.s, z4.s, z28.s
 320:	01006701 	.inst	0x01006701 ; undefined
 324:	03b80427 	.inst	0x03b80427 ; undefined
 328:	650104c0 	bfsub	z0.h, z6.h, z1.h
 32c:	04270100 	add	z0.b, z8.b, z7.b
 330:	04bc03d0 	add	z16.s, z30.s, z28.s
 334:	01006401 	.inst	0x01006401 ; undefined
 338:	04980427 	orr	z7.s, p1/m, z7.s, z1.s
 33c:	640104bc 	.inst	0x640104bc ; undefined
 340:	04270100 	add	z0.b, z8.b, z7.b
 344:	05d404c0 	mov	z0.d, p4/z, #38
 348:	01006501 	.inst	0x01006501 ; undefined
 34c:	05a40427 	zip2	z7.q, z1.q, z4.q
 350:	680105d0 	.inst	0x680105d0 ; undefined
 354:	04270100 	add	z0.b, z8.b, z7.b
 358:	05d004e4 	mov	z4.d, p0/z, #39
 35c:	01006401 	.inst	0x01006401 ; undefined
 360:	05ac0427 	zip2	z7.q, z1.q, z12.q
 364:	640105d0 	.inst	0x640105d0 ; undefined
 368:	04270100 	add	z0.b, z8.b, z7.b
 36c:	078005d4 	.inst	0x078005d4 ; undefined
 370:	01006501 	.inst	0x01006501 ; undefined
 374:	06b80427 	.inst	0x06b80427 ; undefined
 378:	680106e4 	.inst	0x680106e4 ; undefined
 37c:	04270100 	add	z0.b, z8.b, z7.b
 380:	06e405f8 	.inst	0x06e405f8 ; undefined
 384:	01006401 	.inst	0x01006401 ; undefined
 388:	06c00427 	.inst	0x06c00427 ; undefined
 38c:	640106e4 	.inst	0x640106e4 ; undefined
 390:	04270100 	add	z0.b, z8.b, z7.b
 394:	06fc06ec 	.inst	0x06fc06ec ; undefined
 398:	01005801 	.inst	0x01005801 ; undefined
 39c:	07e00427 	.inst	0x07e00427 ; undefined
 3a0:	780c07e4 	strh	w4, [sp], #192
 3a4:	87801100 	.inst	0x87801100 ; undefined
 3a8:	111c0ea7 	add	w7, w21, #0x703
 3ac:	049f1b7f 	.inst	0x049f1b7f ; undefined
 3b0:	07ec07e8 	.inst	0x07ec07e8 ; undefined
 3b4:	1100780f 	add	w15, w0, #0x1e
 3b8:	0ea78780 	add	v0.2s, v28.2s, v7.2s
 3bc:	1b7f111c 	.inst	0x1b7f111c ; undefined
 3c0:	9f220111 	.inst	0x9f220111 ; undefined
 3c4:	04270100 	add	z0.b, z8.b, z7.b
 3c8:	07f807f0 	.inst	0x07f807f0 ; undefined
 3cc:	f8045001 	stur	x1, [x0, #69]
 3d0:	0108b407 	.inst	0x0108b407 ; undefined
 3d4:	27010058 	.inst	0x27010058 ; undefined
 3d8:	8c098004 	.inst	0x8c098004 ; undefined
 3dc:	045d0109 	.inst	0x045d0109 ; undefined
 3e0:	09c809bc 	.inst	0x09c809bc ; undefined
 3e4:	fc045d01 	str	d1, [x8, #69]!
 3e8:	010a8809 	.inst	0x010a8809 ; undefined
 3ec:	0ab8045d 	bic	w29, w2, w24, asr #1
 3f0:	5d010ac4 	stlur	h4, [x22, #16]
 3f4:	840af804 	prfb	pldl3keep, p6, [z0.s, #10]
 3f8:	045d010b 	.inst	0x045d010b ; undefined
 3fc:	0bc00bb4 	.inst	0x0bc00bb4 ; undefined
 400:	f4045d01 	.inst	0xf4045d01 ; undefined
 404:	010c800b 	.inst	0x010c800b ; undefined
 408:	0cb0045d 	.inst	0x0cb0045d ; undefined
 40c:	5d010cbc 	.inst	0x5d010cbc ; undefined
 410:	04270100 	add	z0.b, z8.b, z7.b
 414:	098c08ec 	.inst	0x098c08ec ; undefined
 418:	9f001103 	.inst	0x9f001103 ; undefined
 41c:	c8098c04 	stlxr	w9, x4, [x0]
 420:	01110309 	.inst	0x01110309 ; undefined
 424:	09c8049f 	.inst	0x09c8049f ; undefined
 428:	11030a88 	add	w8, w20, #0xc2
 42c:	88049f02 	stlxr	w4, w2, [x24]
 430:	030ac40a 	.inst	0x030ac40a ; undefined
 434:	049f0311 	.inst	0x049f0311 ; undefined
 438:	0b840ac4 	add	w4, w22, w4, asr #2
 43c:	9f041103 	.inst	0x9f041103 ; undefined
 440:	c00b8404 	.inst	0xc00b8404 ; undefined
 444:	0511030b 	mov	z11.b, p1/z, #24
 448:	0bc0049f 	.inst	0x0bc0049f ; undefined
 44c:	11030c80 	add	w0, w4, #0xc3
 450:	80049f06 	.inst	0x80049f06 ; undefined
 454:	030cbc0c 	.inst	0x030cbc0c ; undefined
 458:	049f0711 	.inst	0x049f0711 ; undefined
 45c:	0cc00cbc 	.inst	0x0cc00cbc ; undefined
 460:	9f081103 	.inst	0x9f081103 ; undefined
 464:	04270100 	add	z0.b, z8.b, z7.b
 468:	0cc008ec 	ld4	{v12.2s-v15.2s}, [x7], x0
 46c:	c0045a01 	.inst	0xc0045a01 ; undefined
 470:	010d940c 	.inst	0x010d940c ; undefined
 474:	2701005d 	.inst	0x2701005d ; undefined
 478:	900cc804 	adrp	x4, 19900000 <_binary_shell_bin_size+0x188ef000>
 47c:	0058010d 	.inst	0x0058010d ; undefined
 480:	d4042701 	svc	#0x2138
 484:	010d900c 	.inst	0x010d900c ; undefined
 488:	2701005b 	.inst	0x2701005b ; undefined
 48c:	900cd804 	adrp	x4, 19b00000 <_binary_shell_bin_size+0x18aef000>
 490:	0059010d 	.inst	0x0059010d ; undefined
 494:	a8042701 	stnp	x1, x9, [x24, #64]
 498:	010ed40e 	.inst	0x010ed40e ; undefined
 49c:	0ed40450 	fminnm	v16.4h, v2.4h, v20.4h
 4a0:	8f0214fc 	.inst	0x8f0214fc ; undefined
 4a4:	15800408 	b	60014c4 <_binary_shell_bin_size+0x4ff04c4>
 4a8:	8f0215b8 	.inst	0x8f0215b8 ; undefined
 4ac:	27010008 	.inst	0x27010008 ; undefined
 4b0:	d00ea804 	adrp	x4, 1d502000 <_binary_shell_bin_size+0x1c4f1000>
 4b4:	0451010e 	.inst	0x0451010e ; undefined
 4b8:	12940ed0 	mov	w16, #0xffff5f89            	// #-41079
 4bc:	f0046701 	adrp	x1, 8ce3000 <_binary_shell_bin_size+0x7cd2000>
 4c0:	0412f812 	msb	z18.b, p6/m, z18.b, z0.b
 4c4:	9f5101a3 	.inst	0x9f5101a3 ; undefined
 4c8:	04270100 	add	z0.b, z8.b, z7.b
 4cc:	0edc0ed4 	fmls	v20.4h, v22.4h, v28.4h
 4d0:	9f001103 	.inst	0x9f001103 ; undefined
 4d4:	e80edc04 	.inst	0xe80edc04 ; undefined
 4d8:	0111030e 	.inst	0x0111030e ; undefined
 4dc:	0ee8049f 	.inst	0x0ee8049f ; undefined
 4e0:	11030ef4 	add	w20, w23, #0xc3
 4e4:	f4049f02 	.inst	0xf4049f02 ; undefined
 4e8:	030f800e 	.inst	0x030f800e ; undefined
 4ec:	049f0311 	.inst	0x049f0311 ; undefined
 4f0:	0f8c0f80 	.inst	0x0f8c0f80 ; undefined
 4f4:	9f041103 	.inst	0x9f041103 ; undefined
 4f8:	980f8c04 	ldrsw	x4, 1f678 <_binary_shell_bin_size-0xff1988>
 4fc:	0511030f 	mov	z15.b, p1/z, #24
 500:	0f98049f 	.inst	0x0f98049f ; undefined
 504:	11030fa4 	add	w4, w29, #0xc3
 508:	a4049f06 	.inst	0xa4049f06 ; undefined
 50c:	030fb00f 	.inst	0x030fb00f ; undefined
 510:	049f0711 	.inst	0x049f0711 ; undefined
 514:	0fcc0fb0 	.inst	0x0fcc0fb0 ; undefined
 518:	9f081103 	.inst	0x9f081103 ; undefined
 51c:	d40fcc04 	.inst	0xd40fcc04 ; undefined
 520:	0011030f 	.inst	0x0011030f ; undefined
 524:	0fd4049f 	.inst	0x0fd4049f ; undefined
 528:	11030fdc 	add	w28, w30, #0xc3
 52c:	dc049f01 	.inst	0xdc049f01 ; undefined
 530:	030fe40f 	.inst	0x030fe40f ; undefined
 534:	049f0211 	.inst	0x049f0211 ; undefined
 538:	0fec0fe4 	.inst	0x0fec0fe4 ; undefined
 53c:	9f031103 	.inst	0x9f031103 ; undefined
 540:	f40fec04 	.inst	0xf40fec04 ; undefined
 544:	0411030f 	.inst	0x0411030f ; undefined
 548:	0ff4049f 	.inst	0x0ff4049f ; undefined
 54c:	11030ffc 	add	w28, wsp, #0xc3
 550:	fc049f05 	str	d5, [x24, #73]!
 554:	0310840f 	.inst	0x0310840f ; undefined
 558:	049f0611 	.inst	0x049f0611 ; undefined
 55c:	10881084 	adr	x4, fffffffffff1076c <__free_ram_end+0xffffffffbcccc76c>
 560:	9f071103 	.inst	0x9f071103 ; undefined
 564:	04270100 	add	z0.b, z8.b, z7.b
 568:	10880ed4 	adr	x20, fffffffffff10740 <__free_ram_end+0xffffffffbcccc740>
 56c:	049f3002 	.inst	0x049f3002 ; undefined
 570:	14e414c8 	b	3905890 <_binary_shell_bin_size+0x28f4890>
 574:	01006401 	.inst	0x01006401 ; undefined
 578:	10940427 	adr	x7, fffffffffff285fc <__free_ram_end+0xffffffffbcce45fc>
 57c:	790d1098 	strh	w24, [x4, #1672]
 580:	10008400 	adr	x0, 1600 <_binary_shell_bin_size-0x100fa00>
 584:	221e40a0 	.inst	0x221e40a0 ; undefined
 588:	9f3fc823 	.inst	0x9f3fc823 ; undefined
 58c:	d4109804 	.inst	0xd4109804 ; undefined
 590:	988b0510 	ldrsw	x16, fffffffffff16630 <__free_ram_end+0xffffffffbccd2630>
 594:	049f00c0 	.inst	0x049f00c0 ; undefined
 598:	14c813bc 	b	3205488 <_binary_shell_bin_size+0x21f4488>
 59c:	c8046501 	stxr	w4, x1, [x8]
 5a0:	0514e414 	.inst	0x0514e414 ; undefined
 5a4:	00c0a084 	.inst	0x00c0a084 ; undefined
 5a8:	159c049f 	b	6701824 <_binary_shell_bin_size+0x56f0824>
 5ac:	650115b8 	.inst	0x650115b8 ; undefined
 5b0:	04270100 	add	z0.b, z8.b, z7.b
 5b4:	119410a4 	.inst	0x119410a4 ; undefined
 5b8:	01006301 	.inst	0x01006301 ; undefined
 5bc:	10d80427 	adr	x7, fffffffffffb0640 <__free_ram_end+0xffffffffbcd6c640>
 5c0:	31021194 	adds	w20, w12, #0x84
 5c4:	2701009f 	.inst	0x2701009f ; undefined
 5c8:	e4118c04 	st1b	{z4.d}, p3, [x0, z17.d, uxtw]
 5cc:	04630114 	add	z20.h, z8.h, z3.h
 5d0:	15b81580 	b	6e05bd0 <_binary_shell_bin_size+0x5df4bd0>
 5d4:	01006301 	.inst	0x01006301 ; undefined
 5d8:	11cc0427 	umin	w7, w1, #1
 5dc:	660111e8 	.inst	0x660111e8 ; undefined
 5e0:	04270100 	add	z0.b, z8.b, z7.b
 5e4:	12941284 	mov	w4, #0xffff5f6b            	// #-41109
 5e8:	049f3002 	.inst	0x049f3002 ; undefined
 5ec:	12f81294 	.inst	0x12f81294 ; undefined
 5f0:	80046c01 	.inst	0x80046c01 ; undefined
 5f4:	01159c15 	.inst	0x01159c15 ; undefined
 5f8:	2701006c 	.inst	0x2701006c ; undefined
 5fc:	f8129404 	str	x4, [x0], #-215
 600:	9f310212 	.inst	0x9f310212 ; undefined
 604:	9c158004 	ldr	q4, 2b604 <_binary_shell_bin_size-0xfe59fc>
 608:	9f310215 	.inst	0x9f310215 ; undefined
 60c:	04270100 	add	z0.b, z8.b, z7.b
 610:	12f81298 	.inst	0x12f81298 ; undefined
 614:	80046601 	.inst	0x80046601 ; undefined
 618:	01159c15 	.inst	0x01159c15 ; undefined
 61c:	27010066 	.inst	0x27010066 ; undefined
 620:	f812b804 	sttr	x4, [x0, #-213]
 624:	00660112 	.inst	0x00660112 ; undefined
 628:	c8042701 	stxr	w4, x1, [x24]
 62c:	0112d412 	.inst	0x0112d412 ; undefined
 630:	27010052 	.inst	0x27010052 ; undefined
 634:	e012fc04 	ld1b	{za0v.b[w15, 4]}, p7/z, [x0, x18]
 638:	00640113 	.inst	0x00640113 ; undefined
 63c:	c0042701 	mov	za0h.b[w13, 4:7], {z24.b-z27.b}
 640:	0113e013 	.inst	0x0113e013 ; undefined
 644:	27010064 	.inst	0x27010064 ; undefined
 648:	9813e004 	ldrsw	x4, 28248 <_binary_shell_bin_size-0xfe8db8>
 64c:	80860414 	.inst	0x80860414 ; undefined
 650:	98049f20 	ldrsw	x0, 9a34 <_binary_shell_bin_size-0x10075cc>
 654:	05149c14 	.inst	0x05149c14 ; undefined
 658:	00c08086 	.inst	0x00c08086 ; undefined
 65c:	159c049f 	b	67018d8 <_binary_shell_bin_size+0x56f08d8>
 660:	860415b8 	.inst	0x860415b8 ; undefined
 664:	009f2080 	.inst	0x009f2080 ; undefined
 668:	dc042701 	.inst	0xdc042701 ; undefined
 66c:	07158013 	.inst	0x07158013 ; undefined
 670:	fc808010 	.inst	0xfc808010 ; undefined
 674:	049f04b7 	.inst	0x049f04b7 ; undefined
 678:	15b8159c 	b	6e05ce8 <_binary_shell_bin_size+0x5df4ce8>
 67c:	80801007 	.inst	0x80801007 ; undefined
 680:	9f04b7fc 	.inst	0x9f04b7fc ; undefined
 684:	04270100 	add	z0.b, z8.b, z7.b
 688:	14a413e0 	b	2905608 <_binary_shell_bin_size+0x18f4608>
 68c:	049f3102 	.inst	0x049f3102 ; undefined
 690:	15b8159c 	b	6e05d00 <_binary_shell_bin_size+0x5df4d00>
 694:	009f3102 	.inst	0x009f3102 ; undefined
 698:	e4042701 	stnt1b	{z1.d}, p1, [z24.d, x4]
 69c:	0114a413 	.inst	0x0114a413 ; undefined
 6a0:	159c0464 	b	6701830 <_binary_shell_bin_size+0x56f0830>
 6a4:	640115b8 	.inst	0x640115b8 ; undefined
 6a8:	04270100 	add	z0.b, z8.b, z7.b
 6ac:	14a41484 	b	29058bc <_binary_shell_bin_size+0x18f48bc>
 6b0:	01006401 	.inst	0x01006401 ; undefined
 6b4:	15b80427 	b	6e01750 <_binary_shell_bin_size+0x5df0750>
 6b8:	500115d0 	adr	x16, 2972 <_binary_shell_bin_size-0x100e68e>
 6bc:	d015d004 	adrp	x4, 2ba02000 <_binary_shell_bin_size+0x2a9f1000>
 6c0:	04580116 	orr	z22.h, p0/m, z22.h, z8.h
 6c4:	16e416d8 	b	fffffffffb906224 <__free_ram_end+0xffffffffb86c2224>
 6c8:	80045801 	.inst	0x80045801 ; undefined
 6cc:	01178417 	.inst	0x01178417 ; undefined
 6d0:	27010058 	.inst	0x27010058 ; undefined
 6d4:	ec15c804 	.inst	0xec15c804 ; undefined
 6d8:	04510115 	.inst	0x04510115 ; undefined
 6dc:	16bc16b0 	b	fffffffffaf0619c <__free_ram_end+0xffffffffb7cc219c>
 6e0:	d8045101 	prfm	pldl1strm, 9100 <_binary_shell_bin_size-0x1007f00>
 6e4:	0116e416 	.inst	0x0116e416 ; undefined
 6e8:	27010051 	.inst	0x27010051 ; undefined
 6ec:	a815ec04 	stnp	x4, x27, [x0, #344]
 6f0:	04590116 	eor	z22.h, p0/m, z22.h, z8.h
 6f4:	17841780 	b	fffffffffe1064f4 <__free_ram_end+0xffffffffbaec24f4>
 6f8:	01005901 	.inst	0x01005901 ; undefined
 6fc:	15f00427 	b	7c01798 <_binary_shell_bin_size+0x6bf0798>
 700:	300a1688 	adr	x8, 149d1 <_binary_shell_bin_size-0xffc62f>
 704:	9308939f 	.inst	0x9308939f ; undefined
 708:	939f3108 	.inst	0x939f3108 ; undefined
 70c:	27010008 	.inst	0x27010008 ; undefined
 710:	90168c04 	adrp	x4, 2d180000 <_binary_shell_bin_size+0x2c16f000>
 714:	007a0a16 	.inst	0x007a0a16 ; undefined
 718:	1c07e811 	ldr	s17, 10418 <_binary_shell_bin_size-0x1000be8>
 71c:	9f1b7f11 	.inst	0x9f1b7f11 ; undefined
 720:	98169404 	ldrsw	x4, 2d9a0 <_binary_shell_bin_size-0xfe3660>
 724:	007a0d16 	.inst	0x007a0d16 ; undefined
 728:	1c07e811 	ldr	s17, 10428 <_binary_shell_bin_size-0x1000bd8>
 72c:	111b7f11 	add	w17, w24, #0x6df
 730:	009f2201 	.inst	0x009f2201 ; undefined
 734:	c8042701 	stxr	w4, x1, [x24]
 738:	0416cc16 	mad	z22.b, p3/m, z22.b, z0.b
 73c:	9f00c011 	.inst	0x9f00c011 ; undefined
 740:	04270100 	add	z0.b, z8.b, z7.b
 744:	16cc16c8 	b	fffffffffb306264 <__free_ram_end+0xffffffffb80c2264>
 748:	9f011103 	.inst	0x9f011103 ; undefined
 74c:	04270100 	add	z0.b, z8.b, z7.b
 750:	16cc16c8 	b	fffffffffb306270 <__free_ram_end+0xffffffffb80c2270>
 754:	9f031103 	.inst	0x9f031103 ; undefined
 758:	04270100 	add	z0.b, z8.b, z7.b
 75c:	16cc16c8 	b	fffffffffb30627c <__free_ram_end+0xffffffffb80c227c>
 760:	9f088f03 	.inst	0x9f088f03 ; undefined
 764:	04270100 	add	z0.b, z8.b, z7.b
 768:	16cc16c8 	b	fffffffffb306288 <__free_ram_end+0xffffffffb80c2288>
 76c:	00c01104 	.inst	0x00c01104 ; undefined
 770:	2701009f 	.inst	0x2701009f ; undefined
 774:	cc16c804 	.inst	0xcc16c804 ; undefined
 778:	01110316 	.inst	0x01110316 ; undefined
 77c:	2701009f 	.inst	0x2701009f ; undefined
 780:	cc16c804 	.inst	0xcc16c804 ; undefined
 784:	03110316 	.inst	0x03110316 ; undefined
 788:	2701009f 	.inst	0x2701009f ; undefined
 78c:	cc16c804 	.inst	0xcc16c804 ; undefined
 790:	088f0216 	stllrb	w22, [x16]
 794:	04270100 	add	z0.b, z8.b, z7.b
 798:	17d81790 	b	ffffffffff6065d8 <__free_ram_end+0xffffffffbc3c25d8>
 79c:	d8045001 	prfm	pldl1strm, 919c <_binary_shell_bin_size-0x1007e64>
 7a0:	0418b017 	cls	z23.b, p4/m, z0.b
 7a4:	9f5001a3 	.inst	0x9f5001a3 ; undefined
 7a8:	cc18b004 	.inst	0xcc18b004 ; undefined
 7ac:	04500118 	mul	z24.h, p0/m, z24.h, z8.h
 7b0:	18fc18cc 	ldr	w12, ffffffffffff8ac8 <__free_ram_end+0xffffffffbcdb4ac8>
 7b4:	5001a304 	adr	x4, 3c16 <_binary_shell_bin_size-0x100d3ea>
 7b8:	2701009f 	.inst	0x2701009f ; undefined
 7bc:	a417b004 	ldnf1b	{z4.b}, p4/z, [x0, #7, mul vl]
 7c0:	04630118 	add	z24.h, z8.h, z3.h
 7c4:	18bc18b0 	ldr	w16, fffffffffff78ad8 <__free_ram_end+0xffffffffbcd34ad8>
 7c8:	c8046301 	stxr	w4, x1, [x24]
 7cc:	0118fc18 	.inst	0x0118fc18 ; undefined
 7d0:	27010063 	.inst	0x27010063 ; undefined
 7d4:	a417b004 	ldnf1b	{z4.b}, p4/z, [x0, #7, mul vl]
 7d8:	04640118 	add	z24.h, z8.h, z4.h
 7dc:	18bc18b0 	ldr	w16, fffffffffff78af0 <__free_ram_end+0xffffffffbcd34af0>
 7e0:	c8046401 	stxr	w4, x1, [x0]
 7e4:	0118fc18 	.inst	0x0118fc18 ; undefined
 7e8:	27010064 	.inst	0x27010064 ; undefined
 7ec:	a817b404 	stnp	x4, x13, [x0, #376]
 7f0:	04660118 	add	z24.h, z8.h, z6.h
 7f4:	18c018b0 	ldr	w16, fffffffffff80b08 <__free_ram_end+0xffffffffbcd3cb08>
 7f8:	c8046601 	stxr	w4, x1, [x16]
 7fc:	0118fc18 	.inst	0x0118fc18 ; undefined
 800:	27010066 	.inst	0x27010066 ; undefined
 804:	c417b804 	ld1q	z4.q, p6/z, [z0.d, x23]
 808:	00580117 	.inst	0x00580117 ; undefined
 80c:	d4042701 	svc	#0x2138
 810:	0118a817 	.inst	0x0118a817 ; undefined
 814:	27010065 	.inst	0x27010065 ; undefined
 818:	8418fc04 	prfb	pldl3keep, p7, [z0.s, #24]
 81c:	04500119 	mul	z25.h, p0/m, z25.h, z8.h
 820:	19881984 	.inst	0x19881984 ; undefined
 824:	5001a304 	adr	x4, 3c86 <_binary_shell_bin_size-0x100d37a>
 828:	2701009f 	.inst	0x2701009f ; undefined
 82c:	90198804 	adrp	x4, 33100000 <_binary_shell_bin_size+0x320ef000>
 830:	04500119 	mul	z25.h, p0/m, z25.h, z8.h
 834:	19941990 	.inst	0x19941990 ; undefined
 838:	5001a304 	adr	x4, 3c9a <_binary_shell_bin_size-0x100d366>
 83c:	2701009f 	.inst	0x2701009f ; undefined
 840:	e419b404 	st1b	{z4.d}, p5, [x0, z25.d]
 844:	04500119 	mul	z25.h, p0/m, z25.h, z8.h
 848:	19fc19e4 	.inst	0x19fc19e4 ; undefined
 84c:	5001a304 	adr	x4, 3cae <_binary_shell_bin_size-0x100d352>
 850:	19fc049f 	.inst	0x19fc049f ; undefined
 854:	50011a80 	adr	x0, 2ba6 <_binary_shell_bin_size-0x100e45a>
 858:	c41a8004 	ldnt1sb	{z4.d}, p0/z, [z0.d, x26]
 85c:	0464011a 	add	z26.h, z8.h, z4.h
 860:	1acc1ac4 	.inst	0x1acc1ac4 ; undefined
 864:	5001a304 	adr	x4, 3cc6 <_binary_shell_bin_size-0x100d33a>
 868:	2701009f 	.inst	0x2701009f ; undefined
 86c:	c419d004 	ldnt1b	{z4.d}, p4/z, [z0.d, x25]
 870:	0063011a 	.inst	0x0063011a ; undefined
 874:	90042701 	adrp	x1, 84e0000 <_binary_shell_bin_size+0x74cf000>
 878:	011ac41a 	.inst	0x011ac41a ; undefined
 87c:	27010063 	.inst	0x27010063 ; undefined
 880:	c41a9004 	ldnt1sb	{z4.d}, p4/z, [z0.d, x26]
 884:	0063011a 	.inst	0x0063011a ; undefined
 888:	c8042701 	stxr	w4, x1, [x24]
 88c:	021bf81b 	.inst	0x021bf81b ; undefined
 890:	cc049f32 	.inst	0xcc049f32 ; undefined
 894:	021dc41c 	.inst	0x021dc41c ; undefined
 898:	01009f32 	.inst	0x01009f32 ; undefined
 89c:	1bc80427 	.inst	0x1bc80427 ; undefined
 8a0:	30021bf8 	adr	x24, 4c1d <_binary_shell_bin_size-0x100c3e3>
 8a4:	1ccc049f 	ldr	s31, fffffffffff98934 <__free_ram_end+0xffffffffbcd54934>
 8a8:	30021dc4 	adr	x4, 4c61 <_binary_shell_bin_size-0x100c39f>
 8ac:	2701009f 	.inst	0x2701009f ; undefined
 8b0:	f81bcc04 	str	x4, [x0, #-68]!
 8b4:	0463011b 	add	z27.h, z8.h, z3.h
 8b8:	1db41ccc 	.inst	0x1db41ccc ; undefined
 8bc:	01006301 	.inst	0x01006301 ; undefined
 8c0:	1cdc0427 	ldr	s7, fffffffffffb8944 <__free_ram_end+0xffffffffbcd74944>
 8c4:	63011db4 	.inst	0x63011db4 ; undefined
 8c8:	04270100 	add	z0.b, z8.b, z7.b
 8cc:	1db41cdc 	.inst	0x1db41cdc ; undefined
 8d0:	01006301 	.inst	0x01006301 ; undefined
 8d4:	1db40427 	.inst	0x1db40427 ; undefined
 8d8:	63011e88 	.inst	0x63011e88 ; undefined
 8dc:	04270100 	add	z0.b, z8.b, z7.b
 8e0:	1ee01ecc 	fcsel	h12, h22, h0, ne	// ne = any
 8e4:	e0045001 	ld1b	{za0h.b[w14, 1]}, p4/z, [x0, x4]
 8e8:	041ee41e 	msb	z30.b, p1/m, z30.b, z0.b
 8ec:	9f5001a3 	.inst	0x9f5001a3 ; undefined
 8f0:	04270100 	add	z0.b, z8.b, z7.b
 8f4:	1f981ee4 	.inst	0x1f981ee4 ; undefined
 8f8:	98045001 	ldrsw	x1, 92f8 <_binary_shell_bin_size-0x1007d08>
 8fc:	011fcc1f 	.inst	0x011fcc1f ; undefined
 900:	1fcc0464 	fmadd	h4, h3, h12, h1
 904:	50011fd0 	adr	x16, 2cfe <_binary_shell_bin_size-0x100e302>
 908:	8c1fd804 	.inst	0x8c1fd804 ; undefined
 90c:	04640121 	add	z1.h, z9.h, z4.h
 910:	21a4219c 	.inst	0x21a4219c ; undefined
 914:	b0046401 	adrp	x1, 8c81000 <_binary_shell_bin_size+0x7c70000>
 918:	0121b821 	.inst	0x0121b821 ; undefined
 91c:	27010064 	.inst	0x27010064 ; undefined
 920:	bc1ee404 	str	s4, [x0], #-18
 924:	0451011f 	.inst	0x0451011f ; undefined
 928:	1fcc1fbc 	fmadd	h28, h29, h12, h7
 92c:	5101a304 	sub	w4, w24, #0x68
 930:	1fcc049f 	fmadd	h31, h4, h12, h1
 934:	51011fdc 	sub	w28, w30, #0x47
 938:	04270100 	add	z0.b, z8.b, z7.b
 93c:	1efc1ee4 	fcsel	h4, h23, h28, ne	// ne = any
 940:	fc045201 	stur	d1, [x16, #69]
 944:	0121901e 	.inst	0x0121901e ; undefined
 948:	21900463 	.inst	0x21900463 ; undefined
 94c:	a304219c 	.inst	0xa304219c ; undefined
 950:	049f5201 	mla	z1.s, p4/m, z16.s, z31.s
 954:	21a4219c 	.inst	0x21a4219c ; undefined
 958:	a4046301 	ldff1b	{z1.b}, p0/z, [x24, x4]
 95c:	0421b021 	.inst	0x0421b021 ; undefined
 960:	9f5201a3 	.inst	0x9f5201a3 ; undefined
 964:	b821b004 	.inst	0xb821b004 ; undefined
 968:	04630121 	add	z1.h, z9.h, z3.h
 96c:	21cc21b8 	.inst	0x21cc21b8 ; undefined
 970:	5201a304 	eor	w4, w24, #0x80ff80ff
 974:	2701009f 	.inst	0x2701009f ; undefined
 978:	8c1fe804 	.inst	0x8c1fe804 ; undefined
 97c:	045b0121 	bic	z1.h, p0/m, z1.h, z9.h
 980:	21cc219c 	.inst	0x21cc219c ; undefined
 984:	01005b01 	.inst	0x01005b01 ; undefined
 988:	20a40427 	.inst	0x20a40427 ; undefined
 98c:	110320e8 	add	w8, w7, #0xc8
 990:	01009f00 	.inst	0x01009f00 ; undefined
 994:	21fc0427 	.inst	0x21fc0427 ; undefined
 998:	58012280 	ldr	x0, 2de8 <_binary_shell_bin_size-0x100e218>
 99c:	a0228004 	st1b	{z4.b-z7.b}, pn8, [x0, x2]
 9a0:	04510122 	.inst	0x04510122 ; undefined
 9a4:	22d022c4 	.inst	0x22d022c4 ; undefined
 9a8:	01005101 	.inst	0x01005101 ; undefined
 9ac:	22a40427 	.inst	0x22a40427 ; undefined
 9b0:	780722b4 	sturh	w20, [x21, #114]
 9b4:	20891000 	.inst	0x20891000 ; undefined
 9b8:	b4049f21 	cbz	x1, 9d9c <_binary_shell_bin_size-0x1007264>
 9bc:	0122c022 	.inst	0x0122c022 ; undefined
 9c0:	01980058 	.inst	0x01980058 ; undefined
 9c4:	00050000 	.inst	0x00050000 ; undefined
 9c8:	00100008 	.inst	0x00100008 ; undefined
 9cc:	00400000 	.inst	0x00400000 ; undefined
 9d0:	004e0000 	.inst	0x004e0000 ; undefined
 9d4:	005c0000 	.inst	0x005c0000 ; undefined
 9d8:	00750000 	.inst	0x00750000 ; undefined
 9dc:	00840000 	.inst	0x00840000 ; undefined
 9e0:	009e0000 	.inst	0x009e0000 ; undefined
 9e4:	00ad0000 	.inst	0x00ad0000 ; undefined
 9e8:	00bc0000 	.inst	0x00bc0000 ; undefined
 9ec:	00d40000 	.inst	0x00d40000 ; undefined
 9f0:	00e30000 	.inst	0x00e30000 ; undefined
 9f4:	00f20000 	.inst	0x00f20000 ; undefined
 9f8:	01010000 	.inst	0x01010000 ; undefined
 9fc:	011f0000 	.inst	0x011f0000 ; undefined
 a00:	01370000 	.inst	0x01370000 ; undefined
 a04:	01770000 	.inst	0x01770000 ; undefined
 a08:	01880000 	.inst	0x01880000 ; undefined
 a0c:	00040000 	.inst	0x00040000 ; undefined
 a10:	500101b4 	adr	x20, 2a46 <_binary_shell_bin_size-0x100e5ba>
 a14:	c401b404 	ld1q	z4.q, p5/z, [z0.d, x1]
 a18:	005a0101 	.inst	0x005a0101 ; undefined
 a1c:	01b40004 	.inst	0x01b40004 ; undefined
 a20:	b4045101 	cbz	x1, 9440 <_binary_shell_bin_size-0x1007bc0>
 a24:	0101c401 	.inst	0x0101c401 ; undefined
 a28:	00040059 	.inst	0x00040059 ; undefined
 a2c:	72030188 	ands	w8, w12, #0x20000000
 a30:	a8049f7f 	stnp	xzr, x7, [x27, #72]
 a34:	0301ac01 	.inst	0x0301ac01 ; undefined
 a38:	049f7f72 	mls	z18.s, p7/m, z27.s, z31.s
 a3c:	01c001b4 	.inst	0x01c001b4 ; undefined
 a40:	04005201 	mla	z1.b, p4/m, z16.b, z0.b
 a44:	02d801c8 	.inst	0x02d801c8 ; undefined
 a48:	d8045001 	prfm	pldl1strm, 9448 <_binary_shell_bin_size-0x1007bb8>
 a4c:	0102e402 	.inst	0x0102e402 ; undefined
 a50:	c8040059 	stxr	w4, x25, [x2]
 a54:	0302b401 	.inst	0x0302b401 ; undefined
 a58:	049f7f72 	mls	z18.s, p7/m, z27.s, z31.s
 a5c:	02d402d0 	.inst	0x02d402d0 ; undefined
 a60:	9f7f7203 	.inst	0x9f7f7203 ; undefined
 a64:	e002d804 	ld1b	{za0v.b[w14, 4]}, p6/z, [x0, x2]
 a68:	00520102 	.inst	0x00520102 ; undefined
 a6c:	fc02e804 	.inst	0xfc02e804 ; undefined
 a70:	04510102 	.inst	0x04510102 ; undefined
 a74:	038402fc 	.inst	0x038402fc ; undefined
 a78:	04005a01 	mla	z1.b, p6/m, z16.b, z0.b
 a7c:	02fc02e8 	.inst	0x02fc02e8 ; undefined
 a80:	fc045001 	stur	d1, [x0, #69]
 a84:	01038802 	.inst	0x01038802 ; undefined
 a88:	90040059 	adrp	x25, 8008000 <_binary_shell_bin_size+0x6ff7000>
 a8c:	01039c03 	.inst	0x01039c03 ; undefined
 a90:	039c0450 	.inst	0x039c0450 ; undefined
 a94:	790303a8 	strh	w8, [x29, #384]
 a98:	a8049f7f 	stnp	xzr, x7, [x27, #72]
 a9c:	0103ac03 	.inst	0x0103ac03 ; undefined
 aa0:	c0040059 	.inst	0xc0040059 ; undefined
 aa4:	0103f803 	.inst	0x0103f803 ; undefined
 aa8:	03f80450 	.inst	0x03f80450 ; undefined
 aac:	630107ec 	.inst	0x630107ec ; undefined
 ab0:	059c0400 	mov	z0.s, p12/z, #32
 ab4:	660105a4 	.inst	0x660105a4 ; undefined
 ab8:	e4068c04 	st1b	{z4.d}, p3, [x0, z6.d, uxtw]
 abc:	00660106 	.inst	0x00660106 ; undefined
 ac0:	a4059c04 	.inst	0xa4059c04 ; undefined
 ac4:	04660105 	add	z5.h, z8.h, z6.h
 ac8:	069c068c 	.inst	0x069c068c ; undefined
 acc:	04006601 	mls	z1.b, p1/m, z16.b, z0.b
 ad0:	06a8069c 	.inst	0x06a8069c ; undefined
 ad4:	049f3102 	.inst	0x049f3102 ; undefined
 ad8:	06d806a8 	.inst	0x06d806a8 ; undefined
 adc:	d8046701 	prfm	pldl1strm, 97bc <_binary_shell_bin_size-0x1007844>
 ae0:	0106dc06 	.inst	0x0106dc06 ; undefined
 ae4:	06dc0458 	.inst	0x06dc0458 ; undefined
 ae8:	670106e4 	.inst	0x670106e4 ; undefined
 aec:	06f40400 	.inst	0x06f40400 ; undefined
 af0:	58010780 	ldr	x0, 2be0 <_binary_shell_bin_size-0x100e420>
 af4:	84078004 	ldnt1sb	{z4.s}, p0/z, [z0.s, x7]
 af8:	7f860307 	.inst	0x7f860307 ; undefined
 afc:	0784049f 	.inst	0x0784049f ; undefined
 b00:	66010788 	.inst	0x66010788 ; undefined
 b04:	07ac0400 	.inst	0x07ac0400 ; undefined
 b08:	870f07bc 	.inst	0x870f07bc ; undefined
 b0c:	1c3c1100 	ldr	s0, 78d2c <_binary_shell_bin_size-0xf982d4>
 b10:	111b7c11 	add	w17, w0, #0x6df
 b14:	0f111e7f 	.inst	0x0f111e7f ; undefined
 b18:	bc049f22 	str	s2, [x25, #73]!
 b1c:	0f07c007 	.inst	0x0f07c007 ; undefined
 b20:	3c110087 	stur	b7, [x4, #-240]
 b24:	1b7c111c 	.inst	0x1b7c111c ; undefined
 b28:	111e7f11 	add	w17, w24, #0x79f
 b2c:	049f220e 	.inst	0x049f220e ; undefined
 b30:	07d007c8 	.inst	0x07d007c8 ; undefined
 b34:	1100870f 	add	w15, w24, #0x21
 b38:	7c111c3c 	str	h28, [x1, #-239]!
 b3c:	1e7f111b 	.inst	0x1e7f111b ; undefined
 b40:	9f220f11 	.inst	0x9f220f11 ; undefined
 b44:	07a00400 	.inst	0x07a00400 ; undefined
 b48:	110307ac 	add	w12, w29, #0xc1
 b4c:	bc049f00 	str	s0, [x24, #73]!
 b50:	0107d007 	.inst	0x0107d007 ; undefined
 b54:	a0040058 	ld1b	{z24.b-z25.b}, pn8/z, [x2, x4]
 b58:	0107d007 	.inst	0x0107d007 ; undefined
 b5c:	00370066 	.inst	0x00370066 ; NYI
 b60:	00050000 	.inst	0x00050000 ; undefined
 b64:	00030008 	.inst	0x00030008 ; undefined
 b68:	000c0000 	.inst	0x000c0000 ; undefined
 b6c:	00180000 	.inst	0x00180000 ; undefined
 b70:	00280000 	.inst	0x00280000 ; NYI
 b74:	00040000 	.inst	0x00040000 ; undefined
 b78:	04500114 	mul	z20.h, p0/m, z20.h, z8.h
 b7c:	01019414 	.inst	0x01019414 ; undefined
 b80:	00040063 	.inst	0x00040063 ; undefined
 b84:	04510124 	.inst	0x04510124 ; undefined
 b88:	65014424 	.inst	0x65014424 ; undefined
 b8c:	01484404 	.inst	0x01484404 ; undefined
 b90:	18040051 	ldr	w17, 8b98 <_binary_shell_bin_size-0x1008468>
 b94:	64010194 	.inst	0x64010194 ; undefined
	...

Disassembly of section .debug_abbrev:

0000000000000000 <.debug_abbrev>:
   0:	25011101 	cmpge	p1.b, p4/z, z8.b, #1
   4:	03051325 	.inst	0x03051325 ; undefined
   8:	10177225 	adr	x5, 2ee4c <_binary_shell_bin_size-0xfe21b4>
   c:	11251b17 	add	w23, w24, #0x946
  10:	73235501 	.inst	0x73235501 ; undefined
  14:	8c177417 	.inst	0x8c177417 ; undefined
  18:	00001701 	udf	#5889
  1c:	49003402 	.inst	0x49003402 ; undefined
  20:	3b0b3a13 	.inst	0x3b0b3a13 ; undefined
  24:	0018020b 	.inst	0x0018020b ; undefined
  28:	01010300 	.inst	0x01010300 ; undefined
  2c:	00001349 	udf	#4937
  30:	49002104 	.inst	0x49002104 ; undefined
  34:	000b3713 	.inst	0x000b3713 ; undefined
  38:	00240500 	.inst	0x00240500 ; NYI
  3c:	0b3e2503 	add	w3, w8, w30, uxth #1
  40:	00000b0b 	udf	#2827
  44:	03002406 	.inst	0x03002406 ; undefined
  48:	3e0b0b25 	.inst	0x3e0b0b25 ; undefined
  4c:	0700000b 	.inst	0x0700000b ; undefined
  50:	1b11012e 	madd	w14, w9, w17, w0
  54:	18400612 	ldr	w18, 80114 <_binary_shell_bin_size-0xf90eec>
  58:	1331197a 	.inst	0x1331197a ; undefined
  5c:	34080000 	cbz	w0, 1005c <_binary_shell_bin_size-0x1000fa4>
  60:	49250300 	.inst	0x49250300 ; undefined
  64:	3b0b3a13 	.inst	0x3b0b3a13 ; undefined
  68:	0018020b 	.inst	0x0018020b ; undefined
  6c:	00050900 	.inst	0x00050900 ; undefined
  70:	13312202 	.inst	0x13312202 ; undefined
  74:	340a0000 	cbz	w0, 14074 <_binary_shell_bin_size-0xffcf8c>
  78:	31220200 	adds	w0, w16, #0x880
  7c:	0b000013 	add	w19, w0, w0
  80:	137f0148 	.inst	0x137f0148 ; undefined
  84:	00001b7d 	udf	#7037
  88:	0200490c 	.inst	0x0200490c ; undefined
  8c:	00187e18 	.inst	0x00187e18 ; undefined
  90:	00160d00 	.inst	0x00160d00 ; undefined
  94:	25031349 	cmpge	p9.b, p4/z, z26.b, #3
  98:	0b3b0b3a 	add	w26, w25, w27, uxtb #2
  9c:	340e0000 	cbz	w0, 1c09c <_binary_shell_bin_size-0xff4f64>
  a0:	3a134900 	.inst	0x3a134900 ; undefined
  a4:	02053b0b 	.inst	0x02053b0b ; undefined
  a8:	0f000018 	.inst	0x0f000018 ; undefined
  ac:	13490034 	.inst	0x13490034 ; undefined
  b0:	053b0b3a 	ext	z26.b, z26.b, z25.b, #218
  b4:	34100000 	cbz	w0, 200b4 <_binary_shell_bin_size-0xff0f4c>
  b8:	49250300 	.inst	0x49250300 ; undefined
  bc:	3a193f13 	.inst	0x3a193f13 ; undefined
  c0:	020b3b0b 	.inst	0x020b3b0b ; undefined
  c4:	11000018 	add	w24, w0, #0x0
  c8:	25030113 	cmpgt	p3.b, p0/z, z8.b, #3
  cc:	0b3a050b 	add	w11, w8, w26, uxtb #1
  d0:	00000b3b 	udf	#2875
  d4:	03000d12 	.inst	0x03000d12 ; undefined
  d8:	3a134925 	.inst	0x3a134925 ; undefined
  dc:	380b3b0b 	sttrb	w11, [x24, #179]
  e0:	1300000b 	sbfx	w11, w0, #0, #1
  e4:	2503000d 	cmpge	p13.b, p0/z, z0.b, #3
  e8:	0b3a1349 	add	w9, w26, w26, uxtb #4
  ec:	01880b3b 	.inst	0x01880b3b ; undefined
  f0:	000b380f 	.inst	0x000b380f ; undefined
  f4:	000f1400 	.inst	0x000f1400 ; undefined
  f8:	00001349 	udf	#4937
  fc:	49002115 	.inst	0x49002115 ; undefined
 100:	00053713 	.inst	0x00053713 ; undefined
 104:	00341600 	.inst	0x00341600 ; NYI
 108:	13492503 	.inst	0x13492503 ; undefined
 10c:	0b3a193f 	.inst	0x0b3a193f ; undefined
 110:	1802053b 	ldr	w27, 41b4 <_binary_shell_bin_size-0x100ce4c>
 114:	0d170000 	.inst	0x0d170000 ; undefined
 118:	49250300 	.inst	0x49250300 ; undefined
 11c:	3b0b3a13 	.inst	0x3b0b3a13 ; undefined
 120:	0005380b 	.inst	0x0005380b ; undefined
 124:	000d1800 	.inst	0x000d1800 ; undefined
 128:	13492503 	.inst	0x13492503 ; undefined
 12c:	0b3b0b3a 	add	w26, w25, w27, uxtb #2
 130:	380f0188 	sturb	w8, [x12, #240]
 134:	19000005 	stlurb	w5, [x0]
 138:	25030113 	cmpgt	p3.b, p0/z, z8.b, #3
 13c:	0b3a0b0b 	add	w11, w24, w26, uxtb #2
 140:	00000b3b 	udf	#2875
 144:	4900351a 	.inst	0x4900351a ; undefined
 148:	1b000013 	madd	w19, w0, w0, w0
 14c:	0000000f 	udf	#15
 150:	0200051c 	.inst	0x0200051c ; undefined
 154:	00133118 	.inst	0x00133118 ; undefined
 158:	00341d00 	.inst	0x00341d00 ; NYI
 15c:	13311802 	.inst	0x13311802 ; undefined
 160:	2e1e0000 	ext	v0.8b, v0.8b, v30.8b, #0
 164:	3a250301 	.inst	0x3a250301 ; undefined
 168:	270b3b0b 	.inst	0x270b3b0b ; undefined
 16c:	3f134919 	.inst	0x3f134919 ; undefined
 170:	01212019 	.inst	0x01212019 ; undefined
 174:	051f0000 	mov	z0.b, p15/z, #0
 178:	3a250300 	.inst	0x3a250300 ; undefined
 17c:	490b3b0b 	.inst	0x490b3b0b ; undefined
 180:	20000013 	.inst	0x20000013 ; undefined
 184:	25030034 	cmpgt	p4.b, p0/z, z1.b, #3
 188:	0b3b0b3a 	add	w26, w25, w27, uxtb #2
 18c:	00001349 	udf	#4937
 190:	49002621 	.inst	0x49002621 ; undefined
 194:	22000013 	.inst	0x22000013 ; undefined
 198:	1331011d 	.inst	0x1331011d ; undefined
 19c:	06121b11 	.inst	0x06121b11 ; undefined
 1a0:	0b590b58 	add	w24, w26, w25, lsr #2
 1a4:	00000b57 	udf	#2903
 1a8:	1c000523 	ldr	s3, 24c <_binary_shell_bin_size-0x1010db4>
 1ac:	0013310d 	.inst	0x0013310d ; undefined
 1b0:	00342400 	.inst	0x00342400 ; NYI
 1b4:	13310d1c 	.inst	0x13310d1c ; undefined
 1b8:	34250000 	cbz	w0, 4a1b8 <_binary_shell_bin_size-0xfc6e48>
 1bc:	00133100 	.inst	0x00133100 ; undefined
 1c0:	002e2600 	.inst	0x002e2600 ; NYI
 1c4:	06121b11 	.inst	0x06121b11 ; undefined
 1c8:	197a1840 	.inst	0x197a1840 ; undefined
 1cc:	0b3a2503 	add	w3, w8, w26, uxth #1
 1d0:	19270b3b 	rcwcas	x7, x27, [x25]
 1d4:	0000193f 	udf	#6463
 1d8:	7f004827 	.inst	0x7f004827 ; undefined
 1dc:	001b7d13 	.inst	0x001b7d13 ; undefined
 1e0:	00482800 	.inst	0x00482800 ; undefined
 1e4:	0182137f 	.inst	0x0182137f ; undefined
 1e8:	1b018119 	msub	w25, w8, w1, w0
 1ec:	2e290000 	uaddl	v0.8h, v0.8b, v9.8b
 1f0:	3a250301 	.inst	0x3a250301 ; undefined
 1f4:	270b3b0b 	.inst	0x270b3b0b ; undefined
 1f8:	3f193c19 	.inst	0x3f193c19 ; undefined
 1fc:	2a000019 	orr	w25, w0, w0
 200:	13490005 	.inst	0x13490005 ; undefined
 204:	182b0000 	ldr	w0, 56204 <_binary_shell_bin_size-0xfbadfc>
 208:	2c000000 	stnp	s0, s0, [x0]
 20c:	2503012e 	cmpge	p14.b, p0/z, z9.b, #3
 210:	0b3b0b3a 	add	w26, w25, w27, uxtb #2
 214:	13491927 	.inst	0x13491927 ; undefined
 218:	193f193c 	.inst	0x193f193c ; undefined
 21c:	2e2d0000 	uaddl	v0.8h, v0.8b, v13.8b
 220:	121b1101 	and	w1, w8, #0x3e0
 224:	7a184006 	.inst	0x7a184006 ; undefined
 228:	3a250319 	.inst	0x3a250319 ; undefined
 22c:	270b3b0b 	.inst	0x270b3b0b ; undefined
 230:	00193f19 	.inst	0x00193f19 ; undefined
 234:	00052e00 	.inst	0x00052e00 ; undefined
 238:	25032202 	cmplt	p2.b, p0/z, z16.b, #3
 23c:	0b3b0b3a 	add	w26, w25, w27, uxtb #2
 240:	00001349 	udf	#4937
 244:	0200342f 	.inst	0x0200342f ; undefined
 248:	3a250322 	.inst	0x3a250322 ; undefined
 24c:	490b3b0b 	.inst	0x490b3b0b ; undefined
 250:	30000013 	adr	x19, 251 <_binary_shell_bin_size-0x1010daf>
 254:	1b11010b 	madd	w11, w8, w17, w0
 258:	00000612 	udf	#1554
 25c:	1c000531 	ldr	s17, 300 <_binary_shell_bin_size-0x1010d00>
 260:	0013310f 	.inst	0x0013310f ; undefined
 264:	010b3200 	.inst	0x010b3200 ; undefined
 268:	00002355 	udf	#9045
 26c:	31011d33 	adds	w19, w9, #0x47
 270:	58235513 	ldr	x19, 46d10 <_binary_shell_bin_size-0xfca2f0>
 274:	570b590b 	.inst	0x570b590b ; undefined
 278:	3400000b 	cbz	w11, 278 <_binary_shell_bin_size-0x1010d88>
 27c:	18020034 	ldr	w20, 4280 <_binary_shell_bin_size-0x100cd80>
 280:	0b3a2503 	add	w3, w8, w26, uxth #1
 284:	13490b3b 	.inst	0x13490b3b ; undefined
 288:	34350000 	cbz	w0, 6a288 <_binary_shell_bin_size-0xfa6d78>
 28c:	03220200 	.inst	0x03220200 ; undefined
 290:	3b0b3a25 	.inst	0x3b0b3a25 ; undefined
 294:	00134905 	.inst	0x00134905 ; undefined
 298:	00343600 	.inst	0x00343600 ; NYI
 29c:	0b3a2503 	add	w3, w8, w26, uxth #1
 2a0:	1349053b 	.inst	0x1349053b ; undefined
 2a4:	2e370000 	uaddl	v0.8h, v0.8b, v23.8b
 2a8:	3a250301 	.inst	0x3a250301 ; undefined
 2ac:	270b3b0b 	.inst	0x270b3b0b ; undefined
 2b0:	20193f19 	.inst	0x20193f19 ; undefined
 2b4:	00000121 	udf	#289
 2b8:	11012e38 	add	w24, w17, #0x4b
 2bc:	4006121b 	.inst	0x4006121b ; undefined
 2c0:	03197a18 	.inst	0x03197a18 ; undefined
 2c4:	3b0b3a25 	.inst	0x3b0b3a25 ; undefined
 2c8:	3f192705 	.inst	0x3f192705 ; undefined
 2cc:	39000019 	strb	w25, [x0]
 2d0:	1331011d 	.inst	0x1331011d ; undefined
 2d4:	06121b11 	.inst	0x06121b11 ; undefined
 2d8:	05590b58 	mov	z24.h, p9/z, #90
 2dc:	00000b57 	udf	#2903
 2e0:	11002e3a 	add	w26, w17, #0xb
 2e4:	4006121b 	.inst	0x4006121b ; undefined
 2e8:	03197a18 	.inst	0x03197a18 ; undefined
 2ec:	3b0b3a25 	.inst	0x3b0b3a25 ; undefined
 2f0:	3f192705 	.inst	0x3f192705 ; undefined
 2f4:	3b000019 	.inst	0x3b000019 ; undefined
 2f8:	1b11012e 	madd	w14, w9, w17, w0
 2fc:	18400612 	ldr	w18, 803bc <_binary_shell_bin_size-0xf90c44>
 300:	2503197a 	cmpgt	p10.b, p6/z, z11.b, #3
 304:	053b0b3a 	ext	z26.b, z26.b, z25.b, #218
 308:	13491927 	.inst	0x13491927 ; undefined
 30c:	0000193f 	udf	#6463
 310:	0200053c 	.inst	0x0200053c ; undefined
 314:	3a250322 	.inst	0x3a250322 ; undefined
 318:	49053b0b 	.inst	0x49053b0b ; undefined
 31c:	3d000013 	str	b19, [x0]
 320:	1331011d 	.inst	0x1331011d ; undefined
 324:	0b582355 	add	w21, w26, w24, lsr #8
 328:	0b570559 	add	w25, w10, w23, lsr #1
 32c:	263e0000 	.inst	0x263e0000 ; undefined
 330:	3f000000 	.inst	0x3f000000 ; undefined
 334:	2503012e 	cmpge	p14.b, p0/z, z9.b, #3
 338:	0b3b0b3a 	add	w26, w25, w27, uxtb #2
 33c:	193f1349 	ldclrp	x9, xzr, [x26]
 340:	00012120 	.inst	0x00012120 ; undefined
 344:	012e4000 	.inst	0x012e4000 ; undefined
 348:	0b3a2503 	add	w3, w8, w26, uxth #1
 34c:	1927053b 	.inst	0x1927053b ; undefined
 350:	193f193c 	.inst	0x193f193c ; undefined
 354:	2e410000 	.inst	0x2e410000 ; undefined
 358:	3a250301 	.inst	0x3a250301 ; undefined
 35c:	27053b0b 	.inst	0x27053b0b ; undefined
 360:	3f134919 	.inst	0x3f134919 ; undefined
 364:	01212019 	.inst	0x01212019 ; undefined
 368:	05420000 	eor	z0.d, z0.d, #0x1
 36c:	3a250300 	.inst	0x3a250300 ; undefined
 370:	49053b0b 	.inst	0x49053b0b ; undefined
 374:	43000013 	.inst	0x43000013 ; undefined
 378:	2503012e 	cmpge	p14.b, p0/z, z9.b, #3
 37c:	053b0b3a 	ext	z26.b, z26.b, z25.b, #218
 380:	193f1927 	.inst	0x193f1927 ; undefined
 384:	00012120 	.inst	0x00012120 ; undefined
 388:	001d4400 	.inst	0x001d4400 ; undefined
 38c:	1b111331 	madd	w17, w25, w17, w4
 390:	0b580612 	add	w18, w16, w24, lsr #1
 394:	0b570559 	add	w25, w10, w23, lsr #1
 398:	48450000 	ldxrh	w0, [x0]
 39c:	82137f01 	.inst	0x82137f01 ; undefined
 3a0:	01811901 	.inst	0x01811901 ; undefined
 3a4:	4600001b 	.inst	0x4600001b ; undefined
 3a8:	18020034 	ldr	w20, 43ac <_binary_shell_bin_size-0x100cc54>
 3ac:	0b3a2503 	add	w3, w8, w26, uxth #1
 3b0:	1349053b 	.inst	0x1349053b ; undefined
 3b4:	01000000 	.inst	0x01000000 ; undefined
 3b8:	25250111 	whilegt	p1.b, w8, w5
 3bc:	25030513 	cmpgt	p3.b, p1/z, z8.b, #3
 3c0:	17101772 	b	fffffffffc406188 <__free_ram_end+0xffffffffb91c2188>
 3c4:	1b11251b 	madd	w27, w8, w17, w9
 3c8:	17730612 	b	fffffffffdcc1c10 <__free_ram_end+0xffffffffbaa7dc10>
 3cc:	018c1774 	.inst	0x018c1774 ; undefined
 3d0:	02000017 	.inst	0x02000017 ; undefined
 3d4:	13490034 	.inst	0x13490034 ; undefined
 3d8:	0b3b0b3a 	add	w26, w25, w27, uxtb #2
 3dc:	00001802 	udf	#6146
 3e0:	49010103 	.inst	0x49010103 ; undefined
 3e4:	04000013 	add	z19.b, p0/m, z19.b, z0.b
 3e8:	13490021 	.inst	0x13490021 ; undefined
 3ec:	00000b37 	udf	#2871
 3f0:	03002405 	.inst	0x03002405 ; undefined
 3f4:	0b0b3e25 	add	w5, w17, w11, lsl #15
 3f8:	0600000b 	.inst	0x0600000b ; undefined
 3fc:	25030024 	cmpge	p4.b, p0/z, z1.b, #3
 400:	0b3e0b0b 	add	w11, w24, w30, uxtb #2
 404:	0f070000 	.inst	0x0f070000 ; undefined
 408:	00134900 	.inst	0x00134900 ; undefined
 40c:	00160800 	.inst	0x00160800 ; undefined
 410:	25031349 	cmpge	p9.b, p4/z, z26.b, #3
 414:	0b3b0b3a 	add	w26, w25, w27, uxtb #2
 418:	26090000 	.inst	0x26090000 ; undefined
 41c:	00134900 	.inst	0x00134900 ; undefined
 420:	012e0a00 	.inst	0x012e0a00 ; undefined
 424:	06121b11 	.inst	0x06121b11 ; undefined
 428:	197a1840 	.inst	0x197a1840 ; undefined
 42c:	0b3a2503 	add	w3, w8, w26, uxth #1
 430:	19270b3b 	rcwcas	x7, x27, [x25]
 434:	193f1349 	ldclrp	x9, xzr, [x26]
 438:	050b0000 	.inst	0x050b0000 ; undefined
 43c:	03180200 	.inst	0x03180200 ; undefined
 440:	3b0b3a25 	.inst	0x3b0b3a25 ; undefined
 444:	0013490b 	.inst	0x0013490b ; undefined
 448:	00050c00 	.inst	0x00050c00 ; undefined
 44c:	25032202 	cmplt	p2.b, p0/z, z16.b, #3
 450:	0b3b0b3a 	add	w26, w25, w27, uxtb #2
 454:	00001349 	udf	#4937
 458:	0200340d 	.inst	0x0200340d ; undefined
 45c:	3a250322 	.inst	0x3a250322 ; undefined
 460:	490b3b0b 	.inst	0x490b3b0b ; undefined
 464:	0e000013 	tbl	v19.8b, {v0.16b}, v0.8b
 468:	1b11012e 	madd	w14, w9, w17, w0
 46c:	18400612 	ldr	w18, 8052c <_binary_shell_bin_size-0xf90ad4>
 470:	2503197a 	cmpgt	p10.b, p6/z, z11.b, #3
 474:	0b3b0b3a 	add	w26, w25, w27, uxtb #2
 478:	193f1927 	.inst	0x193f1927 ; undefined
 47c:	340f0000 	cbz	w0, 1e47c <_binary_shell_bin_size-0xff2b84>
 480:	03180200 	.inst	0x03180200 ; undefined
 484:	3b0b3a25 	.inst	0x3b0b3a25 ; undefined
 488:	0013490b 	.inst	0x0013490b ; undefined
 48c:	000a1000 	.inst	0x000a1000 ; undefined
 490:	0b3a2503 	add	w3, w8, w26, uxth #1
 494:	1b110b3b 	madd	w27, w25, w17, w2
 498:	0b110000 	add	w0, w0, w17
 49c:	00235501 	.inst	0x00235501 ; NYI
 4a0:	010b1200 	.inst	0x010b1200 ; undefined
 4a4:	06121b11 	.inst	0x06121b11 ; undefined
 4a8:	34130000 	cbz	w0, 264a8 <_binary_shell_bin_size-0xfeab58>
 4ac:	3a250300 	.inst	0x3a250300 ; undefined
 4b0:	490b3b0b 	.inst	0x490b3b0b ; undefined
 4b4:	14000013 	b	500 <_binary_shell_bin_size-0x1010b00>
 4b8:	00000018 	udf	#24
 4bc:	7f004815 	.inst	0x7f004815 ; undefined
 4c0:	001b7d13 	.inst	0x001b7d13 ; undefined
 4c4:	01481600 	.inst	0x01481600 ; undefined
 4c8:	1b7d137f 	.inst	0x1b7d137f ; undefined
 4cc:	49170000 	.inst	0x49170000 ; undefined
 4d0:	7e180200 	.inst	0x7e180200 ; undefined
 4d4:	18000018 	ldr	w24, 4d4 <_binary_shell_bin_size-0x1010b2c>
 4d8:	2503012e 	cmpge	p14.b, p0/z, z9.b, #3
 4dc:	0b3b0b3a 	add	w26, w25, w27, uxtb #2
 4e0:	193c1927 	.inst	0x193c1927 ; undefined
 4e4:	0000193f 	udf	#6463
 4e8:	49000519 	.inst	0x49000519 ; undefined
 4ec:	1a000013 	adc	w19, w0, w0
 4f0:	0000000f 	udf	#15
 4f4:	0000261b 	udf	#9755
 4f8:	00161c00 	.inst	0x00161c00 ; undefined
 4fc:	25031349 	cmpge	p9.b, p4/z, z26.b, #3
 500:	131d0000 	sbfiz	w0, w0, #3, #1
 504:	0b250301 	add	w1, w24, w5, uxtb
 508:	1e00000b 	.inst	0x1e00000b ; undefined
 50c:	2503000d 	cmpge	p13.b, p0/z, z0.b, #3
 510:	0b3a1349 	add	w9, w26, w26, uxtb #4
 514:	0b380b3b 	add	w27, w25, w24, uxtb #2
 518:	01000000 	.inst	0x01000000 ; undefined
 51c:	17100111 	b	fffffffffc400960 <__free_ram_end+0xffffffffb91bc960>
 520:	01120111 	.inst	0x01120111 ; undefined
 524:	081b0803 	stxrb	w27, w3, [x0]
 528:	05130825 	mov	z5.b, p3/z, #65
 52c:	0a020000 	and	w0, w0, w2
 530:	3a080300 	adcs	w0, w24, w8
 534:	11063b06 	add	w6, w24, #0x18e
 538:	00000001 	udf	#1
 53c:	10011101 	adr	x1, 275c <_binary_shell_bin_size-0x100e8a4>
 540:	12011117 	and	w23, w8, #0x8000000f
 544:	1b080301 	madd	w1, w24, w8, w0
 548:	13082508 	sbfx	w8, w8, #8, #2
 54c:	02000005 	.inst	0x02000005 ; undefined
 550:	0803000a 	stxrb	w3, w10, [x0]
 554:	063b063a 	.inst	0x063b063a ; undefined
 558:	00000111 	udf	#273
 55c:	01110100 	.inst	0x01110100 ; undefined
 560:	05132525 	.inst	0x05132525 ; undefined
 564:	17722503 	b	fffffffffdc89970 <__free_ram_end+0xffffffffbaa45970>
 568:	251b1710 	cmpgt	p0.b, p5/z, z24.b, #-5
 56c:	06121b11 	.inst	0x06121b11 ; undefined
 570:	018c1773 	.inst	0x018c1773 ; undefined
 574:	02000017 	.inst	0x02000017 ; undefined
 578:	13490034 	.inst	0x13490034 ; undefined
 57c:	0b3b0b3a 	add	w26, w25, w27, uxtb #2
 580:	00001802 	udf	#6146
 584:	49010103 	.inst	0x49010103 ; undefined
 588:	04000013 	add	z19.b, p0/m, z19.b, z0.b
 58c:	13490021 	.inst	0x13490021 ; undefined
 590:	00000b37 	udf	#2871
 594:	03002405 	.inst	0x03002405 ; undefined
 598:	0b0b3e25 	add	w5, w17, w11, lsl #15
 59c:	0600000b 	.inst	0x0600000b ; undefined
 5a0:	25030024 	cmpge	p4.b, p0/z, z1.b, #3
 5a4:	0b3e0b0b 	add	w11, w24, w30, uxtb #2
 5a8:	2e070000 	ext	v0.8b, v0.8b, v7.8b, #0
 5ac:	121b1101 	and	w1, w8, #0x3e0
 5b0:	7a184006 	.inst	0x7a184006 ; undefined
 5b4:	3a250319 	.inst	0x3a250319 ; undefined
 5b8:	270b3b0b 	.inst	0x270b3b0b ; undefined
 5bc:	00193f19 	.inst	0x00193f19 ; undefined
 5c0:	00050800 	.inst	0x00050800 ; undefined
 5c4:	25032202 	cmplt	p2.b, p0/z, z16.b, #3
 5c8:	0b3b0b3a 	add	w26, w25, w27, uxtb #2
 5cc:	00001349 	udf	#4937
 5d0:	02003409 	.inst	0x02003409 ; undefined
 5d4:	3a250322 	.inst	0x3a250322 ; undefined
 5d8:	490b3b0b 	.inst	0x490b3b0b ; undefined
 5dc:	0a000013 	and	w19, w0, w0
 5e0:	25030034 	cmpgt	p4.b, p0/z, z1.b, #3
 5e4:	0b3b0b3a 	add	w26, w25, w27, uxtb #2
 5e8:	00001349 	udf	#4937
 5ec:	7f00480b 	.inst	0x7f00480b ; undefined
 5f0:	001b7d13 	.inst	0x001b7d13 ; undefined
 5f4:	01480c00 	.inst	0x01480c00 ; undefined
 5f8:	1b7d137f 	.inst	0x1b7d137f ; undefined
 5fc:	490d0000 	.inst	0x490d0000 ; undefined
 600:	7e180200 	.inst	0x7e180200 ; undefined
 604:	0e000018 	tbl	v24.8b, {v0.16b}, v0.8b
 608:	2503012e 	cmpge	p14.b, p0/z, z9.b, #3
 60c:	0b3b0b3a 	add	w26, w25, w27, uxtb #2
 610:	193c1927 	.inst	0x193c1927 ; undefined
 614:	0000193f 	udf	#6463
 618:	4900050f 	.inst	0x4900050f ; undefined
 61c:	10000013 	adr	x19, 61c <_binary_shell_bin_size-0x10109e4>
 620:	00000018 	udf	#24
 624:	49000f11 	.inst	0x49000f11 ; undefined
 628:	12000013 	and	w19, w0, #0x1
 62c:	13490026 	.inst	0x13490026 ; undefined
 630:	2e130000 	ext	v0.8b, v0.8b, v19.8b, #0
 634:	121b1100 	and	w0, w8, #0x3e0
 638:	7a184006 	.inst	0x7a184006 ; undefined
 63c:	3a250319 	.inst	0x3a250319 ; undefined
 640:	270b3b0b 	.inst	0x270b3b0b ; undefined
 644:	00193f19 	.inst	0x00193f19 ; undefined
 648:	00161400 	.inst	0x00161400 ; undefined
 64c:	25031349 	cmpge	p9.b, p4/z, z26.b, #3
 650:	0b3b0b3a 	add	w26, w25, w27, uxtb #2
 654:	Address 0x654 is out of bounds.


Disassembly of section .debug_info:

0000000000000000 <.debug_info>:
       0:	000016ef 	udf	#5871
       4:	08010005 	stxrb	w1, w5, [x0]
       8:	00000000 	udf	#0
       c:	001d0001 	.inst	0x001d0001 ; undefined
      10:	00000801 	udf	#2049
      14:	00000000 	udf	#0
      18:	00000200 	udf	#512
      1c:	00000000 	udf	#0
      20:	08120000 	stxrb	w18, w0, [x0]
      24:	0c000000 	st4	{v0.8b-v3.8b}, [x0]
      28:	0c000000 	st4	{v0.8b-v3.8b}, [x0]
      2c:	02000000 	.inst	0x02000000 ; undefined
      30:	00000039 	udf	#57
      34:	a1024e00 	ld1w	{z0.s, z8.s}, pn11/z, [x16, x2, lsl #2]
      38:	00450300 	.inst	0x00450300 ; undefined
      3c:	49040000 	.inst	0x49040000 ; undefined
      40:	26000000 	.inst	0x26000000 ; undefined
      44:	08030500 	stxrb	w3, w0, [x8]
      48:	08040601 	stxrb	w4, w1, [x16]
      4c:	00570207 	.inst	0x00570207 ; undefined
      50:	6a000000 	ands	w0, w0, w0
      54:	0301a102 	.inst	0x0301a102 ; undefined
      58:	00000045 	udf	#69
      5c:	00004904 	udf	#18692
      60:	07002000 	.inst	0x07002000 ; undefined
      64:	00006831 	udf	#26673
      68:	dc6d0100 	.inst	0xdc6d0100 ; undefined
      6c:	08000006 	stxrb	w0, w6, [x0]
      70:	0000a705 	udf	#42757
      74:	026f0000 	.inst	0x026f0000 ; undefined
      78:	090902a1 	.inst	0x090902a1 ; undefined
      7c:	000006e4 	udf	#1764
      80:	06ec0a0a 	.inst	0x06ec0a0a ; undefined
      84:	b10b0000 	adds	x0, x0, #0x2c0
      88:	32000006 	orr	w6, w0, #0x1
      8c:	0252010c 	.inst	0x0252010c ; undefined
      90:	0b007410 	add	w16, w0, w0, lsl #29
      94:	000006bc 	udf	#1724
      98:	51010c33 	sub	w19, w1, #0x43
      9c:	0c008f02 	.inst	0x0c008f02 ; undefined
      a0:	83025001 	.inst	0x83025001 ; undefined
      a4:	0d000000 	st1	{v0.b}[0], [x0]
      a8:	000000af 	udf	#175
      ac:	0d090108 	.inst	0x0d090108 ; undefined
      b0:	000000b7 	udf	#183
      b4:	05070107 	.inst	0x05070107 ; undefined
      b8:	02080706 	.inst	0x02080706 ; undefined
      bc:	000000c5 	udf	#197
      c0:	a1027400 	ld1d	{z0.d, z8.d}, pn13/z, [x0, x2, lsl #3]
      c4:	00450303 	.inst	0x00450303 ; undefined
      c8:	49040000 	.inst	0x49040000 ; undefined
      cc:	1d000000 	.inst	0x1d000000 ; undefined
      d0:	00db0200 	.inst	0x00db0200 ; undefined
      d4:	74000000 	.inst	0x74000000 ; undefined
      d8:	0304a102 	.inst	0x0304a102 ; undefined
      dc:	00000045 	udf	#69
      e0:	00004904 	udf	#18692
      e4:	02000900 	.inst	0x02000900 ; undefined
      e8:	000000f1 	udf	#241
      ec:	a1027c00 	ld1d	{z0.d, z8.d}, pn15/z, [x0, x2, lsl #3]
      f0:	00450305 	.inst	0x00450305 ; undefined
      f4:	49040000 	.inst	0x49040000 ; undefined
      f8:	23000000 	.inst	0x23000000 ; undefined
      fc:	00f10200 	.inst	0x00f10200 ; undefined
     100:	7e000000 	.inst	0x7e000000 ; undefined
     104:	0e06a102 	.inst	0x0e06a102 ; undefined
     108:	00000112 	udf	#274
     10c:	02013200 	.inst	0x02013200 ; undefined
     110:	450307a1 	.inst	0x450307a1 ; undefined
     114:	04000000 	add	z0.b, p0/m, z0.b, z0.b
     118:	00000049 	udf	#73
     11c:	120e0014 	and	w20, w0, #0x40000
     120:	00000001 	udf	#1
     124:	a102013c 	ldnt1b	{z20.b, z28.b}, pn8/z, [x9, x2]
     128:	01340e08 	.inst	0x01340e08 ; undefined
     12c:	61000000 	.inst	0x61000000 ; undefined
     130:	09a10201 	.inst	0x09a10201 ; undefined
     134:	00004503 	udf	#17667
     138:	00490400 	.inst	0x00490400 ; undefined
     13c:	00250000 	.inst	0x00250000 ; NYI
     140:	0000390e 	udf	#14606
     144:	01770000 	.inst	0x01770000 ; undefined
     148:	0e0aa102 	.inst	0x0e0aa102 ; undefined
     14c:	00000156 	udf	#342
     150:	02017e00 	.inst	0x02017e00 ; undefined
     154:	45030ba1 	.inst	0x45030ba1 ; undefined
     158:	04000000 	add	z0.b, p0/m, z0.b, z0.b
     15c:	00000049 	udf	#73
     160:	6d0e0015 	stp	d21, d0, [x0, #224]
     164:	00000001 	udf	#1
     168:	a1020182 	ld1b	{z2.b, z10.b}, pn8/z, [x12, x2]
     16c:	0045030c 	.inst	0x0045030c ; undefined
     170:	49040000 	.inst	0x49040000 ; undefined
     174:	11000000 	add	w0, w0, #0x0
     178:	01560e00 	.inst	0x01560e00 ; undefined
     17c:	ce000000 	eor3	v0.16b, v0.16b, v0.16b, v0.16b
     180:	0da10201 	st2	{v1.b-v2.b}[0], [x16], x1
     184:	00018f0e 	.inst	0x00018f0e ; undefined
     188:	01cf0000 	.inst	0x01cf0000 ; undefined
     18c:	030ea102 	.inst	0x030ea102 ; undefined
     190:	00000045 	udf	#69
     194:	00004904 	udf	#18692
     198:	0e001f00 	.inst	0x0e001f00 ; undefined
     19c:	000001a6 	udf	#422
     1a0:	0201f700 	.inst	0x0201f700 ; undefined
     1a4:	45030fa1 	.inst	0x45030fa1 ; undefined
     1a8:	04000000 	add	z0.b, p0/m, z0.b, z0.b
     1ac:	00000049 	udf	#73
     1b0:	bd0e0019 	str	s25, [x0, #3584]
     1b4:	00000001 	udf	#1
     1b8:	a10201f8 	ldnt1b	{z16.b, z24.b}, pn8/z, [x15, x2]
     1bc:	00450310 	.inst	0x00450310 ; undefined
     1c0:	49040000 	.inst	0x49040000 ; undefined
     1c4:	27000000 	.inst	0x27000000 ; undefined
     1c8:	016d0e00 	.inst	0x016d0e00 ; undefined
     1cc:	f9000000 	str	x0, [x0]
     1d0:	11a10201 	.inst	0x11a10201 ; undefined
     1d4:	00016d0e 	.inst	0x00016d0e ; undefined
     1d8:	01fa0000 	.inst	0x01fa0000 ; undefined
     1dc:	0e12a102 	.inst	0x0e12a102 ; undefined
     1e0:	00000039 	udf	#57
     1e4:	0201fe00 	.inst	0x0201fe00 ; undefined
     1e8:	8f0e13a1 	.inst	0x8f0e13a1 ; undefined
     1ec:	00000001 	udf	#1
     1f0:	a10201ff 	ldnt1b	{z23.b, z31.b}, pn8/z, [x15, x2]
     1f4:	02000e14 	.inst	0x02000e14 ; undefined
     1f8:	2c000000 	stnp	s0, s0, [x0]
     1fc:	15a10202 	b	6840a04 <_binary_shell_bin_size+0x582fa04>
     200:	00004503 	udf	#17667
     204:	00490400 	.inst	0x00490400 ; undefined
     208:	002b0000 	.inst	0x002b0000 ; NYI
     20c:	0001bd0e 	.inst	0x0001bd0e ; undefined
     210:	022e0000 	.inst	0x022e0000 ; undefined
     214:	0e16a102 	.inst	0x0e16a102 ; undefined
     218:	00000222 	udf	#546
     21c:	02023000 	.inst	0x02023000 ; undefined
     220:	450317a1 	.inst	0x450317a1 ; undefined
     224:	04000000 	add	z0.b, p0/m, z0.b, z0.b
     228:	00000049 	udf	#73
     22c:	390e0029 	strb	w9, [x1, #896]
     230:	00000002 	udf	#2
     234:	a1020244 	ld1b	{z4.b, z12.b}, pn8/z, [x18, x2]
     238:	00450318 	.inst	0x00450318 ; undefined
     23c:	49040000 	.inst	0x49040000 ; undefined
     240:	22000000 	.inst	0x22000000 ; undefined
     244:	02500e00 	.inst	0x02500e00 ; undefined
     248:	5c000000 	ldr	d0, 248 <_binary_shell_bin_size-0x1010db8>
     24c:	19a10202 	.inst	0x19a10202 ; undefined
     250:	00004503 	udf	#17667
     254:	00490400 	.inst	0x00490400 ; undefined
     258:	003b0000 	.inst	0x003b0000 ; NYI
     25c:	0002670e 	.inst	0x0002670e ; undefined
     260:	02800000 	.inst	0x02800000 ; undefined
     264:	031aa102 	.inst	0x031aa102 ; undefined
     268:	00000045 	udf	#69
     26c:	00004904 	udf	#18692
     270:	0e003800 	zip1	v0.8b, v0.8b, v0.8b
     274:	0000027e 	udf	#638
     278:	0202bd00 	.inst	0x0202bd00 ; undefined
     27c:	45031ba1 	.inst	0x45031ba1 ; undefined
     280:	04000000 	add	z0.b, p0/m, z0.b, z0.b
     284:	00000049 	udf	#73
     288:	950e0012 	bl	43802d0 <_binary_shell_bin_size+0x336f2d0>
     28c:	00000002 	udf	#2
     290:	a10202bf 	ldnt1b	{z23.b, z31.b}, pn8/z, [x21, x2]
     294:	0045031c 	.inst	0x0045031c ; undefined
     298:	49040000 	.inst	0x49040000 ; undefined
     29c:	16000000 	b	fffffffff800029c <__free_ram_end+0xffffffffb4dbc29c>
     2a0:	02ac0e00 	.inst	0x02ac0e00 ; undefined
     2a4:	c2000000 	.inst	0xc2000000 ; undefined
     2a8:	1da10202 	.inst	0x1da10202 ; undefined
     2ac:	00004503 	udf	#17667
     2b0:	00490400 	.inst	0x00490400 ; undefined
     2b4:	00170000 	.inst	0x00170000 ; undefined
     2b8:	00027e0f 	.inst	0x00027e0f ; undefined
     2bc:	02c30000 	.inst	0x02c30000 ; undefined
     2c0:	02cb0910 	.inst	0x02cb0910 ; undefined
     2c4:	c5000000 	ld1sw	{z0.d}, p0/z, [x0, z0.d, uxtw]
     2c8:	031ea102 	.inst	0x031ea102 ; undefined
     2cc:	000002d7 	udf	#727
     2d0:	00004904 	udf	#18692
     2d4:	11000800 	add	w0, w0, #0x2
     2d8:	02202013 	.inst	0x02202013 ; undefined
     2dc:	0c0a127c 	.inst	0x0c0a127c ; undefined
     2e0:	02000003 	.inst	0x02000003 ; undefined
     2e4:	0c12007d 	.inst	0x0c12007d ; undefined
     2e8:	0000030c 	udf	#780
     2ec:	12047e02 	.inst	0x12047e02 ; undefined
     2f0:	0003100d 	.inst	0x0003100d ; undefined
     2f4:	087f0200 	.inst	0x087f0200 ; undefined
     2f8:	03180f12 	.inst	0x03180f12 ; undefined
     2fc:	80020000 	.inst	0x80020000 ; undefined
     300:	1d101310 	.inst	0x1d101310 ; undefined
     304:	02000003 	.inst	0x02000003 ; undefined
     308:	00201081 	.inst	0x00201081 ; NYI
     30c:	04050b05 	.inst	0x04050b05 ; undefined
     310:	0000af0d 	udf	#44813
     314:	0a010e00 	and	w0, w16, w1, lsl #3
     318:	0000af14 	udf	#44820
     31c:	032a0300 	.inst	0x032a0300 ; undefined
     320:	49150000 	.inst	0x49150000 ; undefined
     324:	00000000 	udf	#0
     328:	320d0020 	orr	w0, w1, #0x80000
     32c:	12000003 	and	w3, w0, #0x1
     330:	11050401 	add	w1, w0, #0x141
     334:	14100108 	b	400754 <_binary_shell_bin_size-0xc108ac>
     338:	00000341 	udf	#833
     33c:	a102ee00 	ld1d	{z0.d, z4.d, z8.d, z12.d}, pn11/z, [x16, x2, lsl #3]
     340:	02d7141f 	.inst	0x02d7141f ; undefined
     344:	15100000 	b	4400344 <_binary_shell_bin_size+0x33ef344>
     348:	00000341 	udf	#833
     34c:	a102ef00 	ld1d	{z0.d, z4.d, z8.d, z12.d}, pn11/z, [x24, x2, lsl #3]
     350:	41161020 	.inst	0x41161020 ; undefined
     354:	00000003 	udf	#3
     358:	21a102f1 	.inst	0x21a102f1 ; undefined
     35c:	03411710 	.inst	0x03411710 ; undefined
     360:	f2000000 	ands	x0, x0, #0x100000001
     364:	1622a102 	b	fffffffff88a876c <__free_ram_end+0xffffffffb566476c>
     368:	00037318 	.inst	0x00037318 ; undefined
     36c:	02140000 	.inst	0x02140000 ; undefined
     370:	1423a102 	b	8e8778 <_binary_shell_bin_size-0x728888>
     374:	00000378 	udf	#888
     378:	20002e11 	.inst	0x20002e11 ; undefined
     37c:	1912bd02 	.inst	0x1912bd02 ; undefined
     380:	000003bc 	udf	#956
     384:	1700be02 	b	fffffffffc02fb8c <__free_ram_end+0xffffffffb8debb8c>
     388:	00040a23 	.inst	0x00040a23 ; undefined
     38c:	00bf0200 	.inst	0x00bf0200 ; undefined
     390:	37271801 	tbnz	w1, #4, ffffffffffffe690 <__free_ram_end+0xffffffffbcdba690>
     394:	02000004 	.inst	0x02000004 ; undefined
     398:	002080c0 	.inst	0x002080c0 ; NYI
     39c:	0c2b1710 	.inst	0x0c2b1710 ; undefined
     3a0:	02000003 	.inst	0x02000003 ; undefined
     3a4:	171084c1 	b	fffffffffc4216a8 <__free_ram_end+0xffffffffb91dd6a8>
     3a8:	00047c2c 	.inst	0x00047c2c ; undefined
     3ac:	88c20200 	ldlar	w0, [x16]
     3b0:	fe2d1710 	.inst	0xfe2d1710 ; undefined
     3b4:	02000003 	.inst	0x02000003 ; undefined
     3b8:	001090c3 	.inst	0x001090c3 ; undefined
     3bc:	0003c803 	.inst	0x0003c803 ; undefined
     3c0:	00490400 	.inst	0x00490400 ; undefined
     3c4:	00100000 	.inst	0x00100000 ; undefined
     3c8:	02102219 	.inst	0x02102219 ; undefined
     3cc:	af1a12a1 	.inst	0xaf1a12a1 ; undefined
     3d0:	02000000 	.inst	0x02000000 ; undefined
     3d4:	1b1200a2 	madd	w2, w5, w18, w0
     3d8:	000003f2 	udf	#1010
     3dc:	1208a302 	and	w2, w24, #0xff01ff01
     3e0:	0003fe1e 	.inst	0x0003fe1e ; undefined
     3e4:	0ca40200 	.inst	0x0ca40200 ; undefined
     3e8:	03fe2112 	.inst	0x03fe2112 ; undefined
     3ec:	a5020000 	ld1rqw	{z0.s}, p0/z, [x0, x2, lsl #2]
     3f0:	fa0d000e 	sbcs	x14, x0, x13
     3f4:	1d000003 	.inst	0x1d000003 ; undefined
     3f8:	1c050601 	ldr	s1, a4b8 <_binary_shell_bin_size-0x1006b48>
     3fc:	060d0407 	.inst	0x060d0407 ; undefined
     400:	20000004 	.inst	0x20000004 ; undefined
     404:	1f050501 	fmadd	s1, s8, s5, s1
     408:	26190207 	.inst	0x26190207 ; undefined
     40c:	12a90224 	mov	w4, #0xb7eeffff            	// #-1209073665
     410:	0003fe1e 	.inst	0x0003fe1e ; undefined
     414:	00aa0200 	.inst	0x00aa0200 ; undefined
     418:	03fe2412 	.inst	0x03fe2412 ; undefined
     41c:	ab020000 	adds	x0, x0, x2
     420:	2b251202 	adds	w2, w16, w5, uxtb #4
     424:	02000004 	.inst	0x02000004 ; undefined
     428:	030004ac 	.inst	0x030004ac ; undefined
     42c:	000003fe 	udf	#1022
     430:	00004904 	udf	#18692
     434:	19001000 	stlurb	w0, [x0, #1]
     438:	b602842a 	tbz	x10, #32, 54bc <_binary_shell_bin_size-0x100bb44>
     43c:	03fe1e12 	.inst	0x03fe1e12 ; undefined
     440:	b7020000 	tbnz	x0, #32, 4440 <_binary_shell_bin_size-0x100cbc0>
     444:	fe241200 	.inst	0xfe241200 ; undefined
     448:	02000003 	.inst	0x02000003 ; undefined
     44c:	251202b8 	cmpgt	p8.b, p0/z, z21.b, #-14
     450:	00000458 	udf	#1112
     454:	0004b902 	.inst	0x0004b902 ; undefined
     458:	00046403 	.inst	0x00046403 ; undefined
     45c:	00490400 	.inst	0x00490400 ; undefined
     460:	00100000 	.inst	0x00100000 ; undefined
     464:	02082919 	.inst	0x02082919 ; undefined
     468:	f22812b0 	ands	x16, x21, #0x1f0000001f000000
     46c:	02000003 	.inst	0x02000003 ; undefined
     470:	1b1200b1 	madd	w17, w5, w18, w0
     474:	000003f2 	udf	#1010
     478:	0004b202 	.inst	0x0004b202 ; undefined
     47c:	00048114 	.inst	0x00048114 ; undefined
     480:	03fe1a00 	.inst	0x03fe1a00 ; undefined
     484:	2f160000 	.inst	0x2f160000 ; undefined
     488:	00000492 	udf	#1170
     48c:	02021500 	.inst	0x02021500 ; undefined
     490:	971424a1 	bl	fffffffffc509714 <__free_ram_end+0xffffffffb92c5714>
     494:	11000004 	add	w4, w0, #0x0
     498:	02021135 	.inst	0x02021135 ; undefined
     49c:	f23012c7 	ands	x7, x22, #0x1f0000001f0000
     4a0:	02000003 	.inst	0x02000003 ; undefined
     4a4:	311200c8 	adds	w8, w6, #0x480
     4a8:	000003f2 	udf	#1010
     4ac:	1204c902 	and	w2, w8, #0x70707070
     4b0:	0000af32 	udf	#44850
     4b4:	08ca0200 	ldlarb	w0, [x16]
     4b8:	04cc3312 	smaxqv	v18.2d, p4, z24.d
     4bc:	cb020000 	sub	x0, x0, x2
     4c0:	2a341710 	orn	w16, w24, w20, lsl #5
     4c4:	02000003 	.inst	0x02000003 ; undefined
     4c8:	000210cc 	.inst	0x000210cc ; undefined
     4cc:	00032a03 	.inst	0x00032a03 ; undefined
     4d0:	00491500 	.inst	0x00491500 ; undefined
     4d4:	02000000 	.inst	0x02000000 ; undefined
     4d8:	a7361600 	.inst	0xa7361600 ; undefined
     4dc:	00000000 	udf	#0
     4e0:	a1020216 	ld1b	{z22.b, z30.b}, pn8/z, [x16, x2]
     4e4:	fa371625 	.inst	0xfa371625 ; undefined
     4e8:	00000003 	udf	#3
     4ec:	a1020217 	ld1b	{z23.b, z31.b}, pn8/z, [x16, x2]
     4f0:	05380526 	ext	z6.b, z6.b, z9.b, #193
     4f4:	fb141b08 	.inst	0xfb141b08 ; undefined
     4f8:	1a000004 	adc	w4, w0, w0
     4fc:	00000500 	udf	#1280
     500:	0003fa0d 	.inst	0x0003fa0d ; undefined
     504:	0a001d00 	and	w0, w8, w0, lsl #7
     508:	00050d14 	.inst	0x00050d14 ; undefined
     50c:	00af1a00 	.inst	0x00af1a00 ; undefined
     510:	000d0000 	.inst	0x000d0000 ; undefined
     514:	39000005 	strb	w5, [x0]
     518:	27070b00 	.inst	0x27070b00 ; undefined
     51c:	0000001c 	udf	#28
     520:	05656f01 	uzp2	z1.h, z24.h, z5.h
     524:	00090000 	.inst	0x00090000 ; undefined
     528:	0000056d 	udf	#1389
     52c:	0c91021c 	st4	{v28.8b-v31.8b}, [x16], x17
     530:	00000575 	udf	#1397
     534:	7d52011c 	ldr	h28, [x8, #2304]
     538:	09000005 	.inst	0x09000005 ; undefined
     53c:	00058501 	.inst	0x00058501 ; undefined
     540:	53011d00 	ubfx	w0, w8, #1, #7
     544:	0000058d 	udf	#1421
     548:	9552011d 	bl	54809bc <_binary_shell_bin_size+0x446f9bc>
     54c:	0a000005 	and	w5, w0, w0
     550:	00059d02 	.inst	0x00059d02 ; undefined
     554:	91031d00 	add	x0, x8, #0xc7
     558:	05a59f0c 	revh	z12.s, p7/m, z24.s
     55c:	030a0000 	.inst	0x030a0000 ; undefined
     560:	000005ad 	udf	#1453
     564:	003a1e00 	.inst	0x003a1e00 ; NYI
     568:	0004f115 	.inst	0x0004f115 ; undefined
     56c:	003b1f00 	.inst	0x003b1f00 ; NYI
     570:	0004f115 	.inst	0x0004f115 ; undefined
     574:	003c1f00 	.inst	0x003c1f00 ; NYI
     578:	00004515 	udf	#17685
     57c:	003d1f00 	.inst	0x003d1f00 ; NYI
     580:	0004f115 	.inst	0x0004f115 ; undefined
     584:	003e1f00 	.inst	0x003e1f00 ; NYI
     588:	0004f115 	.inst	0x0004f115 ; undefined
     58c:	003f2000 	.inst	0x003f2000 ; NYI
     590:	0004f119 	.inst	0x0004f119 ; undefined
     594:	00402000 	.inst	0x00402000 ; undefined
     598:	0004f118 	.inst	0x0004f118 ; undefined
     59c:	00412000 	.inst	0x00412000 ; undefined
     5a0:	0004f117 	.inst	0x0004f117 ; undefined
     5a4:	00422000 	.inst	0x00422000 ; undefined
     5a8:	0005b616 	.inst	0x0005b616 ; undefined
     5ac:	00432000 	.inst	0x00432000 ; undefined
     5b0:	0004f11a 	.inst	0x0004f11a ; undefined
     5b4:	bb140000 	.inst	0xbb140000 ; undefined
     5b8:	21000005 	.inst	0x21000005 ; undefined
     5bc:	00000045 	udf	#69
     5c0:	00242807 	.inst	0x00242807 ; NYI
     5c4:	6f010000 	.inst	0x6f010000 ; undefined
     5c8:	00000954 	udf	#2388
     5cc:	09580409 	.inst	0x09580409 ; undefined
     5d0:	65220000 	bfmla	z0.h, p0/m, z0.h, z2.h
     5d4:	29000005 	stp	w5, w0, [x0]
     5d8:	00000014 	udf	#20
     5dc:	23032400 	.inst	0x23032400 ; undefined
     5e0:	00056d03 	.inst	0x00056d03 ; undefined
     5e4:	91021c00 	add	x0, x0, #0x87
     5e8:	0005750c 	.inst	0x0005750c ; undefined
     5ec:	7d012300 	str	h0, [x24, #144]
     5f0:	23000005 	.inst	0x23000005 ; undefined
     5f4:	058500c0 	.inst	0x058500c0 ; undefined
     5f8:	c0240000 	.inst	0xc0240000 ; undefined
     5fc:	00058d00 	.inst	0x00058d00 ; undefined
     600:	95012400 	bl	4049600 <_binary_shell_bin_size+0x3038600>
     604:	24000005 	cmphs	p5.b, p0/z, z0.b, z0.b
     608:	00059d03 	.inst	0x00059d03 ; undefined
     60c:	91031d00 	add	x0, x8, #0xc7
     610:	05a59f0c 	revh	z12.s, p7/m, z24.s
     614:	00000000 	udf	#0
     618:	002c2a07 	.inst	0x002c2a07 ; NYI
     61c:	6f010000 	.inst	0x6f010000 ; undefined
     620:	00000cf5 	udf	#3317
     624:	0cfd050a 	.inst	0x0cfd050a ; undefined
     628:	060a0000 	.inst	0x060a0000 ; undefined
     62c:	00000d0d 	udf	#3341
     630:	000d0525 	.inst	0x000d0525 ; undefined
     634:	05652200 	mov	z0.b, z16.b[18]
     638:	142b0000 	b	ac0638 <_binary_shell_bin_size-0x5509c8>
     63c:	00000000 	udf	#0
     640:	03231132 	.inst	0x03231132 ; undefined
     644:	0000056d 	udf	#1389
     648:	0c91021c 	st4	{v28.8b-v31.8b}, [x16], x17
     64c:	00000575 	udf	#1397
     650:	057d0023 	ext	z3.b, {z1.b-z2.b}, #232
     654:	c0230000 	.inst	0xc0230000 ; undefined
     658:	00058500 	.inst	0x00058500 ; undefined
     65c:	00c02400 	.inst	0x00c02400 ; undefined
     660:	0000058d 	udf	#1421
     664:	05950024 	mov	z4.s, p5/z, #1
     668:	03240000 	.inst	0x03240000 ; undefined
     66c:	0000059d 	udf	#1437
     670:	0c91031d 	st4	{v29.8b-v0.8b}, [x24], x17
     674:	0005a59f 	.inst	0x0005a59f ; undefined
     678:	26000000 	.inst	0x26000000 ; undefined
     67c:	0000182c 	udf	#6188
     680:	606f0100 	.inst	0x606f0100 ; undefined
     684:	2d073b00 	stp	s0, s14, [x24, #56]
     688:	00000060 	udf	#96
     68c:	14b76d01 	b	2ddba90 <_binary_shell_bin_size+0x1dcaa90>
     690:	070a0000 	.inst	0x070a0000 ; undefined
     694:	000014bb 	udf	#5307
     698:	14c3080a 	b	30c26c0 <_binary_shell_bin_size+0x20b16c0>
     69c:	7b270000 	.inst	0x7b270000 ; undefined
     6a0:	2e000006 	ext	v6.8b, v0.8b, v0.8b, #0
     6a4:	0006b128 	.inst	0x0006b128 ; undefined
     6a8:	b1282f00 	adds	x0, x24, #0xa0b
     6ac:	30000006 	adr	x6, 6ad <_binary_shell_bin_size-0x1010953>
     6b0:	01442900 	.inst	0x01442900 ; undefined
     6b4:	05b62a1c 	tbl	z28.s, {z16.s-z17.s}, z22.s
     6b8:	002b0000 	.inst	0x002b0000 ; NYI
     6bc:	1801452c 	ldr	w12, 2f60 <_binary_shell_bin_size-0x100e0a0>
     6c0:	000004f5 	udf	#1269
     6c4:	0004f52a 	.inst	0x0004f52a ; undefined
     6c8:	00452a00 	.inst	0x00452a00 ; undefined
     6cc:	d42a0000 	brk	#0x5000
     6d0:	00000006 	udf	#6
     6d4:	0003f20d 	.inst	0x0003f20d ; undefined
     6d8:	08013900 	stxrb	w1, w0, [x8]
     6dc:	6e00461e 	.inst	0x6e00461e ; undefined
     6e0:	000000a7 	udf	#167
     6e4:	6e00471f 	.inst	0x6e00471f ; undefined
     6e8:	00000500 	udf	#1280
     6ec:	70004820 	adr	x0, ff3 <_binary_shell_bin_size-0x101000d>
     6f0:	000000a7 	udf	#167
     6f4:	48342d00 	.inst	0x48342d00 ; undefined
     6f8:	01000002 	.inst	0x01000002 ; undefined
     6fc:	7a00616d 	.inst	0x7a00616d ; undefined
     700:	00700b2e 	.inst	0x00700b2e ; undefined
     704:	0003187a 	.inst	0x0003187a ; undefined
     708:	710c2e00 	subs	w0, w16, #0x30b
     70c:	00af7a00 	.inst	0x00af7a00 ; undefined
     710:	0d2e0000 	.inst	0x0d2e0000 ; undefined
     714:	a77a0048 	.inst	0xa77a0048 ; undefined
     718:	2e000000 	ext	v0.8b, v0.8b, v0.8b, #0
     71c:	7a001e0e 	.inst	0x7a001e0e ; undefined
     720:	000000af 	udf	#175
     724:	00720f2f 	.inst	0x00720f2f ; undefined
     728:	0000af81 	udf	#44929
     72c:	74122f00 	.inst	0x74122f00 ; undefined
     730:	03188200 	.inst	0x03188200 ; undefined
     734:	132f0000 	.inst	0x132f0000 ; undefined
     738:	af8b0075 	.inst	0xaf8b0075 ; undefined
     73c:	2f000000 	.inst	0x2f000000 ; undefined
     740:	8c007616 	.inst	0x8c007616 ; undefined
     744:	00000318 	udf	#792
     748:	0077172f 	.inst	0x0077172f ; undefined
     74c:	0000af95 	udf	#44949
     750:	781a2f00 	strh	w0, [x24, #-94]!
     754:	03189600 	.inst	0x03189600 ; undefined
     758:	79200000 	strh	w0, [x0, #4096]
     75c:	00af9f00 	.inst	0x00af9f00 ; undefined
     760:	35300000 	cbnz	w0, 60760 <_binary_shell_bin_size-0xfb08a0>
     764:	0000007c 	udf	#124
     768:	0073112f 	.inst	0x0073112f ; undefined
     76c:	0000a784 	udf	#42884
     770:	06dc2200 	.inst	0x06dc2200 ; undefined
     774:	58350000 	ldr	x0, 6a774 <_binary_shell_bin_size-0xfa688c>
     778:	00000000 	udf	#0
     77c:	01311d84 	.inst	0x01311d84 ; undefined
     780:	000006e4 	udf	#1764
     784:	06ec100a 	.inst	0x06ec100a ; undefined
     788:	00000000 	udf	#0
     78c:	152f0032 	b	4bc0854 <_binary_shell_bin_size+0x3baf854>
     790:	a78e0073 	.inst	0xa78e0073 ; undefined
     794:	33000000 	bfxil	w0, w0, #0, #1
     798:	000006dc 	udf	#1756
     79c:	1d8e0001 	.inst	0x1d8e0001 ; undefined
     7a0:	06e40131 	.inst	0x06e40131 ; undefined
     7a4:	140a0000 	b	2807a4 <_binary_shell_bin_size-0xd9085c>
     7a8:	000006ec 	udf	#1772
     7ac:	02320000 	.inst	0x02320000 ; undefined
     7b0:	0073192f 	.inst	0x0073192f ; undefined
     7b4:	0000a798 	udf	#42904
     7b8:	06dc3300 	.inst	0x06dc3300 ; undefined
     7bc:	00030000 	.inst	0x00030000 ; undefined
     7c0:	01311d98 	.inst	0x01311d98 ; undefined
     7c4:	000006e4 	udf	#1764
     7c8:	06ec180a 	.inst	0x06ec180a ; undefined
     7cc:	00000000 	udf	#0
     7d0:	0006b10b 	.inst	0x0006b10b ; undefined
     7d4:	010c3600 	.inst	0x010c3600 ; undefined
     7d8:	00830253 	.inst	0x00830253 ; undefined
     7dc:	0252010c 	.inst	0x0252010c ; undefined
     7e0:	0b007c10 	add	w16, w0, w0, lsl #31
     7e4:	000006b1 	udf	#1713
     7e8:	52010c37 	eor	w23, w1, #0x80000007
     7ec:	007e1002 	.inst	0x007e1002 ; undefined
     7f0:	0006b10b 	.inst	0x0006b10b ; undefined
     7f4:	010c3800 	.inst	0x010c3800 ; undefined
     7f8:	74100252 	.inst	0x74100252 ; undefined
     7fc:	06bc0b00 	.inst	0x06bc0b00 ; undefined
     800:	0c390000 	.inst	0x0c390000 ; undefined
     804:	10035201 	adr	x1, 7244 <_binary_shell_bin_size-0x1009dbc>
     808:	010c2080 	.inst	0x010c2080 ; undefined
     80c:	008f0251 	.inst	0x008f0251 ; undefined
     810:	0250010c 	.inst	0x0250010c ; undefined
     814:	0b000084 	add	w4, w4, w0
     818:	000006bc 	udf	#1724
     81c:	52010c3a 	eor	w26, w1, #0x80000007
     820:	20801003 	.inst	0x20801003 ; undefined
     824:	0251010c 	.inst	0x0251010c ; undefined
     828:	010c008f 	.inst	0x010c008f ; undefined
     82c:	00840250 	.inst	0x00840250 ; undefined
     830:	06b10b00 	.inst	0x06b10b00 ; undefined
     834:	0c3b0000 	.inst	0x0c3b0000 ; undefined
     838:	10025201 	adr	x1, 5278 <_binary_shell_bin_size-0x100bd88>
     83c:	bc0b0074 	stur	s20, [x3, #176]
     840:	3c000006 	stur	b6, [x0]
     844:	0352010c 	.inst	0x0352010c ; undefined
     848:	0c208010 	.inst	0x0c208010 ; undefined
     84c:	8f025101 	.inst	0x8f025101 ; undefined
     850:	50010c00 	adr	x0, 29d2 <_binary_shell_bin_size-0x100e62e>
     854:	00008402 	udf	#33794
     858:	0006bc0b 	.inst	0x0006bc0b ; undefined
     85c:	010c3d00 	.inst	0x010c3d00 ; undefined
     860:	80100352 	.inst	0x80100352 ; undefined
     864:	51010c20 	sub	w0, w1, #0x43
     868:	0c008f02 	.inst	0x0c008f02 ; undefined
     86c:	84025001 	ld1b	{z1.s}, p4/z, [x0, z2.s, uxtw]
     870:	b10b0000 	adds	x0, x0, #0x2c0
     874:	3e000006 	.inst	0x3e000006 ; undefined
     878:	0252010c 	.inst	0x0252010c ; undefined
     87c:	0b007410 	add	w16, w0, w0, lsl #29
     880:	000006bc 	udf	#1724
     884:	52010c3f 	eor	wsp, w1, #0x80000007
     888:	20801003 	.inst	0x20801003 ; undefined
     88c:	0251010c 	.inst	0x0251010c ; undefined
     890:	010c008f 	.inst	0x010c008f ; undefined
     894:	00840250 	.inst	0x00840250 ; undefined
     898:	06bc0b00 	.inst	0x06bc0b00 ; undefined
     89c:	0c400000 	ld4	{v0.8b-v3.8b}, [x0]
     8a0:	10035201 	adr	x1, 72e0 <_binary_shell_bin_size-0x1009d20>
     8a4:	010c2080 	.inst	0x010c2080 ; undefined
     8a8:	008f0251 	.inst	0x008f0251 ; undefined
     8ac:	0250010c 	.inst	0x0250010c ; undefined
     8b0:	00000084 	udf	#132
     8b4:	00444126 	.inst	0x00444126 ; undefined
     8b8:	6f010000 	.inst	0x6f010000 ; undefined
     8bc:	2da50062 	stp	s2, s0, [x3, #-216]!
     8c0:	00001842 	udf	#6210
     8c4:	636f0100 	.inst	0x636f0100 ; undefined
     8c8:	4330c700 	.inst	0x4330c700 ; undefined
     8cc:	0000000c 	udf	#12
     8d0:	007a1b2f 	.inst	0x007a1b2f ; undefined
     8d4:	00030cc8 	.inst	0x00030cc8 ; undefined
     8d8:	2d000000 	stp	s0, s0, [x0]
     8dc:	00004444 	udf	#17476
     8e0:	646f0100 	fmla	z0.h, z8.h, z7.h[5]
     8e4:	1c2ecc00 	ldr	s0, 5e264 <_binary_shell_bin_size-0xfb2d9c>
     8e8:	18cc000f 	ldr	w15, fffffffffff988e8 <__free_ram_end+0xffffffffbcd548e8>
     8ec:	34000003 	cbz	w3, 8ec <_binary_shell_bin_size-0x1010714>
     8f0:	007b5801 	.inst	0x007b5801 ; undefined
     8f4:	0000afcd 	udf	#45005
     8f8:	452d0000 	sqshrunb	z0.b, z0.h, #3
     8fc:	00000260 	udf	#608
     900:	00656f01 	.inst	0x00656f01 ; undefined
     904:	211f2ff4 	.inst	0x211f2ff4 ; undefined
     908:	0341f600 	.inst	0x0341f600 ; undefined
     90c:	20350000 	.inst	0x20350000 ; undefined
     910:	0104007d 	.inst	0x0104007d ; undefined
     914:	00000341 	udf	#833
     918:	007e2135 	.inst	0x007e2135 ; undefined
     91c:	00af010b 	.inst	0x00af010b ; undefined
     920:	22350000 	.inst	0x22350000 ; undefined
     924:	0108007f 	.inst	0x0108007f ; undefined
     928:	000000af 	udf	#175
     92c:	0c008036 	st2	{v22.8b-v23.8b}, [x1]
     930:	0000af01 	udf	#44801
     934:	2f043200 	.inst	0x2f043200 ; undefined
     938:	f7007a1e 	.inst	0xf7007a1e ; undefined
     93c:	0000030c 	udf	#780
     940:	1d2f0532 	.inst	0x1d2f0532 ; undefined
     944:	41f8007c 	.inst	0x41f8007c ; undefined
     948:	00000003 	udf	#3
     94c:	08b42800 	.inst	0x08b42800 ; undefined
     950:	00460000 	.inst	0x00460000 ; undefined
     954:	23004937 	.inst	0x23004937 ; undefined
     958:	23003c1f 	.inst	0x23003c1f ; undefined
     95c:	00000045 	udf	#69
     960:	3c473800 	.inst	0x3c473800 ; undefined
     964:	01000000 	.inst	0x01000000 ; undefined
     968:	3100666d 	adds	w13, w19, #0x19
     96c:	09543901 	.inst	0x09543901 ; undefined
     970:	14480000 	b	1200970 <_binary_shell_bin_size+0x1ef970>
     974:	00000000 	udf	#0
     978:	31090134 	adds	w20, w9, #0x240
     97c:	00095841 	.inst	0x00095841 ; undefined
     980:	05652200 	mov	z0.b, z16.b[18]
     984:	14480000 	b	1200984 <_binary_shell_bin_size+0x1ef984>
     988:	00000000 	udf	#0
     98c:	03230324 	.inst	0x03230324 ; undefined
     990:	0000056d 	udf	#1389
     994:	1c91021c 	ldr	s28, fffffffffff229d4 <__free_ram_end+0xffffffffbccde9d4>
     998:	00000575 	udf	#1397
     99c:	057d0123 	ext	z3.b, {z9.b-z10.b}, #232
     9a0:	c0230000 	.inst	0xc0230000 ; undefined
     9a4:	00058500 	.inst	0x00058500 ; undefined
     9a8:	00c02400 	.inst	0x00c02400 ; undefined
     9ac:	0000058d 	udf	#1421
     9b0:	05950124 	mov	z4.s, p5/z, #9
     9b4:	03240000 	.inst	0x03240000 ; undefined
     9b8:	0000059d 	udf	#1437
     9bc:	1c91031d 	ldr	s29, fffffffffff22a1c <__free_ram_end+0xffffffffbccdea1c>
     9c0:	0005a59f 	.inst	0x0005a59f ; undefined
     9c4:	27000000 	.inst	0x27000000 ; undefined
     9c8:	000006b1 	udf	#1713
     9cc:	08fa2749 	.inst	0x08fa2749 ; undefined
     9d0:	004a0000 	.inst	0x004a0000 ; undefined
     9d4:	003c4b38 	.inst	0x003c4b38 ; NYI
     9d8:	6d010000 	stp	d0, d0, [x0, #16]
     9dc:	013b0067 	.inst	0x013b0067 ; undefined
     9e0:	00095439 	.inst	0x00095439 ; undefined
     9e4:	00144c00 	.inst	0x00144c00 ; undefined
     9e8:	3e000000 	.inst	0x3e000000 ; undefined
     9ec:	42310901 	.inst	0x42310901 ; undefined
     9f0:	00000958 	udf	#2392
     9f4:	00056522 	.inst	0x00056522 ; undefined
     9f8:	00144c00 	.inst	0x00144c00 ; undefined
     9fc:	24000000 	cmphs	p0.b, p0/z, z0.b, z0.b
     a00:	6d032303 	stp	d3, d8, [x24, #48]
     a04:	1c000005 	ldr	s5, a04 <_binary_shell_bin_size-0x10105fc>
     a08:	751c9102 	.inst	0x751c9102 ; undefined
     a0c:	23000005 	.inst	0x23000005 ; undefined
     a10:	00057d01 	.inst	0x00057d01 ; undefined
     a14:	00c02300 	.inst	0x00c02300 ; undefined
     a18:	00000585 	udf	#1413
     a1c:	8d00c024 	.inst	0x8d00c024 ; undefined
     a20:	24000005 	cmphs	p5.b, p0/z, z0.b, z0.b
     a24:	00059501 	.inst	0x00059501 ; undefined
     a28:	9d032400 	.inst	0x9d032400 ; undefined
     a2c:	1d000005 	.inst	0x1d000005 ; undefined
     a30:	9f1c9103 	.inst	0x9f1c9103 ; undefined
     a34:	000005a5 	udf	#1445
     a38:	b1270000 	adds	x0, x0, #0x9c0
     a3c:	4d000006 	st1	{v6.b}[8], [x0]
     a40:	0008fa27 	.inst	0x0008fa27 ; undefined
     a44:	3a004e00 	.inst	0x3a004e00 ; undefined
     a48:	00001c4f 	udf	#7247
     a4c:	686f0100 	.inst	0x686f0100 ; undefined
     a50:	3b014500 	.inst	0x3b014500 ; undefined
     a54:	00039050 	.inst	0x00039050 ; undefined
     a58:	696d0100 	.inst	0x696d0100 ; undefined
     a5c:	41015500 	.inst	0x41015500 ; undefined
     a60:	3c000003 	stur	b3, [x0]
     a64:	55008123 	.inst	0x55008123 ; undefined
     a68:	000cef01 	.inst	0x000cef01 ; undefined
     a6c:	82243c00 	.inst	0x82243c00 ; undefined
     a70:	12015500 	and	w0, w8, #0x801fffff
     a74:	35000005 	cbnz	w5, a74 <_binary_shell_bin_size-0x101058c>
     a78:	57007a25 	.inst	0x57007a25 ; undefined
     a7c:	00030c01 	.inst	0x00030c01 ; undefined
     a80:	7c263500 	.inst	0x7c263500 ; undefined
     a84:	41015600 	.inst	0x41015600 ; undefined
     a88:	35000003 	cbnz	w3, a88 <_binary_shell_bin_size-0x1010578>
     a8c:	65000d27 	.inst	0x65000d27 ; undefined
     a90:	00031801 	.inst	0x00031801 ; undefined
     a94:	0f2a3500 	srsra	v0.2s, v8.2s, #22
     a98:	18017400 	ldr	w0, 3918 <_binary_shell_bin_size-0x100d6e8>
     a9c:	35000003 	cbnz	w3, a9c <_binary_shell_bin_size-0x1010564>
     aa0:	91008632 	add	x18, x17, #0x21
     aa4:	0000a701 	udf	#42753
     aa8:	87343500 	.inst	0x87343500 ; undefined
     aac:	00019600 	.inst	0x00019600 ; undefined
     ab0:	3d000005 	str	b5, [x0]
     ab4:	000006dc 	udf	#1756
     ab8:	01740006 	.inst	0x01740006 ; undefined
     abc:	e4290929 	.inst	0xe4290929 ; undefined
     ac0:	0a000006 	and	w6, w0, w0
     ac4:	0006ec28 	.inst	0x0006ec28 ; undefined
     ac8:	51300000 	sub	w0, w0, #0xc00
     acc:	00000038 	udf	#56
     ad0:	00482b35 	.inst	0x00482b35 ; undefined
     ad4:	00a7017b 	.inst	0x00a7017b ; undefined
     ad8:	32000000 	orr	w0, w0, #0x1
     adc:	832c3507 	.inst	0x832c3507 ; undefined
     ae0:	af018300 	.inst	0xaf018300 ; undefined
     ae4:	32000000 	orr	w0, w0, #0x1
     ae8:	842f3508 	prfh	pstl1keep, p5, [x8, z15.s, uxtw #1]
     aec:	a7018400 	.inst	0xa7018400 ; undefined
     af0:	35000000 	cbnz	w0, af0 <_binary_shell_bin_size-0x1010510>
     af4:	89008530 	.inst	0x89008530 ; undefined
     af8:	00051201 	.inst	0x00051201 ; undefined
     afc:	00883600 	.inst	0x00883600 ; undefined
     b00:	05120188 	mov	z8.b, p2/z, #12
     b04:	dc3d0000 	.inst	0xdc3d0000 ; undefined
     b08:	09000006 	.inst	0x09000006 ; undefined
     b0c:	18018400 	ldr	w0, 3b8c <_binary_shell_bin_size-0x100d474>
     b10:	06e42d09 	.inst	0x06e42d09 ; undefined
     b14:	2e0a0000 	ext	v0.8b, v0.8b, v10.8b, #0
     b18:	000006ec 	udf	#1772
     b1c:	3d000000 	str	b0, [x0]
     b20:	000006dc 	udf	#1756
     b24:	0191000a 	.inst	0x0191000a ; undefined
     b28:	e401311f 	stnt1b	{z31.d}, p4, [z8.d, x1]
     b2c:	0a000006 	and	w6, w0, w0
     b30:	0006ec31 	.inst	0x0006ec31 ; undefined
     b34:	0b320000 	add	w0, w0, w18, uxtb
     b38:	00833335 	.inst	0x00833335 ; undefined
     b3c:	00af0197 	.inst	0x00af0197 ; undefined
     b40:	0c320000 	.inst	0x0c320000 ; undefined
     b44:	00843735 	.inst	0x00843735 ; undefined
     b48:	00a70198 	.inst	0x00a70198 ; undefined
     b4c:	dc3d0000 	.inst	0xdc3d0000 ; undefined
     b50:	0d000006 	st1	{v6.b}[0], [x0]
     b54:	18019800 	ldr	w0, 3e54 <_binary_shell_bin_size-0x100d1ac>
     b58:	06e43509 	.inst	0x06e43509 ; undefined
     b5c:	360a0000 	tbz	w0, #1, 4b5c <_binary_shell_bin_size-0x100c4a4>
     b60:	000006ec 	udf	#1772
     b64:	0b000000 	add	w0, w0, w0
     b68:	000006b1 	udf	#1713
     b6c:	52010c52 	eor	w18, w2, #0x80000007
     b70:	02e11003 	.inst	0x02e11003 ; undefined
     b74:	06b10b00 	.inst	0x06b10b00 ; undefined
     b78:	0c530000 	.inst	0x0c530000 ; undefined
     b7c:	10025201 	adr	x1, 55bc <_binary_shell_bin_size-0x100ba44>
     b80:	bc0b0074 	stur	s20, [x3, #176]
     b84:	54000006 	b.vs	b84 <_binary_shell_bin_size-0x101047c>
     b88:	0352010c 	.inst	0x0352010c ; undefined
     b8c:	0c208010 	.inst	0x0c208010 ; undefined
     b90:	8f025101 	.inst	0x8f025101 ; undefined
     b94:	50010c00 	adr	x0, 2d16 <_binary_shell_bin_size-0x100e2ea>
     b98:	00008302 	udf	#33538
     b9c:	0006b10b 	.inst	0x0006b10b ; undefined
     ba0:	010c5500 	.inst	0x010c5500 ; undefined
     ba4:	f7100352 	.inst	0xf7100352 ; undefined
     ba8:	f50b0002 	.inst	0xf50b0002 ; undefined
     bac:	56000006 	.inst	0x56000006 ; undefined
     bb0:	0252010c 	.inst	0x0252010c ; undefined
     bb4:	010c0086 	.inst	0x010c0086 ; undefined
     bb8:	00860251 	.inst	0x00860251 ; undefined
     bbc:	0250010c 	.inst	0x0250010c ; undefined
     bc0:	27000083 	.inst	0x27000083 ; undefined
     bc4:	000006b1 	udf	#1713
     bc8:	06b10b57 	.inst	0x06b10b57 ; undefined
     bcc:	0c580000 	.inst	0x0c580000 ; undefined
     bd0:	87025101 	.inst	0x87025101 ; undefined
     bd4:	bc0b0000 	stur	s0, [x0, #176]
     bd8:	59000006 	stlurh	w6, [x0]
     bdc:	0352010c 	.inst	0x0352010c ; undefined
     be0:	0c208010 	.inst	0x0c208010 ; undefined
     be4:	8f025101 	.inst	0x8f025101 ; undefined
     be8:	50010c00 	adr	x0, 2d6a <_binary_shell_bin_size-0x100e296>
     bec:	00008602 	udf	#34306
     bf0:	000cd70b 	.inst	0x000cd70b ; undefined
     bf4:	010c5a00 	.inst	0x010c5a00 ; undefined
     bf8:	00860250 	.inst	0x00860250 ; undefined
     bfc:	06f50b00 	.inst	0x06f50b00 ; undefined
     c00:	0c5b0000 	.inst	0x0c5b0000 ; undefined
     c04:	10035301 	adr	x1, 7664 <_binary_shell_bin_size-0x100999c>
     c08:	010c0880 	.inst	0x010c0880 ; undefined
     c0c:	00860252 	.inst	0x00860252 ; undefined
     c10:	0250010c 	.inst	0x0250010c ; undefined
     c14:	0b000083 	add	w3, w4, w0
     c18:	000006b1 	udf	#1713
     c1c:	52010c5c 	eor	w28, w2, #0x80000007
     c20:	00741002 	.inst	0x00741002 ; undefined
     c24:	0006bc0b 	.inst	0x0006bc0b ; undefined
     c28:	010c5d00 	.inst	0x010c5d00 ; undefined
     c2c:	80100352 	.inst	0x80100352 ; undefined
     c30:	51010c20 	sub	w0, w1, #0x43
     c34:	0c008f02 	.inst	0x0c008f02 ; undefined
     c38:	84025001 	ld1b	{z1.s}, p4/z, [x0, z2.s, uxtw]
     c3c:	f50b0000 	.inst	0xf50b0000 ; undefined
     c40:	5e000006 	sha1c	q6, s0, v0.4s
     c44:	0353010c 	.inst	0x0353010c ; undefined
     c48:	0c088010 	.inst	0x0c088010 ; undefined
     c4c:	84025201 	ld1b	{z1.s}, p4/z, [x16, z2.s, uxtw]
     c50:	51010c00 	sub	w0, w0, #0x43
     c54:	80801006 	.inst	0x80801006 ; undefined
     c58:	0c04b880 	.inst	0x0c04b880 ; undefined
     c5c:	83025001 	.inst	0x83025001 ; undefined
     c60:	bc0b0000 	stur	s0, [x0, #176]
     c64:	5f000006 	.inst	0x5f000006 ; undefined
     c68:	0352010c 	.inst	0x0352010c ; undefined
     c6c:	0c208010 	.inst	0x0c208010 ; undefined
     c70:	8f025101 	.inst	0x8f025101 ; undefined
     c74:	50010c00 	adr	x0, 2df6 <_binary_shell_bin_size-0x100e20a>
     c78:	00008402 	udf	#33794
     c7c:	0006f50b 	.inst	0x0006f50b ; undefined
     c80:	010c6000 	.inst	0x010c6000 ; undefined
     c84:	80100353 	.inst	0x80100353 ; undefined
     c88:	52010c08 	eor	w8, w0, #0x80000007
     c8c:	0c008402 	st2	{v2.4h-v3.4h}, [x0]
     c90:	83025001 	.inst	0x83025001 ; undefined
     c94:	f50b0000 	.inst	0xf50b0000 ; undefined
     c98:	61000006 	.inst	0x61000006 ; undefined
     c9c:	0353010c 	.inst	0x0353010c ; undefined
     ca0:	0c088010 	.inst	0x0c088010 ; undefined
     ca4:	10055201 	adr	x1, b6e4 <_binary_shell_bin_size-0x100591c>
     ca8:	50808080 	adr	x0, fffffffffff01cba <__free_ram_end+0xffffffffbccbdcba>
     cac:	0551010c 	mov	z12.h, p1/z, #8
     cb0:	80808010 	fmops	za0.s, p0/m, p4/m, z0.s, z0.s
     cb4:	50010c50 	adr	x16, 2e3e <_binary_shell_bin_size-0x100e1c2>
     cb8:	00008302 	udf	#33538
     cbc:	0006b10b 	.inst	0x0006b10b ; undefined
     cc0:	010c6200 	.inst	0x010c6200 ; undefined
     cc4:	74100252 	.inst	0x74100252 ; undefined
     cc8:	06b10b00 	.inst	0x06b10b00 ; undefined
     ccc:	0c630000 	.inst	0x0c630000 ; undefined
     cd0:	10025201 	adr	x1, 5710 <_binary_shell_bin_size-0x100b8f0>
     cd4:	2c000074 	stnp	s20, s0, [x3]
     cd8:	f519014a 	.inst	0xf519014a ; undefined
     cdc:	2a000004 	orr	w4, w0, w0
     ce0:	000004f5 	udf	#1269
     ce4:	000cef2a 	.inst	0x000cef2a ; undefined
     ce8:	06d42a00 	.inst	0x06d42a00 ; undefined
     cec:	14000000 	b	cec <_binary_shell_bin_size-0x1010314>
     cf0:	00000cf4 	udf	#3316
     cf4:	004b3f3e 	.inst	0x004b3f3e ; undefined
     cf8:	000d1627 	.inst	0x000d1627 ; undefined
     cfc:	004d2000 	.inst	0x004d2000 ; undefined
     d00:	000d1a2b 	.inst	0x000d1a2b ; undefined
     d04:	003c2000 	.inst	0x003c2000 ; NYI
     d08:	000d162a 	.inst	0x000d162a ; undefined
     d0c:	00432000 	.inst	0x00432000 ; undefined
     d10:	0004f132 	.inst	0x0004f132 ; undefined
     d14:	4c050000 	.inst	0x4c050000 ; undefined
     d18:	f1030106 	subs	x6, x8, #0xc0
     d1c:	04000004 	add	z4.b, p0/m, z4.b, z0.b
     d20:	00000049 	udf	#73
     d24:	64380003 	fmla	z3.h, z0.h, z0.h[3]
     d28:	000000d8 	udf	#216
     d2c:	006a6d01 	.inst	0x006a6d01 ; undefined
     d30:	383c01aa 	ldaddb	w28, w10, [x13]
     d34:	01aa0089 	.inst	0x01aa0089 ; undefined
     d38:	000015af 	udf	#5551
     d3c:	00ac3935 	.inst	0x00ac3935 ; undefined
     d40:	00af01ad 	.inst	0x00af01ad ; undefined
     d44:	0e320000 	saddl	v0.8h, v0.8b, v18.8b
     d48:	00ad3a35 	.inst	0x00ad3a35 ; undefined
     d4c:	030c01ba 	.inst	0x030c01ba ; undefined
     d50:	3c360000 	.inst	0x3c360000 ; undefined
     d54:	1601b800 	b	fffffffff806ed54 <__free_ram_end+0xffffffffb4e2ad54>
     d58:	3600000d 	tbz	w13, #0, d58 <_binary_shell_bin_size-0x10102a8>
     d5c:	01b900ae 	.inst	0x01b900ae ; undefined
     d60:	0000030c 	udf	#780
     d64:	000cf539 	.inst	0x000cf539 ; undefined
     d68:	00146500 	.inst	0x00146500 ; undefined
     d6c:	be000000 	.inst	0xbe000000 ; undefined
     d70:	3b0a1601 	.inst	0x3b0a1601 ; undefined
     d74:	00000cfd 	udf	#3325
     d78:	00056522 	.inst	0x00056522 ; undefined
     d7c:	00146500 	.inst	0x00146500 ; undefined
     d80:	32000000 	orr	w0, w0, #0x1
     d84:	6d032311 	stp	d17, d8, [x24, #48]
     d88:	1c000005 	ldr	s5, d88 <_binary_shell_bin_size-0x1010278>
     d8c:	757c9102 	.inst	0x757c9102 ; undefined
     d90:	23000005 	.inst	0x23000005 ; undefined
     d94:	00057d00 	.inst	0x00057d00 ; undefined
     d98:	00c02300 	.inst	0x00c02300 ; undefined
     d9c:	00000585 	udf	#1413
     da0:	8d00c024 	.inst	0x8d00c024 ; undefined
     da4:	24000005 	cmphs	p5.b, p0/z, z0.b, z0.b
     da8:	00059500 	.inst	0x00059500 ; undefined
     dac:	9d032400 	.inst	0x9d032400 ; undefined
     db0:	1d000005 	.inst	0x1d000005 ; undefined
     db4:	9f7c9103 	.inst	0x9f7c9103 ; undefined
     db8:	000005a5 	udf	#1445
     dbc:	66300000 	.inst	0x66300000 ; undefined
     dc0:	0000000c 	udf	#12
     dc4:	007a3c35 	.inst	0x007a3c35 ; undefined
     dc8:	030c01c6 	.inst	0x030c01c6 ; undefined
     dcc:	00000000 	udf	#0
     dd0:	001c6730 	.inst	0x001c6730 ; undefined
     dd4:	3c360000 	.inst	0x3c360000 ; undefined
     dd8:	4501b100 	bext	z0.b, z8.b, z1.b
     ddc:	39000000 	strb	w0, [x0]
     de0:	00000954 	udf	#2388
     de4:	00001868 	udf	#6248
     de8:	01b30000 	.inst	0x01b30000 ; undefined
     dec:	0565220d 	mov	z13.b, z16.b[18]
     df0:	18680000 	ldr	w0, d0df0 <_binary_shell_bin_size-0xf40210>
     df4:	00000000 	udf	#0
     df8:	43090324 	.inst	0x43090324 ; undefined
     dfc:	0000056d 	udf	#1389
     e00:	05754409 	.inst	0x05754409 ; undefined
     e04:	42090000 	.inst	0x42090000 ; undefined
     e08:	0000057d 	udf	#1405
     e0c:	05854109 	.inst	0x05854109 ; undefined
     e10:	3d0a0000 	str	b0, [x0, #640]
     e14:	0000058d 	udf	#1421
     e18:	05953e0a 	mov	z10.s, p5/z, #-4096
     e1c:	3f0a0000 	.inst	0x3f0a0000 ; undefined
     e20:	0000059d 	udf	#1437
     e24:	05a5400a 	zip1	p10.s, p0.s, p5.s
     e28:	00000000 	udf	#0
     e2c:	06b12700 	.inst	0x06b12700 ; undefined
     e30:	0b690000 	.inst	0x0b690000 ; undefined
     e34:	000006b1 	udf	#1713
     e38:	52010c6a 	eor	w10, w3, #0x80000007
     e3c:	03cf1003 	.inst	0x03cf1003 ; undefined
     e40:	6b380000 	subs	w0, w0, w24, uxtb
     e44:	000000ec 	udf	#236
     e48:	006b6d01 	.inst	0x006b6d01 ; undefined
     e4c:	453c01da 	sqshrunb	z26.h, z14.s, #4
     e50:	01da0089 	.inst	0x01da0089 ; undefined
     e54:	000015af 	udf	#5551
     e58:	00aa4635 	.inst	0x00aa4635 ; undefined
     e5c:	00af01dc 	.inst	0x00af01dc ; undefined
     e60:	47350000 	.inst	0x47350000 ; undefined
     e64:	01dc00af 	.inst	0x01dc00af ; undefined
     e68:	000000af 	udf	#175
     e6c:	00b04835 	.inst	0x00b04835 ; undefined
     e70:	00af01e4 	.inst	0x00af01e4 ; undefined
     e74:	49350000 	.inst	0x49350000 ; undefined
     e78:	01ea00b1 	.inst	0x01ea00b1 ; undefined
     e7c:	000000af 	udf	#175
     e80:	00b24a35 	.inst	0x00b24a35 ; undefined
     e84:	00af01dc 	.inst	0x00af01dc ; undefined
     e88:	b3360000 	.inst	0xb3360000 ; undefined
     e8c:	af01dc00 	.inst	0xaf01dc00 ; undefined
     e90:	36000000 	tbz	w0, #0, e90 <_binary_shell_bin_size-0x1010170>
     e94:	01e500b4 	.inst	0x01e500b4 ; undefined
     e98:	000000af 	udf	#175
     e9c:	0006b127 	.inst	0x0006b127 ; undefined
     ea0:	b10b6c00 	adds	x0, x0, #0x2db
     ea4:	6d000006 	stp	d6, d0, [x0]
     ea8:	0252010c 	.inst	0x0252010c ; undefined
     eac:	010c0086 	.inst	0x010c0086 ; undefined
     eb0:	00840251 	.inst	0x00840251 ; undefined
     eb4:	06b10b00 	.inst	0x06b10b00 ; undefined
     eb8:	0c6e0000 	.inst	0x0c6e0000 ; undefined
     ebc:	85025101 	ld1w	{z1.s}, p4/z, [x8, z2.s, uxtw]
     ec0:	b10b0000 	adds	x0, x0, #0x2c0
     ec4:	6f000006 	.inst	0x6f000006 ; undefined
     ec8:	0251010c 	.inst	0x0251010c ; undefined
     ecc:	28000083 	stnp	w3, w0, [x4]
     ed0:	00000efd 	udf	#3837
     ed4:	0d262870 	.inst	0x0d262870 ; undefined
     ed8:	0b710000 	.inst	0x0b710000 ; undefined
     edc:	000006b1 	udf	#1713
     ee0:	53010c72 	ubfx	w18, w3, #1, #3
     ee4:	0c008302 	st2	{v2.8b-v3.8b}, [x24]
     ee8:	86025101 	.inst	0x86025101 ; undefined
     eec:	b10b0000 	adds	x0, x0, #0x2c0
     ef0:	73000006 	.inst	0x73000006 ; undefined
     ef4:	0352010c 	.inst	0x0352010c ; undefined
     ef8:	0003ff10 	.inst	0x0003ff10 ; undefined
     efc:	004e4000 	.inst	0x004e4000 ; undefined
     f00:	af2a01a7 	.inst	0xaf2a01a7 ; undefined
     f04:	2a000000 	orr	w0, w0, w0
     f08:	000000af 	udf	#175
     f0c:	0c740700 	.inst	0x0c740700 ; undefined
     f10:	01000000 	.inst	0x01000000 ; undefined
     f14:	000f4e6f 	.inst	0x000f4e6f ; undefined
     f18:	574b0900 	.inst	0x574b0900 ; undefined
     f1c:	0000000f 	udf	#15
     f20:	000c7507 	.inst	0x000c7507 ; undefined
     f24:	6f010000 	.inst	0x6f010000 ; undefined
     f28:	000010ce 	udf	#4302
     f2c:	10d74c09 	adr	x9, fffffffffffaf8ac <__free_ram_end+0xffffffffbcd6b8ac>
     f30:	07000000 	.inst	0x07000000 ; undefined
     f34:	00000c76 	udf	#3190
     f38:	616f0100 	.inst	0x616f0100 ; undefined
     f3c:	1c00000f 	ldr	s15, f3c <_binary_shell_bin_size-0x10100c4>
     f40:	0f665001 	.inst	0x0f665001 ; undefined
     f44:	011c0000 	.inst	0x011c0000 ; undefined
     f48:	000f6f51 	.inst	0x000f6f51 ; undefined
     f4c:	4f410000 	.inst	0x4f410000 ; undefined
     f50:	00020300 	.inst	0x00020300 ; undefined
     f54:	42000005 	.inst	0x42000005 ; undefined
     f58:	02030050 	.inst	0x02030050 ; undefined
     f5c:	000000af 	udf	#175
     f60:	00514300 	.inst	0x00514300 ; undefined
     f64:	5042020b 	adr	x11, 84fa6 <_binary_shell_bin_size-0xf8c05a>
     f68:	af020b00 	.inst	0xaf020b00 ; undefined
     f6c:	42000000 	.inst	0x42000000 ; undefined
     f70:	020b0052 	.inst	0x020b0052 ; undefined
     f74:	00000500 	udf	#1280
     f78:	14770700 	b	1dc2b78 <_binary_shell_bin_size+0xdb1b78>
     f7c:	01000000 	.inst	0x01000000 ; undefined
     f80:	0010b66f 	.inst	0x0010b66f ; undefined
     f84:	50011c00 	adr	x0, 3306 <_binary_shell_bin_size-0x100dcfa>
     f88:	000010bb 	udf	#4283
     f8c:	c451011c 	ld1sb	{z28.d}, p0/z, [x8, z17.d, sxtw]
     f90:	39000010 	strb	w16, [x0]
     f94:	00000f4e 	udf	#3918
     f98:	00000478 	udf	#1144
     f9c:	02100000 	.inst	0x02100000 ; undefined
     fa0:	50011c20 	adr	x0, 3326 <_binary_shell_bin_size-0x100dcda>
     fa4:	00000f57 	udf	#3927
     fa8:	0f613900 	sqdmlal	v0.4s, v8.4h, v1.h[6]
     fac:	04790000 	add	z0.h, z0.h, z25.h
     fb0:	00000000 	udf	#0
     fb4:	1c050210 	ldr	s16, aff4 <_binary_shell_bin_size-0x100600c>
     fb8:	0f665001 	.inst	0x0f665001 ; undefined
     fbc:	011c0000 	.inst	0x011c0000 ; undefined
     fc0:	000f6f59 	.inst	0x000f6f59 ; undefined
     fc4:	07000000 	.inst	0x07000000 ; undefined
     fc8:	0000987a 	udf	#39034
     fcc:	916d0100 	add	x0, x8, #0xb40, lsl #12
     fd0:	09000010 	.inst	0x09000010 ; undefined
     fd4:	00109a4d 	.inst	0x00109a4d ; undefined
     fd8:	a34f0a00 	.inst	0xa34f0a00 ; undefined
     fdc:	0a000010 	and	w16, w0, w0
     fe0:	0010ac50 	.inst	0x0010ac50 ; undefined
     fe4:	06dc3900 	.inst	0x06dc3900 ; undefined
     fe8:	587b0000 	ldr	x0, f6fe8 <_binary_shell_bin_size-0xf1a018>
     fec:	00000000 	udf	#0
     ff0:	311b021b 	adds	w27, w16, #0x6c0
     ff4:	0006e402 	.inst	0x0006e402 ; undefined
     ff8:	ec4e0a00 	.inst	0xec4e0a00 ; undefined
     ffc:	00000006 	udf	#6
    1000:	000f6139 	.inst	0x000f6139 ; undefined
    1004:	00047c00 	.inst	0x00047c00 ; undefined
    1008:	20000000 	.inst	0x20000000 ; undefined
    100c:	30310502 	adr	x2, 630ad <_binary_shell_bin_size-0xfadf53>
    1010:	00000f66 	udf	#3942
    1014:	6f64011c 	mla	v28.8h, v8.8h, v4.h[2]
    1018:	0000000f 	udf	#15
    101c:	000f6139 	.inst	0x000f6139 ; undefined
    1020:	00047d00 	.inst	0x00047d00 ; undefined
    1024:	22000000 	.inst	0x22000000 ; undefined
    1028:	38310502 	.inst	0x38310502 ; undefined
    102c:	00000f66 	udf	#3942
    1030:	0f6f1031 	.inst	0x0f6f1031 ; undefined
    1034:	39000000 	strb	w0, [x0]
    1038:	00000f61 	udf	#3937
    103c:	0000047e 	udf	#1150
    1040:	02240000 	.inst	0x02240000 ; undefined
    1044:	663c3105 	.inst	0x663c3105 ; undefined
    1048:	3100000f 	adds	w15, w0, #0x0
    104c:	000f6f00 	.inst	0x000f6f00 ; undefined
    1050:	61390000 	.inst	0x61390000 ; undefined
    1054:	7f00000f 	.inst	0x7f00000f ; undefined
    1058:	00000004 	udf	#4
    105c:	05022600 	orr	z0.d, z0.d, #0xf0001fffffffffff
    1060:	0f664031 	.inst	0x0f664031 ; undefined
    1064:	0b000000 	add	w0, w0, w0
    1068:	000006b1 	udf	#1713
    106c:	010c0180 	.inst	0x010c0180 ; undefined
    1070:	74100252 	.inst	0x74100252 ; undefined
    1074:	06bc0b00 	.inst	0x06bc0b00 ; undefined
    1078:	01810000 	.inst	0x01810000 ; undefined
    107c:	0352010c 	.inst	0x0352010c ; undefined
    1080:	0c408010 	ld2	{v16.8b-v17.8b}, [x0]
    1084:	8f025101 	.inst	0x8f025101 ; undefined
    1088:	50010c00 	adr	x0, 320a <_binary_shell_bin_size-0x100ddf6>
    108c:	00008302 	udf	#33538
    1090:	00534100 	.inst	0x00534100 ; undefined
    1094:	03730219 	.inst	0x03730219 ; undefined
    1098:	24420000 	cmphs	p0.h, p0/z, z0.h, z2.h
    109c:	fa021900 	.inst	0xfa021900 ; undefined
    10a0:	36000003 	tbz	w3, #0, 10a0 <_binary_shell_bin_size-0x100ff60>
    10a4:	021c0054 	.inst	0x021c0054 ; undefined
    10a8:	00000373 	udf	#883
    10ac:	1b005536 	madd	w22, w9, w0, w21
    10b0:	0000a702 	udf	#42754
    10b4:	56430000 	.inst	0x56430000 ; undefined
    10b8:	42020f00 	.inst	0x42020f00 ; undefined
    10bc:	020f0050 	.inst	0x020f0050 ; undefined
    10c0:	000000af 	udf	#175
    10c4:	0f005242 	fmls	v2.4h, v18.4h, v0.h[0]
    10c8:	00050002 	.inst	0x00050002 ; undefined
    10cc:	57410000 	.inst	0x57410000 ; undefined
    10d0:	af020700 	.inst	0xaf020700 ; undefined
    10d4:	42000000 	.inst	0x42000000 ; undefined
    10d8:	02070050 	.inst	0x02070050 ; undefined
    10dc:	000000af 	udf	#175
    10e0:	01823800 	.inst	0x01823800 ; undefined
    10e4:	000001c4 	udf	#452
    10e8:	006c6d01 	.inst	0x006c6d01 ; undefined
    10ec:	4e39022a 	saddl2	v10.8h, v17.16b, v25.16b
    10f0:	8300000f 	.inst	0x8300000f ; undefined
    10f4:	00000801 	udf	#2049
    10f8:	022b0000 	.inst	0x022b0000 ; undefined
    10fc:	57003109 	.inst	0x57003109 ; undefined
    1100:	0000000f 	udf	#15
    1104:	000f4e39 	.inst	0x000f4e39 ; undefined
    1108:	04018400 	.inst	0x04018400 ; undefined
    110c:	00000000 	udf	#0
    1110:	3109022d 	adds	w13, w17, #0x240
    1114:	000f5704 	.inst	0x000f5704 ; undefined
    1118:	4e390000 	saddl2	v0.8h, v0.16b, v25.16b
    111c:	8500000f 	.inst	0x8500000f ; undefined
    1120:	00000401 	udf	#1025
    1124:	022f0000 	.inst	0x022f0000 ; undefined
    1128:	57083109 	.inst	0x57083109 ; undefined
    112c:	0000000f 	udf	#15
    1130:	000f6139 	.inst	0x000f6139 ; undefined
    1134:	04018600 	lsr	z0.h, p1/m, z0.h, #16
    1138:	00000000 	udf	#0
    113c:	31050233 	adds	w19, w17, #0x140
    1140:	000f6670 	.inst	0x000f6670 ; undefined
    1144:	6f003100 	.inst	0x6f003100 ; undefined
    1148:	0000000f 	udf	#15
    114c:	0010913d 	.inst	0x0010913d ; undefined
    1150:	3b000f00 	.inst	0x3b000f00 ; undefined
    1154:	52091602 	eor	w2, w16, #0x1f800000
    1158:	0000109a 	udf	#4250
    115c:	10a3540a 	adr	x10, fffffffffff47bdc <__free_ram_end+0xffffffffbcd03bdc>
    1160:	550a0000 	.inst	0x550a0000 ; undefined
    1164:	000010ac 	udf	#4268
    1168:	0006dc3d 	.inst	0x0006dc3d ; undefined
    116c:	1b001000 	madd	w0, w0, w0, w4
    1170:	51091b02 	sub	w2, w24, #0x246
    1174:	000006e4 	udf	#1764
    1178:	06ec530a 	.inst	0x06ec530a ; undefined
    117c:	44000000 	.inst	0x44000000 ; undefined
    1180:	00000f61 	udf	#3937
    1184:	00040187 	.inst	0x00040187 ; undefined
    1188:	20000000 	.inst	0x20000000 ; undefined
    118c:	61390502 	.inst	0x61390502 ; undefined
    1190:	8800000f 	stxr	w0, w15, [x0]
    1194:	00000401 	udf	#1025
    1198:	02220000 	.inst	0x02220000 ; undefined
    119c:	66383105 	.inst	0x66383105 ; undefined
    11a0:	3100000f 	adds	w15, w0, #0x0
    11a4:	000f6f10 	.inst	0x000f6f10 ; undefined
    11a8:	61390000 	.inst	0x61390000 ; undefined
    11ac:	8900000f 	.inst	0x8900000f ; undefined
    11b0:	00000401 	udf	#1025
    11b4:	02240000 	.inst	0x02240000 ; undefined
    11b8:	663c3105 	.inst	0x663c3105 ; undefined
    11bc:	3100000f 	adds	w15, w0, #0x0
    11c0:	000f6f00 	.inst	0x000f6f00 ; undefined
    11c4:	61390000 	.inst	0x61390000 ; undefined
    11c8:	8a00000f 	and	x15, x0, x0
    11cc:	00000401 	udf	#1025
    11d0:	02260000 	.inst	0x02260000 ; undefined
    11d4:	66403105 	.inst	0x66403105 ; undefined
    11d8:	0000000f 	udf	#15
    11dc:	10b63900 	adr	x0, fffffffffff6d8fc <__free_ram_end+0xffffffffbcd298fc>
    11e0:	018b0000 	.inst	0x018b0000 ; undefined
    11e4:	0000000c 	udf	#12
    11e8:	05023500 	orr	z0.d, z0.d, #0xfc000007ffffffff
    11ec:	10bb7031 	adr	x17, fffffffffff77ff0 <__free_ram_end+0xffffffffbcd33ff0>
    11f0:	01310000 	.inst	0x01310000 ; undefined
    11f4:	000010c4 	udf	#4292
    11f8:	000f4e39 	.inst	0x000f4e39 ; undefined
    11fc:	04018b00 	lsr	z0.h, p2/m, z0.h, #8
    1200:	00000000 	udf	#0
    1204:	31200210 	adds	w16, w16, #0x800
    1208:	000f5770 	.inst	0x000f5770 ; undefined
    120c:	61390000 	.inst	0x61390000 ; undefined
    1210:	8c00000f 	.inst	0x8c00000f ; undefined
    1214:	00000401 	udf	#1025
    1218:	02100000 	.inst	0x02100000 ; undefined
    121c:	66703105 	.inst	0x66703105 ; undefined
    1220:	1c00000f 	ldr	s15, 1220 <_binary_shell_bin_size-0x100fde0>
    1224:	0f6f5801 	.inst	0x0f6f5801 ; undefined
    1228:	00000000 	udf	#0
    122c:	0010b639 	.inst	0x0010b639 ; undefined
    1230:	0c018d00 	.inst	0x0c018d00 ; undefined
    1234:	00000000 	udf	#0
    1238:	31050237 	adds	w23, w17, #0x140
    123c:	0010bb70 	.inst	0x0010bb70 ; undefined
    1240:	c4023100 	ldff1sb	{z0.d}, p4/z, [x8, z2.d, uxtw]
    1244:	39000010 	strb	w16, [x0]
    1248:	00000f4e 	udf	#3918
    124c:	0004018d 	.inst	0x0004018d ; undefined
    1250:	10000000 	adr	x0, 1250 <_binary_shell_bin_size-0x100fdb0>
    1254:	70312002 	adr	x2, 63657 <_binary_shell_bin_size-0xfad9a9>
    1258:	00000f57 	udf	#3927
    125c:	0f613900 	sqdmlal	v0.4s, v8.4h, v1.h[6]
    1260:	018e0000 	.inst	0x018e0000 ; undefined
    1264:	00000004 	udf	#4
    1268:	05021000 	orr	z0.d, z0.d, #0x4000000000000000
    126c:	0f667031 	sqdmlsl	v17.4s, v1.4h, v6.h[2]
    1270:	011c0000 	.inst	0x011c0000 ; undefined
    1274:	000f6f58 	.inst	0x000f6f58 ; undefined
    1278:	39000000 	strb	w0, [x0]
    127c:	000010b6 	udf	#4278
    1280:	000c018f 	.inst	0x000c018f ; undefined
    1284:	39000000 	strb	w0, [x0]
    1288:	70310502 	adr	x2, 6332b <_binary_shell_bin_size-0xfadcd5>
    128c:	000010bb 	udf	#4283
    1290:	10c40831 	adr	x17, fffffffffff89394 <__free_ram_end+0xffffffffbcd45394>
    1294:	4e390000 	saddl2	v0.8h, v0.16b, v25.16b
    1298:	8f00000f 	.inst	0x8f00000f ; undefined
    129c:	00000401 	udf	#1025
    12a0:	02100000 	.inst	0x02100000 ; undefined
    12a4:	57703120 	.inst	0x57703120 ; undefined
    12a8:	0000000f 	udf	#15
    12ac:	000f6139 	.inst	0x000f6139 ; undefined
    12b0:	04019000 	.inst	0x04019000 ; undefined
    12b4:	00000000 	udf	#0
    12b8:	31050210 	adds	w16, w16, #0x140
    12bc:	000f6670 	.inst	0x000f6670 ; undefined
    12c0:	58011c00 	ldr	x0, 3640 <_binary_shell_bin_size-0x100d9c0>
    12c4:	00000f6f 	udf	#3951
    12c8:	61390000 	.inst	0x61390000 ; undefined
    12cc:	9100000f 	add	x15, x0, #0x0
    12d0:	00000401 	udf	#1025
    12d4:	02400000 	.inst	0x02400000 ; undefined
    12d8:	66703105 	.inst	0x66703105 ; undefined
    12dc:	3100000f 	adds	w15, w0, #0x0
    12e0:	000f6f04 	.inst	0x000f6f04 ; undefined
    12e4:	ce390000 	bcax	v0.16b, v0.16b, v25.16b, v0.16b
    12e8:	92000010 	and	x16, x0, #0x100000001
    12ec:	00000401 	udf	#1025
    12f0:	02430000 	.inst	0x02430000 ; undefined
    12f4:	02803114 	.inst	0x02803114 ; undefined
    12f8:	000010d7 	udf	#4311
    12fc:	06dc3900 	.inst	0x06dc3900 ; undefined
    1300:	01930000 	.inst	0x01930000 ; undefined
    1304:	00000040 	udf	#64
    1308:	15024700 	b	4092f08 <_binary_shell_bin_size+0x3081f08>
    130c:	06e40131 	.inst	0x06e40131 ; undefined
    1310:	560a0000 	.inst	0x560a0000 ; undefined
    1314:	000006ec 	udf	#1772
    1318:	06b10b00 	.inst	0x06b10b00 ; undefined
    131c:	01940000 	.inst	0x01940000 ; undefined
    1320:	0252010c 	.inst	0x0252010c ; undefined
    1324:	0b007410 	add	w16, w0, w0, lsl #29
    1328:	000006b1 	udf	#1713
    132c:	010c0195 	.inst	0x010c0195 ; undefined
    1330:	ac100352 	stnp	q18, q0, [x26, #512]
    1334:	b10b0004 	adds	x4, x0, #0x2c0
    1338:	96000006 	bl	fffffffff8001350 <__free_ram_end+0xffffffffb4dbd350>
    133c:	52010c01 	eor	w1, w0, #0x80000007
    1340:	04ae1003 	sqadd	z3.s, z0.s, z14.s
    1344:	06b10b00 	.inst	0x06b10b00 ; undefined
    1348:	01970000 	.inst	0x01970000 ; undefined
    134c:	0352010c 	.inst	0x0352010c ; undefined
    1350:	0004b010 	.inst	0x0004b010 ; undefined
    1354:	0006bc0b 	.inst	0x0006bc0b ; undefined
    1358:	0c019800 	.inst	0x0c019800 ; undefined
    135c:	10035201 	adr	x1, 7d9c <_binary_shell_bin_size-0x1009264>
    1360:	010c4080 	.inst	0x010c4080 ; undefined
    1364:	008f0251 	.inst	0x008f0251 ; undefined
    1368:	0250010c 	.inst	0x0250010c ; undefined
    136c:	27000083 	.inst	0x27000083 ; undefined
    1370:	000006b1 	udf	#1713
    1374:	b10b0193 	adds	x19, x12, #0x2c0
    1378:	99000006 	stlur	w6, [x0]
    137c:	52010c01 	eor	w1, w0, #0x80000007
    1380:	00741002 	.inst	0x00741002 ; undefined
    1384:	0006bc0b 	.inst	0x0006bc0b ; undefined
    1388:	0c019a00 	.inst	0x0c019a00 ; undefined
    138c:	10035201 	adr	x1, 7dcc <_binary_shell_bin_size-0x1009234>
    1390:	010c2080 	.inst	0x010c2080 ; undefined
    1394:	008f0251 	.inst	0x008f0251 ; undefined
    1398:	0250010c 	.inst	0x0250010c ; undefined
    139c:	00000083 	udf	#131
    13a0:	3c019b07 	.inst	0x3c019b07 ; undefined
    13a4:	01000000 	.inst	0x01000000 ; undefined
    13a8:	0013e66f 	.inst	0x0013e66f ; undefined
    13ac:	50011c00 	adr	x0, 372e <_binary_shell_bin_size-0x100d8d2>
    13b0:	000013eb 	udf	#5099
    13b4:	f451011c 	.inst	0xf451011c ; undefined
    13b8:	39000013 	strb	w19, [x0]
    13bc:	00000f61 	udf	#3937
    13c0:	0004019c 	.inst	0x0004019c ; undefined
    13c4:	50000000 	adr	x0, 13c6 <_binary_shell_bin_size-0x100fc3a>
    13c8:	50310502 	adr	x2, 6346a <_binary_shell_bin_size-0xfadb96>
    13cc:	00000f66 	udf	#3942
    13d0:	9d070000 	.inst	0x9d070000 ; undefined
    13d4:	00001801 	udf	#6145
    13d8:	fe6f0100 	.inst	0xfe6f0100 ; undefined
    13dc:	09000013 	.inst	0x09000013 ; undefined
    13e0:	00140757 	.inst	0x00140757 ; undefined
    13e4:	58430000 	ldr	x0, 873e4 <_binary_shell_bin_size-0xf89c1c>
    13e8:	42024c00 	.inst	0x42024c00 ; undefined
    13ec:	024c0054 	.inst	0x024c0054 ; undefined
    13f0:	00000373 	udf	#883
    13f4:	4c005942 	.inst	0x4c005942 ; undefined
    13f8:	00030c02 	.inst	0x00030c02 ; undefined
    13fc:	5a410000 	.inst	0x5a410000 ; undefined
    1400:	11025500 	add	w0, w8, #0x95
    1404:	42000014 	.inst	0x42000014 ; undefined
    1408:	02550054 	.inst	0x02550054 ; undefined
    140c:	00000373 	udf	#883
    1410:	030c0d00 	.inst	0x030c0d00 ; undefined
    1414:	015b0000 	.inst	0x015b0000 ; undefined
    1418:	019e3803 	.inst	0x019e3803 ; undefined
    141c:	00000168 	udf	#360
    1420:	006d6d01 	.inst	0x006d6d01 ; undefined
    1424:	583c025a 	ldr	x26, 7946c <_binary_shell_bin_size-0xf97b94>
    1428:	025a00b5 	.inst	0x025a00b5 ; undefined
    142c:	000004f5 	udf	#1269
    1430:	0032593c 	.inst	0x0032593c ; NYI
    1434:	03fa025a 	.inst	0x03fa025a ; undefined
    1438:	5a3c0000 	.inst	0x5a3c0000 ; undefined
    143c:	025a00b6 	.inst	0x025a00b6 ; undefined
    1440:	0000030c 	udf	#780
    1444:	00545b35 	.inst	0x00545b35 ; undefined
    1448:	03730268 	.inst	0x03730268 ; undefined
    144c:	e63d0000 	.inst	0xe63d0000 ; undefined
    1450:	11000013 	add	w19, w0, #0x0
    1454:	05027800 	orr	z0.d, z0.d, #0x2000000000000
    1458:	eb5b011c 	subs	x28, x8, x27, lsr #0
    145c:	09000013 	.inst	0x09000013 ; undefined
    1460:	0013f45c 	.inst	0x0013f45c ; undefined
    1464:	0f613900 	sqdmlal	v0.4s, v8.4h, v1.h[6]
    1468:	019f0000 	.inst	0x019f0000 ; undefined
    146c:	00000004 	udf	#4
    1470:	05025000 	orr	z0.d, z0.d, #0x40000000000000
    1474:	0f665031 	.inst	0x0f665031 ; undefined
    1478:	00000000 	udf	#0
    147c:	0013fe44 	.inst	0x0013fe44 ; undefined
    1480:	0401a000 	.inst	0x0401a000 ; undefined
    1484:	00000000 	udf	#0
    1488:	0b0c027b 	add	w27, w19, w12
    148c:	00000cd7 	udf	#3287
    1490:	010c01a1 	.inst	0x010c01a1 ; undefined
    1494:	80100352 	.inst	0x80100352 ; undefined
    1498:	51010c02 	sub	w2, w0, #0x43
    149c:	00008402 	udf	#33794
    14a0:	0006b128 	.inst	0x0006b128 ; undefined
    14a4:	4501a200 	.inst	0x4501a200 ; undefined
    14a8:	00000cd7 	udf	#3287
    14ac:	010c01a3 	.inst	0x010c01a3 ; undefined
    14b0:	80100352 	.inst	0x80100352 ; undefined
    14b4:	37000002 	tbnz	w2, #0, 14b4 <_binary_shell_bin_size-0x100fb4c>
    14b8:	2048005c 	.inst	0x2048005c ; undefined
    14bc:	af49005d 	.inst	0xaf49005d ; undefined
    14c0:	20000000 	.inst	0x20000000 ; undefined
    14c4:	af5d005e 	.inst	0xaf5d005e ; undefined
    14c8:	00000000 	udf	#0
    14cc:	e401a438 	st1b	{z24.d}, p1, [x1, z1.d]
    14d0:	01000000 	.inst	0x01000000 ; undefined
    14d4:	8d006e6d 	.inst	0x8d006e6d ; undefined
    14d8:	8f024602 	.inst	0x8f024602 ; undefined
    14dc:	bb00b500 	.inst	0xbb00b500 ; undefined
    14e0:	0016e502 	.inst	0x0016e502 ; undefined
    14e4:	14b73900 	b	2dcf8e4 <_binary_shell_bin_size+0x1dbe8e4>
    14e8:	01a50000 	.inst	0x01a50000 ; undefined
    14ec:	00000058 	udf	#88
    14f0:	05029b00 	orr	z0.d, z0.d, #0xffffe0000000003f
    14f4:	14bb5d0a 	b	2ed891c <_binary_shell_bin_size+0x1ec791c>
    14f8:	5e0a0000 	sha1c	q0, s0, v10.4s
    14fc:	000014c3 	udf	#5315
    1500:	06bc0b00 	.inst	0x06bc0b00 ; undefined
    1504:	01a50000 	.inst	0x01a50000 ; undefined
    1508:	0251010c 	.inst	0x0251010c ; undefined
    150c:	2700008f 	.inst	0x2700008f ; undefined
    1510:	0000067b 	udf	#1659
    1514:	b12701a6 	adds	x6, x13, #0x9c0
    1518:	a7000006 	.inst	0xa7000006 ; undefined
    151c:	06b12701 	.inst	0x06b12701 ; undefined
    1520:	01a80000 	.inst	0x01a80000 ; undefined
    1524:	0010e127 	.inst	0x0010e127 ; undefined
    1528:	0b01a900 	.inst	0x0b01a900 ; undefined
    152c:	00001419 	udf	#5145
    1530:	010c01aa 	.inst	0x010c01aa ; undefined
    1534:	008f0252 	.inst	0x008f0252 ; undefined
    1538:	0251010c 	.inst	0x0251010c ; undefined
    153c:	010c008f 	.inst	0x010c008f ; undefined
    1540:	008f0250 	.inst	0x008f0250 ; undefined
    1544:	06b10b00 	.inst	0x06b10b00 ; undefined
    1548:	01ab0000 	.inst	0x01ab0000 ; undefined
    154c:	0251010c 	.inst	0x0251010c ; undefined
    1550:	0b00008f 	add	w15, w4, w0
    1554:	0000158a 	udf	#5514
    1558:	010c01ac 	.inst	0x010c01ac ; undefined
    155c:	008f0250 	.inst	0x008f0250 ; undefined
    1560:	14190b00 	b	644160 <_binary_shell_bin_size-0x9ccea0>
    1564:	01ad0000 	.inst	0x01ad0000 ; undefined
    1568:	0152010c 	.inst	0x0152010c ; undefined
    156c:	51010c31 	sub	w17, w1, #0x43
    1570:	0c008f02 	.inst	0x0c008f02 ; undefined
    1574:	8f025001 	.inst	0x8f025001 ; undefined
    1578:	b10b0000 	adds	x0, x0, #0x2c0
    157c:	ae000006 	.inst	0xae000006 ; undefined
    1580:	52010c01 	eor	w1, w0, #0x80000007
    1584:	05c21003 	mov	z3.d, #0x4000000000000000
    1588:	5f2c0000 	.inst	0x5f2c0000 ; undefined
    158c:	159d1a01 	b	6747d90 <_binary_shell_bin_size+0x5736d90>
    1590:	9d2a0000 	.inst	0x9d2a0000 ; undefined
    1594:	2a000015 	orr	w21, w0, w0
    1598:	000005b6 	udf	#1462
    159c:	00451400 	.inst	0x00451400 ; undefined
    15a0:	af3a0000 	.inst	0xaf3a0000 ; undefined
    15a4:	00001801 	udf	#6145
    15a8:	6f6f0100 	mla	v0.8h, v8.8h, v15.h[2]
    15ac:	1402ca00 	b	b3dac <_binary_shell_bin_size-0xf5d254>
    15b0:	000015b4 	udf	#5556
    15b4:	0108ab11 	.inst	0x0108ab11 ; undefined
    15b8:	8a120902 	and	x2, x8, x18, lsl #2
    15bc:	000000af 	udf	#175
    15c0:	12000a02 	and	w2, w16, #0x7
    15c4:	0000af8b 	udf	#44939
    15c8:	080b0200 	stxrb	w11, w0, [x16]
    15cc:	00af8c12 	.inst	0x00af8c12 ; undefined
    15d0:	0c020000 	.inst	0x0c020000 ; undefined
    15d4:	af8d1210 	.inst	0xaf8d1210 ; undefined
    15d8:	02000000 	.inst	0x02000000 ; undefined
    15dc:	8e12180d 	.inst	0x8e12180d ; undefined
    15e0:	000000af 	udf	#175
    15e4:	12200e02 	and	w2, w16, #0xf
    15e8:	0000af8f 	udf	#44943
    15ec:	280f0200 	stnp	w0, w0, [x16, #120]
    15f0:	00af9012 	.inst	0x00af9012 ; undefined
    15f4:	10020000 	adr	x0, 55f4 <_binary_shell_bin_size-0x100ba0c>
    15f8:	af911230 	.inst	0xaf911230 ; undefined
    15fc:	02000000 	.inst	0x02000000 ; undefined
    1600:	92123811 	and	x17, x0, #0x1fffc0001fffc000
    1604:	000000af 	udf	#175
    1608:	12401202 	.inst	0x12401202 ; undefined
    160c:	0000af93 	udf	#44947
    1610:	48130200 	stxrh	w19, w0, [x16]
    1614:	00af9412 	.inst	0x00af9412 ; undefined
    1618:	14020000 	b	81618 <_binary_shell_bin_size-0xf8f9e8>
    161c:	af951250 	.inst	0xaf951250 ; undefined
    1620:	02000000 	.inst	0x02000000 ; undefined
    1624:	96125815 	bl	fffffffff8497678 <__free_ram_end+0xffffffffb5253678>
    1628:	000000af 	udf	#175
    162c:	12601602 	.inst	0x12601602 ; undefined
    1630:	0000af97 	udf	#44951
    1634:	68170200 	.inst	0x68170200 ; undefined
    1638:	00af9812 	.inst	0x00af9812 ; undefined
    163c:	18020000 	ldr	w0, 563c <_binary_shell_bin_size-0x100b9c4>
    1640:	af991270 	.inst	0xaf991270 ; undefined
    1644:	02000000 	.inst	0x02000000 ; undefined
    1648:	9a127819 	.inst	0x9a127819 ; undefined
    164c:	000000af 	udf	#175
    1650:	12801a02 	mov	w2, #0xffffff2f            	// #-209
    1654:	0000af9b 	udf	#44955
    1658:	881b0200 	stxr	w27, w0, [x16]
    165c:	00af9c12 	.inst	0x00af9c12 ; undefined
    1660:	1c020000 	ldr	s0, 5660 <_binary_shell_bin_size-0x100b9a0>
    1664:	af9d1290 	.inst	0xaf9d1290 ; undefined
    1668:	02000000 	.inst	0x02000000 ; undefined
    166c:	9e12981d 	.inst	0x9e12981d ; undefined
    1670:	000000af 	udf	#175
    1674:	12a01e02 	mov	w2, #0xff0fffff            	// #-15728641
    1678:	0000af9f 	udf	#44959
    167c:	a81f0200 	stnp	x0, x0, [x16, #496]
    1680:	00afa012 	.inst	0x00afa012 ; undefined
    1684:	20020000 	.inst	0x20020000 ; undefined
    1688:	afa112b0 	.inst	0xafa112b0 ; undefined
    168c:	02000000 	.inst	0x02000000 ; undefined
    1690:	a212b821 	.inst	0xa212b821 ; undefined
    1694:	000000af 	udf	#175
    1698:	12c02202 	.inst	0x12c02202 ; undefined
    169c:	0000afa3 	udf	#44963
    16a0:	c8230200 	stxp	w3, x0, x0, [x16]
    16a4:	00afa412 	.inst	0x00afa412 ; undefined
    16a8:	24020000 	cmphs	p0.b, p0/z, z0.b, z2.b
    16ac:	afa512d0 	.inst	0xafa512d0 ; undefined
    16b0:	02000000 	.inst	0x02000000 ; undefined
    16b4:	a612d825 	.inst	0xa612d825 ; undefined
    16b8:	000000af 	udf	#175
    16bc:	12e02602 	.inst	0x12e02602 ; undefined
    16c0:	0000afa7 	udf	#44967
    16c4:	e8270200 	.inst	0xe8270200 ; undefined
    16c8:	00afa812 	.inst	0x00afa812 ; undefined
    16cc:	28020000 	stnp	w0, w0, [x0, #16]
    16d0:	afa912f0 	.inst	0xafa912f0 ; undefined
    16d4:	02000000 	.inst	0x02000000 ; undefined
    16d8:	aa17f829 	orr	x9, x1, x23, lsl #62
    16dc:	000000af 	udf	#175
    16e0:	01002a02 	.inst	0x01002a02 ; undefined
    16e4:	00450300 	.inst	0x00450300 ; undefined
    16e8:	49150000 	.inst	0x49150000 ; undefined
    16ec:	00000000 	udf	#0
    16f0:	56000001 	.inst	0x56000001 ; undefined
    16f4:	05000002 	orr	z2.s, z2.s, #0x1
    16f8:	b7080100 	tbnz	x0, #33, 1718 <_binary_shell_bin_size-0x100f8e8>
    16fc:	01000003 	.inst	0x01000003 ; undefined
    1700:	01001d00 	.inst	0x01001d00 ; undefined
    1704:	000002ec 	udf	#748
    1708:	000008c1 	udf	#2241
    170c:	04040102 	.inst	0x04040102 ; undefined
    1710:	05900000 	mov	z0.s, p0/z, #0
    1714:	01840000 	.inst	0x01840000 ; undefined
    1718:	09ce0000 	.inst	0x09ce0000 ; undefined
    171c:	35020000 	cbnz	w0, 571c <_binary_shell_bin_size-0x100b8e4>
    1720:	00000000 	udf	#0
    1724:	00a1025c 	.inst	0x00a1025c ; undefined
    1728:	00004103 	udf	#16643
    172c:	00450400 	.inst	0x00450400 ; undefined
    1730:	00110000 	.inst	0x00110000 ; undefined
    1734:	01080305 	.inst	0x01080305 ; undefined
    1738:	07080406 	.inst	0x07080406 ; undefined
    173c:	00004e07 	udf	#19975
    1740:	00560800 	.inst	0x00560800 ; undefined
    1744:	01060000 	.inst	0x01060000 ; undefined
    1748:	08050504 	stxrb	w5, w4, [x8]
    174c:	005f0701 	.inst	0x005f0701 ; undefined
    1750:	4e090000 	tbl	v0.16b, {v0.16b}, v9.16b
    1754:	07000000 	.inst	0x07000000 ; undefined
    1758:	00000056 	udf	#86
    175c:	00c8010a 	.inst	0x00c8010a ; undefined
    1760:	6f010000 	.inst	0x6f010000 ; undefined
    1764:	f0050008 	adrp	x8, a004000 <_binary_shell_bin_size+0x8ff3000>
    1768:	0b000001 	add	w1, w0, w0
    176c:	000e5001 	.inst	0x000e5001 ; undefined
    1770:	0001f005 	.inst	0x0001f005 ; undefined
    1774:	51010b00 	sub	w0, w24, #0x42
    1778:	fa05000f 	sbcs	x15, x0, x5
    177c:	0c000001 	st4	{v1.8b-v4.8b}, [x0]
    1780:	05001202 	orr	z2.s, z2.s, #0xc0007fff
    1784:	00000200 	udf	#512
    1788:	0010000d 	.inst	0x0010000d ; undefined
    178c:	00004906 	udf	#18694
    1790:	11010d00 	add	w0, w8, #0x43
    1794:	005a0700 	.inst	0x005a0700 ; undefined
    1798:	0a000000 	and	w0, w0, w0
    179c:	0000a002 	udf	#40962
    17a0:	096f0100 	.inst	0x096f0100 ; undefined
    17a4:	01f00d00 	.inst	0x01f00d00 ; undefined
    17a8:	010b0000 	.inst	0x010b0000 ; undefined
    17ac:	0d001650 	st1	{v16.b}[5], [x18]
    17b0:	000001f0 	udf	#496
    17b4:	1751010b 	b	fffffffffd441be0 <__free_ram_end+0xffffffffba1fdbe0>
    17b8:	00410d00 	.inst	0x00410d00 ; undefined
    17bc:	040c0000 	sabd	z0.b, p0/m, z0.b, z0.b
    17c0:	000d0012 	.inst	0x000d0012 ; undefined
    17c4:	0d000002 	st1	{v2.b}[0], [x0]
    17c8:	0e001803 	uzp1	v3.8b, v0.8b, v0.8b
    17cc:	00000049 	udf	#73
    17d0:	28030a00 	stnp	w0, w2, [x16, #24]
    17d4:	01000000 	.inst	0x01000000 ; undefined
    17d8:	14000a6f 	b	4194 <_binary_shell_bin_size-0x100ce6c>
    17dc:	000001f1 	udf	#497
    17e0:	0e50010b 	.inst	0x0e50010b ; undefined
    17e4:	01f11400 	.inst	0x01f11400 ; undefined
    17e8:	050c0000 	.inst	0x050c0000 ; undefined
    17ec:	1414000f 	b	501828 <_binary_shell_bin_size-0xb0f7d8>
    17f0:	0d000002 	st1	{v2.b}[0], [x0]
    17f4:	15001006 	b	400580c <_binary_shell_bin_size+0x2ff480c>
    17f8:	000001f1 	udf	#497
    17fc:	30040a00 	adr	x0, 993d <_binary_shell_bin_size-0x10076c3>
    1800:	01000000 	.inst	0x01000000 ; undefined
    1804:	1c000b6f 	ldr	s15, 1970 <_binary_shell_bin_size-0x100f690>
    1808:	000001f6 	udf	#502
    180c:	0019070c 	.inst	0x0019070c ; undefined
    1810:	0002141c 	.inst	0x0002141c ; undefined
    1814:	51010b00 	sub	w0, w24, #0x42
    1818:	141c001a 	b	701880 <_binary_shell_bin_size-0x90f780>
    181c:	00000002 	udf	#2
    1820:	0244050e 	.inst	0x0244050e ; undefined
    1824:	6d010000 	stp	d0, d0, [x0, #16]
    1828:	0c27000d 	.inst	0x0c27000d ; undefined
    182c:	27002308 	.inst	0x27002308 ; undefined
    1830:	00000214 	udf	#532
    1834:	6091020f 	.inst	0x6091020f ; undefined
    1838:	1e28001b 	fcvtps	w27, s0
    183c:	10000002 	adr	x2, 183c <_binary_shell_bin_size-0x100f7c4>
    1840:	0c6a002a 	.inst	0x0c6a002a ; undefined
    1844:	090d0011 	.inst	0x090d0011 ; undefined
    1848:	103f0024 	adr	x4, 7f84c <_binary_shell_bin_size-0xf917b4>
    184c:	0d000002 	st1	{v2.b}[0], [x0]
    1850:	3e00250a 	.inst	0x3e00250a ; undefined
    1854:	000001f6 	udf	#502
    1858:	00260b0d 	.inst	0x00260b0d ; NYI
    185c:	00021045 	.inst	0x00021045 ; undefined
    1860:	01110000 	.inst	0x01110000 ; undefined
    1864:	00280e0d 	.inst	0x00280e0d ; NYI
    1868:	0001f658 	.inst	0x0001f658 ; undefined
    186c:	250f0d00 	cmpge	p0.b, p3/z, z8.b, #15
    1870:	02555700 	.inst	0x02555700 ; undefined
    1874:	06120000 	.inst	0x06120000 ; undefined
    1878:	00000024 	udf	#36
    187c:	00270d0d 	.inst	0x00270d0d ; NYI
    1880:	0001f659 	.inst	0x0001f659 ; undefined
    1884:	13021100 	sbfx	w0, w8, #2, #3
    1888:	105a002b 	adr	x11, b588c <_binary_shell_bin_size-0xf5b774>
    188c:	00000002 	udf	#2
    1890:	03110000 	.inst	0x03110000 ; undefined
    1894:	00110c0d 	.inst	0x00110c0d ; undefined
    1898:	00021436 	.inst	0x00021436 ; undefined
    189c:	15140000 	b	450189c <_binary_shell_bin_size+0x34f089c>
    18a0:	000001e6 	udf	#486
    18a4:	01e61607 	.inst	0x01e61607 ; undefined
    18a8:	17080000 	b	fffffffffc2018a8 <__free_ram_end+0xffffffffb8fbd8a8>
    18ac:	10025001 	adr	x1, 62ac <_binary_shell_bin_size-0x100ad54>
    18b0:	e616002d 	.inst	0xe616002d ; undefined
    18b4:	09000001 	.inst	0x09000001 ; undefined
    18b8:	02500117 	.inst	0x02500117 ; undefined
    18bc:	15003088 	b	400dadc <_binary_shell_bin_size+0x2ffcadc>
    18c0:	000001e6 	udf	#486
    18c4:	01e6150a 	.inst	0x01e6150a ; undefined
    18c8:	160b0000 	b	fffffffff82c18c8 <__free_ram_end+0xffffffffb507d8c8>
    18cc:	000001e6 	udf	#486
    18d0:	5001170c 	adr	x12, 3bb2 <_binary_shell_bin_size-0x100d44e>
    18d4:	00251002 	.inst	0x00251002 ; NYI
    18d8:	00071800 	.inst	0x00071800 ; undefined
    18dc:	00411903 	.inst	0x00411903 ; undefined
    18e0:	1a000000 	adc	w0, w0, w0
    18e4:	00004107 	udf	#16647
    18e8:	050c0500 	.inst	0x050c0500 ; undefined
    18ec:	01ff0704 	.inst	0x01ff0704 ; undefined
    18f0:	081b0000 	stxrb	w27, w0, [x0]
    18f4:	00000208 	udf	#520
    18f8:	08080115 	stxrb	w8, w21, [x8]
    18fc:	00000210 	udf	#528
    1900:	05060114 	.inst	0x05060114 ; undefined
    1904:	07040713 	.inst	0x07040713 ; undefined
    1908:	00000219 	udf	#537
    190c:	00004109 	udf	#16649
    1910:	02241c00 	.inst	0x02241c00 ; undefined
    1914:	1d220000 	.inst	0x1d220000 ; undefined
    1918:	1c1e2021 	ldr	s1, 3dd1c <_binary_shell_bin_size-0xfd32e4>
    191c:	000001f0 	udf	#496
    1920:	1e002800 	.inst	0x1e002800 ; undefined
    1924:	0001f01d 	.inst	0x0001f01d ; undefined
    1928:	08280000 	.inst	0x08280000 ; undefined
    192c:	01f01e1e 	.inst	0x01f01e1e ; undefined
    1930:	28000000 	stnp	w0, w0, [x0]
    1934:	f61f1e10 	.inst	0xf61f1e10 ; undefined
    1938:	00000001 	udf	#1
    193c:	201e1828 	.inst	0x201e1828 ; undefined
    1940:	000001f6 	udf	#502
    1944:	001c2800 	.inst	0x001c2800 ; undefined
    1948:	08072905 	stxrb	w7, w5, [x8]
    194c:	00017b00 	.inst	0x00017b00 ; undefined
    1950:	01000500 	.inst	0x01000500 ; undefined
    1954:	00051b08 	.inst	0x00051b08 ; undefined
    1958:	0ac90100 	and	w0, w8, w9, ror #0
    195c:	15cc0000 	b	730195c <_binary_shell_bin_size+0x62f095c>
    1960:	00004020 	udf	#16416
    1964:	16b80000 	b	fffffffffae01964 <__free_ram_end+0xffffffffb7bbd964>
    1968:	00004020 	udf	#16416
    196c:	65760000 	fmla	z0.h, p0/m, z0.h, z22.h
    1970:	732e7463 	.inst	0x732e7463 ; undefined
    1974:	6f682f00 	.inst	0x6f682f00 ; undefined
    1978:	722f656d 	ands	w13, w11, #0xfffe07ff
    197c:	7469686f 	.inst	0x7469686f ; undefined
    1980:	75662f68 	.inst	0x75662f68 ; undefined
    1984:	694d2f6e 	ldpsw	x14, x11, [x27, #104]
    1988:	4f2d696e 	.inst	0x4f2d696e ; undefined
    198c:	65642d53 	fmls	z19.h, p3/m, z10.h, z4.h
    1990:	62550076 	.inst	0x62550076 ; undefined
    1994:	75746e75 	.inst	0x75746e75 ; undefined
    1998:	616c6320 	.inst	0x616c6320 ; undefined
    199c:	7620676e 	.inst	0x7620676e ; undefined
    19a0:	69737265 	ldpsw	x5, x28, [x19, #-104]
    19a4:	31206e6f 	adds	w15, w19, #0x81b
    19a8:	2e312e38 	uqsub	v24.8b, v17.8b, v17.8b
    19ac:	31282033 	adds	w19, w1, #0xa08
    19b0:	6e756275 	rsubhn2	v21.8h, v19.4s, v21.4s
    19b4:	29317574 	stp	w20, w29, [x11, #-120]
    19b8:	02800100 	.inst	0x02800100 ; undefined
    19bc:	636e7973 	.inst	0x636e7973 ; undefined
    19c0:	316c655f 	cmn	w10, #0xb19, lsl #12
    19c4:	6e61685f 	fcvtxn2	v31.4s, v2.2d
    19c8:	72656c64 	.inst	0x72656c64 ; undefined
    19cc:	00000000 	udf	#0
    19d0:	00000200 	udf	#512
    19d4:	2015cc00 	.inst	0x2015cc00 ; undefined
    19d8:	00000040 	udf	#64
    19dc:	72690200 	.inst	0x72690200 ; undefined
    19e0:	6c655f71 	ldnp	d17, d23, [x27, #-432]
    19e4:	61685f31 	.inst	0x61685f31 ; undefined
    19e8:	656c646e 	fnmls	z14.h, p1/m, z3.h, z12.h
    19ec:	00000072 	udf	#114
    19f0:	003d0000 	.inst	0x003d0000 ; NYI
    19f4:	16800000 	b	fffffffffa0019f4 <__free_ram_end+0xffffffffb6dbd9f4>
    19f8:	00004020 	udf	#16416
    19fc:	66020000 	.inst	0x66020000 ; undefined
    1a00:	655f7169 	fcmeq	p9.h, p4/z, z11.h, z31.h
    1a04:	685f316c 	.inst	0x685f316c ; undefined
    1a08:	6c646e61 	ldnp	d1, d27, [x19, #-448]
    1a0c:	00007265 	udf	#29285
    1a10:	42000000 	.inst	0x42000000 ; undefined
    1a14:	88000000 	stxr	w0, w0, [x0]
    1a18:	00402016 	.inst	0x00402016 ; undefined
    1a1c:	02000000 	.inst	0x02000000 ; undefined
    1a20:	72726573 	.inst	0x72726573 ; undefined
    1a24:	655f726f 	fcmeq	p15.h, p4/z, z19.h, z31.h
    1a28:	685f316c 	.inst	0x685f316c ; undefined
    1a2c:	6c646e61 	ldnp	d1, d27, [x19, #-448]
    1a30:	00007265 	udf	#29285
    1a34:	47000000 	.inst	0x47000000 ; undefined
    1a38:	90000000 	adrp	x0, 1000 <_binary_shell_bin_size-0x1010000>
    1a3c:	00402016 	.inst	0x00402016 ; undefined
    1a40:	02000000 	.inst	0x02000000 ; undefined
    1a44:	636e7973 	.inst	0x636e7973 ; undefined
    1a48:	326c655f 	.inst	0x326c655f ; undefined
    1a4c:	6e61685f 	fcvtxn2	v31.4s, v2.2d
    1a50:	72656c64 	.inst	0x72656c64 ; undefined
    1a54:	00000000 	udf	#0
    1a58:	00004c00 	udf	#19456
    1a5c:	20169800 	.inst	0x20169800 ; undefined
    1a60:	00000040 	udf	#64
    1a64:	72690200 	.inst	0x72690200 ; undefined
    1a68:	6c655f71 	ldnp	d17, d23, [x27, #-432]
    1a6c:	61685f32 	.inst	0x61685f32 ; undefined
    1a70:	656c646e 	fnmls	z14.h, p1/m, z3.h, z12.h
    1a74:	00000072 	udf	#114
    1a78:	00510000 	.inst	0x00510000 ; undefined
    1a7c:	16a00000 	b	fffffffffa801a7c <__free_ram_end+0xffffffffb75bda7c>
    1a80:	00004020 	udf	#16416
    1a84:	66020000 	.inst	0x66020000 ; undefined
    1a88:	655f7169 	fcmeq	p9.h, p4/z, z11.h, z31.h
    1a8c:	685f326c 	.inst	0x685f326c ; undefined
    1a90:	6c646e61 	ldnp	d1, d27, [x19, #-448]
    1a94:	00007265 	udf	#29285
    1a98:	56000000 	.inst	0x56000000 ; undefined
    1a9c:	a8000000 	stnp	x0, x0, [x0]
    1aa0:	00402016 	.inst	0x00402016 ; undefined
    1aa4:	02000000 	.inst	0x02000000 ; undefined
    1aa8:	72726573 	.inst	0x72726573 ; undefined
    1aac:	655f726f 	fcmeq	p15.h, p4/z, z19.h, z31.h
    1ab0:	685f326c 	.inst	0x685f326c ; undefined
    1ab4:	6c646e61 	ldnp	d1, d27, [x19, #-448]
    1ab8:	00007265 	udf	#29285
    1abc:	5b000000 	.inst	0x5b000000 ; undefined
    1ac0:	b0000000 	adrp	x0, 2000 <_binary_shell_bin_size-0x100f000>
    1ac4:	00402016 	.inst	0x00402016 ; undefined
    1ac8:	00000000 	udf	#0
    1acc:	00000091 	udf	#145
    1ad0:	08010005 	stxrb	w1, w5, [x0]
    1ad4:	0000053c 	udf	#1340
    1ad8:	000b5901 	.inst	0x000b5901 ; undefined
    1adc:	20180000 	.inst	0x20180000 ; undefined
    1ae0:	00000040 	udf	#64
    1ae4:	201f8400 	.inst	0x201f8400 ; undefined
    1ae8:	00000040 	udf	#64
    1aec:	63657600 	.inst	0x63657600 ; undefined
    1af0:	5f726f74 	.inst	0x5f726f74 ; undefined
    1af4:	6c626174 	ldnp	d20, d24, [x11, #-480]
    1af8:	00732e65 	.inst	0x00732e65 ; undefined
    1afc:	6d6f682f 	ldp	d15, d26, [x1, #-272]
    1b00:	6f722f65 	.inst	0x6f722f65 ; undefined
    1b04:	68746968 	.inst	0x68746968 ; undefined
    1b08:	6e75662f 	umax	v15.8h, v17.8h, v21.8h
    1b0c:	6e694d2f 	uqshl	v15.8h, v9.8h, v9.8h
    1b10:	534f2d69 	.inst	0x534f2d69 ; undefined
    1b14:	7665642d 	.inst	0x7665642d ; undefined
    1b18:	75625500 	.inst	0x75625500 ; undefined
    1b1c:	2075746e 	.inst	0x2075746e ; undefined
    1b20:	6e616c63 	umin	v3.8h, v3.8h, v1.8h
    1b24:	65762067 	fmls	z7.h, p0/m, z3.h, z22.h
    1b28:	6f697372 	fcmla	v18.8h, v27.8h, v9.h[1], #270
    1b2c:	3831206e 	ldeorb	w17, w14, [x3]
    1b30:	332e312e 	.inst	0x332e312e ; undefined
    1b34:	75312820 	.inst	0x75312820 ; undefined
    1b38:	746e7562 	.inst	0x746e7562 ; undefined
    1b3c:	00293175 	.inst	0x00293175 ; NYI
    1b40:	76028001 	.inst	0x76028001 ; undefined
    1b44:	6f746365 	umlsl2	v5.4s, v27.8h, v4.h[3]
    1b48:	61745f72 	.inst	0x61745f72 ; undefined
    1b4c:	00656c62 	.inst	0x00656c62 ; undefined
    1b50:	00000000 	udf	#0
    1b54:	00000004 	udf	#4
    1b58:	40201800 	.inst	0x40201800 ; undefined
    1b5c:	00000000 	udf	#0
    1b60:	0001c500 	.inst	0x0001c500 ; undefined
    1b64:	01000500 	.inst	0x01000500 ; undefined
    1b68:	00055d08 	.inst	0x00055d08 ; undefined
    1b6c:	1d000100 	.inst	0x1d000100 ; undefined
    1b70:	03a40100 	.inst	0x03a40100 ; undefined
    1b74:	0beb0000 	.inst	0x0beb0000 ; undefined
    1b78:	08020000 	stxrb	w2, w0, [x0]
    1b7c:	000000b4 	udf	#180
    1b80:	00000600 	udf	#1536
    1b84:	00000b6a 	udf	#2922
    1b88:	00003102 	udf	#12546
    1b8c:	020f0000 	.inst	0x020f0000 ; undefined
    1b90:	3d0300a1 	str	b1, [x5, #192]
    1b94:	04000000 	add	z0.b, p0/m, z0.b, z0.b
    1b98:	00000041 	udf	#65
    1b9c:	03050017 	.inst	0x03050017 ; undefined
    1ba0:	04060108 	.inst	0x04060108 ; undefined
    1ba4:	4f020708 	movi	v8.4s, #0x58
    1ba8:	00000000 	udf	#0
    1bac:	01a10210 	.inst	0x01a10210 ; undefined
    1bb0:	00003d03 	udf	#15619
    1bb4:	00410400 	.inst	0x00410400 ; undefined
    1bb8:	000f0000 	.inst	0x000f0000 ; undefined
    1bbc:	00004f02 	udf	#20226
    1bc0:	02110000 	.inst	0x02110000 ; undefined
    1bc4:	6f0202a1 	.inst	0x6f0202a1 ; undefined
    1bc8:	00000000 	udf	#0
    1bcc:	03a10212 	.inst	0x03a10212 ; undefined
    1bd0:	00003d03 	udf	#15619
    1bd4:	00410400 	.inst	0x00410400 ; undefined
    1bd8:	000a0000 	.inst	0x000a0000 ; undefined
    1bdc:	00008502 	udf	#34050
    1be0:	02130000 	.inst	0x02130000 ; undefined
    1be4:	3d0304a1 	str	b1, [x5, #193]
    1be8:	04000000 	add	z0.b, p0/m, z0.b, z0.b
    1bec:	00000041 	udf	#65
    1bf0:	9b02000c 	madd	x12, x0, x2, x0
    1bf4:	00000000 	udf	#0
    1bf8:	05a10214 	zip1	z20.q, z16.q, z1.q
    1bfc:	00003d03 	udf	#15619
    1c00:	00410400 	.inst	0x00410400 ; undefined
    1c04:	000b0000 	.inst	0x000b0000 ; undefined
    1c08:	0000b102 	udf	#45314
    1c0c:	02150000 	.inst	0x02150000 ; undefined
    1c10:	3d0306a1 	str	b1, [x21, #193]
    1c14:	04000000 	add	z0.b, p0/m, z0.b, z0.b
    1c18:	00000041 	udf	#65
    1c1c:	c7020024 	.inst	0xc7020024 ; undefined
    1c20:	00000000 	udf	#0
    1c24:	07a10215 	.inst	0x07a10215 ; undefined
    1c28:	00003d03 	udf	#15619
    1c2c:	00410400 	.inst	0x00410400 ; undefined
    1c30:	00070000 	.inst	0x00070000 ; undefined
    1c34:	00940807 	.inst	0x00940807 ; undefined
    1c38:	6d010000 	stp	d0, d0, [x0, #16]
    1c3c:	08040006 	stxrb	w4, w6, [x0]
    1c40:	04000f00 	add	z0.b, p3/m, z0.b, z24.b
    1c44:	000001bc 	udf	#444
    1c48:	00120108 	.inst	0x00120108 ; undefined
    1c4c:	0001bc04 	.inst	0x0001bc04 ; undefined
    1c50:	13020900 	sbfx	w0, w8, #2, #1
    1c54:	01bc0700 	.inst	0x01bc0700 ; undefined
    1c58:	140a0000 	b	281c58 <_binary_shell_bin_size-0xd8f3a8>
    1c5c:	01bc0a00 	.inst	0x01bc0a00 ; undefined
    1c60:	150a0000 	b	4281c60 <_binary_shell_bin_size+0x3270c60>
    1c64:	01bc0d00 	.inst	0x01bc0d00 ; undefined
    1c68:	4f0b0000 	.inst	0x4f0b0000 ; undefined
    1c6c:	09000001 	.inst	0x09000001 ; undefined
    1c70:	00014f0c 	.inst	0x00014f0c ; undefined
    1c74:	010d0a00 	.inst	0x010d0a00 ; undefined
    1c78:	00830251 	.inst	0x00830251 ; undefined
    1c7c:	014f0c00 	.inst	0x014f0c00 ; undefined
    1c80:	0d0b0000 	.inst	0x0d0b0000 ; undefined
    1c84:	85025101 	ld1w	{z1.s}, p4/z, [x8, z2.s, uxtw]
    1c88:	4f0c0000 	.inst	0x4f0c0000 ; undefined
    1c8c:	0c000001 	st4	{v1.8b-v4.8b}, [x0]
    1c90:	0251010d 	.inst	0x0251010d ; undefined
    1c94:	0b000084 	add	w4, w4, w0
    1c98:	0000014f 	udf	#335
    1c9c:	014f0b0d 	.inst	0x014f0b0d ; undefined
    1ca0:	0c0e0000 	.inst	0x0c0e0000 ; undefined
    1ca4:	0000014f 	udf	#335
    1ca8:	52010d0f 	eor	w15, w8, #0x80000007
    1cac:	00004501 	udf	#17665
    1cb0:	1c01050e 	ldr	s14, 3d50 <_binary_shell_bin_size-0x100d2b0>
    1cb4:	00015a0f 	.inst	0x00015a0f ; undefined
    1cb8:	11001000 	add	w0, w0, #0x4
    1cbc:	0000015f 	udf	#351
    1cc0:	00003d12 	udf	#15634
    1cc4:	04101300 	mul	z0.b, p4/m, z0.b, z24.b
    1cc8:	01000000 	.inst	0x01000000 ; undefined
    1ccc:	1900076f 	cpyfp	[x15]!, [x0]!, x27!
    1cd0:	00041113 	.inst	0x00041113 ; undefined
    1cd4:	6f010000 	.inst	0x6f010000 ; undefined
    1cd8:	131f0008 	sbfiz	w8, w0, #1, #1
    1cdc:	00000412 	udf	#1042
    1ce0:	096f0100 	.inst	0x096f0100 ; undefined
    1ce4:	13132500 	sbfiz	w0, w8, #13, #10
    1ce8:	00000004 	udf	#4
    1cec:	000a6f01 	.inst	0x000a6f01 ; undefined
    1cf0:	0414132b 	.inst	0x0414132b ; undefined
    1cf4:	01000000 	.inst	0x01000000 ; undefined
    1cf8:	32000b6f 	orr	w15, w27, #0x7
    1cfc:	00041513 	.inst	0x00041513 ; undefined
    1d00:	6f010000 	.inst	0x6f010000 ; undefined
    1d04:	1338000c 	.inst	0x1338000c ; undefined
    1d08:	00000416 	udf	#1046
    1d0c:	0d6f0100 	.inst	0x0d6f0100 ; undefined
    1d10:	17133e00 	b	fffffffffc4d1510 <__free_ram_end+0xffffffffb928d510>
    1d14:	00000004 	udf	#4
    1d18:	000e6f01 	.inst	0x000e6f01 ; undefined
    1d1c:	01c41444 	.inst	0x01c41444 ; undefined
    1d20:	01110000 	.inst	0x01110000 ; undefined
    1d24:	07100507 	.inst	0x07100507 ; undefined
    1d28:	Address 0x1d28 is out of bounds.


Disassembly of section .debug_rnglists:

0000000000000000 <.debug_rnglists>:
   0:	00000174 	udf	#372
   4:	00080005 	.inst	0x00080005 ; undefined
   8:	00000013 	udf	#19
   c:	0000004c 	udf	#76
  10:	00000059 	udf	#89
  14:	00000066 	udf	#102
  18:	00000073 	udf	#115
  1c:	00000080 	udf	#128
  20:	0000008d 	udf	#141
  24:	0000009a 	udf	#154
  28:	000000b6 	udf	#182
  2c:	000000c3 	udf	#195
  30:	000000d0 	udf	#208
  34:	000000dd 	udf	#221
  38:	000000ea 	udf	#234
  3c:	000000f7 	udf	#247
  40:	00000104 	udf	#260
  44:	00000111 	udf	#273
  48:	0000011e 	udf	#286
  4c:	0000013f 	udf	#319
  50:	00000151 	udf	#337
  54:	00000163 	udf	#355
  58:	d4042701 	svc	#0x2138
  5c:	0405a004 	.inst	0x0405a004 ; undefined
  60:	05d005a8 	mov	z8.d, p0/z, #45
  64:	04270100 	add	z0.b, z8.b, z7.b
  68:	05a004d4 	zip2	z20.q, z6.q, z0.q
  6c:	ac05a804 	stnp	q4, q10, [x0, #176]
  70:	27010005 	.inst	0x27010005 ; undefined
  74:	b405e804 	cbz	x4, bd74 <_binary_shell_bin_size-0x100528c>
  78:	06bc0406 	.inst	0x06bc0406 ; undefined
  7c:	010006e4 	.inst	0x010006e4 ; undefined
  80:	05e80427 	.inst	0x05e80427 ; undefined
  84:	bc0406b4 	str	s20, [x21], #64
  88:	0006c006 	.inst	0x0006c006 ; undefined
  8c:	b8042701 	str	w1, [x24], #66
  90:	0408e408 	msb	z8.b, p1/m, z8.b, z0.b
  94:	0cbc08ec 	.inst	0x0cbc08ec ; undefined
  98:	04270100 	add	z0.b, z8.b, z7.b
  9c:	08e408b8 	.inst	0x08e408b8 ; undefined
  a0:	bc08ec04 	str	s4, [x0, #142]!
  a4:	2701000c 	.inst	0x2701000c ; undefined
  a8:	9c109804 	ldr	q4, 213a8 <_binary_shell_bin_size-0xfefc58>
  ac:	10a00410 	adr	x16, fffffffffff4012c <__free_ram_end+0xffffffffbccfc12c>
  b0:	ac0410a4 	stnp	q4, q4, [x5, #128]
  b4:	0410b410 	.inst	0x0410b410 ; undefined
  b8:	10c010b8 	adr	x24, fffffffffff802cc <__free_ram_end+0xffffffffbcd3c2cc>
  bc:	8c10d804 	.inst	0x8c10d804 ; undefined
  c0:	27010011 	.inst	0x27010011 ; undefined
  c4:	f8128404 	str	x4, [x0], #-216
  c8:	15800412 	b	6001110 <_binary_shell_bin_size+0x4ff0110>
  cc:	0100159c 	.inst	0x0100159c ; undefined
  d0:	12940427 	mov	w7, #0xffff5fde            	// #-40994
  d4:	800412e8 	.inst	0x800412e8 ; undefined
  d8:	00159c15 	.inst	0x00159c15 ; undefined
  dc:	94042701 	bl	109ce0 <_binary_shell_bin_size-0xf07320>
  e0:	0412b812 	.inst	0x0412b812 ; undefined
  e4:	159c1580 	b	67056e4 <_binary_shell_bin_size+0x56f46e4>
  e8:	04270100 	add	z0.b, z8.b, z7.b
  ec:	13b812f8 	.inst	0x13b812f8 ; undefined
  f0:	c013bc04 	.inst	0xc013bc04 ; undefined
  f4:	27010013 	.inst	0x27010013 ; undefined
  f8:	a413e004 	.inst	0xa413e004 ; undefined
  fc:	159c0414 	b	670114c <_binary_shell_bin_size+0x56f014c>
 100:	010015b8 	.inst	0x010015b8 ; undefined
 104:	13e00427 	.inst	0x13e00427 ; undefined
 108:	9c041498 	ldr	q24, 8398 <_binary_shell_bin_size-0x1008c68>
 10c:	0015b815 	.inst	0x0015b815 ; undefined
 110:	e0042701 	ld1b	{za0h.b[w13, 1]}, p1/z, [x24, x4]
 114:	04148413 	asrr	z19.b, p1/m, z19.b, z0.b
 118:	15b8159c 	b	6e05788 <_binary_shell_bin_size+0x5df4788>
 11c:	04270100 	add	z0.b, z8.b, z7.b
 120:	16b015f0 	b	fffffffffac058e0 <__free_ram_end+0xffffffffb79c18e0>
 124:	84178004 	ldnt1sb	{z4.s}, p0/z, [z0.s, x23]
 128:	27010017 	.inst	0x27010017 ; undefined
 12c:	a41b9804 	.inst	0xa41b9804 ; undefined
 130:	1bc8041b 	.inst	0x1bc8041b ; undefined
 134:	cc041bf8 	.inst	0xcc041bf8 ; undefined
 138:	041cec1c 	msb	z28.b, p3/m, z28.b, z0.b
 13c:	1cf81cf4 	ldr	s20, ffffffffffff04d8 <__free_ram_end+0xffffffffbcdac4d8>
 140:	841cfc04 	prfb	pldl3keep, p7, [z0.s, #28]
 144:	1d88041d 	cpye	[x29]!, [x8]!, x0!
 148:	01001d8c 	.inst	0x01001d8c ; undefined
 14c:	1b980427 	.inst	0x1b980427 ; undefined
 150:	c8041ba4 	stxr	w4, x4, [x29]
 154:	041bf81b 	msb	z27.b, p6/m, z27.b, z0.b
 158:	1ce01ccc 	ldr	s12, fffffffffffc04f0 <__free_ram_end+0xffffffffbcd7c4f0>
 15c:	04270100 	add	z0.b, z8.b, z7.b
 160:	20942090 	.inst	0x20942090 ; undefined
 164:	ac20a004 	stnp	q4, q8, [x0, #-1008]
 168:	20bc0420 	.inst	0x20bc0420 ; undefined
 16c:	030020e8 	.inst	0x030020e8 ; undefined
 170:	0323b027 	.inst	0x0323b027 ; undefined
 174:	001801af 	.inst	0x001801af ; undefined
 178:	00000044 	udf	#68
 17c:	00080005 	.inst	0x00080005 ; undefined
 180:	00000004 	udf	#4
 184:	00000010 	udf	#16
 188:	0000001b 	udf	#27
 18c:	00000026 	udf	#38
 190:	00000031 	udf	#49
 194:	a404f804 	ldnt1b	{z4.b}, p6/z, [x0, #4, mul vl]
 198:	05fc0405 	.inst	0x05fc0405 ; undefined
 19c:	040006e4 	add	z4.b, p1/m, z4.b, z23.b
 1a0:	05d805b4 	mov	z20.d, p8/z, #45
 1a4:	d0079004 	adrp	x4, f202000 <_binary_shell_bin_size+0xe1f1000>
 1a8:	ac040007 	stnp	q7, q0, [x0, #128]
 1ac:	0407bc07 	.inst	0x0407bc07 ; undefined
 1b0:	07d007c8 	.inst	0x07d007c8 ; undefined
 1b4:	05d80400 	mov	z0.d, p8/z, #32
 1b8:	e40405fc 	.inst	0xe40405fc ; undefined
 1bc:	00079006 	.inst	0x00079006 ; undefined

Disassembly of section .debug_str_offsets:

0000000000000000 <.debug_str_offsets>:
   0:	000002e0 	udf	#736
   4:	00000005 	udf	#5
   8:	00000257 	udf	#599
   c:	0000003e 	udf	#62
  10:	00000079 	udf	#121
  14:	00000376 	udf	#886
  18:	00000501 	udf	#1281
  1c:	0000012b 	udf	#299
  20:	00000000 	udf	#0
  24:	00000467 	udf	#1127
  28:	00000146 	udf	#326
  2c:	00000636 	udf	#1590
  30:	0000037b 	udf	#891
  34:	0000037f 	udf	#895
  38:	000001c8 	udf	#456
  3c:	000003b8 	udf	#952
  40:	00000515 	udf	#1301
  44:	000003f4 	udf	#1012
  48:	000003ff 	udf	#1023
  4c:	00000353 	udf	#851
  50:	0000055f 	udf	#1375
  54:	0000014e 	udf	#334
  58:	00000698 	udf	#1688
  5c:	000006c7 	udf	#1735
  60:	000002da 	udf	#730
  64:	0000027e 	udf	#638
  68:	000002e7 	udf	#743
  6c:	00000180 	udf	#384
  70:	000000e6 	udf	#230
  74:	00000047 	udf	#71
  78:	00000470 	udf	#1136
  7c:	000002f6 	udf	#758
  80:	00000567 	udf	#1383
  84:	00000013 	udf	#19
  88:	00000096 	udf	#150
  8c:	000004db 	udf	#1243
  90:	00000383 	udf	#899
  94:	000005d8 	udf	#1496
  98:	000000eb 	udf	#235
  9c:	0000021d 	udf	#541
  a0:	000005de 	udf	#1502
  a4:	000006ce 	udf	#1742
  a8:	0000038e 	udf	#910
  ac:	000002a9 	udf	#681
  b0:	000005ea 	udf	#1514
  b4:	0000047d 	udf	#1149
  b8:	000001fc 	udf	#508
  bc:	00000489 	udf	#1161
  c0:	00000222 	udf	#546
  c4:	00000186 	udf	#390
  c8:	0000056d 	udf	#1389
  cc:	000002ff 	udf	#767
  d0:	0000063c 	udf	#1596
  d4:	000005f5 	udf	#1525
  d8:	00000288 	udf	#648
  dc:	0000066a 	udf	#1642
  e0:	0000009f 	udf	#159
  e4:	00000572 	udf	#1394
  e8:	0000004b 	udf	#75
  ec:	000001b1 	udf	#433
  f0:	000000f1 	udf	#241
  f4:	000004e0 	udf	#1248
  f8:	000006d3 	udf	#1747
  fc:	00000499 	udf	#1177
 100:	00000433 	udf	#1075
 104:	000001ce 	udf	#462
 108:	00000207 	udf	#519
 10c:	000000fc 	udf	#252
 110:	00000136 	udf	#310
 114:	0000028f 	udf	#655
 118:	00000643 	udf	#1603
 11c:	00000391 	udf	#913
 120:	000001b8 	udf	#440
 124:	00000139 	udf	#313
 128:	0000049c 	udf	#1180
 12c:	000006d6 	udf	#1750
 130:	000001d3 	udf	#467
 134:	000004e3 	udf	#1251
 138:	0000051d 	udf	#1309
 13c:	0000018e 	udf	#398
 140:	00000022 	udf	#34
 144:	0000057f 	udf	#1407
 148:	00000602 	udf	#1538
 14c:	00000308 	udf	#776
 150:	000003cc 	udf	#972
 154:	000002b9 	udf	#697
 158:	0000013b 	udf	#315
 15c:	00000591 	udf	#1425
 160:	00000529 	udf	#1321
 164:	00000398 	udf	#920
 168:	00000405 	udf	#1029
 16c:	00000293 	udf	#659
 170:	000006de 	udf	#1758
 174:	00000194 	udf	#404
 178:	000001da 	udf	#474
 17c:	00000101 	udf	#257
 180:	00000543 	udf	#1347
 184:	0000029e 	udf	#670
 188:	00000344 	udf	#836
 18c:	00000436 	udf	#1078
 190:	0000031b 	udf	#795
 194:	000003d2 	udf	#978
 198:	00000156 	udf	#342
 19c:	0000059d 	udf	#1437
 1a0:	00000361 	udf	#865
 1a4:	0000032a 	udf	#810
 1a8:	000000ad 	udf	#173
 1ac:	000004eb 	udf	#1259
 1b0:	000004a2 	udf	#1186
 1b4:	000003bb 	udf	#955
 1b8:	00000161 	udf	#353
 1bc:	000006ec 	udf	#1772
 1c0:	00000050 	udf	#80
 1c4:	0000020c 	udf	#524
 1c8:	000001ea 	udf	#490
 1cc:	000005a3 	udf	#1443
 1d0:	000005a9 	udf	#1449
 1d4:	000005b2 	udf	#1458
 1d8:	000002c4 	udf	#708
 1dc:	00000679 	udf	#1657
 1e0:	00000337 	udf	#823
 1e4:	00000410 	udf	#1040
 1e8:	0000069f 	udf	#1695
 1ec:	000004b1 	udf	#1201
 1f0:	0000005c 	udf	#92
 1f4:	0000043f 	udf	#1087
 1f8:	00000211 	udf	#529
 1fc:	000003c7 	udf	#967
 200:	000006a8 	udf	#1704
 204:	000003d8 	udf	#984
 208:	0000064a 	udf	#1610
 20c:	0000044f 	udf	#1103
 210:	00000549 	udf	#1353
 214:	00000340 	udf	#832
 218:	000002cd 	udf	#717
 21c:	0000010c 	udf	#268
 220:	0000022f 	udf	#559
 224:	000000b8 	udf	#184
 228:	00000419 	udf	#1049
 22c:	000003e0 	udf	#992
 230:	00000116 	udf	#278
 234:	0000023f 	udf	#575
 238:	00000199 	udf	#409
 23c:	00000682 	udf	#1666
 240:	000003ad 	udf	#941
 244:	000006b2 	udf	#1714
 248:	000003aa 	udf	#938
 24c:	000006fc 	udf	#1788
 250:	000000c5 	udf	#197
 254:	00000685 	udf	#1669
 258:	000005bc 	udf	#1468
 25c:	000001f3 	udf	#499
 260:	00000423 	udf	#1059
 264:	0000005e 	udf	#94
 268:	000002d2 	udf	#722
 26c:	000005c0 	udf	#1472
 270:	0000013e 	udf	#318
 274:	000001c4 	udf	#452
 278:	000002d6 	udf	#726
 27c:	000002a5 	udf	#677
 280:	0000019c 	udf	#412
 284:	0000036e 	udf	#878
 288:	000000c8 	udf	#200
 28c:	00000427 	udf	#1063
 290:	00000242 	udf	#578
 294:	00000062 	udf	#98
 298:	000000cc 	udf	#204
 29c:	000005fa 	udf	#1530
 2a0:	00000066 	udf	#102
 2a4:	00000372 	udf	#882
 2a8:	00000142 	udf	#322
 2ac:	00000609 	udf	#1545
 2b0:	000000d0 	udf	#208
 2b4:	0000006a 	udf	#106
 2b8:	0000042b 	udf	#1067
 2bc:	0000060e 	udf	#1550
 2c0:	000006ff 	udf	#1791
 2c4:	00000654 	udf	#1620
 2c8:	0000070c 	udf	#1804
 2cc:	00000658 	udf	#1624
 2d0:	00000554 	udf	#1364
 2d4:	000004fa 	udf	#1274
 2d8:	000001a0 	udf	#416
 2dc:	000001a4 	udf	#420
 2e0:	00000455 	udf	#1109
 2e4:	000000b4 	udf	#180
 2e8:	00000005 	udf	#5
 2ec:	00000257 	udf	#599
 2f0:	000001a8 	udf	#424
 2f4:	00000079 	udf	#121
 2f8:	00000376 	udf	#886
 2fc:	00000501 	udf	#1281
 300:	00000353 	udf	#851
 304:	0000055f 	udf	#1375
 308:	000006d6 	udf	#1750
 30c:	000001d3 	udf	#467
 310:	00000391 	udf	#913
 314:	0000029e 	udf	#670
 318:	00000558 	udf	#1368
 31c:	0000037f 	udf	#895
 320:	00000643 	udf	#1603
 324:	00000075 	udf	#117
 328:	0000034f 	udf	#847
 32c:	000005c4 	udf	#1476
 330:	00000216 	udf	#534
 334:	00000139 	udf	#313
 338:	00000470 	udf	#1136
 33c:	000002f6 	udf	#758
 340:	000001b1 	udf	#433
 344:	000001a4 	udf	#420
 348:	000001f7 	udf	#503
 34c:	00000119 	udf	#281
 350:	000001f9 	udf	#505
 354:	000004ba 	udf	#1210
 358:	0000070f 	udf	#1807
 35c:	000003b0 	udf	#944
 360:	00000617 	udf	#1559
 364:	0000045e 	udf	#1118
 368:	00000715 	udf	#1813
 36c:	00000034 	udf	#52
 370:	000000d4 	udf	#212
 374:	000005c6 	udf	#1478
 378:	0000065e 	udf	#1630
 37c:	00000246 	udf	#582
 380:	000003cc 	udf	#972
 384:	00000662 	udf	#1634
 388:	0000005c 	udf	#92
 38c:	000000de 	udf	#222
 390:	00000000 	udf	#0
 394:	000005fe 	udf	#1534
 398:	00000250 	udf	#592
 39c:	0000005c 	udf	#92
 3a0:	00000005 	udf	#5
 3a4:	00000257 	udf	#599
 3a8:	00000620 	udf	#1568
 3ac:	00000079 	udf	#121
 3b0:	00000376 	udf	#886
 3b4:	00000501 	udf	#1281
 3b8:	00000643 	udf	#1603
 3bc:	00000022 	udf	#34
 3c0:	00000688 	udf	#1672
 3c4:	000004bd 	udf	#1213
 3c8:	000004cc 	udf	#1228
 3cc:	000003e2 	udf	#994
 3d0:	0000011b 	udf	#283
 3d4:	00000171 	udf	#369
 3d8:	00000627 	udf	#1575
 3dc:	000006b5 	udf	#1717
 3e0:	00000654 	udf	#1620
 3e4:	00000000 	udf	#0
 3e8:	00000467 	udf	#1127
 3ec:	00000554 	udf	#1364
 3f0:	0000070c 	udf	#1804
 3f4:	00000218 	udf	#536
 3f8:	000001a0 	udf	#416

Disassembly of section .debug_str:

0000000000000000 <.debug_str>:
   0:	69736e75 	ldpsw	x21, x27, [x19, #-104]
   4:	64656e67 	.inst	0x64656e67 ; undefined
   8:	6e6f6c20 	umin	v0.8h, v1.8h, v15.8h
   c:	6f6c2067 	umlal2	v7.4s, v3.8h, v12.h[2]
  10:	7500676e 	.inst	0x7500676e ; undefined
  14:	6769736e 	.inst	0x6769736e ; undefined
  18:	2064656e 	.inst	0x2064656e ; undefined
  1c:	726f6873 	.inst	0x726f6873 ; undefined
  20:	61680074 	.inst	0x61680074 ; undefined
  24:	656c646e 	fnmls	z14.h, p1/m, z3.h, z12.h
  28:	7461645f 	.inst	0x7461645f ; undefined
  2c:	62615f61 	.inst	0x62615f61 ; undefined
  30:	0074726f 	.inst	0x0074726f ; undefined
  34:	72765f5f 	.inst	0x72765f5f ; undefined
  38:	66666f5f 	.inst	0x66666f5f ; undefined
  3c:	656b0073 	fmla	z19.h, p0/m, z3.h, z11.h
  40:	6c656e72 	ldnp	d18, d27, [x19, #-432]
  44:	6c00632e 	stnp	d14, d24, [x25]
  48:	6c006e65 	stnp	d5, d27, [x19]
  4c:	00676e6f 	.inst	0x00676e6f ; undefined
  50:	6e72656b 	umax	v11.8h, v11.8h, v18.8h
  54:	6d5f6c65 	ldp	d5, d27, [x3, #496]
  58:	006e6961 	.inst	0x006e6961 ; undefined
  5c:	31580069 	adds	w9, w3, #0x600, lsl #12
  60:	32580033 	.inst	0x32580033 ; undefined
  64:	32580035 	.inst	0x32580035 ; undefined
  68:	72740038 	.inst	0x72740038 ; undefined
  6c:	665f7061 	.inst	0x665f7061 ; undefined
  70:	656d6172 	fnmls	z18.h, p0/m, z11.h, z13.h
  74:	74736400 	.inst	0x74736400 ; undefined
  78:	6f682f00 	.inst	0x6f682f00 ; undefined
  7c:	722f656d 	ands	w13, w11, #0xfffe07ff
  80:	7469686f 	.inst	0x7469686f ; undefined
  84:	75662f68 	.inst	0x75662f68 ; undefined
  88:	694d2f6e 	ldpsw	x14, x11, [x27, #104]
  8c:	4f2d696e 	.inst	0x4f2d696e ; undefined
  90:	65642d53 	fmls	z19.h, p3/m, z10.h, z4.h
  94:	69750076 	ldpsw	x22, x0, [x3, #-88]
  98:	3631746e 	tbz	w14, #6, 2f24 <_binary_shell_bin_size-0x100e0dc>
  9c:	6200745f 	.inst	0x6200745f ; undefined
  a0:	725f6b6c 	.inst	0x725f6b6c ; undefined
  a4:	705f7165 	adr	x5, beed3 <_binary_shell_bin_size-0xf5212d>
  a8:	72646461 	.inst	0x72646461 ; undefined
  ac:	65737500 	fnmls	z0.h, p5/m, z8.h, z19.h
  b0:	6e655f72 	uqrshl	v18.8h, v27.8h, v5.8h
  b4:	00797274 	.inst	0x00797274 ; undefined
  b8:	63617473 	.inst	0x63617473 ; undefined
  bc:	6f625f6b 	.inst	0x6f625f6b ; undefined
  c0:	6d6f7474 	ldp	d20, d29, [x3, #-272]
  c4:	00385800 	.inst	0x00385800 ; NYI
  c8:	00323258 	.inst	0x00323258 ; NYI
  cc:	00363258 	.inst	0x00363258 ; NYI
  d0:	00726c65 	.inst	0x00726c65 ; undefined
  d4:	61765f5f 	.inst	0x61765f5f ; undefined
  d8:	73696c5f 	.inst	0x73696c5f ; undefined
  dc:	74730074 	.inst	0x74730074 ; undefined
  e0:	65747261 	fnmls	z1.h, p4/m, z19.h, z20.h
  e4:	64610064 	fmla	z4.h, z3.h, z1.h[4]
  e8:	69007264 	stgp	x4, x28, [x19]
  ec:	7865646e 	.inst	0x7865646e ; undefined
  f0:	6f627500 	uqshl	v0.2d, v8.2d, #34
  f4:	635f746f 	.inst	0x635f746f ; undefined
  f8:	006c6c61 	.inst	0x006c6c61 ; undefined
  fc:	30785f72 	adr	x18, f0ce9 <_binary_shell_bin_size-0xf20317>
 100:	72756300 	.inst	0x72756300 ; undefined
 104:	746e6572 	.inst	0x746e6572 ; undefined
 108:	006c655f 	.inst	0x006c655f ; undefined
 10c:	79706f63 	ldrh	w3, [x27, #6198]
 110:	7a69735f 	.inst	0x7a69735f ; undefined
 114:	30580065 	adr	x5, b0121 <_binary_shell_bin_size-0xf60edf>
 118:	68007000 	.inst	0x68007000 ; undefined
 11c:	6c646e61 	ldnp	d1, d27, [x19, #-448]
 120:	79735f65 	ldrh	w5, [x27, #6574]
 124:	655f636e 	fcmeq	p14.h, p0/z, z27.h, z31.h
 128:	6e00326c 	ext	v12.16b, v19.16b, v0.16b, #6
 12c:	5f747865 	sqdmlsl	s5, h3, v4.h[7]
 130:	64646170 	.inst	0x64646170 ; undefined
 134:	31780072 	adds	w18, w3, #0xe00, lsl #12
 138:	76006e00 	.inst	0x76006e00 ; undefined
 13c:	31580071 	adds	w17, w3, #0x600, lsl #12
 140:	33580036 	.inst	0x33580036 ; undefined
 144:	61700030 	.inst	0x61700030 ; undefined
 148:	5f726464 	.inst	0x5f726464 ; undefined
 14c:	72700074 	.inst	0x72700074 ; undefined
 150:	7365636f 	.inst	0x7365636f ; undefined
 154:	6d6d0073 	ldp	d19, d0, [x3, #-304]
 158:	6e655f75 	uqrshl	v21.8h, v27.8h, v5.8h
 15c:	656c6261 	fnmls	z1.h, p0/m, z19.h, z12.h
 160:	72697600 	.inst	0x72697600 ; undefined
 164:	5f6f6974 	.inst	0x5f6f6974 ; undefined
 168:	5f6b6c62 	.inst	0x5f6b6c62 ; undefined
 16c:	74696e69 	.inst	0x74696e69 ; undefined
 170:	6e616800 	fcvtxn2	v0.4s, v0.2d
 174:	5f656c64 	.inst	0x5f656c64 ; undefined
 178:	5f717269 	sqdmlsl	s9, h19, v1.h[3]
 17c:	00326c65 	.inst	0x00326c65 ; NYI
 180:	63736564 	.inst	0x63736564 ; undefined
 184:	6c620073 	ldnp	d19, d0, [x3, #-480]
 188:	65725f6b 	fnmla	z11.h, p7/m, z27.h, z18.h
 18c:	61700071 	.inst	0x61700071 ; undefined
 190:	006d6172 	.inst	0x006d6172 ; undefined
 194:	6c6f6f62 	ldnp	d2, d27, [x27, #-272]
 198:	00325800 	.inst	0x00325800 ; NYI
 19c:	00303258 	.inst	0x00303258 ; NYI
 1a0:	00737369 	.inst	0x00737369 ; undefined
 1a4:	00667562 	.inst	0x00667562 ; undefined
 1a8:	6d6d6f63 	ldp	d3, d27, [x27, #-304]
 1ac:	632e6e6f 	.inst	0x632e6e6f ; undefined
 1b0:	7a697300 	.inst	0x7a697300 ; undefined
 1b4:	00745f65 	.inst	0x00745f65 ; undefined
 1b8:	6f6c6c61 	.inst	0x6f6c6c61 ; undefined
 1bc:	61705f63 	.inst	0x61705f63 ; undefined
 1c0:	00736567 	.inst	0x00736567 ; undefined
 1c4:	00373158 	.inst	0x00373158 ; NYI
 1c8:	74617473 	.inst	0x74617473 ; undefined
 1cc:	5f720065 	.inst	0x5f720065 ; undefined
 1d0:	6d003778 	stp	d24, d13, [x27]
 1d4:	70636d65 	adr	x5, c6f83 <_binary_shell_bin_size-0xf4a07d>
 1d8:	6e690079 	uaddl2	v25.4s, v3.8h, v9.8h
 1dc:	655f7469 	fcmeq	p9.h, p5/z, z3.h, z31.h
 1e0:	70656378 	adr	x24, cae4f <_binary_shell_bin_size-0xf461b1>
 1e4:	6e6f6974 	.inst	0x6e6f6974 ; undefined
 1e8:	306c0073 	adr	x19, d81f5 <_binary_shell_bin_size-0xf38e0b>
 1ec:	6261745f 	.inst	0x6261745f ; undefined
 1f0:	5800656c 	ldr	x12, e9c <_binary_shell_bin_size-0x1010164>
 1f4:	63003131 	.inst	0x63003131 ; undefined
 1f8:	00317300 	.inst	0x00317300 ; NYI
 1fc:	64657375 	.inst	0x64657375 ; undefined
 200:	646e695f 	.inst	0x646e695f ; undefined
 204:	72007865 	ands	w5, w3, #0x7fffffff
 208:	0032785f 	.inst	0x0032785f ; NYI
 20c:	746f6f62 	.inst	0x746f6f62 ; undefined
 210:	6f727000 	fcmla	v0.8h, v0.8h, v18.h[1], #270
 214:	00730063 	.inst	0x00730063 ; undefined
 218:	63736664 	.inst	0x63736664 ; undefined
 21c:	6e697200 	uabdl2	v0.4s, v16.8h, v9.8h
 220:	69760067 	ldpsw	x7, x0, [x3, #-80]
 224:	6f697472 	uqshl	v18.2d, v3.2d, #41
 228:	7269765f 	.inst	0x7269765f ; undefined
 22c:	65007174 	.inst	0x65007174 ; undefined
 230:	70656378 	adr	x24, cae9f <_binary_shell_bin_size-0xf46161>
 234:	6e6f6974 	.inst	0x6e6f6974 ; undefined
 238:	6174735f 	.inst	0x6174735f ; undefined
 23c:	58006b63 	ldr	x3, fa8 <_binary_shell_bin_size-0x1010058>
 240:	32580031 	.inst	0x32580031 ; undefined
 244:	616d0034 	.inst	0x616d0034 ; undefined
 248:	74696e67 	.inst	0x74696e67 ; undefined
 24c:	00656475 	.inst	0x00656475 ; undefined
 250:	6262696e 	.inst	0x6262696e ; undefined
 254:	5500656c 	.inst	0x5500656c ; undefined
 258:	746e7562 	.inst	0x746e7562 ; undefined
 25c:	6c632075 	ldnp	d21, d8, [x3, #-464]
 260:	20676e61 	.inst	0x20676e61 ; undefined
 264:	73726576 	.inst	0x73726576 ; undefined
 268:	206e6f69 	.inst	0x206e6f69 ; undefined
 26c:	312e3831 	adds	w17, w1, #0xb8e
 270:	2820332e 	stnp	w14, w12, [x25, #-256]
 274:	75627531 	.inst	0x75627531 ; undefined
 278:	3175746e 	adds	w14, w3, #0xd5d, lsl #12
 27c:	64690029 	fmla	z9.h, z1.h, z1.h[5]
 280:	705f656c 	adr	x12, bef2f <_binary_shell_bin_size-0xf520d1>
 284:	00636f72 	.inst	0x00636f72 ; undefined
 288:	74617473 	.inst	0x74617473 ; undefined
 28c:	72007375 	ands	w21, w27, #0x1fffffff
 290:	64007465 	.inst	0x64007465 ; undefined
 294:	5f637365 	sqdmlsl	s5, h27, v3.h[2]
 298:	65646e69 	fnmls	z9.h, p3/m, z19.h, z4.h
 29c:	74730078 	.inst	0x74730078 ; undefined
 2a0:	79706372 	ldrh	w18, [x27, #6192]
 2a4:	39315800 	strb	w0, [x0, #3158]
 2a8:	72697600 	.inst	0x72697600 ; undefined
 2ac:	755f7174 	.inst	0x755f7174 ; undefined
 2b0:	5f646573 	.inst	0x5f646573 ; undefined
 2b4:	6d656c65 	ldp	d5, d27, [x3, #-432]
 2b8:	72697600 	.inst	0x72697600 ; undefined
 2bc:	695f7174 	ldpsw	x20, x28, [x11, #248]
 2c0:	0074696e 	.inst	0x0074696e ; undefined
 2c4:	745f316c 	.inst	0x745f316c ; undefined
 2c8:	656c6261 	fnmls	z1.h, p0/m, z19.h, z12.h
 2cc:	67617000 	.inst	0x67617000 ; undefined
 2d0:	31580065 	adds	w5, w3, #0x600, lsl #12
 2d4:	31580034 	adds	w20, w1, #0x600, lsl #12
 2d8:	75630038 	.inst	0x75630038 ; undefined
 2dc:	6e657272 	uabdl2	v18.4s, v19.8h, v5.8h
 2e0:	72705f74 	.inst	0x72705f74 ; undefined
 2e4:	6200636f 	.inst	0x6200636f ; undefined
 2e8:	725f6b6c 	.inst	0x725f6b6c ; undefined
 2ec:	65757165 	fnmls	z5.h, p4/m, z11.h, z21.h
 2f0:	765f7473 	.inst	0x765f7473 ; undefined
 2f4:	69750071 	ldpsw	x17, x0, [x3, #-88]
 2f8:	3233746e 	orr	w14, w3, #0xffffe7ff
 2fc:	7200745f 	tst	w2, #0x3fffffff
 300:	72657365 	.inst	0x72657365 ; undefined
 304:	00646576 	.inst	0x00646576 ; undefined
 308:	74726976 	.inst	0x74726976 ; undefined
 30c:	725f6f69 	.inst	0x725f6f69 ; undefined
 310:	775f6765 	.inst	0x775f6765 ; undefined
 314:	65746972 	fnmls	z18.h, p2/m, z11.h, z20.h
 318:	73003233 	.inst	0x73003233 ; undefined
 31c:	63746977 	.inst	0x63746977 ; undefined
 320:	6f635f68 	.inst	0x6f635f68 ; undefined
 324:	7865746e 	.inst	0x7865746e ; undefined
 328:	72700074 	.inst	0x72700074 ; undefined
 32c:	625f636f 	.inst	0x625f636f ; undefined
 330:	746e655f 	.inst	0x746e655f ; undefined
 334:	6c007972 	stnp	d18, d30, [x11]
 338:	61745f32 	.inst	0x61745f32 ; undefined
 33c:	00656c62 	.inst	0x00656c62 ; undefined
 340:	0066666f 	.inst	0x0066666f ; undefined
 344:	75746573 	.inst	0x75746573 ; undefined
 348:	65765f70 	fnmla	z16.h, p7/m, z27.h, z22.h
 34c:	73007463 	.inst	0x73007463 ; undefined
 350:	75006372 	.inst	0x75006372 ; undefined
 354:	6769736e 	.inst	0x6769736e ; undefined
 358:	2064656e 	.inst	0x2064656e ; undefined
 35c:	72616863 	.inst	0x72616863 ; undefined
 360:	6f727000 	fcmla	v0.8h, v0.8h, v18.h[1], #270
 364:	5f615f63 	.inst	0x5f615f63 ; undefined
 368:	72746e65 	.inst	0x72746e65 ; undefined
 36c:	32580079 	.inst	0x32580079 ; undefined
 370:	32580031 	.inst	0x32580031 ; undefined
 374:	68630039 	.inst	0x68630039 ; undefined
 378:	70007261 	adr	x1, 11c7 <_binary_shell_bin_size-0x100fe39>
 37c:	69006469 	stgp	x9, x25, [x3]
 380:	7600746e 	.inst	0x7600746e ; undefined
 384:	71747269 	subs	w9, w19, #0xd1c, lsl #12
 388:	7365645f 	.inst	0x7365645f ; undefined
 38c:	64690063 	fmla	z3.h, z3.h, z1.h[5]
 390:	6d656d00 	ldp	d0, d27, [x8, #-432]
 394:	00746573 	.inst	0x00746573 ; undefined
 398:	74726976 	.inst	0x74726976 ; undefined
 39c:	725f6f69 	.inst	0x725f6f69 ; undefined
 3a0:	725f6765 	.inst	0x725f6765 ; undefined
 3a4:	36646165 	tbz	w5, #12, ffffffffffff8fd0 <__free_ram_end+0xffffffffbcdb4fd0>
 3a8:	36580034 	tbz	w20, #11, 3ac <_binary_shell_bin_size-0x1010c54>
 3ac:	00345800 	.inst	0x00345800 ; NYI
 3b0:	74735f5f 	.inst	0x74735f5f ; undefined
 3b4:	006b6361 	.inst	0x006b6361 ; undefined
 3b8:	68007073 	.inst	0x68007073 ; undefined
 3bc:	6c646e61 	ldnp	d1, d27, [x19, #-448]
 3c0:	72745f65 	.inst	0x72745f65 ; undefined
 3c4:	70007061 	adr	x1, 11d3 <_binary_shell_bin_size-0x100fe2d>
 3c8:	00766572 	.inst	0x00766572 ; undefined
 3cc:	756c6176 	.inst	0x756c6176 ; undefined
 3d0:	65640065 	fmla	z5.h, p0/m, z3.h, z4.h
 3d4:	0079616c 	.inst	0x0079616c ; undefined
 3d8:	7478656e 	.inst	0x7478656e ; undefined
 3dc:	0070735f 	.inst	0x0070735f ; undefined
 3e0:	61680066 	.inst	0x61680066 ; undefined
 3e4:	656c646e 	fnmls	z14.h, p1/m, z3.h, z12.h
 3e8:	7265735f 	.inst	0x7265735f ; undefined
 3ec:	5f726f72 	.inst	0x5f726f72 ; undefined
 3f0:	00316c65 	.inst	0x00316c65 ; NYI
 3f4:	65676170 	fnmls	z16.h, p0/m, z11.h, z7.h
 3f8:	6261745f 	.inst	0x6261745f ; undefined
 3fc:	7300656c 	.inst	0x7300656c ; undefined
 400:	6b636174 	.inst	0x6b636174 ; undefined
 404:	72697600 	.inst	0x72697600 ; undefined
 408:	6b5f7174 	subs	w20, w11, wzr, lsr #28
 40c:	006b6369 	.inst	0x006b6369 ; undefined
 410:	695f326c 	.inst	0x695f326c ; undefined
 414:	7865646e 	.inst	0x7865646e ; undefined
 418:	6d657200 	ldp	d0, d28, [x16, #-432]
 41c:	696e6961 	ldpsw	x1, x26, [x11, #-144]
 420:	5800676e 	ldr	x14, 110c <_binary_shell_bin_size-0x100fef4>
 424:	58003231 	ldr	x17, a68 <_binary_shell_bin_size-0x1010598>
 428:	73003332 	.inst	0x73003332 ; undefined
 42c:	61637379 	.inst	0x61637379 ; undefined
 430:	78006c6c 	strh	w12, [x3, #6]!
 434:	616d0037 	.inst	0x616d0037 ; undefined
 438:	61705f70 	.inst	0x61705f70 ; undefined
 43c:	70006567 	adr	x7, 10eb <_binary_shell_bin_size-0x100ff15>
 440:	5f656761 	.inst	0x5f656761 ; undefined
 444:	6c626174 	ldnp	d20, d24, [x11, #-480]
 448:	68705f65 	.inst	0x68705f65 ; undefined
 44c:	69007379 	stgp	x25, x28, [x27]
 450:	6567616d 	fnmls	z13.h, p0/m, z11.h, z7.h
 454:	5f736900 	.inst	0x5f736900 ; undefined
 458:	74697277 	.inst	0x74697277 ; undefined
 45c:	5f5f0065 	.inst	0x5f5f0065 ; undefined
 460:	745f7276 	.inst	0x745f7276 ; undefined
 464:	7500706f 	.inst	0x7500706f ; undefined
 468:	36746e69 	tbz	w9, #14, ffffffffffff9234 <__free_ram_end+0xffffffffbcdb5234>
 46c:	00745f34 	.inst	0x00745f34 ; undefined
 470:	69736e75 	ldpsw	x21, x27, [x19, #-104]
 474:	64656e67 	.inst	0x64656e67 ; undefined
 478:	746e6920 	.inst	0x746e6920 ; undefined
 47c:	65757100 	fnmls	z0.h, p4/m, z8.h, z21.h
 480:	695f6575 	ldpsw	x21, x25, [x11, #248]
 484:	7865646e 	.inst	0x7865646e ; undefined
 488:	73616c00 	.inst	0x73616c00 ; undefined
 48c:	73755f74 	.inst	0x73755f74 ; undefined
 490:	695f6465 	ldpsw	x5, x25, [x3, #248]
 494:	7865646e 	.inst	0x7865646e ; undefined
 498:	00327800 	.inst	0x00327800 ; NYI
 49c:	64646170 	.inst	0x64646170 ; undefined
 4a0:	61680072 	.inst	0x61680072 ; undefined
 4a4:	656c646e 	fnmls	z14.h, p1/m, z3.h, z12.h
 4a8:	7379735f 	.inst	0x7379735f ; undefined
 4ac:	6c6c6163 	ldnp	d3, d24, [x11, #-320]
 4b0:	5f336c00 	.inst	0x5f336c00 ; undefined
 4b4:	65646e69 	fnmls	z9.h, p3/m, z19.h, z4.h
 4b8:	32730078 	.inst	0x32730078 ; undefined
 4bc:	6e616800 	fcvtxn2	v0.4s, v0.2d
 4c0:	5f656c64 	.inst	0x5f656c64 ; undefined
 4c4:	5f717269 	sqdmlsl	s9, h19, v1.h[3]
 4c8:	00316c65 	.inst	0x00316c65 ; NYI
 4cc:	646e6168 	.inst	0x646e6168 ; undefined
 4d0:	665f656c 	.inst	0x665f656c ; undefined
 4d4:	655f7169 	fcmeq	p9.h, p4/z, z11.h, z31.h
 4d8:	6e00316c 	ext	v12.16b, v11.16b, v0.16b, #6
 4dc:	00747865 	.inst	0x00747865 ; undefined
 4e0:	67003078 	.inst	0x67003078 ; undefined
 4e4:	68637465 	.inst	0x68637465 ; undefined
 4e8:	63007261 	.inst	0x63007261 ; undefined
 4ec:	74616572 	.inst	0x74616572 ; undefined
 4f0:	72705f65 	.inst	0x72705f65 ; undefined
 4f4:	7365636f 	.inst	0x7365636f ; undefined
 4f8:	70730073 	adr	x19, e6507 <_binary_shell_bin_size-0xf2aaf9>
 4fc:	306c655f 	adr	xzr, d91a5 <_binary_shell_bin_size-0xf37e5b>
 500:	415f5f00 	.inst	0x415f5f00 ; undefined
 504:	59415252 	ldapurh	w18, [x18, #21]
 508:	5a49535f 	.inst	0x5a49535f ; undefined
 50c:	59545f45 	.inst	0x59545f45 ; undefined
 510:	5f5f4550 	.inst	0x5f5f4550 ; undefined
 514:	64617600 	.inst	0x64617600 ; undefined
 518:	745f7264 	.inst	0x745f7264 ; undefined
 51c:	67697300 	.inst	0x67697300 ; undefined
 520:	2064656e 	.inst	0x2064656e ; undefined
 524:	72616863 	.inst	0x72616863 ; undefined
 528:	72697600 	.inst	0x72697600 ; undefined
 52c:	5f6f6974 	.inst	0x5f6f6974 ; undefined
 530:	5f676572 	.inst	0x5f676572 ; undefined
 534:	63746566 	.inst	0x63746566 ; undefined
 538:	6e615f68 	uqrshl	v8.8h, v27.8h, v1.8h
 53c:	726f5f64 	.inst	0x726f5f64 ; undefined
 540:	73003233 	.inst	0x73003233 ; undefined
 544:	726c7463 	.inst	0x726c7463 ; undefined
 548:	616d6900 	.inst	0x616d6900 ; undefined
 54c:	735f6567 	.inst	0x735f6567 ; undefined
 550:	00657a69 	.inst	0x00657a69 ; undefined
 554:	00726166 	.inst	0x00726166 ; undefined
 558:	63727473 	.inst	0x63727473 ; undefined
 55c:	7500706d 	.inst	0x7500706d ; undefined
 560:	38746e69 	.inst	0x38746e69 ; undefined
 564:	6600745f 	.inst	0x6600745f ; undefined
 568:	7367616c 	.inst	0x7367616c ; undefined
 56c:	70797400 	adr	x0, f33ef <_binary_shell_bin_size-0xf1dc11>
 570:	6c620065 	ldnp	d5, d0, [x3, #-480]
 574:	61635f6b 	.inst	0x61635f6b ; undefined
 578:	69636170 	ldpsw	x16, x24, [x11, #-232]
 57c:	76007974 	.inst	0x76007974 ; undefined
 580:	69747269 	ldpsw	x9, x28, [x19, #-96]
 584:	65725f6f 	fnmla	z15.h, p7/m, z27.h, z18.h
 588:	65725f67 	fnmla	z7.h, p7/m, z27.h, z18.h
 58c:	32336461 	orr	w1, w3, #0xffffe07f
 590:	72697600 	.inst	0x72697600 ; undefined
 594:	705f7174 	adr	x20, bf3c3 <_binary_shell_bin_size-0xf51c3d>
 598:	72646461 	.inst	0x72646461 ; undefined
 59c:	65697900 	fnmls	z0.h, p6/m, z8.h, z9.h
 5a0:	7600646c 	.inst	0x7600646c ; undefined
 5a4:	72646461 	.inst	0x72646461 ; undefined
 5a8:	5f306c00 	.inst	0x5f306c00 ; undefined
 5ac:	65646e69 	fnmls	z9.h, p3/m, z19.h, z4.h
 5b0:	656e0078 	fmla	z24.h, p0/m, z3.h, z14.h
 5b4:	61745f77 	.inst	0x61745f77 ; undefined
 5b8:	00656c62 	.inst	0x00656c62 ; undefined
 5bc:	00303158 	.inst	0x00303158 ; NYI
 5c0:	00353158 	.inst	0x00353158 ; NYI
 5c4:	5f5f0064 	.inst	0x5f5f0064 ; undefined
 5c8:	6c697562 	ldnp	d2, d29, [x11, #-368]
 5cc:	5f6e6974 	.inst	0x5f6e6974 ; undefined
 5d0:	6c5f6176 	ldnp	d22, d24, [x11, #496]
 5d4:	00747369 	.inst	0x00747369 ; undefined
 5d8:	69617661 	ldpsw	x1, x29, [x19, #-248]
 5dc:	6976006c 	ldpsw	x12, x0, [x3, #-80]
 5e0:	5f717472 	sqshl	d18, d3, #49
 5e4:	69617661 	ldpsw	x1, x29, [x19, #-248]
 5e8:	6976006c 	ldpsw	x12, x0, [x3, #-80]
 5ec:	5f717472 	sqshl	d18, d3, #49
 5f0:	64657375 	.inst	0x64657375 ; undefined
 5f4:	74616400 	.inst	0x74616400 ; undefined
 5f8:	32580061 	.inst	0x32580061 ; undefined
 5fc:	6e650037 	uaddl2	v23.4s, v1.8h, v5.8h
 600:	666f0064 	.inst	0x666f0064 ; undefined
 604:	74657366 	.inst	0x74657366 ; undefined
 608:	73707300 	.inst	0x73707300 ; undefined
 60c:	74610072 	.inst	0x74610072 ; undefined
 610:	706d6574 	adr	x20, db2bf <_binary_shell_bin_size-0xf35d41>
 614:	5f007374 	.inst	0x5f007374 ; undefined
 618:	5f72675f 	.inst	0x5f72675f ; undefined
 61c:	00706f74 	.inst	0x00706f74 ; undefined
 620:	74636576 	.inst	0x74636576 ; undefined
 624:	6800632e 	.inst	0x6800632e ; undefined
 628:	6c646e61 	ldnp	d1, d27, [x19, #-448]
 62c:	69665f65 	ldpsw	x5, x23, [x27, #-208]
 630:	6c655f71 	ldnp	d17, d23, [x27, #-432]
 634:	72700032 	.inst	0x72700032 ; undefined
 638:	0073636f 	.inst	0x0073636f ; undefined
 63c:	74636573 	.inst	0x74636573 ; undefined
 640:	7000726f 	adr	x15, 148f <_binary_shell_bin_size-0x100fb71>
 644:	746e6972 	.inst	0x746e6972 ; undefined
 648:	656e0066 	fmla	z6.h, p0/m, z3.h, z14.h
 64c:	74735f77 	.inst	0x74735f77 ; undefined
 650:	006b6361 	.inst	0x006b6361 ; undefined
 654:	00727365 	.inst	0x00727365 ; undefined
 658:	72627474 	.inst	0x72627474 ; undefined
 65c:	6d660030 	ldp	d16, d0, [x1, #-416]
 660:	69640074 	ldpsw	x20, x0, [x3, #-224]
 664:	6f736976 	umlsl2	v22.4s, v11.8h, v3.h[7]
 668:	69760072 	ldpsw	x18, x0, [x3, #-80]
 66c:	6f697472 	uqshl	v18.2d, v3.2d, #41
 670:	6b6c625f 	.inst	0x6b6c625f ; undefined
 674:	7165725f 	cmp	w18, #0x95c, lsl #12
 678:	5f316c00 	.inst	0x5f316c00 ; undefined
 67c:	65646e69 	fnmls	z9.h, p3/m, z19.h, z4.h
 680:	33580078 	.inst	0x33580078 ; undefined
 684:	00395800 	.inst	0x00395800 ; NYI
 688:	646e6168 	.inst	0x646e6168 ; undefined
 68c:	735f656c 	.inst	0x735f656c ; undefined
 690:	5f636e79 	.inst	0x5f636e79 ; undefined
 694:	00316c65 	.inst	0x00316c65 ; NYI
 698:	636f7270 	.inst	0x636f7270 ; undefined
 69c:	6c00615f 	stnp	d31, d24, [x10]
 6a0:	61745f33 	.inst	0x61745f33 ; undefined
 6a4:	00656c62 	.inst	0x00656c62 ; undefined
 6a8:	5f77656e 	.inst	0x5f77656e ; undefined
 6ac:	72627474 	.inst	0x72627474 ; undefined
 6b0:	35580030 	cbnz	w16, b06b4 <_binary_shell_bin_size-0xf6094c>
 6b4:	6e616800 	fcvtxn2	v0.4s, v0.2d
 6b8:	5f656c64 	.inst	0x5f656c64 ; undefined
 6bc:	72726573 	.inst	0x72726573 ; undefined
 6c0:	655f726f 	fcmeq	p15.h, p4/z, z19.h, z31.h
 6c4:	7000326c 	adr	x12, d13 <_binary_shell_bin_size-0x10102ed>
 6c8:	5f636f72 	.inst	0x5f636f72 ; undefined
 6cc:	73750062 	.inst	0x73750062 ; undefined
 6d0:	63006465 	.inst	0x63006465 ; undefined
 6d4:	75700068 	.inst	0x75700068 ; undefined
 6d8:	61686374 	.inst	0x61686374 ; undefined
 6dc:	69760072 	ldpsw	x18, x0, [x3, #-80]
 6e0:	5f717472 	sqshl	d18, d3, #49
 6e4:	625f7369 	.inst	0x625f7369 ; undefined
 6e8:	00797375 	.inst	0x00797375 ; undefined
 6ec:	64616572 	.inst	0x64616572 ; undefined
 6f0:	6972775f 	ldpsw	xzr, x29, [x26, #-112]
 6f4:	645f6574 	fcmla	z20.h, p1/m, z11.h, z31.h, #270
 6f8:	006b7369 	.inst	0x006b7369 ; undefined
 6fc:	6d003758 	stp	d24, d13, [x26]
 700:	615f7861 	.inst	0x615f7861 ; undefined
 704:	6d657474 	ldp	d20, d29, [x3, #-432]
 708:	00737470 	.inst	0x00737470 ; undefined
 70c:	76006365 	.inst	0x76006365 ; undefined
 710:	73677261 	.inst	0x73677261 ; undefined
 714:	675f5f00 	.inst	0x675f5f00 ; undefined
 718:	666f5f72 	.inst	0x666f5f72 ; undefined
 71c:	Address 0x71c is out of bounds.


Disassembly of section .debug_addr:

0000000000000000 <.debug_addr>:
   0:	00000584 	udf	#1412
   4:	00080005 	.inst	0x00080005 ; undefined
   8:	4020217e 	.inst	0x4020217e ; undefined
   c:	00000000 	udf	#0
  10:	4020211e 	.inst	0x4020211e ; undefined
  14:	00000000 	udf	#0
  18:	402023a0 	.inst	0x402023a0 ; undefined
  1c:	00000000 	udf	#0
  20:	4020213e 	.inst	0x4020213e ; undefined
  24:	00000000 	udf	#0
  28:	40201f90 	.inst	0x40201f90 ; undefined
  2c:	00000000 	udf	#0
  30:	4020215b 	.inst	0x4020215b ; undefined
  34:	00000000 	udf	#0
  38:	4020203f 	.inst	0x4020203f ; undefined
  3c:	00000000 	udf	#0
  40:	40202062 	.inst	0x40202062 ; undefined
  44:	00000000 	udf	#0
  48:	40202021 	.inst	0x40202021 ; undefined
  4c:	00000000 	udf	#0
  50:	40202310 	.inst	0x40202310 ; undefined
  54:	00000000 	udf	#0
  58:	40202255 	.inst	0x40202255 ; undefined
  5c:	00000000 	udf	#0
  60:	40202206 	.inst	0x40202206 ; undefined
  64:	00000000 	udf	#0
  68:	4020235b 	.inst	0x4020235b ; undefined
  6c:	00000000 	udf	#0
  70:	402021a4 	.inst	0x402021a4 ; undefined
  74:	00000000 	udf	#0
  78:	40201f99 	.inst	0x40201f99 ; undefined
  7c:	00000000 	udf	#0
  80:	402021cb 	.inst	0x402021cb ; undefined
  84:	00000000 	udf	#0
  88:	40202098 	.inst	0x40202098 ; undefined
  8c:	00000000 	udf	#0
  90:	4020227b 	.inst	0x4020227b ; undefined
  94:	00000000 	udf	#0
  98:	4020221b 	.inst	0x4020221b ; undefined
  9c:	00000000 	udf	#0
  a0:	40202335 	.inst	0x40202335 ; undefined
  a4:	00000000 	udf	#0
  a8:	40202378 	.inst	0x40202378 ; undefined
  ac:	00000000 	udf	#0
  b0:	40201fb8 	.inst	0x40201fb8 ; undefined
  b4:	00000000 	udf	#0
  b8:	40201ffa 	.inst	0x40201ffa ; undefined
  bc:	00000000 	udf	#0
  c0:	4020222c 	.inst	0x4020222c ; undefined
  c4:	00000000 	udf	#0
  c8:	40202076 	.inst	0x40202076 ; undefined
  cc:	00000000 	udf	#0
  d0:	402020e3 	.inst	0x402020e3 ; undefined
  d4:	00000000 	udf	#0
  d8:	4020228c 	.inst	0x4020228c ; undefined
  dc:	00000000 	udf	#0
  e0:	402021b9 	.inst	0x402021b9 ; undefined
  e4:	00000000 	udf	#0
  e8:	402022d3 	.inst	0x402022d3 ; undefined
  ec:	00000000 	udf	#0
  f0:	40201fe3 	.inst	0x40201fe3 ; undefined
  f4:	00000000 	udf	#0
  f8:	412133c0 	.inst	0x412133c0 ; undefined
  fc:	00000000 	udf	#0
 100:	412234e8 	.inst	0x412234e8 ; undefined
 104:	00000000 	udf	#0
 108:	412234f0 	.inst	0x412234f0 ; undefined
 10c:	00000000 	udf	#0
 110:	412234c0 	.inst	0x412234c0 ; undefined
 114:	00000000 	udf	#0
 118:	412133b0 	.inst	0x412133b0 ; undefined
 11c:	00000000 	udf	#0
 120:	412234c8 	.inst	0x412234c8 ; undefined
 124:	00000000 	udf	#0
 128:	412234e0 	.inst	0x412234e0 ; undefined
 12c:	00000000 	udf	#0
 130:	412234d8 	.inst	0x412234d8 ; undefined
 134:	00000000 	udf	#0
 138:	412234d0 	.inst	0x412234d0 ; undefined
 13c:	00000000 	udf	#0
 140:	40200018 	.inst	0x40200018 ; undefined
 144:	00000000 	udf	#0
 148:	40200034 	.inst	0x40200034 ; undefined
 14c:	00000000 	udf	#0
 150:	4020003c 	.inst	0x4020003c ; undefined
 154:	00000000 	udf	#0
 158:	40200058 	.inst	0x40200058 ; undefined
 15c:	00000000 	udf	#0
 160:	40200060 	.inst	0x40200060 ; undefined
 164:	00000000 	udf	#0
 168:	40200084 	.inst	0x40200084 ; undefined
 16c:	00000000 	udf	#0
 170:	4020009c 	.inst	0x4020009c ; undefined
 174:	00000000 	udf	#0
 178:	402000cc 	.inst	0x402000cc ; undefined
 17c:	00000000 	udf	#0
 180:	402000ec 	.inst	0x402000ec ; undefined
 184:	00000000 	udf	#0
 188:	402000f8 	.inst	0x402000f8 ; undefined
 18c:	00000000 	udf	#0
 190:	402000fc 	.inst	0x402000fc ; undefined
 194:	00000000 	udf	#0
 198:	40200144 	.inst	0x40200144 ; undefined
 19c:	00000000 	udf	#0
 1a0:	40200154 	.inst	0x40200154 ; undefined
 1a4:	00000000 	udf	#0
 1a8:	40200164 	.inst	0x40200164 ; undefined
 1ac:	00000000 	udf	#0
 1b0:	402001d8 	.inst	0x402001d8 ; undefined
 1b4:	00000000 	udf	#0
 1b8:	402001a0 	.inst	0x402001a0 ; undefined
 1bc:	00000000 	udf	#0
 1c0:	402001c8 	.inst	0x402001c8 ; undefined
 1c4:	00000000 	udf	#0
 1c8:	40200210 	.inst	0x40200210 ; undefined
 1cc:	00000000 	udf	#0
 1d0:	40200230 	.inst	0x40200230 ; undefined
 1d4:	00000000 	udf	#0
 1d8:	40200240 	.inst	0x40200240 ; undefined
 1dc:	00000000 	udf	#0
 1e0:	402002a4 	.inst	0x402002a4 ; undefined
 1e4:	00000000 	udf	#0
 1e8:	402002c4 	.inst	0x402002c4 ; undefined
 1ec:	00000000 	udf	#0
 1f0:	402002d4 	.inst	0x402002d4 ; undefined
 1f4:	00000000 	udf	#0
 1f8:	40200338 	.inst	0x40200338 ; undefined
 1fc:	00000000 	udf	#0
 200:	40200358 	.inst	0x40200358 ; undefined
 204:	00000000 	udf	#0
 208:	40200368 	.inst	0x40200368 ; undefined
 20c:	00000000 	udf	#0
 210:	402003ac 	.inst	0x402003ac ; undefined
 214:	00000000 	udf	#0
 218:	402003f0 	.inst	0x402003f0 ; undefined
 21c:	00000000 	udf	#0
 220:	402003f8 	.inst	0x402003f8 ; undefined
 224:	00000000 	udf	#0
 228:	40200408 	.inst	0x40200408 ; undefined
 22c:	00000000 	udf	#0
 230:	4020044c 	.inst	0x4020044c ; undefined
 234:	00000000 	udf	#0
 238:	402006a4 	.inst	0x402006a4 ; undefined
 23c:	00000000 	udf	#0
 240:	402006ac 	.inst	0x402006ac ; undefined
 244:	00000000 	udf	#0
 248:	402006cc 	.inst	0x402006cc ; undefined
 24c:	00000000 	udf	#0
 250:	402006c4 	.inst	0x402006c4 ; undefined
 254:	00000000 	udf	#0
 258:	402006e4 	.inst	0x402006e4 ; undefined
 25c:	00000000 	udf	#0
 260:	402006e8 	.inst	0x402006e8 ; undefined
 264:	00000000 	udf	#0
 268:	40200708 	.inst	0x40200708 ; undefined
 26c:	00000000 	udf	#0
 270:	40200700 	.inst	0x40200700 ; undefined
 274:	00000000 	udf	#0
 278:	40200720 	.inst	0x40200720 ; undefined
 27c:	00000000 	udf	#0
 280:	40200724 	.inst	0x40200724 ; undefined
 284:	00000000 	udf	#0
 288:	40200740 	.inst	0x40200740 ; undefined
 28c:	00000000 	udf	#0
 290:	402008c8 	.inst	0x402008c8 ; undefined
 294:	00000000 	udf	#0
 298:	402007e0 	.inst	0x402007e0 ; undefined
 29c:	00000000 	udf	#0
 2a0:	40200890 	.inst	0x40200890 ; undefined
 2a4:	00000000 	udf	#0
 2a8:	402008a4 	.inst	0x402008a4 ; undefined
 2ac:	00000000 	udf	#0
 2b0:	402008c4 	.inst	0x402008c4 ; undefined
 2b4:	00000000 	udf	#0
 2b8:	402008f4 	.inst	0x402008f4 ; undefined
 2bc:	00000000 	udf	#0
 2c0:	4020090c 	.inst	0x4020090c ; undefined
 2c4:	00000000 	udf	#0
 2c8:	4020091c 	.inst	0x4020091c ; undefined
 2cc:	00000000 	udf	#0
 2d0:	40200950 	.inst	0x40200950 ; undefined
 2d4:	00000000 	udf	#0
 2d8:	4020096c 	.inst	0x4020096c ; undefined
 2dc:	00000000 	udf	#0
 2e0:	40200980 	.inst	0x40200980 ; undefined
 2e4:	00000000 	udf	#0
 2e8:	402009bc 	.inst	0x402009bc ; undefined
 2ec:	00000000 	udf	#0
 2f0:	402009d8 	.inst	0x402009d8 ; undefined
 2f4:	00000000 	udf	#0
 2f8:	402009ec 	.inst	0x402009ec ; undefined
 2fc:	00000000 	udf	#0
 300:	40200a1c 	.inst	0x40200a1c ; undefined
 304:	00000000 	udf	#0
 308:	40200a30 	.inst	0x40200a30 ; undefined
 30c:	00000000 	udf	#0
 310:	40200a64 	.inst	0x40200a64 ; undefined
 314:	00000000 	udf	#0
 318:	40200ab0 	.inst	0x40200ab0 ; undefined
 31c:	00000000 	udf	#0
 320:	40200acc 	.inst	0x40200acc ; undefined
 324:	00000000 	udf	#0
 328:	40200ad0 	.inst	0x40200ad0 ; undefined
 32c:	00000000 	udf	#0
 330:	40200b08 	.inst	0x40200b08 ; undefined
 334:	00000000 	udf	#0
 338:	40200b24 	.inst	0x40200b24 ; undefined
 33c:	00000000 	udf	#0
 340:	40200b48 	.inst	0x40200b48 ; undefined
 344:	00000000 	udf	#0
 348:	40200b4c 	.inst	0x40200b4c ; undefined
 34c:	00000000 	udf	#0
 350:	40200b7c 	.inst	0x40200b7c ; undefined
 354:	00000000 	udf	#0
 358:	40200b94 	.inst	0x40200b94 ; undefined
 35c:	00000000 	udf	#0
 360:	40200ba8 	.inst	0x40200ba8 ; undefined
 364:	00000000 	udf	#0
 368:	40200bf8 	.inst	0x40200bf8 ; undefined
 36c:	00000000 	udf	#0
 370:	40200c10 	.inst	0x40200c10 ; undefined
 374:	00000000 	udf	#0
 378:	40200c20 	.inst	0x40200c20 ; undefined
 37c:	00000000 	udf	#0
 380:	40200c30 	.inst	0x40200c30 ; undefined
 384:	00000000 	udf	#0
 388:	40200c44 	.inst	0x40200c44 ; undefined
 38c:	00000000 	udf	#0
 390:	40200c5c 	.inst	0x40200c5c ; undefined
 394:	00000000 	udf	#0
 398:	40200c78 	.inst	0x40200c78 ; undefined
 39c:	00000000 	udf	#0
 3a0:	40200c90 	.inst	0x40200c90 ; undefined
 3a4:	00000000 	udf	#0
 3a8:	40200c94 	.inst	0x40200c94 ; undefined
 3ac:	00000000 	udf	#0
 3b0:	40200ca0 	.inst	0x40200ca0 ; undefined
 3b4:	00000000 	udf	#0
 3b8:	40200cac 	.inst	0x40200cac ; undefined
 3bc:	00000000 	udf	#0
 3c0:	40200cb8 	.inst	0x40200cb8 ; undefined
 3c4:	00000000 	udf	#0
 3c8:	40200cbc 	.inst	0x40200cbc ; undefined
 3cc:	00000000 	udf	#0
 3d0:	40200cc4 	.inst	0x40200cc4 ; undefined
 3d4:	00000000 	udf	#0
 3d8:	40200ccc 	.inst	0x40200ccc ; undefined
 3dc:	00000000 	udf	#0
 3e0:	40200cd8 	.inst	0x40200cd8 ; undefined
 3e4:	00000000 	udf	#0
 3e8:	40200d48 	.inst	0x40200d48 ; undefined
 3ec:	00000000 	udf	#0
 3f0:	40200d4c 	.inst	0x40200d4c ; undefined
 3f4:	00000000 	udf	#0
 3f8:	40200d50 	.inst	0x40200d50 ; undefined
 3fc:	00000000 	udf	#0
 400:	40200d54 	.inst	0x40200d54 ; undefined
 404:	00000000 	udf	#0
 408:	40200d10 	.inst	0x40200d10 ; undefined
 40c:	00000000 	udf	#0
 410:	40200d28 	.inst	0x40200d28 ; undefined
 414:	00000000 	udf	#0
 418:	40200d64 	.inst	0x40200d64 ; undefined
 41c:	00000000 	udf	#0
 420:	40200d7c 	.inst	0x40200d7c ; undefined
 424:	00000000 	udf	#0
 428:	40200d94 	.inst	0x40200d94 ; undefined
 42c:	00000000 	udf	#0
 430:	40200da0 	.inst	0x40200da0 ; undefined
 434:	00000000 	udf	#0
 438:	40200dac 	.inst	0x40200dac ; undefined
 43c:	00000000 	udf	#0
 440:	40200e80 	.inst	0x40200e80 ; undefined
 444:	00000000 	udf	#0
 448:	40200e8c 	.inst	0x40200e8c ; undefined
 44c:	00000000 	udf	#0
 450:	40200e94 	.inst	0x40200e94 ; undefined
 454:	00000000 	udf	#0
 458:	40200e98 	.inst	0x40200e98 ; undefined
 45c:	00000000 	udf	#0
 460:	40200dbc 	.inst	0x40200dbc ; undefined
 464:	00000000 	udf	#0
 468:	40200dc4 	.inst	0x40200dc4 ; undefined
 46c:	00000000 	udf	#0
 470:	40200dc8 	.inst	0x40200dc8 ; undefined
 474:	00000000 	udf	#0
 478:	40200dd0 	.inst	0x40200dd0 ; undefined
 47c:	00000000 	udf	#0
 480:	40200dd4 	.inst	0x40200dd4 ; undefined
 484:	00000000 	udf	#0
 488:	40200ddc 	.inst	0x40200ddc ; undefined
 48c:	00000000 	udf	#0
 490:	40200eb0 	.inst	0x40200eb0 ; undefined
 494:	00000000 	udf	#0
 498:	40200eb4 	.inst	0x40200eb4 ; undefined
 49c:	00000000 	udf	#0
 4a0:	40200ec8 	.inst	0x40200ec8 ; undefined
 4a4:	00000000 	udf	#0
 4a8:	40200e0c 	.inst	0x40200e0c ; undefined
 4ac:	00000000 	udf	#0
 4b0:	40200e28 	.inst	0x40200e28 ; undefined
 4b4:	00000000 	udf	#0
 4b8:	40200e44 	.inst	0x40200e44 ; undefined
 4bc:	00000000 	udf	#0
 4c0:	40200e60 	.inst	0x40200e60 ; undefined
 4c4:	00000000 	udf	#0
 4c8:	40200e74 	.inst	0x40200e74 ; undefined
 4cc:	00000000 	udf	#0
 4d0:	40200ef4 	.inst	0x40200ef4 ; undefined
 4d4:	00000000 	udf	#0
 4d8:	40200f08 	.inst	0x40200f08 ; undefined
 4dc:	00000000 	udf	#0
 4e0:	40200f28 	.inst	0x40200f28 ; undefined
 4e4:	00000000 	udf	#0
 4e8:	40200f50 	.inst	0x40200f50 ; undefined
 4ec:	00000000 	udf	#0
 4f0:	40200f64 	.inst	0x40200f64 ; undefined
 4f4:	00000000 	udf	#0
 4f8:	40200f7c 	.inst	0x40200f7c ; undefined
 4fc:	00000000 	udf	#0
 500:	4020106c 	.inst	0x4020106c ; undefined
 504:	00000000 	udf	#0
 508:	40201080 	.inst	0x40201080 ; undefined
 50c:	00000000 	udf	#0
 510:	40200fdc 	.inst	0x40200fdc ; undefined
 514:	00000000 	udf	#0
 518:	402010b0 	.inst	0x402010b0 ; undefined
 51c:	00000000 	udf	#0
 520:	402010e0 	.inst	0x402010e0 ; undefined
 524:	00000000 	udf	#0
 528:	402010e4 	.inst	0x402010e4 ; undefined
 52c:	00000000 	udf	#0
 530:	40201110 	.inst	0x40201110 ; undefined
 534:	00000000 	udf	#0
 538:	40201138 	.inst	0x40201138 ; undefined
 53c:	00000000 	udf	#0
 540:	40201158 	.inst	0x40201158 ; undefined
 544:	00000000 	udf	#0
 548:	40201168 	.inst	0x40201168 ; undefined
 54c:	00000000 	udf	#0
 550:	4020116c 	.inst	0x4020116c ; undefined
 554:	00000000 	udf	#0
 558:	4020117c 	.inst	0x4020117c ; undefined
 55c:	00000000 	udf	#0
 560:	4020118c 	.inst	0x4020118c ; undefined
 564:	00000000 	udf	#0
 568:	4020119c 	.inst	0x4020119c ; undefined
 56c:	00000000 	udf	#0
 570:	402011ac 	.inst	0x402011ac ; undefined
 574:	00000000 	udf	#0
 578:	402011c4 	.inst	0x402011c4 ; undefined
 57c:	00000000 	udf	#0
 580:	40200000 	.inst	0x40200000 ; undefined
 584:	00000000 	udf	#0
 588:	0000006c 	udf	#108
 58c:	00080005 	.inst	0x00080005 ; undefined
 590:	402022e9 	.inst	0x402022e9 ; undefined
 594:	00000000 	udf	#0
 598:	402011c8 	.inst	0x402011c8 ; undefined
 59c:	00000000 	udf	#0
 5a0:	40201290 	.inst	0x40201290 ; undefined
 5a4:	00000000 	udf	#0
 5a8:	40201330 	.inst	0x40201330 ; undefined
 5ac:	00000000 	udf	#0
 5b0:	40201358 	.inst	0x40201358 ; undefined
 5b4:	00000000 	udf	#0
 5b8:	40201388 	.inst	0x40201388 ; undefined
 5bc:	00000000 	udf	#0
 5c0:	40201574 	.inst	0x40201574 ; undefined
 5c4:	00000000 	udf	#0
 5c8:	4020141c 	.inst	0x4020141c ; undefined
 5cc:	00000000 	udf	#0
 5d0:	402014e0 	.inst	0x402014e0 ; undefined
 5d4:	00000000 	udf	#0
 5d8:	40201510 	.inst	0x40201510 ; undefined
 5dc:	00000000 	udf	#0
 5e0:	4020154c 	.inst	0x4020154c ; undefined
 5e4:	00000000 	udf	#0
 5e8:	40201580 	.inst	0x40201580 ; undefined
 5ec:	00000000 	udf	#0
 5f0:	402015b0 	.inst	0x402015b0 ; undefined
 5f4:	00000000 	udf	#0
 5f8:	000000c4 	udf	#196
 5fc:	00080005 	.inst	0x00080005 ; undefined
 600:	402021ef 	.inst	0x402021ef ; undefined
 604:	00000000 	udf	#0
 608:	402022c4 	.inst	0x402022c4 ; undefined
 60c:	00000000 	udf	#0
 610:	402022fa 	.inst	0x402022fa ; undefined
 614:	00000000 	udf	#0
 618:	40202035 	.inst	0x40202035 ; undefined
 61c:	00000000 	udf	#0
 620:	4020236c 	.inst	0x4020236c ; undefined
 624:	00000000 	udf	#0
 628:	402021e4 	.inst	0x402021e4 ; undefined
 62c:	00000000 	udf	#0
 630:	402020bf 	.inst	0x402020bf ; undefined
 634:	00000000 	udf	#0
 638:	40202309 	.inst	0x40202309 ; undefined
 63c:	00000000 	udf	#0
 640:	402016b8 	.inst	0x402016b8 ; undefined
 644:	00000000 	udf	#0
 648:	402016e0 	.inst	0x402016e0 ; undefined
 64c:	00000000 	udf	#0
 650:	402016f0 	.inst	0x402016f0 ; undefined
 654:	00000000 	udf	#0
 658:	40201700 	.inst	0x40201700 ; undefined
 65c:	00000000 	udf	#0
 660:	40201710 	.inst	0x40201710 ; undefined
 664:	00000000 	udf	#0
 668:	40201720 	.inst	0x40201720 ; undefined
 66c:	00000000 	udf	#0
 670:	40201730 	.inst	0x40201730 ; undefined
 674:	00000000 	udf	#0
 678:	40201748 	.inst	0x40201748 ; undefined
 67c:	00000000 	udf	#0
 680:	4020174c 	.inst	0x4020174c ; undefined
 684:	00000000 	udf	#0
 688:	40201750 	.inst	0x40201750 ; undefined
 68c:	00000000 	udf	#0
 690:	40201754 	.inst	0x40201754 ; undefined
 694:	00000000 	udf	#0
 698:	40201758 	.inst	0x40201758 ; undefined
 69c:	00000000 	udf	#0
 6a0:	4020175c 	.inst	0x4020175c ; undefined
 6a4:	00000000 	udf	#0
 6a8:	40201760 	.inst	0x40201760 ; undefined
 6ac:	00000000 	udf	#0
 6b0:	40201764 	.inst	0x40201764 ; undefined
 6b4:	00000000 	udf	#0
 6b8:	40201768 	.inst	0x40201768 ; undefined
 6bc:	00000000 	udf	#0

Disassembly of section .comment:

0000000000000000 <.comment>:
   0:	75625500 	.inst	0x75625500 ; undefined
   4:	2075746e 	.inst	0x2075746e ; undefined
   8:	6e616c63 	umin	v3.8h, v3.8h, v1.8h
   c:	65762067 	fmls	z7.h, p0/m, z3.h, z22.h
  10:	6f697372 	fcmla	v18.8h, v27.8h, v9.h[1], #270
  14:	3831206e 	ldeorb	w17, w14, [x3]
  18:	332e312e 	.inst	0x332e312e ; undefined
  1c:	75312820 	.inst	0x75312820 ; undefined
  20:	746e7562 	.inst	0x746e7562 ; undefined
  24:	00293175 	.inst	0x00293175 ; NYI
  28:	6b6e694c 	.inst	0x6b6e694c ; undefined
  2c:	203a7265 	.inst	0x203a7265 ; undefined
  30:	6e756255 	rsubhn2	v21.8h, v18.4s, v21.4s
  34:	4c207574 	.inst	0x4c207574 ; undefined
  38:	3120444c 	adds	w12, w2, #0x811
  3c:	2e312e38 	uqsub	v24.8b, v17.8b, v17.8b
  40:	Address 0x40 is out of bounds.


Disassembly of section .debug_frame:

0000000000000000 <.debug_frame>:
   0:	00000014 	udf	#20
   4:	ffffffff 	.inst	0xffffffff ; undefined
   8:	00080004 	.inst	0x00080004 ; undefined
   c:	0c1e7c01 	.inst	0x0c1e7c01 ; undefined
  10:	0000001f 	udf	#31
  14:	00000000 	udf	#0
  18:	0000001c 	udf	#28
  1c:	00000000 	udf	#0
  20:	40200018 	.inst	0x40200018 ; undefined
  24:	00000000 	udf	#0
  28:	0000001c 	udf	#28
  2c:	00000000 	udf	#0
  30:	00100e44 	.inst	0x00100e44 ; undefined
  34:	00000000 	udf	#0
  38:	0000001c 	udf	#28
  3c:	00000000 	udf	#0
  40:	40200034 	.inst	0x40200034 ; undefined
  44:	00000000 	udf	#0
  48:	00000024 	udf	#36
  4c:	00000000 	udf	#0
  50:	00100e44 	.inst	0x00100e44 ; undefined
  54:	00000000 	udf	#0
  58:	0000001c 	udf	#28
  5c:	00000000 	udf	#0
  60:	40200058 	.inst	0x40200058 ; undefined
  64:	00000000 	udf	#0
  68:	0000002c 	udf	#44
  6c:	00000000 	udf	#0
  70:	00100e44 	.inst	0x00100e44 ; undefined
  74:	00000000 	udf	#0
  78:	00000014 	udf	#20
  7c:	00000000 	udf	#0
  80:	40200084 	.inst	0x40200084 ; undefined
  84:	00000000 	udf	#0
  88:	00000018 	udf	#24
  8c:	00000000 	udf	#0
  90:	0000001c 	udf	#28
  94:	00000000 	udf	#0
  98:	4020009c 	.inst	0x4020009c ; undefined
  9c:	00000000 	udf	#0
  a0:	00000060 	udf	#96
  a4:	00000000 	udf	#0
  a8:	101d0c58 	adr	x24, 3a230 <_binary_shell_bin_size-0xfd6dd0>
  ac:	049d029e 	.inst	0x049d029e ; undefined
  b0:	00000024 	udf	#36
  b4:	00000000 	udf	#0
  b8:	402000fc 	.inst	0x402000fc ; undefined
  bc:	00000000 	udf	#0
  c0:	00000068 	udf	#104
  c4:	00000000 	udf	#0
  c8:	201d0c4c 	.inst	0x201d0c4c ; undefined
  cc:	069e0493 	.inst	0x069e0493 ; undefined
  d0:	0000089d 	udf	#2205
  d4:	00000000 	udf	#0
  d8:	0000002c 	udf	#44
  dc:	00000000 	udf	#0
  e0:	40200164 	.inst	0x40200164 ; undefined
  e4:	00000000 	udf	#0
  e8:	00000248 	udf	#584
  ec:	00000000 	udf	#0
  f0:	401d0c54 	.inst	0x401d0c54 ; undefined
  f4:	04940293 	sdiv	z19.s, p0/m, z19.s, z20.s
  f8:	08960695 	stllrb	w21, [x20]
  fc:	0c980a97 	st4	{v23.2s-v26.2s}, [x20], x24
 100:	109d0e9e 	adr	x30, fffffffffff3a2d0 <__free_ram_end+0xffffffffbccf62d0>
 104:	00000000 	udf	#0
 108:	00000014 	udf	#20
 10c:	00000000 	udf	#0
 110:	402003ac 	.inst	0x402003ac ; undefined
 114:	00000000 	udf	#0
 118:	00000044 	udf	#68
 11c:	00000000 	udf	#0
 120:	00000014 	udf	#20
 124:	00000000 	udf	#0
 128:	402003f0 	.inst	0x402003f0 ; undefined
 12c:	00000000 	udf	#0
 130:	00000018 	udf	#24
 134:	00000000 	udf	#0
 138:	00000014 	udf	#20
 13c:	00000000 	udf	#0
 140:	40200408 	.inst	0x40200408 ; undefined
 144:	00000000 	udf	#0
 148:	00000044 	udf	#68
 14c:	00000000 	udf	#0
 150:	00000014 	udf	#20
 154:	00000000 	udf	#0
 158:	4020044c 	.inst	0x4020044c ; undefined
 15c:	00000000 	udf	#0
 160:	00000260 	udf	#608
 164:	00000000 	udf	#0
 168:	00000024 	udf	#36
 16c:	00000000 	udf	#0
 170:	402006ac 	.inst	0x402006ac ; undefined
 174:	00000000 	udf	#0
 178:	0000003c 	udf	#60
 17c:	00000000 	udf	#0
 180:	201d0c4c 	.inst	0x201d0c4c ; undefined
 184:	069e0493 	.inst	0x069e0493 ; undefined
 188:	0000089d 	udf	#2205
 18c:	00000000 	udf	#0
 190:	00000024 	udf	#36
 194:	00000000 	udf	#0
 198:	402006e8 	.inst	0x402006e8 ; undefined
 19c:	00000000 	udf	#0
 1a0:	0000003c 	udf	#60
 1a4:	00000000 	udf	#0
 1a8:	201d0c4c 	.inst	0x201d0c4c ; undefined
 1ac:	069e0493 	.inst	0x069e0493 ; undefined
 1b0:	0000089d 	udf	#2205
 1b4:	00000000 	udf	#0
 1b8:	00000014 	udf	#20
 1bc:	00000000 	udf	#0
 1c0:	40200724 	.inst	0x40200724 ; undefined
 1c4:	00000000 	udf	#0
 1c8:	0000001c 	udf	#28
 1cc:	00000000 	udf	#0
 1d0:	00000034 	udf	#52
 1d4:	00000000 	udf	#0
 1d8:	40200740 	.inst	0x40200740 ; undefined
 1dc:	00000000 	udf	#0
 1e0:	00000390 	udf	#912
 1e4:	00000000 	udf	#0
 1e8:	601d0c60 	.inst	0x601d0c60 ; undefined
 1ec:	04940293 	sdiv	z19.s, p0/m, z19.s, z20.s
 1f0:	08960695 	stllrb	w21, [x20]
 1f4:	0c980a97 	st4	{v23.2s-v26.2s}, [x20], x24
 1f8:	109a0e99 	adr	x25, fffffffffff343c8 <__free_ram_end+0xffffffffbccf03c8>
 1fc:	149c129b 	b	2704c68 <_binary_shell_bin_size+0x16f3c68>
 200:	189d169e 	ldr	w30, fffffffffff3a4d0 <__free_ram_end+0xffffffffbccf64d0>
 204:	00000000 	udf	#0
 208:	0000001c 	udf	#28
 20c:	00000000 	udf	#0
 210:	40200ad0 	.inst	0x40200ad0 ; undefined
 214:	00000000 	udf	#0
 218:	000000d8 	udf	#216
 21c:	00000000 	udf	#0
 220:	101d0c4c 	adr	x12, 3a3a8 <_binary_shell_bin_size-0xfd6c58>
 224:	049d029e 	.inst	0x049d029e ; undefined
 228:	00000024 	udf	#36
 22c:	00000000 	udf	#0
 230:	40200ba8 	.inst	0x40200ba8 ; undefined
 234:	00000000 	udf	#0
 238:	000000ec 	udf	#236
 23c:	00000000 	udf	#0
 240:	301d0c50 	adr	x16, 3a3c9 <_binary_shell_bin_size-0xfd6c37>
 244:	04940293 	sdiv	z19.s, p0/m, z19.s, z20.s
 248:	08960695 	stllrb	w21, [x20]
 24c:	0c9d0a9e 	st4	{v30.2s-v1.2s}, [x20], x29
 250:	00000014 	udf	#20
 254:	00000000 	udf	#0
 258:	40200c94 	.inst	0x40200c94 ; undefined
 25c:	00000000 	udf	#0
 260:	0000000c 	udf	#12
 264:	00000000 	udf	#0
 268:	00000014 	udf	#20
 26c:	00000000 	udf	#0
 270:	40200ca0 	.inst	0x40200ca0 ; undefined
 274:	00000000 	udf	#0
 278:	0000000c 	udf	#12
 27c:	00000000 	udf	#0
 280:	00000014 	udf	#20
 284:	00000000 	udf	#0
 288:	40200cac 	.inst	0x40200cac ; undefined
 28c:	00000000 	udf	#0
 290:	0000000c 	udf	#12
 294:	00000000 	udf	#0
 298:	00000014 	udf	#20
 29c:	00000000 	udf	#0
 2a0:	40200cb8 	.inst	0x40200cb8 ; undefined
 2a4:	00000000 	udf	#0
 2a8:	00000014 	udf	#20
 2ac:	00000000 	udf	#0
 2b0:	00000024 	udf	#36
 2b4:	00000000 	udf	#0
 2b8:	40200ccc 	.inst	0x40200ccc ; undefined
 2bc:	00000000 	udf	#0
 2c0:	00000098 	udf	#152
 2c4:	00000000 	udf	#0
 2c8:	201d0c4c 	.inst	0x201d0c4c ; undefined
 2cc:	04940293 	sdiv	z19.s, p0/m, z19.s, z20.s
 2d0:	089d069e 	stllrb	w30, [x20]
 2d4:	00000000 	udf	#0
 2d8:	00000024 	udf	#36
 2dc:	00000000 	udf	#0
 2e0:	40200d64 	.inst	0x40200d64 ; undefined
 2e4:	00000000 	udf	#0
 2e8:	000001c4 	udf	#452
 2ec:	00000000 	udf	#0
 2f0:	301d0c50 	adr	x16, 3a479 <_binary_shell_bin_size-0xfd6b87>
 2f4:	04940293 	sdiv	z19.s, p0/m, z19.s, z20.s
 2f8:	08960695 	stllrb	w21, [x20]
 2fc:	0c9d0a9e 	st4	{v30.2s-v1.2s}, [x20], x29
 300:	00000014 	udf	#20
 304:	00000000 	udf	#0
 308:	40200f28 	.inst	0x40200f28 ; undefined
 30c:	00000000 	udf	#0
 310:	0000003c 	udf	#60
 314:	00000000 	udf	#0
 318:	00000014 	udf	#20
 31c:	00000000 	udf	#0
 320:	40200f64 	.inst	0x40200f64 ; undefined
 324:	00000000 	udf	#0
 328:	00000018 	udf	#24
 32c:	00000000 	udf	#0
 330:	00000024 	udf	#36
 334:	00000000 	udf	#0
 338:	40200f7c 	.inst	0x40200f7c ; undefined
 33c:	00000000 	udf	#0
 340:	00000168 	udf	#360
 344:	00000000 	udf	#0
 348:	301d0c50 	adr	x16, 3a4d1 <_binary_shell_bin_size-0xfd6b2f>
 34c:	04940293 	sdiv	z19.s, p0/m, z19.s, z20.s
 350:	08960695 	stllrb	w21, [x20]
 354:	0c9d0a9e 	st4	{v30.2s-v1.2s}, [x20], x29
 358:	00000024 	udf	#36
 35c:	00000000 	udf	#0
 360:	402010e4 	.inst	0x402010e4 ; undefined
 364:	00000000 	udf	#0
 368:	000000e4 	udf	#228
 36c:	00000000 	udf	#0
 370:	201d0c50 	.inst	0x201d0c50 ; undefined
 374:	069e049c 	.inst	0x069e049c ; undefined
 378:	0000089d 	udf	#2205
 37c:	00000000 	udf	#0
 380:	00000014 	udf	#20
 384:	00000000 	udf	#0
 388:	40200000 	.inst	0x40200000 ; undefined
 38c:	00000000 	udf	#0
 390:	00000018 	udf	#24
 394:	00000000 	udf	#0
 398:	00000014 	udf	#20
 39c:	ffffffff 	.inst	0xffffffff ; undefined
 3a0:	00080004 	.inst	0x00080004 ; undefined
 3a4:	0c1e7c01 	.inst	0x0c1e7c01 ; undefined
 3a8:	0000001f 	udf	#31
 3ac:	00000000 	udf	#0
 3b0:	00000014 	udf	#20
 3b4:	00000398 	udf	#920
 3b8:	402011c8 	.inst	0x402011c8 ; undefined
 3bc:	00000000 	udf	#0
 3c0:	000000c8 	udf	#200
 3c4:	00000000 	udf	#0
 3c8:	00000014 	udf	#20
 3cc:	00000398 	udf	#920
 3d0:	40201290 	.inst	0x40201290 ; undefined
 3d4:	00000000 	udf	#0
 3d8:	000000a0 	udf	#160
 3dc:	00000000 	udf	#0
 3e0:	00000014 	udf	#20
 3e4:	00000398 	udf	#920
 3e8:	40201330 	.inst	0x40201330 ; undefined
 3ec:	00000000 	udf	#0
 3f0:	00000028 	udf	#40
 3f4:	00000000 	udf	#0
 3f8:	00000014 	udf	#20
 3fc:	00000398 	udf	#920
 400:	40201358 	.inst	0x40201358 ; undefined
 404:	00000000 	udf	#0
 408:	00000030 	udf	#48
 40c:	00000000 	udf	#0
 410:	0000002c 	udf	#44
 414:	00000398 	udf	#920
 418:	40201388 	.inst	0x40201388 ; undefined
 41c:	00000000 	udf	#0
 420:	00000244 	udf	#580
 424:	00000000 	udf	#0
 428:	501d0c5c 	adr	x28, 3a5b2 <_binary_shell_bin_size-0xfd6a4e>
 42c:	04940293 	sdiv	z19.s, p0/m, z19.s, z20.s
 430:	08960695 	stllrb	w21, [x20]
 434:	0c980a97 	st4	{v23.2s-v26.2s}, [x20], x24
 438:	129e109c 	mov	w28, #0xffff0f7b            	// #-61573
 43c:	0000149d 	udf	#5277
 440:	00000014 	udf	#20
 444:	ffffffff 	.inst	0xffffffff ; undefined
 448:	00080004 	.inst	0x00080004 ; undefined
 44c:	0c1e7c01 	.inst	0x0c1e7c01 ; undefined
 450:	0000001f 	udf	#31
 454:	00000000 	udf	#0
 458:	00000024 	udf	#36
 45c:	00000440 	udf	#1088
 460:	402016b8 	.inst	0x402016b8 ; undefined
 464:	00000000 	udf	#0
 468:	00000094 	udf	#148
 46c:	00000000 	udf	#0
 470:	301d0c50 	adr	x16, 3a5f9 <_binary_shell_bin_size-0xfd6a07>
 474:	04940293 	sdiv	z19.s, p0/m, z19.s, z20.s
 478:	0a9e0895 	and	w21, w4, w30, asr #2
 47c:	00000c9d 	udf	#3229
 480:	00000014 	udf	#20
 484:	00000440 	udf	#1088
 488:	4020174c 	.inst	0x4020174c ; undefined
 48c:	00000000 	udf	#0
 490:	00000004 	udf	#4
 494:	00000000 	udf	#0
 498:	00000014 	udf	#20
 49c:	00000440 	udf	#1088
 4a0:	40201750 	.inst	0x40201750 ; undefined
 4a4:	00000000 	udf	#0
 4a8:	00000004 	udf	#4
 4ac:	00000000 	udf	#0
 4b0:	00000014 	udf	#20
 4b4:	00000440 	udf	#1088
 4b8:	40201754 	.inst	0x40201754 ; undefined
 4bc:	00000000 	udf	#0
 4c0:	00000004 	udf	#4
 4c4:	00000000 	udf	#0
 4c8:	00000014 	udf	#20
 4cc:	00000440 	udf	#1088
 4d0:	40201758 	.inst	0x40201758 ; undefined
 4d4:	00000000 	udf	#0
 4d8:	00000004 	udf	#4
 4dc:	00000000 	udf	#0
 4e0:	00000014 	udf	#20
 4e4:	00000440 	udf	#1088
 4e8:	4020175c 	.inst	0x4020175c ; undefined
 4ec:	00000000 	udf	#0
 4f0:	00000004 	udf	#4
 4f4:	00000000 	udf	#0
 4f8:	00000014 	udf	#20
 4fc:	00000440 	udf	#1088
 500:	40201760 	.inst	0x40201760 ; undefined
 504:	00000000 	udf	#0
 508:	00000004 	udf	#4
 50c:	00000000 	udf	#0
 510:	00000014 	udf	#20
 514:	00000440 	udf	#1088
 518:	40201764 	.inst	0x40201764 ; undefined
 51c:	00000000 	udf	#0
 520:	00000004 	udf	#4
 524:	00000000 	udf	#0
 528:	00000014 	udf	#20
 52c:	00000440 	udf	#1088
 530:	40201768 	.inst	0x40201768 ; undefined
 534:	00000000 	udf	#0
 538:	00000004 	udf	#4
 53c:	00000000 	udf	#0

Disassembly of section .debug_line:

0000000000000000 <.debug_line>:
   0:	000008bd 	udf	#2237
   4:	00080005 	.inst	0x00080005 ; undefined
   8:	00000065 	udf	#101
   c:	fb010101 	.inst	0xfb010101 ; undefined
  10:	01000d0e 	.inst	0x01000d0e ; undefined
  14:	00010101 	.inst	0x00010101 ; undefined
  18:	00010000 	.inst	0x00010000 ; undefined
  1c:	01010100 	.inst	0x01010100 ; undefined
  20:	0009021f 	.inst	0x0009021f ; undefined
  24:	00470000 	.inst	0x00470000 ; undefined
  28:	01030000 	.inst	0x01030000 ; undefined
  2c:	050f021f 	.inst	0x050f021f ; undefined
  30:	0000031e 	udf	#798
  34:	19000000 	stlurb	w0, [x0]
  38:	4f67a39e 	smull2	v30.4s, v28.8h, v7.h[2]
  3c:	2bbd9bae 	.inst	0x2bbd9bae ; undefined
  40:	79a2f068 	ldrsh	x8, [x3, #4472]
  44:	57afe5d8 	.inst	0x57afe5d8 ; undefined
  48:	01000000 	.inst	0x01000000 ; undefined
  4c:	e0269fcf 	st1b	{za0v.b[w12, 15]}, p7, [x30, x6]
  50:	c14b1482 	.inst	0xc14b1482 ; undefined
  54:	248d0d4d 	cmphs	p13.s, p3/z, z10.s, z13.s
  58:	dff95277 	.inst	0xdff95277 ; undefined
  5c:	00000026 	udf	#38
  60:	27b7e701 	.inst	0x27b7e701 ; undefined
  64:	2bd9f501 	.inst	0x2bd9f501 ; undefined
  68:	101d64ff 	adr	xzr, 3ad04 <_binary_shell_bin_size-0xfd62fc>
  6c:	ecc9922f 	.inst	0xecc9922f ; undefined
  70:	0000042a 	udf	#1066
  74:	00180209 	.inst	0x00180209 ; undefined
  78:	00004020 	udf	#16416
  7c:	14030000 	b	c007c <_binary_shell_bin_size-0xf50f84>
  80:	0a050501 	and	w1, w8, w5, lsl #1
  84:	05be0b89 	uzp1	z9.q, z28.q, z30.q
  88:	05058500 	.inst	0x05058500 ; undefined
  8c:	8279030a 	.inst	0x8279030a ; undefined
  90:	030b0205 	.inst	0x030b0205 ; undefined
  94:	053c0809 	ext	z9.b, z9.b, z0.b, #226
  98:	05058400 	.inst	0x05058400 ; undefined
  9c:	8275030a 	.inst	0x8275030a ; undefined
  a0:	1a030605 	.inst	0x1a030605 ; undefined
  a4:	0b063c08 	add	w8, w0, w6, lsl #15
  a8:	06000582 	.inst	0x06000582 ; undefined
  ac:	0a050588 	and	w8, w12, w5, lsl #1
  b0:	0d030a4b 	.inst	0x0d030a4b ; undefined
  b4:	1d053c08 	.inst	0x1d053c08 ; undefined
  b8:	4c09054b 	.inst	0x4c09054b ; undefined
  bc:	79080505 	strh	w5, [x8, #1026]
  c0:	03064ec2 	.inst	0x03064ec2 ; undefined
  c4:	064a7fa2 	.inst	0x064a7fa2 ; undefined
  c8:	4a00ea03 	.inst	0x4a00ea03 ; undefined
  cc:	78030b05 	sttrh	w5, [x24, #48]
  d0:	4b050582 	sub	w2, w12, w5, lsl #1
  d4:	0905890b 	.inst	0x0905890b ; undefined
  d8:	05826403 	and	z3.d, z3.d, #0xfff00000001fffff
  dc:	ba200300 	.inst	0xba200300 ; undefined
  e0:	bc0a1505 	str	s5, [x8], #161
  e4:	4c14054b 	.inst	0x4c14054b ; undefined
  e8:	057f1505 	ext	z5.b, {z8.b-z9.b}, #253
  ec:	09054b10 	.inst	0x09054b10 ; undefined
  f0:	4810054c 	stxrh	w16, w12, [x10]
  f4:	4b4c0905 	sub	w5, w8, w12, lsr #2
  f8:	ae080505 	.inst	0xae080505 ; undefined
  fc:	4a0b06bb 	eor	w27, w21, w11, lsl #1
 100:	bd060005 	str	s5, [x0, #1536]
 104:	080a0a05 	stxrb	w10, w5, [x16]
 108:	06090575 	.inst	0x06090575 ; undefined
 10c:	054b064a 	.inst	0x054b064a ; undefined
 110:	05e5080a 	.inst	0x05e5080a ; undefined
 114:	064a0609 	.inst	0x064a0609 ; undefined
 118:	0827054b 	.inst	0x0827054b ; undefined
 11c:	4c0a05e7 	.inst	0x4c0a05e7 ; undefined
 120:	4a060905 	eor	w5, w8, w6, lsl #2
 124:	03061505 	.inst	0x03061505 ; undefined
 128:	14054a6d 	b	152adc <_binary_shell_bin_size-0xebe524>
 12c:	7f15054d 	.inst	0x7f15054d ; undefined
 130:	054b1005 	.inst	0x054b1005 ; undefined
 134:	10054c09 	adr	x9, aab4 <_binary_shell_bin_size-0x100654c>
 138:	4c090548 	.inst	0x4c090548 ; undefined
 13c:	8c03064b 	.inst	0x8c03064b ; undefined
 140:	05ac087f 	uzp1	z31.q, z3.q, z12.q
 144:	f6030605 	.inst	0xf6030605 ; undefined
 148:	09054a00 	.inst	0x09054a00 ; undefined
 14c:	74080f03 	.inst	0x74080f03 ; undefined
 150:	05f32905 	tbl	z5.d, {z8.d-z9.d}, z19.d
 154:	05ba0643 	zip2	z3.q, z18.q, z26.q
 158:	30054a1c 	adr	x28, aa99 <_binary_shell_bin_size-0x1006567>
 15c:	20054c06 	.inst	0x20054c06 ; undefined
 160:	4c0a054d 	.inst	0x4c0a054d ; undefined
 164:	ba060905 	.inst	0xba060905 ; undefined
 168:	03061505 	.inst	0x03061505 ; undefined
 16c:	14054a63 	b	152af8 <_binary_shell_bin_size-0xebe508>
 170:	7f15054d 	.inst	0x7f15054d ; undefined
 174:	054b1005 	.inst	0x054b1005 ; undefined
 178:	10054c09 	adr	x9, aaf8 <_binary_shell_bin_size-0x1006508>
 17c:	4c090548 	.inst	0x4c090548 ; undefined
 180:	0805054b 	stxrb	w5, w11, [x10]
 184:	060005ae 	.inst	0x060005ae ; undefined
 188:	f27f8a03 	ands	x3, x16, #0xffffffffe
 18c:	f6030505 	.inst	0xf6030505 ; undefined
 190:	09058200 	.inst	0x09058200 ; undefined
 194:	4a190306 	eor	w6, w24, w25
 198:	05f32905 	tbl	z5.d, {z8.d-z9.d}, z19.d
 19c:	05ba0643 	zip2	z3.q, z18.q, z26.q
 1a0:	30054a1c 	adr	x28, aae1 <_binary_shell_bin_size-0x100651f>
 1a4:	20054c06 	.inst	0x20054c06 ; undefined
 1a8:	4c0a054d 	.inst	0x4c0a054d ; undefined
 1ac:	ba060905 	.inst	0xba060905 ; undefined
 1b0:	03061505 	.inst	0x03061505 ; undefined
 1b4:	14054a59 	b	152b18 <_binary_shell_bin_size-0xebe4e8>
 1b8:	7f15054d 	.inst	0x7f15054d ; undefined
 1bc:	054b1005 	.inst	0x054b1005 ; undefined
 1c0:	10054c09 	adr	x9, ab40 <_binary_shell_bin_size-0x10064c0>
 1c4:	4c090548 	.inst	0x4c090548 ; undefined
 1c8:	0805054b 	stxrb	w5, w11, [x10]
 1cc:	060005ae 	.inst	0x060005ae ; undefined
 1d0:	f27f8a03 	ands	x3, x16, #0xffffffffe
 1d4:	f6030505 	.inst	0xf6030505 ; undefined
 1d8:	09058200 	.inst	0x09058200 ; undefined
 1dc:	4a230306 	eon	w6, w24, w3
 1e0:	05f32905 	tbl	z5.d, {z8.d-z9.d}, z19.d
 1e4:	05ba0643 	zip2	z3.q, z18.q, z26.q
 1e8:	20054a1c 	.inst	0x20054a1c ; undefined
 1ec:	30054f06 	adr	x6, abcd <_binary_shell_bin_size-0x1006433>
 1f0:	4e4e0547 	fmaxnm	v7.8h, v10.8h, v14.8h
 1f4:	850b0105 	.inst	0x850b0105 ; undefined
 1f8:	05470505 	.inst	0x05470505 ; undefined
 1fc:	4e054d01 	.inst	0x4e054d01 ; undefined
 200:	0618057f 	.inst	0x0618057f ; undefined
 204:	0601054a 	.inst	0x0601054a ; undefined
 208:	0a05054d 	and	w13, w10, w5, lsl #1
 20c:	03000586 	.inst	0x03000586 ; undefined
 210:	01440220 	.inst	0x01440220 ; undefined
 214:	830a1705 	.inst	0x830a1705 ; undefined
 218:	054b0905 	.inst	0x054b0905 ; undefined
 21c:	01054905 	.inst	0x01054905 ; undefined
 220:	4c00054c 	st4	{v12.8h-v15.8h}, [x10]
 224:	080a0505 	stxrb	w10, w5, [x8]
 228:	0301053f 	.inst	0x0301053f ; undefined
 22c:	012c021c 	.inst	0x012c021c ; undefined
 230:	09030005 	.inst	0x09030005 ; undefined
 234:	0a13054a 	and	w10, w10, w19, lsl #1
 238:	b93f054f 	str	w15, [x10, #16132]
 23c:	05f31305 	.inst	0x05f31305 ; undefined
 240:	2a05ef1c 	.inst	0x2a05ef1c ; undefined
 244:	81210585 	.inst	0x81210585 ; undefined
 248:	05bb3305 	tbl	z5.s, {z24.s}, z27.s
 24c:	054a060d 	.inst	0x054a060d ; undefined
 250:	0581063a 	and	z26.b, z26.b, #0x3
 254:	054a063f 	.inst	0x054a063f ; undefined
 258:	05f30613 	.inst	0x05f30613 ; undefined
 25c:	0582062a 	and	z10.d, z10.d, #0x3ffffffffffff
 260:	05810621 	and	z1.b, z1.b, #0x3
 264:	0d05bb33 	.inst	0x0d05bb33 ; undefined
 268:	3a054a06 	.inst	0x3a054a06 ; undefined
 26c:	3f058106 	.inst	0x3f058106 ; undefined
 270:	13054a06 	sbfx	w6, w16, #5, #14
 274:	2a05f306 	.inst	0x2a05f306 ; undefined
 278:	2105ba06 	.inst	0x2105ba06 ; undefined
 27c:	33058106 	.inst	0x33058106 ; undefined
 280:	060d05bb 	.inst	0x060d05bb ; undefined
 284:	063a054a 	.inst	0x063a054a ; undefined
 288:	063f0581 	.inst	0x063f0581 ; undefined
 28c:	0613054a 	.inst	0x0613054a ; undefined
 290:	062a05f3 	.inst	0x062a05f3 ; undefined
 294:	06210582 	.inst	0x06210582 ; undefined
 298:	bb330581 	.inst	0xbb330581 ; undefined
 29c:	4a060d05 	eor	w5, w8, w6, lsl #3
 2a0:	81063a05 	.inst	0x81063a05 ; undefined
 2a4:	4a063f05 	eor	w5, w24, w6, lsl #15
 2a8:	f3061305 	.inst	0xf3061305 ; undefined
 2ac:	ba062a05 	.inst	0xba062a05 ; undefined
 2b0:	81062105 	.inst	0x81062105 ; undefined
 2b4:	05bb3305 	tbl	z5.s, {z24.s}, z27.s
 2b8:	054a060d 	.inst	0x054a060d ; undefined
 2bc:	0581063a 	and	z26.b, z26.b, #0x3
 2c0:	054a063f 	.inst	0x054a063f ; undefined
 2c4:	05f30613 	.inst	0x05f30613 ; undefined
 2c8:	0582062a 	and	z10.d, z10.d, #0x3ffffffffffff
 2cc:	05810621 	and	z1.b, z1.b, #0x3
 2d0:	0d05bb33 	.inst	0x0d05bb33 ; undefined
 2d4:	3a054a06 	.inst	0x3a054a06 ; undefined
 2d8:	3f058106 	.inst	0x3f058106 ; undefined
 2dc:	13054a06 	sbfx	w6, w16, #5, #14
 2e0:	2a05f306 	.inst	0x2a05f306 ; undefined
 2e4:	2105ba06 	.inst	0x2105ba06 ; undefined
 2e8:	33058106 	.inst	0x33058106 ; undefined
 2ec:	060d05bb 	.inst	0x060d05bb ; undefined
 2f0:	063a054a 	.inst	0x063a054a ; undefined
 2f4:	063f0581 	.inst	0x063f0581 ; undefined
 2f8:	0613054a 	.inst	0x0613054a ; undefined
 2fc:	062a05f3 	.inst	0x062a05f3 ; undefined
 300:	06210582 	.inst	0x06210582 ; undefined
 304:	bb330581 	.inst	0xbb330581 ; undefined
 308:	4a060d05 	eor	w5, w8, w6, lsl #3
 30c:	827e8703 	.inst	0x827e8703 ; undefined
 310:	03060905 	.inst	0x03060905 ; undefined
 314:	064a0280 	.inst	0x064a0280 ; undefined
 318:	827e8003 	.inst	0x827e8003 ; undefined
 31c:	03061205 	.inst	0x03061205 ; undefined
 320:	054a0285 	.inst	0x054a0285 ; undefined
 324:	2005502b 	.inst	0x2005502b ; undefined
 328:	03050547 	.inst	0x03050547 ; undefined
 32c:	1b054a09 	madd	w9, w16, w5, w18
 330:	2c021a03 	stnp	s3, s6, [x16, #16]
 334:	06260501 	.inst	0x06260501 ; undefined
 338:	4a05054a 	eor	w10, w10, w5, lsl #1
 33c:	4e060105 	tbl	v5.16b, {v8.16b}, v6.16b
 340:	054c0005 	.inst	0x054c0005 ; undefined
 344:	06bb0a05 	.inst	0x06bb0a05 ; undefined
 348:	ba7dce03 	.inst	0xba7dce03 ; undefined
 34c:	821c0306 	.inst	0x821c0306 ; undefined
 350:	9b030305 	madd	x5, x24, x3, x0
 354:	053c0802 	ext	z2.b, z2.b, z0.b, #226
 358:	00054605 	.inst	0x00054605 ; undefined
 35c:	0a050552 	and	w18, w10, w5, lsl #1
 360:	c40306bb 	ld1sb	{z27.d}, p1/z, [x21, z3.d, uxtw]
 364:	0306ba7d 	.inst	0x0306ba7d ; undefined
 368:	0305821c 	.inst	0x0305821c ; undefined
 36c:	0802a503 	stlxrb	w2, w3, [x8]
 370:	4605053c 	.inst	0x4605053c ; undefined
 374:	05520005 	mov	z5.h, p2/z, #0
 378:	05830a05 	and	z5.d, z5.d, #0xffff80000000
 37c:	080f0300 	stxrb	w15, w0, [x24]
 380:	0a16053c 	and	w28, w9, w22, lsl #1
 384:	0306e808 	.inst	0x0306e808 ; undefined
 388:	03827da7 	.inst	0x03827da7 ; undefined
 38c:	054a02d9 	.inst	0x054a02d9 ; undefined
 390:	16054a0d 	b	fffffffff8152bc4 <__free_ram_end+0xffffffffb4f0ebc4>
 394:	820d054a 	.inst	0x820d054a ; undefined
 398:	054a1605 	.inst	0x054a1605 ; undefined
 39c:	1605820d 	b	fffffffff8160bd0 <__free_ram_end+0xffffffffb4f1cbd0>
 3a0:	820d054a 	.inst	0x820d054a ; undefined
 3a4:	054a1605 	.inst	0x054a1605 ; undefined
 3a8:	1605820d 	b	fffffffff8160bdc <__free_ram_end+0xffffffffb4f1cbdc>
 3ac:	820d054a 	.inst	0x820d054a ; undefined
 3b0:	054a1605 	.inst	0x054a1605 ; undefined
 3b4:	1605820d 	b	fffffffff8160be8 <__free_ram_end+0xffffffffb4f1cbe8>
 3b8:	820d054a 	.inst	0x820d054a ; undefined
 3bc:	52060905 	eor	w5, w8, #0x1c000000
 3c0:	7d9f0306 	.inst	0x7d9f0306 ; undefined
 3c4:	0605ac08 	.inst	0x0605ac08 ; undefined
 3c8:	02e70306 	.inst	0x02e70306 ; undefined
 3cc:	05014002 	orr	z2.s, z2.s, #0x1000000
 3d0:	7e890315 	.inst	0x7e890315 ; undefined
 3d4:	030b05ba 	.inst	0x030b05ba ; undefined
 3d8:	054a01fa 	.inst	0x054a01fa ; undefined
 3dc:	7e860315 	.inst	0x7e860315 ; undefined
 3e0:	030b054a 	.inst	0x030b054a ; undefined
 3e4:	054a01f7 	.inst	0x054a01f7 ; undefined
 3e8:	7e8c0314 	.inst	0x7e8c0314 ; undefined
 3ec:	030b0582 	.inst	0x030b0582 ; undefined
 3f0:	058201f4 	and	z20.d, z20.d, #0xffff
 3f4:	7e8a0310 	.inst	0x7e8a0310 ; undefined
 3f8:	4c09054a 	.inst	0x4c09054a ; undefined
 3fc:	f5030b05 	.inst	0xf5030b05 ; undefined
 400:	4c4c4a01 	.inst	0x4c4c4a01 ; undefined
 404:	054c4c4c 	.inst	0x054c4c4c ; undefined
 408:	7dff0310 	.inst	0x7dff0310 ; undefined
 40c:	4c09054a 	.inst	0x4c09054a ; undefined
 410:	0805054b 	stxrb	w5, w11, [x10]
 414:	031e05ae 	.inst	0x031e05ae ; undefined
 418:	05f201ff 	.inst	0x05f201ff ; undefined
 41c:	064a0609 	.inst	0x064a0609 ; undefined
 420:	0805054c 	stxrb	w5, w12, [x10]
 424:	850306b0 	.inst	0x850306b0 ; undefined
 428:	053c087d 	ext	z29.b, z29.b, z3.b, #226
 42c:	fd030609 	str	d9, [x16, #1544]
 430:	32058202 	orr	w2, w16, #0x8000800
 434:	490505f1 	.inst	0x490505f1 ; undefined
 438:	06f3be85 	.inst	0x06f3be85 ; undefined
 43c:	4a7cfd03 	.inst	0x4a7cfd03 ; undefined
 440:	03061505 	.inst	0x03061505 ; undefined
 444:	05ba00f0 	zip1	z16.q, z7.q, z26.q
 448:	09054b10 	.inst	0x09054b10 ; undefined
 44c:	4810054c 	stxrh	w16, w12, [x10]
 450:	054c0905 	.inst	0x054c0905 ; undefined
 454:	1c054d05 	ldr	s5, adf4 <_binary_shell_bin_size-0x100620c>
 458:	f2029303 	ands	x3, x24, #0xc007c007c007c007
 45c:	05850905 	.inst	0x05850905 ; undefined
 460:	0306471c 	.inst	0x0306471c ; undefined
 464:	054a7cf7 	.inst	0x054a7cf7 ; undefined
 468:	8c030625 	.inst	0x8c030625 ; undefined
 46c:	09054a03 	.inst	0x09054a03 ; undefined
 470:	4b064a06 	sub	w6, w16, w6, lsl #18
 474:	76033205 	.inst	0x76033205 ; undefined
 478:	03063c08 	.inst	0x03063c08 ; undefined
 47c:	054a7cfd 	.inst	0x054a7cfd ; undefined
 480:	03830305 	.inst	0x03830305 ; undefined
 484:	0615054a 	.inst	0x0615054a ; undefined
 488:	827ded03 	.inst	0x827ded03 ; undefined
 48c:	054b1005 	.inst	0x054b1005 ; undefined
 490:	10054c09 	adr	x9, ae10 <_binary_shell_bin_size-0x10061f0>
 494:	4c090548 	.inst	0x4c090548 ; undefined
 498:	8c03064b 	.inst	0x8c03064b ; undefined
 49c:	05ac087f 	uzp1	z31.q, z3.q, z12.q
 4a0:	f6030605 	.inst	0xf6030605 ; undefined
 4a4:	00054a00 	.inst	0x00054a00 ; undefined
 4a8:	7f8a0306 	.inst	0x7f8a0306 ; undefined
 4ac:	030505ba 	.inst	0x030505ba ; undefined
 4b0:	064a00f6 	.inst	0x064a00f6 ; undefined
 4b4:	4a029c03 	.inst	0x4a029c03 ; undefined
 4b8:	7cee0306 	.inst	0x7cee0306 ; undefined
 4bc:	15053c08 	b	414f4dc <_binary_shell_bin_size+0x313e4dc>
 4c0:	00f00306 	.inst	0x00f00306 ; undefined
 4c4:	4b1005ba 	sub	w26, w13, w16, lsl #1
 4c8:	054c0905 	.inst	0x054c0905 ; undefined
 4cc:	09054810 	.inst	0x09054810 ; undefined
 4d0:	4d05054c 	.inst	0x4d05054c ; undefined
 4d4:	a3030905 	.inst	0xa3030905 ; undefined
 4d8:	2005f202 	.inst	0x2005f202 ; undefined
 4dc:	05053a08 	.inst	0x05053a08 ; undefined
 4e0:	e9034a06 	.inst	0xe9034a06 ; undefined
 4e4:	0306827c 	.inst	0x0306827c ; undefined
 4e8:	0582039d 	and	z29.d, z29.d, #0x1fffffff
 4ec:	7fbc030d 	.inst	0x7fbc030d ; undefined
 4f0:	030505f2 	.inst	0x030505f2 ; undefined
 4f4:	05ba00c4 	zip1	z4.q, z6.q, z26.q
 4f8:	0e054c13 	.inst	0x0e054c13 ; undefined
 4fc:	480f0584 	stxrh	w15, w4, [x12]
 500:	064f0505 	.inst	0x064f0505 ; undefined
 504:	09054a0b 	.inst	0x09054a0b ; undefined
 508:	7dd00306 	.inst	0x7dd00306 ; undefined
 50c:	0806e408 	stlxrb	w6, w8, [x0]
 510:	060005ac 	.inst	0x060005ac ; undefined
 514:	0802b603 	stlxrb	w2, w3, [x16]
 518:	0a1b05ac 	and	w12, w13, w27, lsl #1
 51c:	4b0c05bd 	sub	w29, w13, w12, lsl #1
 520:	05bb0505 	zip2	z5.q, z8.q, z27.q
 524:	0505490c 	.inst	0x0505490c ; undefined
 528:	d103064b 	sub	x11, x18, #0xc1
 52c:	0306ba7c 	.inst	0x0306ba7c ; undefined
 530:	1505821c 	b	4160da0 <_binary_shell_bin_size+0x314fda0>
 534:	0803a303 	stlxrb	w3, w3, [x24]
 538:	c103063c 	.inst	0xc103063c ; undefined
 53c:	23054a7c 	.inst	0x23054a7c ; undefined
 540:	03c60306 	.inst	0x03c60306 ; undefined
 544:	4b15054a 	sub	w10, w10, w21, lsl #1
 548:	05491105 	.inst	0x05491105 ; undefined
 54c:	0d054819 	.inst	0x0d054819 ; undefined
 550:	064a7803 	.inst	0x064a7803 ; undefined
 554:	827cc403 	.inst	0x827cc403 ; undefined
 558:	03062105 	.inst	0x03062105 ; undefined
 55c:	05ba03b1 	zip1	z17.q, z29.q, z26.q
 560:	7ceb0305 	.inst	0x7ceb0305 ; undefined
 564:	0312054a 	.inst	0x0312054a ; undefined
 568:	740803b9 	.inst	0x740803b9 ; undefined
 56c:	05470505 	.inst	0x05470505 ; undefined
 570:	05bb7e0d 	.inst	0x05bb7e0d ; undefined
 574:	b1030600 	adds	x0, x16, #0xc1
 578:	05ac087c 	uzp1	z28.q, z3.q, z12.q
 57c:	030b0601 	.inst	0x030b0601 ; undefined
 580:	054a03d8 	.inst	0x054a03d8 ; undefined
 584:	0505bc00 	.inst	0x0505bc00 ; undefined
 588:	1f05f50a 	fmsub	s10, s8, s5, s29
 58c:	510505f9 	sub	w25, w15, #0x141
 590:	9203064d 	and	x13, x18, #0x6000000060000000
 594:	0d05827c 	.inst	0x0d05827c ; undefined
 598:	03f70306 	.inst	0x03f70306 ; undefined
 59c:	05bb3c08 	.inst	0x05bb3c08 ; undefined
 5a0:	826d0318 	.inst	0x826d0318 ; undefined
 5a4:	13030d05 	sbfx	w5, w8, #3, #1
 5a8:	f3f3bb4a 	.inst	0xf3f3bb4a ; undefined
 5ac:	03820b06 	.inst	0x03820b06 ; undefined
 5b0:	06f27c85 	.inst	0x06f27c85 ; undefined
 5b4:	03f0030b 	.inst	0x03f0030b ; undefined
 5b8:	f20e0382 	ands	x2, x28, #0x4000000040000
 5bc:	67031805 	.inst	0x67031805 ; undefined
 5c0:	030d0582 	.inst	0x030d0582 ; undefined
 5c4:	05bb4a19 	.inst	0x05bb4a19 ; undefined
 5c8:	05b00800 	uzp1	z0.q, z0.q, z16.q
 5cc:	054b0a0c 	.inst	0x054b0a0c ; undefined
 5d0:	054a0605 	.inst	0x054a0605 ; undefined
 5d4:	054d0600 	.inst	0x054d0600 ; undefined
 5d8:	054b0a0c 	.inst	0x054b0a0c ; undefined
 5dc:	054a0605 	.inst	0x054a0605 ; undefined
 5e0:	054d0600 	.inst	0x054d0600 ; undefined
 5e4:	054b0a3a 	.inst	0x054b0a3a ; undefined
 5e8:	00054b01 	.inst	0x00054b01 ; undefined
 5ec:	0a0c054c 	and	w12, w10, w12, lsl #1
 5f0:	054a7503 	.inst	0x054a7503 ; undefined
 5f4:	4a0c033a 	eor	w26, w25, w12
 5f8:	4f010546 	movi	v6.4s, #0x2a
 5fc:	05520005 	mov	z5.h, p2/z, #0
 600:	d7030a15 	.inst	0xd7030a15 ; undefined
 604:	1405ba7c 	b	16eff4 <_binary_shell_bin_size-0xea200c>
 608:	7f15054d 	.inst	0x7f15054d ; undefined
 60c:	054b1005 	.inst	0x054b1005 ; undefined
 610:	10054c09 	adr	x9, af90 <_binary_shell_bin_size-0x1006070>
 614:	4c090548 	.inst	0x4c090548 ; undefined
 618:	8c03064b 	.inst	0x8c03064b ; undefined
 61c:	05ac087f 	uzp1	z31.q, z3.q, z12.q
 620:	f6030605 	.inst	0xf6030605 ; undefined
 624:	03064a00 	.inst	0x03064a00 ; undefined
 628:	05f27f8a 	.inst	0x05f27f8a ; undefined
 62c:	9d030615 	.inst	0x9d030615 ; undefined
 630:	36058204 	tbz	w4, #0, ffffffffffffb670 <__free_ram_end+0xffffffffbcdb7670>
 634:	0305054b 	.inst	0x0305054b ; undefined
 638:	14058209 	b	160e5c <_binary_shell_bin_size-0xeb01a4>
 63c:	054a7703 	.inst	0x054a7703 ; undefined
 640:	826e033a 	.inst	0x826e033a ; undefined
 644:	4a4a4a06 	eor	w6, w16, w10, lsr #18
 648:	0b060505 	add	w5, w8, w6, lsl #1
 64c:	054a1b03 	.inst	0x054a1b03 ; undefined
 650:	0c05bd00 	.inst	0x0c05bd00 ; undefined
 654:	085a030a 	ldxrb	w10, [x24]
 658:	03090574 	.inst	0x03090574 ; undefined
 65c:	03068227 	.inst	0x03068227 ; undefined
 660:	05827bd5 	and	z21.d, z21.d, #0xfffe00000000ffff
 664:	8403060c 	ld1sb	{z12.s}, p1/z, [x16, z3.s, uxtw]
 668:	09058204 	.inst	0x09058204 ; undefined
 66c:	054a2903 	.inst	0x054a2903 ; undefined
 670:	8257030c 	.inst	0x8257030c ; undefined
 674:	2b030905 	adds	w5, w8, w3, lsl #2
 678:	033a054a 	.inst	0x033a054a ; undefined
 67c:	1505825d 	b	4160ff0 <_binary_shell_bin_size+0x314fff0>
 680:	4a7ce403 	.inst	0x4a7ce403 ; undefined
 684:	054d1405 	.inst	0x054d1405 ; undefined
 688:	0391030c 	.inst	0x0391030c ; undefined
 68c:	033a0582 	.inst	0x033a0582 ; undefined
 690:	05464a0c 	.inst	0x05464a0c ; undefined
 694:	4a78030c 	eon	w12, w24, w24, lsr #0
 698:	0c033a05 	.inst	0x0c033a05 ; undefined
 69c:	0c05464a 	.inst	0x0c05464a ; undefined
 6a0:	054a7803 	.inst	0x054a7803 ; undefined
 6a4:	4a0c033a 	eor	w26, w25, w12
 6a8:	03150546 	.inst	0x03150546 ; undefined
 6ac:	054a7ce4 	.inst	0x054a7ce4 ; undefined
 6b0:	09054b10 	.inst	0x09054b10 ; undefined
 6b4:	4810054c 	stxrh	w16, w12, [x10]
 6b8:	4b4c0905 	sub	w5, w8, w12, lsr #2
 6bc:	0803b803 	stlxrb	w3, w3, [x0]
 6c0:	08ae08ac 	.inst	0x08ae08ac ; undefined
 6c4:	030505ae 	.inst	0x030505ae ; undefined
 6c8:	ac087cc6 	stnp	q6, q31, [x6, #256]
 6cc:	7f8a0306 	.inst	0x7f8a0306 ; undefined
 6d0:	061505f2 	.inst	0x061505f2 ; undefined
 6d4:	4a049d03 	.inst	0x4a049d03 ; undefined
 6d8:	6f033a05 	.inst	0x6f033a05 ; undefined
 6dc:	03050582 	.inst	0x03050582 ; undefined
 6e0:	3a054a38 	.inst	0x3a054a38 ; undefined
 6e4:	05824803 	and	z3.d, z3.d, #0x80000000000000
 6e8:	4a2f0314 	eon	w20, w24, w15
 6ec:	51033a05 	sub	w5, w16, #0xce
 6f0:	054a064a 	.inst	0x054a064a ; undefined
 6f4:	2f030614 	mvni	v20.2s, #0x70
 6f8:	0336054a 	.inst	0x0336054a ; undefined
 6fc:	20054a63 	.inst	0x20054a63 ; undefined
 700:	054a2003 	.inst	0x054a2003 ; undefined
 704:	3a058125 	.inst	0x3a058125 ; undefined
 708:	054a4f03 	.inst	0x054a4f03 ; undefined
 70c:	1405460c 	b	151f3c <_binary_shell_bin_size-0xebf0c4>
 710:	054a3b03 	.inst	0x054a3b03 ; undefined
 714:	054a0612 	.inst	0x054a0612 ; undefined
 718:	05830605 	and	z5.d, z5.d, #0xffffffff0001ffff
 71c:	7cac0315 	.inst	0x7cac0315 ; undefined
 720:	4b10054a 	sub	w10, w10, w16, lsl #1
 724:	054c0905 	.inst	0x054c0905 ; undefined
 728:	09054810 	.inst	0x09054810 ; undefined
 72c:	05054b4c 	.inst	0x05054b4c ; undefined
 730:	1305ae08 	.inst	0x1305ae08 ; undefined
 734:	f203d103 	ands	x3, x8, #0xe3e3e3e3e3e3e3e3
 738:	054b0d05 	.inst	0x054b0d05 ; undefined
 73c:	01054913 	.inst	0x01054913 ; undefined
 740:	0d054c0b 	.inst	0x0d054c0b ; undefined
 744:	4b010549 	sub	w9, w10, w1, lsl #1
 748:	be0a1e05 	.inst	0xbe0a1e05 ; undefined
 74c:	4a060505 	eor	w5, w8, w6, lsl #1
 750:	4b061405 	sub	w5, w0, w6, lsl #5
 754:	05491e05 	.inst	0x05491e05 ; undefined
 758:	37054b14 	tbnz	w20, #0, ffffffffffffb0b8 <__free_ram_end+0xffffffffbcdb70b8>
 75c:	84050549 	ld1sb	{z9.s}, p1/z, [x10, z5.s, uxtw]
 760:	05833505 	and	z5.d, z5.d, #0xfffffffffc000007
 764:	7fbc033a 	.inst	0x7fbc033a ; undefined
 768:	0318054a 	.inst	0x0318054a ; undefined
 76c:	054a00c5 	.inst	0x054a00c5 ; undefined
 770:	2805bb01 	stnp	w1, w14, [x24, #44]
 774:	10054e0a 	adr	x10, b134 <_binary_shell_bin_size-0x1005ecc>
 778:	23054a06 	.inst	0x23054a06 ; undefined
 77c:	4a20054a 	eon	w10, w10, w0, lsl #1
 780:	05820505 	and	z5.d, z5.d, #0x1ffffffffff
 784:	054e0600 	.inst	0x054e0600 ; undefined
 788:	05f30a13 	.inst	0x05f30a13 ; undefined
 78c:	05ba0620 	zip2	z0.q, z17.q, z26.q
 790:	05054a09 	.inst	0x05054a09 ; undefined
 794:	15058906 	b	4162bac <_binary_shell_bin_size+0x3151bac>
 798:	8105054b 	.inst	0x8105054b ; undefined
 79c:	82061705 	.inst	0x82061705 ; undefined
 7a0:	4b061505 	sub	w5, w8, w6, lsl #5
 7a4:	4b130549 	sub	w9, w10, w19, lsl #1
 7a8:	054b0905 	.inst	0x054b0905 ; undefined
 7ac:	09054b19 	.inst	0x09054b19 ; undefined
 7b0:	9b034a06 	madd	x6, x16, x3, x18
 7b4:	0306ba7b 	.inst	0x0306ba7b ; undefined
 7b8:	068204dc 	.inst	0x068204dc ; undefined
 7bc:	ba7ba403 	.inst	0xba7ba403 ; undefined
 7c0:	03061f05 	.inst	0x03061f05 ; undefined
 7c4:	054a04e8 	.inst	0x054a04e8 ; undefined
 7c8:	1f054b19 	fmadd	s25, s24, s5, s18
 7cc:	4b190549 	sub	w9, w10, w25, lsl #1
 7d0:	05f91805 	.inst	0x05f91805 ; undefined
 7d4:	17054d27 	b	fffffffffc153c70 <__free_ram_end+0xffffffffb8f0fc70>
 7d8:	054a7603 	.inst	0x054a7603 ; undefined
 7dc:	27058816 	.inst	0x27058816 ; undefined
 7e0:	031e0549 	.inst	0x031e0549 ; undefined
 7e4:	17054a5f 	b	fffffffffc153160 <__free_ram_end+0xffffffffb8f0f160>
 7e8:	054a2603 	.inst	0x054a2603 ; undefined
 7ec:	05058316 	.inst	0x05058316 ; undefined
 7f0:	054a5903 	.inst	0x054a5903 ; undefined
 7f4:	1e054b14 	.inst	0x1e054b14 ; undefined
 7f8:	03170549 	.inst	0x03170549 ; undefined
 7fc:	05854a21 	.inst	0x05854a21 ; undefined
 800:	37054e18 	tbnz	w24, #0, ffffffffffffb1c0 <__free_ram_end+0xffffffffbcdb71c0>
 804:	054a5803 	.inst	0x054a5803 ; undefined
 808:	05054b14 	.inst	0x05054b14 ; undefined
 80c:	83350583 	.inst	0x83350583 ; undefined
 810:	bc033a05 	.inst	0xbc033a05 ; undefined
 814:	18054a7f 	ldr	wzr, b160 <_binary_shell_bin_size-0x1005ea0>
 818:	4a00c503 	.inst	0x4a00c503 ; undefined
 81c:	05f72305 	mov	z5.b, z24.b[59]
 820:	4a250305 	eon	w5, w24, w5
 824:	05860905 	.inst	0x05860905 ; undefined
 828:	054a0612 	.inst	0x054a0612 ; undefined
 82c:	81034a09 	.inst	0x81034a09 ; undefined
 830:	03064a7b 	.inst	0x03064a7b ; undefined
 834:	054a0580 	.inst	0x054a0580 ; undefined
 838:	030b0600 	.inst	0x030b0600 ; undefined
 83c:	05827b80 	and	z0.d, z0.d, #0xfffe000000003fff
 840:	86030609 	.inst	0x86030609 ; undefined
 844:	0105f205 	.inst	0x0105f205 ; undefined
 848:	09054c0b 	.inst	0x09054c0b ; undefined
 84c:	4a0b06f1 	eor	w17, w23, w11, lsl #1
 850:	05821e05 	and	z5.d, z5.d, #0xe0003fffffffffff
 854:	00054a09 	.inst	0x00054a09 ; undefined
 858:	0505c006 	.inst	0x0505c006 ; undefined
 85c:	bc03f30a 	stur	s10, [x24, #63]
 860:	05ac087b 	uzp1	z27.q, z3.q, z12.q
 864:	09054b1d 	.inst	0x09054b1d ; undefined
 868:	b303064c 	.inst	0xb303064c ; undefined
 86c:	0505827f 	.inst	0x0505827f ; undefined
 870:	00d20306 	.inst	0x00d20306 ; undefined
 874:	064ec282 	.inst	0x064ec282 ; undefined
 878:	4a7fa203 	.inst	0x4a7fa203 ; undefined
 87c:	00ea0306 	.inst	0x00ea0306 ; undefined
 880:	030b054a 	.inst	0x030b054a ; undefined
 884:	05058278 	.inst	0x05058278 ; undefined
 888:	0306894b 	.inst	0x0306894b ; undefined
 88c:	054a7f96 	.inst	0x054a7f96 ; undefined
 890:	ce030609 	eor3	v9.16b, v16.16b, v3.16b, v1.16b
 894:	05054a00 	.inst	0x05054a00 ; undefined
 898:	ba04ec03 	.inst	0xba04ec03 ; undefined
 89c:	f3f4f34c 	.inst	0xf3f4f34c ; undefined
 8a0:	02f40205 	.inst	0x02f40205 ; undefined
 8a4:	0101001c 	.inst	0x0101001c ; undefined
 8a8:	05050004 	.inst	0x05050004 ; undefined
 8ac:	0209000a 	.inst	0x0209000a ; undefined
 8b0:	40200000 	.inst	0x40200000 ; undefined
 8b4:	00000000 	udf	#0
 8b8:	0105ca03 	.inst	0x0105ca03 ; undefined
 8bc:	01001802 	.inst	0x01001802 ; undefined
 8c0:	00020401 	.inst	0x00020401 ; undefined
 8c4:	08000500 	stxrb	w0, w0, [x8]
 8c8:	00005000 	udf	#20480
 8cc:	01010100 	.inst	0x01010100 ; undefined
 8d0:	000d0efb 	.inst	0x000d0efb ; undefined
 8d4:	01010101 	.inst	0x01010101 ; undefined
 8d8:	01000000 	.inst	0x01000000 ; undefined
 8dc:	01010000 	.inst	0x01010000 ; undefined
 8e0:	09021f01 	.inst	0x09021f01 ; undefined
 8e4:	47000000 	.inst	0x47000000 ; undefined
 8e8:	03000000 	.inst	0x03000000 ; undefined
 8ec:	0f021f01 	.inst	0x0f021f01 ; undefined
 8f0:	3e021e05 	.inst	0x3e021e05 ; undefined
 8f4:	00000000 	udf	#0
 8f8:	18f38ac7 	ldr	w7, fffffffffffe7a50 <__free_ram_end+0xffffffffbcda3a50>
 8fc:	0d0ef5e1 	.inst	0x0d0ef5e1 ; undefined
 900:	081299c8 	stlxrb	w18, w8, [x14]
 904:	c36109de 	.inst	0xc36109de ; undefined
 908:	00000057 	udf	#87
 90c:	269fcf01 	.inst	0x269fcf01 ; undefined
 910:	4b1482e0 	.inst	0x4b1482e0 ; undefined
 914:	8d0d4dc1 	.inst	0x8d0d4dc1 ; undefined
 918:	f9527724 	ldr	x4, [x25, #9448]
 91c:	050004df 	orr	z31.h, z31.h, #0x7f
 920:	09000a05 	.inst	0x09000a05 ; undefined
 924:	2011c802 	.inst	0x2011c802 ; undefined
 928:	00000040 	udf	#64
 92c:	03061900 	.inst	0x03061900 ; undefined
 930:	01240278 	.inst	0x01240278 ; undefined
 934:	10054408 	adr	x8, b1b4 <_binary_shell_bin_size-0x1005e4c>
 938:	0e05f306 	.inst	0x0e05f306 ; undefined
 93c:	0505ba06 	.inst	0x0505ba06 ; undefined
 940:	1005b906 	adr	x6, c060 <_binary_shell_bin_size-0x1004fa0>
 944:	05132c02 	.inst	0x05132c02 ; undefined
 948:	0582060e 	and	z14.d, z14.d, #0x1ffffffffffff
 94c:	06810605 	.inst	0x06810605 ; undefined
 950:	05ba7803 	.inst	0x05ba7803 ; undefined
 954:	09030610 	.inst	0x09030610 ; undefined
 958:	490d05ba 	.inst	0x490d05ba ; undefined
 95c:	054b0e05 	.inst	0x054b0e05 ; undefined
 960:	0a4c4905 	and	w5, w8, w12, lsr #18
 964:	7103064f 	subs	w15, w18, #0xc1
 968:	820f03ba 	.inst	0x820f03ba ; undefined
 96c:	03ba7103 	.inst	0x03ba7103 ; undefined
 970:	0e05820f 	.inst	0x0e05820f ; undefined
 974:	0505f306 	.inst	0x0505f306 ; undefined
 978:	710306f1 	subs	w17, w23, #0xc1
 97c:	05012802 	orr	z2.s, z2.s, #0x8000000
 980:	1003060e 	adr	x14, 6a40 <_binary_shell_bin_size-0x100a5c0>
 984:	8105054a 	.inst	0x8105054a ; undefined
 988:	ba710306 	.inst	0xba710306 ; undefined
 98c:	0f030d05 	.inst	0x0f030d05 ; undefined
 990:	060e0582 	.inst	0x060e0582 ; undefined
 994:	4905054b 	.inst	0x4905054b ; undefined
 998:	0a0c054c 	and	w12, w10, w12, lsl #1
 99c:	0605054f 	.inst	0x0605054f ; undefined
 9a0:	060e0582 	.inst	0x060e0582 ; undefined
 9a4:	490c05bb 	.inst	0x490c05bb ; undefined
 9a8:	4a060505 	eor	w5, w8, w6, lsl #1
 9ac:	4c060805 	.inst	0x4c060805 ; undefined
 9b0:	054b0505 	.inst	0x054b0505 ; undefined
 9b4:	054e0a0c 	.inst	0x054e0a0c ; undefined
 9b8:	054a0610 	.inst	0x054a0610 ; undefined
 9bc:	13054a05 	sbfx	w5, w16, #5, #14
 9c0:	4a05054a 	eor	w10, w10, w5, lsl #1
 9c4:	05820c05 	and	z5.d, z5.d, #0x80000000ffffffff
 9c8:	054e060b 	.inst	0x054e060b ; undefined
 9cc:	23054610 	.inst	0x23054610 ; undefined
 9d0:	06210551 	.inst	0x06210551 ; undefined
 9d4:	4a05054a 	eor	w10, w10, w5, lsl #1
 9d8:	4d060005 	.inst	0x4d060005 ; undefined
 9dc:	020a0505 	.inst	0x020a0505 ; undefined
 9e0:	0d05142c 	.inst	0x0d05142c ; undefined
 9e4:	05174c02 	mov	z2.b, p7/m, #96
 9e8:	4a39030c 	eon	w12, w24, w25
 9ec:	054a4403 	.inst	0x054a4403 ; undefined
 9f0:	054a0605 	.inst	0x054a0605 ; undefined
 9f4:	ba550300 	ccmn	x24, x21, #0x0, eq	// eq = none
 9f8:	03060c05 	.inst	0x03060c05 ; undefined
 9fc:	064a00e7 	.inst	0x064a00e7 ; undefined
 a00:	4a7f9903 	.inst	0x4a7f9903 ; undefined
 a04:	03061505 	.inst	0x03061505 ; undefined
 a08:	0d054a2e 	.inst	0x0d054a2e ; undefined
 a0c:	21054a06 	.inst	0x21054a06 ; undefined
 a10:	08100306 	stxrb	w16, w6, [x24]
 a14:	42030674 	.inst	0x42030674 ; undefined
 a18:	05012402 	orr	z2.h, z2.h, #0x1000
 a1c:	2e03060d 	.inst	0x2e03060d ; undefined
 a20:	03210582 	.inst	0x03210582 ; undefined
 a24:	2505f229 	.inst	0x2505f229 ; undefined
 a28:	24025f03 	cmpge	p3.b, p7/z, z24.b, z2.d
 a2c:	02210501 	.inst	0x02210501 ; undefined
 a30:	19051a24 	stilp	w4, w5, [x17]
 a34:	25054bf4 	sel	p4.b, p2, p15.b, p5.b
 a38:	be030683 	.inst	0xbe030683 ; undefined
 a3c:	15054a7f 	b	4153438 <_binary_shell_bin_size+0x3142438>
 a40:	00c60306 	.inst	0x00c60306 ; undefined
 a44:	8321054a 	.inst	0x8321054a ; undefined
 a48:	05812605 	and	z5.b, z5.b, #0x10
 a4c:	054a0615 	.inst	0x054a0615 ; undefined
 a50:	05860631 	.inst	0x05860631 ; undefined
 a54:	054a0621 	.inst	0x054a0621 ; undefined
 a58:	21054a19 	.inst	0x21054a19 ; undefined
 a5c:	15054c06 	b	4153a74 <_binary_shell_bin_size+0x3142a74>
 a60:	85210547 	.inst	0x85210547 ; undefined
 a64:	7fb40306 	.inst	0x7fb40306 ; undefined
 a68:	0615054a 	.inst	0x0615054a ; undefined
 a6c:	4a00c903 	.inst	0x4a00c903 ; undefined
 a70:	6d032505 	stp	d5, d9, [x8, #48]
 a74:	f31c0582 	.inst	0xf31c0582 ; undefined
 a78:	4a061505 	eor	w5, w8, w6, lsl #5
 a7c:	83061905 	.inst	0x83061905 ; undefined
 a80:	05491c05 	.inst	0x05491c05 ; undefined
 a84:	054a0615 	.inst	0x054a0615 ; undefined
 a88:	20030621 	.inst	0x20030621 ; undefined
 a8c:	a9030682 	stp	x2, x1, [x20, #48]
 a90:	1205f27f 	and	wsp, w19, #0xaaaaaaaa
 a94:	00dc0306 	.inst	0x00dc0306 ; undefined
 a98:	060a05ba 	.inst	0x060a05ba ; undefined
 a9c:	7fa4034a 	.inst	0x7fa4034a ; undefined
 aa0:	06190582 	.inst	0x06190582 ; undefined
 aa4:	4a00d903 	.inst	0x4a00d903 ; undefined
 aa8:	4a060605 	eor	w5, w16, w6, lsl #1
 aac:	83062105 	.inst	0x83062105 ; undefined
 ab0:	064b1305 	.inst	0x064b1305 ; undefined
 ab4:	4a7fa503 	.inst	0x4a7fa503 ; undefined
 ab8:	03061505 	.inst	0x03061505 ; undefined
 abc:	0105f230 	.inst	0x0105f230 ; undefined
 ac0:	823c030b 	.inst	0x823c030b ; undefined
 ac4:	01001c02 	.inst	0x01001c02 ; undefined
 ac8:	00008c01 	udf	#35841
 acc:	08000500 	stxrb	w0, w0, [x8]
 ad0:	00003700 	udf	#14080
 ad4:	01010100 	.inst	0x01010100 ; undefined
 ad8:	000d0efb 	.inst	0x000d0efb ; undefined
 adc:	01010101 	.inst	0x01010101 ; undefined
 ae0:	01000000 	.inst	0x01000000 ; undefined
 ae4:	01010000 	.inst	0x01010000 ; undefined
 ae8:	09011f01 	.inst	0x09011f01 ; undefined
 aec:	03000000 	.inst	0x03000000 ; undefined
 af0:	0f021f01 	.inst	0x0f021f01 ; undefined
 af4:	49011e05 	.inst	0x49011e05 ; undefined
 af8:	00000000 	udf	#0
 afc:	45be79bc 	rsubhnb	z28.h, z13.s, z30.s
 b00:	bcd9edb7 	.inst	0xbcd9edb7 ; undefined
 b04:	f363e095 	.inst	0xf363e095 ; undefined
 b08:	34bdfb48 	cbz	w8, fffffffffff7ca70 <__free_ram_end+0xffffffffbcd38a70>
 b0c:	09000004 	.inst	0x09000004 ; undefined
 b10:	2015cc02 	.inst	0x2015cc02 ; undefined
 b14:	00000040 	udf	#64
 b18:	4b4e1600 	sub	w0, w16, w14, lsr #5
 b1c:	4b4b4b4b 	sub	w11, w26, w11, lsr #18
 b20:	4b4b4b4b 	sub	w11, w26, w11, lsr #18
 b24:	4b4b4b4b 	sub	w11, w26, w11, lsr #18
 b28:	4b4b4b4b 	sub	w11, w26, w11, lsr #18
 b2c:	4b4f4b4b 	sub	w11, w26, w15, lsr #18
 b30:	4b4b4b4d 	sub	w13, w26, w11, lsr #18
 b34:	4b4b4b4b 	sub	w11, w26, w11, lsr #18
 b38:	4b4b4b4b 	sub	w11, w26, w11, lsr #18
 b3c:	4b4b4b4b 	sub	w11, w26, w11, lsr #18
 b40:	4b4b4b4b 	sub	w11, w26, w11, lsr #18
 b44:	4b4e4b4b 	sub	w11, w26, w14, lsr #18
 b48:	4b4e4b4e 	sub	w14, w26, w14, lsr #18
 b4c:	4b4e4b4e 	sub	w14, w26, w14, lsr #18
 b50:	4b4e4b4e 	sub	w14, w26, w14, lsr #18
 b54:	01000402 	.inst	0x01000402 ; undefined
 b58:	00008e01 	udf	#36353
 b5c:	08000500 	stxrb	w0, w0, [x8]
 b60:	00003700 	udf	#14080
 b64:	01010100 	.inst	0x01010100 ; undefined
 b68:	000d0efb 	.inst	0x000d0efb ; undefined
 b6c:	01010101 	.inst	0x01010101 ; undefined
 b70:	01000000 	.inst	0x01000000 ; undefined
 b74:	01010000 	.inst	0x01010000 ; undefined
 b78:	09011f01 	.inst	0x09011f01 ; undefined
 b7c:	03000000 	.inst	0x03000000 ; undefined
 b80:	0f021f01 	.inst	0x0f021f01 ; undefined
 b84:	2f011e05 	.inst	0x2f011e05 ; undefined
 b88:	00000000 	udf	#0
 b8c:	af515980 	.inst	0xaf515980 ; undefined
 b90:	acc40b65 	ldp	q5, q2, [x27], #128
 b94:	eaae046a 	bics	x10, x3, x14, asr #1
 b98:	4d7ab0ab 	.inst	0x4d7ab0ab ; undefined
 b9c:	09000004 	.inst	0x09000004 ; undefined
 ba0:	20180002 	.inst	0x20180002 ; undefined
 ba4:	00000040 	udf	#64
 ba8:	80021800 	.inst	0x80021800 ; undefined
 bac:	80021401 	.inst	0x80021401 ; undefined
 bb0:	80021401 	.inst	0x80021401 ; undefined
 bb4:	80021401 	.inst	0x80021401 ; undefined
 bb8:	80021601 	.inst	0x80021601 ; undefined
 bbc:	80021401 	.inst	0x80021401 ; undefined
 bc0:	80021401 	.inst	0x80021401 ; undefined
 bc4:	80021401 	.inst	0x80021401 ; undefined
 bc8:	80021601 	.inst	0x80021601 ; undefined
 bcc:	80021401 	.inst	0x80021401 ; undefined
 bd0:	80021401 	.inst	0x80021401 ; undefined
 bd4:	80021401 	.inst	0x80021401 ; undefined
 bd8:	80021601 	.inst	0x80021601 ; undefined
 bdc:	80021401 	.inst	0x80021401 ; undefined
 be0:	80021401 	.inst	0x80021401 ; undefined
 be4:	04021401 	.inst	0x04021401 ; undefined
 be8:	9c010100 	ldr	q0, 2c08 <_binary_shell_bin_size-0x100e3f8>
 bec:	05000000 	orr	z0.s, z0.s, #0x1
 bf0:	50000800 	adr	x0, cf2 <_binary_shell_bin_size-0x101030e>
 bf4:	01000000 	.inst	0x01000000 ; undefined
 bf8:	0efb0101 	.inst	0x0efb0101 ; undefined
 bfc:	0101000d 	.inst	0x0101000d ; undefined
 c00:	00000101 	udf	#257
 c04:	00000100 	udf	#256
 c08:	1f010101 	fmadd	s1, s8, s1, s0
 c0c:	00000902 	udf	#2306
 c10:	00004700 	udf	#18176
 c14:	1f010300 	fmadd	s0, s24, s1, s0
 c18:	1e050f02 	.inst	0x1e050f02 ; undefined
 c1c:	00005002 	udf	#20482
 c20:	84e10000 	ld1sh	{z0.s}, p0/z, [x0, z1.s, sxtw #1]
 c24:	8c3de9e9 	.inst	0x8c3de9e9 ; undefined
 c28:	01cdc153 	.inst	0x01cdc153 ; undefined
 c2c:	83b30e32 	.inst	0x83b30e32 ; undefined
 c30:	00579250 	.inst	0x00579250 ; undefined
 c34:	cf010000 	.inst	0xcf010000 ; undefined
 c38:	82e0269f 	.inst	0x82e0269f ; undefined
 c3c:	4dc14b14 	ld1	{v20.h}[5], [x24], x1
 c40:	77248d0d 	.inst	0x77248d0d ; undefined
 c44:	04dff952 	msb	z18.d, p6/m, z31.d, z10.d
 c48:	02090000 	.inst	0x02090000 ; undefined
 c4c:	402016b8 	.inst	0x402016b8 ; undefined
 c50:	00000000 	udf	#0
 c54:	0a1f0515 	and	w21, w8, wzr, lsl #1
 c58:	05053f08 	.inst	0x05053f08 ; undefined
 c5c:	f3f3f352 	.inst	0xf3f3f352 ; undefined
 c60:	031905f3 	.inst	0x031905f3 ; undefined
 c64:	05058277 	.inst	0x05058277 ; undefined
 c68:	4b4a0903 	sub	w3, w8, w10, lsr #2
 c6c:	79031805 	strh	w5, [x0, #396]
 c70:	51050582 	sub	w2, w12, #0x141
 c74:	b1080a4b 	adds	x11, x18, #0x202
 c78:	500a500a 	adr	x10, 1567a <_binary_shell_bin_size-0xffb986>
 c7c:	510a500a 	sub	w10, w0, #0x294
 c80:	500a500a 	adr	x10, 15682 <_binary_shell_bin_size-0xffb97e>
 c84:	0402500a 	mla	z10.b, p4/m, z0.b, z2.b
 c88:	Address 0xc88 is out of bounds.


Disassembly of section .debug_line_str:

0000000000000000 <.debug_line_str>:
   0:	6e72656b 	umax	v11.8h, v11.8h, v18.8h
   4:	632e6c65 	.inst	0x632e6c65 ; undefined
   8:	6f682f00 	.inst	0x6f682f00 ; undefined
   c:	722f656d 	ands	w13, w11, #0xfffe07ff
  10:	7469686f 	.inst	0x7469686f ; undefined
  14:	75662f68 	.inst	0x75662f68 ; undefined
  18:	694d2f6e 	ldpsw	x14, x11, [x27, #104]
  1c:	4f2d696e 	.inst	0x4f2d696e ; undefined
  20:	65642d53 	fmls	z19.h, p3/m, z10.h, z4.h
  24:	656b0076 	fmla	z22.h, p0/m, z3.h, z11.h
  28:	6c656e72 	ldnp	d18, d27, [x19, #-432]
  2c:	7600682e 	.inst	0x7600682e ; undefined
  30:	6f746365 	umlsl2	v5.4s, v27.8h, v4.h[3]
  34:	61745f72 	.inst	0x61745f72 ; undefined
  38:	2e656c62 	umin	v2.4h, v3.4h, v5.4h
  3c:	6f630073 	mla	v19.8h, v3.8h, v3.h[2]
  40:	6e6f6d6d 	umin	v13.8h, v11.8h, v15.8h
  44:	2e00632e 	.inst	0x2e00632e ; undefined
  48:	63657600 	.inst	0x63657600 ; undefined
  4c:	00732e74 	.inst	0x00732e74 ; undefined
  50:	74636576 	.inst	0x74636576 ; undefined
  54:	6300632e 	.inst	0x6300632e ; undefined
  58:	6f6d6d6f 	.inst	0x6f6d6d6f ; undefined
  5c:	00682e6e 	.inst	0x00682e6e ; undefined

Disassembly of section .debug_aranges:

0000000000000000 <.debug_aranges>:
   0:	0000002c 	udf	#44
   4:	194d0002 	ldapurb	w2, [x0, #208]
   8:	00080000 	.inst	0x00080000 ; undefined
   c:	00000000 	udf	#0
  10:	402015cc 	.inst	0x402015cc ; undefined
  14:	00000000 	udf	#0
  18:	000000ec 	udf	#236
	...
  30:	0000002c 	udf	#44
  34:	1acc0002 	.inst	0x1acc0002 ; undefined
  38:	00080000 	.inst	0x00080000 ; undefined
  3c:	00000000 	udf	#0
  40:	40201800 	.inst	0x40201800 ; undefined
  44:	00000000 	udf	#0
  48:	00000784 	udf	#1924
	...
