
kernel.elf:     file format elf64-littleaarch64


Disassembly of section .text:

0000000040200000 <boot>:
    40200000:	d503201f 	nop
    40200004:	10188668 	adr	x8, 402310d0 <__stack_top>
    40200008:	9100011f 	mov	sp, x8
    4020000c:	9400022e 	bl	402008c4 <kernel_main>

0000000040200010 <uboot_call>:
    40200010:	d10043ff 	sub	sp, sp, #0x10
    40200014:	390033e1 	strb	w1, [sp, #12]
    40200018:	910033e1 	add	x1, sp, #0xc
    4020001c:	aa0303e7 	mov	x7, x3
    40200020:	d45e0000 	hlt	#0xf000
    40200024:	910043ff 	add	sp, sp, #0x10
    40200028:	d65f03c0 	ret

000000004020002c <putchar>:
    4020002c:	d10043ff 	sub	sp, sp, #0x10
    40200030:	390033e0 	strb	w0, [sp, #12]
    40200034:	910033e1 	add	x1, sp, #0xc
    40200038:	52800060 	mov	w0, #0x3                   	// #3
    4020003c:	52800022 	mov	w2, #0x1                   	// #1
    40200040:	52800807 	mov	w7, #0x40                  	// #64
    40200044:	d45e0000 	hlt	#0xf000
    40200048:	910043ff 	add	sp, sp, #0x10
    4020004c:	d65f03c0 	ret

0000000040200050 <alloc_pages>:
    40200050:	a9be7bfd 	stp	x29, x30, [sp, #-32]!
    40200054:	f9000bf3 	str	x19, [sp, #16]
    40200058:	910003fd 	mov	x29, sp
    4020005c:	90000008 	adrp	x8, 40200000 <boot>
    40200060:	53144c02 	lsl	w2, w0, #12
    40200064:	d001018a 	adrp	x10, 42232000 <__free_ram_end>
    40200068:	9100014a 	add	x10, x10, #0x0
    4020006c:	f947f113 	ldr	x19, [x8, #4064]
    40200070:	8b020269 	add	x9, x19, x2
    40200074:	eb0a013f 	cmp	x9, x10
    40200078:	f907f109 	str	x9, [x8, #4064]
    4020007c:	54000109 	b.ls	4020009c <alloc_pages+0x4c>  // b.plast
    40200080:	d503201f 	nop
    40200084:	700073c0 	adr	x0, 40200eff <printf+0x343>
    40200088:	90000001 	adrp	x1, 40200000 <boot>
    4020008c:	91380021 	add	x1, x1, #0xe00
    40200090:	528005e2 	mov	w2, #0x2f                  	// #47
    40200094:	940002ca 	bl	40200bbc <printf>
    40200098:	14000000 	b	40200098 <alloc_pages+0x48>
    4020009c:	aa1303e0 	mov	x0, x19
    402000a0:	2a1f03e1 	mov	w1, wzr
    402000a4:	94000288 	bl	40200ac4 <memset>
    402000a8:	aa1303e0 	mov	x0, x19
    402000ac:	f9400bf3 	ldr	x19, [sp, #16]
    402000b0:	a8c27bfd 	ldp	x29, x30, [sp], #32
    402000b4:	d65f03c0 	ret

00000000402000b8 <map_page>:
    402000b8:	a9bc7bfd 	stp	x29, x30, [sp, #-64]!
    402000bc:	a9015ff8 	stp	x24, x23, [sp, #16]
    402000c0:	a90257f6 	stp	x22, x21, [sp, #32]
    402000c4:	a9034ff4 	stp	x20, x19, [sp, #48]
    402000c8:	910003fd 	mov	x29, sp
    402000cc:	aa0103f3 	mov	x19, x1
    402000d0:	f2402c3f 	tst	x1, #0xfff
    402000d4:	54000120 	b.eq	402000f8 <map_page+0x40>  // b.none
    402000d8:	90000000 	adrp	x0, 40200000 <boot>
    402000dc:	913c7000 	add	x0, x0, #0xf1c
    402000e0:	90000001 	adrp	x1, 40200000 <boot>
    402000e4:	91380021 	add	x1, x1, #0xe00
    402000e8:	528006e2 	mov	w2, #0x37                  	// #55
    402000ec:	aa1303e3 	mov	x3, x19
    402000f0:	940002b3 	bl	40200bbc <printf>
    402000f4:	14000000 	b	402000f4 <map_page+0x3c>
    402000f8:	f2402c5f 	tst	x2, #0xfff
    402000fc:	54000120 	b.eq	40200120 <map_page+0x68>  // b.none
    40200100:	90000000 	adrp	x0, 40200000 <boot>
    40200104:	913a0800 	add	x0, x0, #0xe82
    40200108:	90000001 	adrp	x1, 40200000 <boot>
    4020010c:	91380021 	add	x1, x1, #0xe00
    40200110:	aa0203e3 	mov	x3, x2
    40200114:	52800742 	mov	w2, #0x3a                  	// #58
    40200118:	940002a9 	bl	40200bbc <printf>
    4020011c:	14000000 	b	4020011c <map_page+0x64>
    40200120:	d35e9a75 	ubfx	x21, x19, #30, #9
    40200124:	f8757808 	ldr	x8, [x0, x21, lsl #3]
    40200128:	37000408 	tbnz	w8, #0, 402001a8 <map_page+0xf0>
    4020012c:	90000008 	adrp	x8, 40200000 <boot>
    40200130:	d001018a 	adrp	x10, 42232000 <__free_ram_end>
    40200134:	9100014a 	add	x10, x10, #0x0
    40200138:	f947f114 	ldr	x20, [x8, #4064]
    4020013c:	91400689 	add	x9, x20, #0x1, lsl #12
    40200140:	eb0a013f 	cmp	x9, x10
    40200144:	f907f109 	str	x9, [x8, #4064]
    40200148:	54000109 	b.ls	40200168 <map_page+0xb0>  // b.plast
    4020014c:	d503201f 	nop
    40200150:	70006d60 	adr	x0, 40200eff <printf+0x343>
    40200154:	90000001 	adrp	x1, 40200000 <boot>
    40200158:	91380021 	add	x1, x1, #0xe00
    4020015c:	528005e2 	mov	w2, #0x2f                  	// #47
    40200160:	94000297 	bl	40200bbc <printf>
    40200164:	14000000 	b	40200164 <map_page+0xac>
    40200168:	aa0003f8 	mov	x24, x0
    4020016c:	aa1403e0 	mov	x0, x20
    40200170:	2a1f03e1 	mov	w1, wzr
    40200174:	aa0203f6 	mov	x22, x2
    40200178:	52820002 	mov	w2, #0x1000                	// #4096
    4020017c:	aa0303f7 	mov	x23, x3
    40200180:	94000251 	bl	40200ac4 <memset>
    40200184:	aa1403e0 	mov	x0, x20
    40200188:	2a1f03e1 	mov	w1, wzr
    4020018c:	52820002 	mov	w2, #0x1000                	// #4096
    40200190:	9400024d 	bl	40200ac4 <memset>
    40200194:	9274ce88 	and	x8, x20, #0xfffffffffffff000
    40200198:	aa1703e3 	mov	x3, x23
    4020019c:	aa1603e2 	mov	x2, x22
    402001a0:	b2400508 	orr	x8, x8, #0x3
    402001a4:	f8357b08 	str	x8, [x24, x21, lsl #3]
    402001a8:	d355fe69 	lsr	x9, x19, #21
    402001ac:	9274cd08 	and	x8, x8, #0xfffffffffffff000
    402001b0:	aa03004a 	orr	x10, x2, x3
    402001b4:	5280806b 	mov	w11, #0x403                 	// #1027
    402001b8:	aa1303e1 	mov	x1, x19
    402001bc:	90000000 	adrp	x0, 40200000 <boot>
    402001c0:	913e9c00 	add	x0, x0, #0xfa7
    402001c4:	b37d2128 	bfi	x8, x9, #3, #9
    402001c8:	aa0b014a 	orr	x10, x10, x11
    402001cc:	a9434ff4 	ldp	x20, x19, [sp, #48]
    402001d0:	a94257f6 	ldp	x22, x21, [sp, #32]
    402001d4:	f900010a 	str	x10, [x8]
    402001d8:	a9415ff8 	ldp	x24, x23, [sp, #16]
    402001dc:	a8c47bfd 	ldp	x29, x30, [sp], #64
    402001e0:	14000277 	b	40200bbc <printf>

00000000402001e4 <switch_context>:
    402001e4:	a9ba53f3 	stp	x19, x20, [sp, #-96]!
    402001e8:	a9015bf5 	stp	x21, x22, [sp, #16]
    402001ec:	a90263f7 	stp	x23, x24, [sp, #32]
    402001f0:	a9036bf9 	stp	x25, x26, [sp, #48]
    402001f4:	a90473fb 	stp	x27, x28, [sp, #64]
    402001f8:	a9057bfd 	stp	x29, x30, [sp, #80]
    402001fc:	910003e2 	mov	x2, sp
    40200200:	f9000002 	str	x2, [x0]
    40200204:	f9400022 	ldr	x2, [x1]
    40200208:	9100005f 	mov	sp, x2
    4020020c:	a8c153f3 	ldp	x19, x20, [sp], #16
    40200210:	a8c15bf5 	ldp	x21, x22, [sp], #16
    40200214:	a8c163f7 	ldp	x23, x24, [sp], #16
    40200218:	a8c16bf9 	ldp	x25, x26, [sp], #16
    4020021c:	a8c173fb 	ldp	x27, x28, [sp], #16
    40200220:	a8c17bfd 	ldp	x29, x30, [sp], #16
    40200224:	d65f03c0 	ret

0000000040200228 <init_mmu>:
    40200228:	a9bd7bfd 	stp	x29, x30, [sp, #-48]!
    4020022c:	f9000bf5 	str	x21, [sp, #16]
    40200230:	a9024ff4 	stp	x20, x19, [sp, #32]
    40200234:	910003fd 	mov	x29, sp
    40200238:	90000008 	adrp	x8, 40200000 <boot>
    4020023c:	d0010194 	adrp	x20, 42232000 <__free_ram_end>
    40200240:	91000294 	add	x20, x20, #0x0
    40200244:	f947f113 	ldr	x19, [x8, #4064]
    40200248:	91401269 	add	x9, x19, #0x4, lsl #12
    4020024c:	eb14013f 	cmp	x9, x20
    40200250:	f907f109 	str	x9, [x8, #4064]
    40200254:	54000109 	b.ls	40200274 <init_mmu+0x4c>  // b.plast
    40200258:	d503201f 	nop
    4020025c:	70006500 	adr	x0, 40200eff <printf+0x343>
    40200260:	90000001 	adrp	x1, 40200000 <boot>
    40200264:	91380021 	add	x1, x1, #0xe00
    40200268:	528005e2 	mov	w2, #0x2f                  	// #47
    4020026c:	94000254 	bl	40200bbc <printf>
    40200270:	14000000 	b	40200270 <init_mmu+0x48>
    40200274:	aa1303e0 	mov	x0, x19
    40200278:	2a1f03e1 	mov	w1, wzr
    4020027c:	52880002 	mov	w2, #0x4000                	// #16384
    40200280:	94000211 	bl	40200ac4 <memset>
    40200284:	d503201f 	nop
    40200288:	10ffebc8 	adr	x8, 40200000 <boot>
    4020028c:	913ffe89 	add	x9, x20, #0xfff
    40200290:	9274cd14 	and	x20, x8, #0xfffffffffffff000
    40200294:	9274cd35 	and	x21, x9, #0xfffffffffffff000
    40200298:	eb15029f 	cmp	x20, x21
    4020029c:	54000102 	b.cs	402002bc <init_mmu+0x94>  // b.hs, b.nlast
    402002a0:	aa1303e0 	mov	x0, x19
    402002a4:	aa1403e1 	mov	x1, x20
    402002a8:	aa1403e2 	mov	x2, x20
    402002ac:	97ffff83 	bl	402000b8 <map_page>
    402002b0:	91400694 	add	x20, x20, #0x1, lsl #12
    402002b4:	eb15029f 	cmp	x20, x21
    402002b8:	54ffff43 	b.cc	402002a0 <init_mmu+0x78>  // b.lo, b.ul, b.last
    402002bc:	d5182033 	msr	ttbr1_el1, x19
    402002c0:	d5033b9f 	dsb	ish
    402002c4:	d508751f 	ic	iallu
    402002c8:	d5033b9f 	dsb	ish
    402002cc:	d5033fdf 	isb
    402002d0:	d5381000 	mrs	x0, sctlr_el1
    402002d4:	b2400000 	orr	x0, x0, #0x1
    402002d8:	d5181000 	msr	sctlr_el1, x0
    402002dc:	d5033fdf 	isb
    402002e0:	a9424ff4 	ldp	x20, x19, [sp, #32]
    402002e4:	f9400bf5 	ldr	x21, [sp, #16]
    402002e8:	a8c37bfd 	ldp	x29, x30, [sp], #48
    402002ec:	d65f03c0 	ret

00000000402002f0 <create_process>:
    402002f0:	a9ba7bfd 	stp	x29, x30, [sp, #-96]!
    402002f4:	f9000bfb 	str	x27, [sp, #16]
    402002f8:	a90267fa 	stp	x26, x25, [sp, #32]
    402002fc:	a9035ff8 	stp	x24, x23, [sp, #48]
    40200300:	a90457f6 	stp	x22, x21, [sp, #64]
    40200304:	a9054ff4 	stp	x20, x19, [sp, #80]
    40200308:	910003fd 	mov	x29, sp
    4020030c:	90000008 	adrp	x8, 40200000 <boot>
    40200310:	b94ff508 	ldr	w8, [x8, #4084]
    40200314:	340003a8 	cbz	w8, 40200388 <create_process+0x98>
    40200318:	f0000008 	adrp	x8, 40203000 <procs+0x2010>
    4020031c:	b9400d08 	ldr	w8, [x8, #12]
    40200320:	34000388 	cbz	w8, 40200390 <create_process+0xa0>
    40200324:	b0000028 	adrp	x8, 40205000 <procs+0x4010>
    40200328:	b9402508 	ldr	w8, [x8, #36]
    4020032c:	34000368 	cbz	w8, 40200398 <create_process+0xa8>
    40200330:	f0000028 	adrp	x8, 40207000 <procs+0x6010>
    40200334:	b9403d08 	ldr	w8, [x8, #60]
    40200338:	34000348 	cbz	w8, 402003a0 <create_process+0xb0>
    4020033c:	b0000048 	adrp	x8, 40209000 <procs+0x8010>
    40200340:	b9405508 	ldr	w8, [x8, #84]
    40200344:	34000328 	cbz	w8, 402003a8 <create_process+0xb8>
    40200348:	f0000048 	adrp	x8, 4020b000 <procs+0xa010>
    4020034c:	b9406d08 	ldr	w8, [x8, #108]
    40200350:	34000308 	cbz	w8, 402003b0 <create_process+0xc0>
    40200354:	b0000068 	adrp	x8, 4020d000 <procs+0xc010>
    40200358:	b9408508 	ldr	w8, [x8, #132]
    4020035c:	340002e8 	cbz	w8, 402003b8 <create_process+0xc8>
    40200360:	f0000068 	adrp	x8, 4020f000 <procs+0xe010>
    40200364:	b9409d08 	ldr	w8, [x8, #156]
    40200368:	340002c8 	cbz	w8, 402003c0 <create_process+0xd0>
    4020036c:	90000000 	adrp	x0, 40200000 <boot>
    40200370:	913e0800 	add	x0, x0, #0xf82
    40200374:	90000001 	adrp	x1, 40200000 <boot>
    40200378:	91380021 	add	x1, x1, #0xe00
    4020037c:	52801362 	mov	w2, #0x9b                  	// #155
    40200380:	9400020f 	bl	40200bbc <printf>
    40200384:	14000000 	b	40200384 <create_process+0x94>
    40200388:	aa1f03f6 	mov	x22, xzr
    4020038c:	1400000e 	b	402003c4 <create_process+0xd4>
    40200390:	52800036 	mov	w22, #0x1                   	// #1
    40200394:	1400000c 	b	402003c4 <create_process+0xd4>
    40200398:	52800056 	mov	w22, #0x2                   	// #2
    4020039c:	1400000a 	b	402003c4 <create_process+0xd4>
    402003a0:	52800076 	mov	w22, #0x3                   	// #3
    402003a4:	14000008 	b	402003c4 <create_process+0xd4>
    402003a8:	52800096 	mov	w22, #0x4                   	// #4
    402003ac:	14000006 	b	402003c4 <create_process+0xd4>
    402003b0:	528000b6 	mov	w22, #0x5                   	// #5
    402003b4:	14000004 	b	402003c4 <create_process+0xd4>
    402003b8:	528000d6 	mov	w22, #0x6                   	// #6
    402003bc:	14000002 	b	402003c4 <create_process+0xd4>
    402003c0:	528000f6 	mov	w22, #0x7                   	// #7
    402003c4:	52840308 	mov	w8, #0x2018                	// #8216
    402003c8:	d503201f 	nop
    402003cc:	10006137 	adr	x23, 40200ff0 <procs>
    402003d0:	9ba85ed3 	umaddl	x19, w22, w8, x23
    402003d4:	6f00e400 	movi	v0.2d, #0x0
    402003d8:	5283f409 	mov	w9, #0x1fa0                	// #8096
    402003dc:	91006279 	add	x25, x19, #0x18
    402003e0:	f9100a60 	str	x0, [x19, #8208]
    402003e4:	8b090338 	add	x24, x25, x9
    402003e8:	f910067f 	str	xzr, [x19, #8200]
    402003ec:	3d87fb20 	str	q0, [x25, #8160]
    402003f0:	3d87f720 	str	q0, [x25, #8144]
    402003f4:	3d87f320 	str	q0, [x25, #8128]
    402003f8:	3d87ef20 	str	q0, [x25, #8112]
    402003fc:	3d87eb20 	str	q0, [x25, #8096]
    40200400:	361800d8 	tbz	w24, #3, 40200418 <create_process+0x128>
    40200404:	52840309 	mov	w9, #0x2018                	// #8216
    40200408:	5283f60a 	mov	w10, #0x1fb0                	// #8112
    4020040c:	9ba95ec9 	umaddl	x9, w22, w9, x23
    40200410:	8b0a0138 	add	x24, x9, x10
    40200414:	f90fd93f 	str	xzr, [x9, #8112]
    40200418:	90000009 	adrp	x9, 40200000 <boot>
    4020041c:	d0010195 	adrp	x21, 42232000 <__free_ram_end>
    40200420:	910002b5 	add	x21, x21, #0x0
    40200424:	f947f134 	ldr	x20, [x9, #4064]
    40200428:	9140128a 	add	x10, x20, #0x4, lsl #12
    4020042c:	eb15015f 	cmp	x10, x21
    40200430:	f907f12a 	str	x10, [x9, #4064]
    40200434:	54000109 	b.ls	40200454 <create_process+0x164>  // b.plast
    40200438:	d503201f 	nop
    4020043c:	70005600 	adr	x0, 40200eff <printf+0x343>
    40200440:	90000001 	adrp	x1, 40200000 <boot>
    40200444:	91380021 	add	x1, x1, #0xe00
    40200448:	528005e2 	mov	w2, #0x2f                  	// #47
    4020044c:	940001dc 	bl	40200bbc <printf>
    40200450:	14000000 	b	40200450 <create_process+0x160>
    40200454:	aa1403e0 	mov	x0, x20
    40200458:	2a1f03e1 	mov	w1, wzr
    4020045c:	52880002 	mov	w2, #0x4000                	// #16384
    40200460:	8b08027a 	add	x26, x19, x8
    40200464:	94000198 	bl	40200ac4 <memset>
    40200468:	d503201f 	nop
    4020046c:	10ffdca8 	adr	x8, 40200000 <boot>
    40200470:	913ffea9 	add	x9, x21, #0xfff
    40200474:	9274cd15 	and	x21, x8, #0xfffffffffffff000
    40200478:	9274cd3b 	and	x27, x9, #0xfffffffffffff000
    4020047c:	eb1b02bf 	cmp	x21, x27
    40200480:	54000102 	b.cs	402004a0 <create_process+0x1b0>  // b.hs, b.nlast
    40200484:	aa1403e0 	mov	x0, x20
    40200488:	aa1503e1 	mov	x1, x21
    4020048c:	aa1503e2 	mov	x2, x21
    40200490:	97ffff0a 	bl	402000b8 <map_page>
    40200494:	914006b5 	add	x21, x21, #0x1, lsl #12
    40200498:	eb1b02bf 	cmp	x21, x27
    4020049c:	54ffff43 	b.cc	40200484 <create_process+0x194>  // b.lo, b.ul, b.last
    402004a0:	913fff48 	add	x8, x26, #0xfff
    402004a4:	9274cf35 	and	x21, x25, #0xfffffffffffff000
    402004a8:	9274cd19 	and	x25, x8, #0xfffffffffffff000
    402004ac:	eb1902bf 	cmp	x21, x25
    402004b0:	54000122 	b.cs	402004d4 <create_process+0x1e4>  // b.hs, b.nlast
    402004b4:	aa1403e0 	mov	x0, x20
    402004b8:	aa1503e1 	mov	x1, x21
    402004bc:	aa1503e2 	mov	x2, x21
    402004c0:	52808003 	mov	w3, #0x400                 	// #1024
    402004c4:	97fffefd 	bl	402000b8 <map_page>
    402004c8:	914006b5 	add	x21, x21, #0x1, lsl #12
    402004cc:	eb1902bf 	cmp	x21, x25
    402004d0:	54ffff23 	b.cc	402004b4 <create_process+0x1c4>  // b.lo, b.ul, b.last
    402004d4:	52840308 	mov	w8, #0x2018                	// #8216
    402004d8:	110006c9 	add	w9, w22, #0x1
    402004dc:	aa1303e0 	mov	x0, x19
    402004e0:	9ba85ec8 	umaddl	x8, w22, w8, x23
    402004e4:	b9000269 	str	w9, [x19]
    402004e8:	5280002a 	mov	w10, #0x1                   	// #1
    402004ec:	a94457f6 	ldp	x22, x21, [sp, #64]
    402004f0:	f9400bfb 	ldr	x27, [sp, #16]
    402004f4:	a94267fa 	ldp	x26, x25, [sp, #32]
    402004f8:	a900d118 	stp	x24, x20, [x8, #8]
    402004fc:	a9454ff4 	ldp	x20, x19, [sp, #80]
    40200500:	a9435ff8 	ldp	x24, x23, [sp, #48]
    40200504:	b900050a 	str	w10, [x8, #4]
    40200508:	a8c67bfd 	ldp	x29, x30, [sp], #96
    4020050c:	d65f03c0 	ret

0000000040200510 <delay>:
    40200510:	52987008 	mov	w8, #0xc380                	// #50048
    40200514:	72a03928 	movk	w8, #0x1c9, lsl #16
    40200518:	71000508 	subs	w8, w8, #0x1
    4020051c:	d503201f 	nop
    40200520:	54ffffc1 	b.ne	40200518 <delay+0x8>  // b.any
    40200524:	d65f03c0 	ret

0000000040200528 <yield>:
    40200528:	a9bd7bfd 	stp	x29, x30, [sp, #-48]!
    4020052c:	a90157f6 	stp	x22, x21, [sp, #16]
    40200530:	a9024ff4 	stp	x20, x19, [sp, #32]
    40200534:	910003fd 	mov	x29, sp
    40200538:	b0000088 	adrp	x8, 40211000 <procs+0x10010>
    4020053c:	5284030c 	mov	w12, #0x2018                	// #8216
    40200540:	f9405d15 	ldr	x21, [x8, #184]
    40200544:	b94002ab 	ldr	w11, [x21]
    40200548:	6b0b03e9 	negs	w9, w11
    4020054c:	1200096a 	and	w10, w11, #0x7
    40200550:	12000929 	and	w9, w9, #0x7
    40200554:	5a89454d 	csneg	w13, w10, w9, mi	// mi = first
    40200558:	d503201f 	nop
    4020055c:	100054aa 	adr	x10, 40200ff0 <procs>
    40200560:	9b2c29a9 	smaddl	x9, w13, w12, x10
    40200564:	b940052e 	ldr	w14, [x9, #4]
    40200568:	b0000089 	adrp	x9, 40211000 <procs+0x10010>
    4020056c:	f9405929 	ldr	x9, [x9, #176]
    40200570:	710005df 	cmp	w14, #0x1
    40200574:	540000e1 	b.ne	40200590 <yield+0x68>  // b.any
    40200578:	93407dad 	sxtw	x13, w13
    4020057c:	5284030e 	mov	w14, #0x2018                	// #8216
    40200580:	9b2e29b6 	smaddl	x22, w13, w14, x10
    40200584:	b94002cd 	ldr	w13, [x22]
    40200588:	710001bf 	cmp	w13, #0x0
    4020058c:	54000dcc 	b.gt	40200744 <yield+0x21c>
    40200590:	1100056d 	add	w13, w11, #0x1
    40200594:	6b0d03ee 	negs	w14, w13
    40200598:	120009ad 	and	w13, w13, #0x7
    4020059c:	120009ce 	and	w14, w14, #0x7
    402005a0:	5a8e45ad 	csneg	w13, w13, w14, mi	// mi = first
    402005a4:	9b2c29ac 	smaddl	x12, w13, w12, x10
    402005a8:	b940058c 	ldr	w12, [x12, #4]
    402005ac:	7100059f 	cmp	w12, #0x1
    402005b0:	540000e1 	b.ne	402005cc <yield+0xa4>  // b.any
    402005b4:	93407dac 	sxtw	x12, w13
    402005b8:	5284030d 	mov	w13, #0x2018                	// #8216
    402005bc:	9b2d2996 	smaddl	x22, w12, w13, x10
    402005c0:	b94002cc 	ldr	w12, [x22]
    402005c4:	7100019f 	cmp	w12, #0x0
    402005c8:	54000bec 	b.gt	40200744 <yield+0x21c>
    402005cc:	1100096c 	add	w12, w11, #0x2
    402005d0:	6b0c03ed 	negs	w13, w12
    402005d4:	1200098c 	and	w12, w12, #0x7
    402005d8:	120009ad 	and	w13, w13, #0x7
    402005dc:	5a8d458d 	csneg	w13, w12, w13, mi	// mi = first
    402005e0:	5284030c 	mov	w12, #0x2018                	// #8216
    402005e4:	9b2c29ae 	smaddl	x14, w13, w12, x10
    402005e8:	b94005ce 	ldr	w14, [x14, #4]
    402005ec:	710005df 	cmp	w14, #0x1
    402005f0:	540000e1 	b.ne	4020060c <yield+0xe4>  // b.any
    402005f4:	93407dad 	sxtw	x13, w13
    402005f8:	5284030e 	mov	w14, #0x2018                	// #8216
    402005fc:	9b2e29b6 	smaddl	x22, w13, w14, x10
    40200600:	b94002cd 	ldr	w13, [x22]
    40200604:	710001bf 	cmp	w13, #0x0
    40200608:	540009ec 	b.gt	40200744 <yield+0x21c>
    4020060c:	11000d6d 	add	w13, w11, #0x3
    40200610:	6b0d03ee 	negs	w14, w13
    40200614:	120009ad 	and	w13, w13, #0x7
    40200618:	120009ce 	and	w14, w14, #0x7
    4020061c:	5a8e45ad 	csneg	w13, w13, w14, mi	// mi = first
    40200620:	9b2c29ac 	smaddl	x12, w13, w12, x10
    40200624:	b940058c 	ldr	w12, [x12, #4]
    40200628:	7100059f 	cmp	w12, #0x1
    4020062c:	540000e1 	b.ne	40200648 <yield+0x120>  // b.any
    40200630:	93407dac 	sxtw	x12, w13
    40200634:	5284030d 	mov	w13, #0x2018                	// #8216
    40200638:	9b2d2996 	smaddl	x22, w12, w13, x10
    4020063c:	b94002cc 	ldr	w12, [x22]
    40200640:	7100019f 	cmp	w12, #0x0
    40200644:	5400080c 	b.gt	40200744 <yield+0x21c>
    40200648:	1100116c 	add	w12, w11, #0x4
    4020064c:	6b0c03ed 	negs	w13, w12
    40200650:	1200098c 	and	w12, w12, #0x7
    40200654:	120009ad 	and	w13, w13, #0x7
    40200658:	5a8d458d 	csneg	w13, w12, w13, mi	// mi = first
    4020065c:	5284030c 	mov	w12, #0x2018                	// #8216
    40200660:	9b2c29ae 	smaddl	x14, w13, w12, x10
    40200664:	b94005ce 	ldr	w14, [x14, #4]
    40200668:	710005df 	cmp	w14, #0x1
    4020066c:	540000e1 	b.ne	40200688 <yield+0x160>  // b.any
    40200670:	93407dad 	sxtw	x13, w13
    40200674:	5284030e 	mov	w14, #0x2018                	// #8216
    40200678:	9b2e29b6 	smaddl	x22, w13, w14, x10
    4020067c:	b94002cd 	ldr	w13, [x22]
    40200680:	710001bf 	cmp	w13, #0x0
    40200684:	5400060c 	b.gt	40200744 <yield+0x21c>
    40200688:	1100156d 	add	w13, w11, #0x5
    4020068c:	6b0d03ee 	negs	w14, w13
    40200690:	120009ad 	and	w13, w13, #0x7
    40200694:	120009ce 	and	w14, w14, #0x7
    40200698:	5a8e45ad 	csneg	w13, w13, w14, mi	// mi = first
    4020069c:	9b2c29ac 	smaddl	x12, w13, w12, x10
    402006a0:	b940058c 	ldr	w12, [x12, #4]
    402006a4:	7100059f 	cmp	w12, #0x1
    402006a8:	540000e1 	b.ne	402006c4 <yield+0x19c>  // b.any
    402006ac:	93407dac 	sxtw	x12, w13
    402006b0:	5284030d 	mov	w13, #0x2018                	// #8216
    402006b4:	9b2d2996 	smaddl	x22, w12, w13, x10
    402006b8:	b94002cc 	ldr	w12, [x22]
    402006bc:	7100019f 	cmp	w12, #0x0
    402006c0:	5400042c 	b.gt	40200744 <yield+0x21c>
    402006c4:	1100196c 	add	w12, w11, #0x6
    402006c8:	6b0c03ed 	negs	w13, w12
    402006cc:	1200098c 	and	w12, w12, #0x7
    402006d0:	120009ad 	and	w13, w13, #0x7
    402006d4:	5a8d458d 	csneg	w13, w12, w13, mi	// mi = first
    402006d8:	5284030c 	mov	w12, #0x2018                	// #8216
    402006dc:	9b2c29ae 	smaddl	x14, w13, w12, x10
    402006e0:	b94005ce 	ldr	w14, [x14, #4]
    402006e4:	710005df 	cmp	w14, #0x1
    402006e8:	540000e1 	b.ne	40200704 <yield+0x1dc>  // b.any
    402006ec:	93407dad 	sxtw	x13, w13
    402006f0:	5284030e 	mov	w14, #0x2018                	// #8216
    402006f4:	9b2e29b6 	smaddl	x22, w13, w14, x10
    402006f8:	b94002cd 	ldr	w13, [x22]
    402006fc:	710001bf 	cmp	w13, #0x0
    40200700:	5400022c 	b.gt	40200744 <yield+0x21c>
    40200704:	11001d6b 	add	w11, w11, #0x7
    40200708:	6b0b03ed 	negs	w13, w11
    4020070c:	1200096b 	and	w11, w11, #0x7
    40200710:	120009ad 	and	w13, w13, #0x7
    40200714:	5a8d456b 	csneg	w11, w11, w13, mi	// mi = first
    40200718:	9b2c296c 	smaddl	x12, w11, w12, x10
    4020071c:	b940058c 	ldr	w12, [x12, #4]
    40200720:	7100059f 	cmp	w12, #0x1
    40200724:	540000e1 	b.ne	40200740 <yield+0x218>  // b.any
    40200728:	93407d6b 	sxtw	x11, w11
    4020072c:	5284030c 	mov	w12, #0x2018                	// #8216
    40200730:	9b2c2976 	smaddl	x22, w11, w12, x10
    40200734:	b94002ca 	ldr	w10, [x22]
    40200738:	7100015f 	cmp	w10, #0x0
    4020073c:	5400004c 	b.gt	40200744 <yield+0x21c>
    40200740:	aa0903f6 	mov	x22, x9
    40200744:	eb1502df 	cmp	x22, x21
    40200748:	54000660 	b.eq	40200814 <here+0x74>  // b.none
    4020074c:	52840309 	mov	w9, #0x2018                	// #8216
    40200750:	f9005d16 	str	x22, [x8, #184]
    40200754:	90000000 	adrp	x0, 40200000 <boot>
    40200758:	91393c00 	add	x0, x0, #0xe4f
    4020075c:	8b0902d3 	add	x19, x22, x9
    40200760:	d518d093 	msr	tpidr_el1, x19
    40200764:	f9400ad4 	ldr	x20, [x22, #16]
    40200768:	aa1303e2 	mov	x2, x19
    4020076c:	aa1403e1 	mov	x1, x20
    40200770:	94000113 	bl	40200bbc <printf>
    40200774:	d5033a9f 	dsb	ishst
    40200778:	d508871f 	tlbi	vmalle1
    4020077c:	d5033b9f 	dsb	ish
    40200780:	d5033fdf 	isb
    40200784:	aa1403e0 	mov	x0, x20
    40200788:	d5382001 	mrs	x1, ttbr0_el1
    4020078c:	d5381002 	mrs	x2, sctlr_el1
    40200790:	d5182014 	msr	ttbr0_el1, x20
    40200794:	d5382003 	mrs	x3, ttbr0_el1
    40200798:	d5033fdf 	isb
    4020079c:	d518d093 	msr	tpidr_el1, x19

00000000402007a0 <here>:
    402007a0:	14000000 	b	402007a0 <here>
    402007a4:	90000000 	adrp	x0, 40200000 <boot>
    402007a8:	91382400 	add	x0, x0, #0xe09
    402007ac:	94000104 	bl	40200bbc <printf>
    402007b0:	aa1503f3 	mov	x19, x21
    402007b4:	aa1603f4 	mov	x20, x22
    402007b8:	b94002a1 	ldr	w1, [x21]
    402007bc:	f8408e62 	ldr	x2, [x19, #8]!
    402007c0:	b94002c3 	ldr	w3, [x22]
    402007c4:	f8408e84 	ldr	x4, [x20, #8]!
    402007c8:	90000000 	adrp	x0, 40200000 <boot>
    402007cc:	913cfc00 	add	x0, x0, #0xf3f
    402007d0:	940000fb 	bl	40200bbc <printf>
    402007d4:	aa1303e0 	mov	x0, x19
    402007d8:	aa1403e1 	mov	x1, x20
    402007dc:	97fffe82 	bl	402001e4 <switch_context>
    402007e0:	b94002a1 	ldr	w1, [x21]
    402007e4:	f9400262 	ldr	x2, [x19]
    402007e8:	90000000 	adrp	x0, 40200000 <boot>
    402007ec:	913ae400 	add	x0, x0, #0xeb9
    402007f0:	b94002c3 	ldr	w3, [x22]
    402007f4:	f9400284 	ldr	x4, [x20]
    402007f8:	940000f1 	bl	40200bbc <printf>
    402007fc:	a9424ff4 	ldp	x20, x19, [sp, #32]
    40200800:	90000000 	adrp	x0, 40200000 <boot>
    40200804:	9138dc00 	add	x0, x0, #0xe37
    40200808:	a94157f6 	ldp	x22, x21, [sp, #16]
    4020080c:	a8c37bfd 	ldp	x29, x30, [sp], #48
    40200810:	140000eb 	b	40200bbc <printf>
    40200814:	a9424ff4 	ldp	x20, x19, [sp, #32]
    40200818:	a94157f6 	ldp	x22, x21, [sp, #16]
    4020081c:	a8c37bfd 	ldp	x29, x30, [sp], #48
    40200820:	d65f03c0 	ret

0000000040200824 <proc_a_entry>:
    40200824:	a9be7bfd 	stp	x29, x30, [sp, #-32]!
    40200828:	f9000bf3 	str	x19, [sp, #16]
    4020082c:	910003fd 	mov	x29, sp
    40200830:	90000000 	adrp	x0, 40200000 <boot>
    40200834:	913a9400 	add	x0, x0, #0xea5
    40200838:	940000e1 	bl	40200bbc <printf>
    4020083c:	52800833 	mov	w19, #0x41                  	// #65
    40200840:	390073b3 	strb	w19, [x29, #28]
    40200844:	910073a1 	add	x1, x29, #0x1c
    40200848:	52800060 	mov	w0, #0x3                   	// #3
    4020084c:	52800022 	mov	w2, #0x1                   	// #1
    40200850:	52800807 	mov	w7, #0x40                  	// #64
    40200854:	d45e0000 	hlt	#0xf000
    40200858:	52987008 	mov	w8, #0xc380                	// #50048
    4020085c:	72a03928 	movk	w8, #0x1c9, lsl #16
    40200860:	71000508 	subs	w8, w8, #0x1
    40200864:	d503201f 	nop
    40200868:	54ffffc1 	b.ne	40200860 <proc_a_entry+0x3c>  // b.any
    4020086c:	97ffff2f 	bl	40200528 <yield>
    40200870:	17fffff4 	b	40200840 <proc_a_entry+0x1c>

0000000040200874 <proc_b_entry>:
    40200874:	a9be7bfd 	stp	x29, x30, [sp, #-32]!
    40200878:	f9000bf3 	str	x19, [sp, #16]
    4020087c:	910003fd 	mov	x29, sp
    40200880:	90000000 	adrp	x0, 40200000 <boot>
    40200884:	9139b800 	add	x0, x0, #0xe6e
    40200888:	940000cd 	bl	40200bbc <printf>
    4020088c:	52800853 	mov	w19, #0x42                  	// #66
    40200890:	390073b3 	strb	w19, [x29, #28]
    40200894:	910073a1 	add	x1, x29, #0x1c
    40200898:	52800060 	mov	w0, #0x3                   	// #3
    4020089c:	52800022 	mov	w2, #0x1                   	// #1
    402008a0:	52800807 	mov	w7, #0x40                  	// #64
    402008a4:	d45e0000 	hlt	#0xf000
    402008a8:	52987008 	mov	w8, #0xc380                	// #50048
    402008ac:	72a03928 	movk	w8, #0x1c9, lsl #16
    402008b0:	71000508 	subs	w8, w8, #0x1
    402008b4:	d503201f 	nop
    402008b8:	54ffffc1 	b.ne	402008b0 <proc_b_entry+0x3c>  // b.any
    402008bc:	97ffff1b 	bl	40200528 <yield>
    402008c0:	17fffff4 	b	40200890 <proc_b_entry+0x1c>

00000000402008c4 <kernel_main>:
    402008c4:	a9bd7bfd 	stp	x29, x30, [sp, #-48]!
    402008c8:	f9000bf5 	str	x21, [sp, #16]
    402008cc:	a9024ff4 	stp	x20, x19, [sp, #32]
    402008d0:	910003fd 	mov	x29, sp
    402008d4:	d503201f 	nop
    402008d8:	100038c0 	adr	x0, 40200ff0 <procs>
    402008dc:	d503201f 	nop
    402008e0:	10083f88 	adr	x8, 402110d0 <__bss_end>
    402008e4:	2a1f03e1 	mov	w1, wzr
    402008e8:	4b000102 	sub	w2, w8, w0
    402008ec:	94000076 	bl	40200ac4 <memset>
    402008f0:	90000008 	adrp	x8, 40200000 <boot>
    402008f4:	d0010194 	adrp	x20, 42232000 <__free_ram_end>
    402008f8:	91000294 	add	x20, x20, #0x0
    402008fc:	f947f113 	ldr	x19, [x8, #4064]
    40200900:	91401269 	add	x9, x19, #0x4, lsl #12
    40200904:	eb14013f 	cmp	x9, x20
    40200908:	f907f109 	str	x9, [x8, #4064]
    4020090c:	54000109 	b.ls	4020092c <kernel_main+0x68>  // b.plast
    40200910:	d503201f 	nop
    40200914:	70002f40 	adr	x0, 40200eff <printf+0x343>
    40200918:	90000001 	adrp	x1, 40200000 <boot>
    4020091c:	91380021 	add	x1, x1, #0xe00
    40200920:	528005e2 	mov	w2, #0x2f                  	// #47
    40200924:	940000a6 	bl	40200bbc <printf>
    40200928:	14000000 	b	40200928 <kernel_main+0x64>
    4020092c:	aa1303e0 	mov	x0, x19
    40200930:	2a1f03e1 	mov	w1, wzr
    40200934:	52880002 	mov	w2, #0x4000                	// #16384
    40200938:	94000063 	bl	40200ac4 <memset>
    4020093c:	d503201f 	nop
    40200940:	10ffb608 	adr	x8, 40200000 <boot>
    40200944:	913ffe89 	add	x9, x20, #0xfff
    40200948:	9274cd14 	and	x20, x8, #0xfffffffffffff000
    4020094c:	9274cd35 	and	x21, x9, #0xfffffffffffff000
    40200950:	eb15029f 	cmp	x20, x21
    40200954:	54000102 	b.cs	40200974 <kernel_main+0xb0>  // b.hs, b.nlast
    40200958:	aa1303e0 	mov	x0, x19
    4020095c:	aa1403e1 	mov	x1, x20
    40200960:	aa1403e2 	mov	x2, x20
    40200964:	97fffdd5 	bl	402000b8 <map_page>
    40200968:	91400694 	add	x20, x20, #0x1, lsl #12
    4020096c:	eb15029f 	cmp	x20, x21
    40200970:	54ffff43 	b.cc	40200958 <kernel_main+0x94>  // b.lo, b.ul, b.last
    40200974:	d5182033 	msr	ttbr1_el1, x19
    40200978:	d5033b9f 	dsb	ish
    4020097c:	d508751f 	ic	iallu
    40200980:	d5033b9f 	dsb	ish
    40200984:	d5033fdf 	isb
    40200988:	d5381000 	mrs	x0, sctlr_el1
    4020098c:	b2400000 	orr	x0, x0, #0x1
    40200990:	d5181000 	msr	sctlr_el1, x0
    40200994:	d5033fdf 	isb
    40200998:	aa1f03e0 	mov	x0, xzr
    4020099c:	97fffe55 	bl	402002f0 <create_process>
    402009a0:	b0000088 	adrp	x8, 40211000 <procs+0x10010>
    402009a4:	b900001f 	str	wzr, [x0]
    402009a8:	f9005900 	str	x0, [x8, #176]
    402009ac:	b0000088 	adrp	x8, 40211000 <procs+0x10010>
    402009b0:	f9005d00 	str	x0, [x8, #184]
    402009b4:	d503201f 	nop
    402009b8:	10fff360 	adr	x0, 40200824 <proc_a_entry>
    402009bc:	97fffe4d 	bl	402002f0 <create_process>
    402009c0:	b0000088 	adrp	x8, 40211000 <procs+0x10010>
    402009c4:	f9006100 	str	x0, [x8, #192]
    402009c8:	d503201f 	nop
    402009cc:	10fff540 	adr	x0, 40200874 <proc_b_entry>
    402009d0:	97fffe48 	bl	402002f0 <create_process>
    402009d4:	b0000088 	adrp	x8, 40211000 <procs+0x10010>
    402009d8:	f9006500 	str	x0, [x8, #200]
    402009dc:	97fffed3 	bl	40200528 <yield>
    402009e0:	90000000 	adrp	x0, 40200000 <boot>
    402009e4:	91388000 	add	x0, x0, #0xe20
    402009e8:	90000001 	adrp	x1, 40200000 <boot>
    402009ec:	91380021 	add	x1, x1, #0xe00
    402009f0:	52802c82 	mov	w2, #0x164                 	// #356
    402009f4:	94000072 	bl	40200bbc <printf>
    402009f8:	14000000 	b	402009f8 <kernel_main+0x134>

00000000402009fc <memcpy>:
    402009fc:	34000622 	cbz	w2, 40200ac0 <memcpy+0xc4>
    40200a00:	7100205f 	cmp	w2, #0x8
    40200a04:	54000123 	b.cc	40200a28 <memcpy+0x2c>  // b.lo, b.ul, b.last
    40200a08:	cb010008 	sub	x8, x0, x1
    40200a0c:	f100811f 	cmp	x8, #0x20
    40200a10:	540000c3 	b.cc	40200a28 <memcpy+0x2c>  // b.lo, b.ul, b.last
    40200a14:	7100805f 	cmp	w2, #0x20
    40200a18:	2a0203e8 	mov	w8, w2
    40200a1c:	540000c2 	b.cs	40200a34 <memcpy+0x38>  // b.hs, b.nlast
    40200a20:	aa1f03eb 	mov	x11, xzr
    40200a24:	14000012 	b	40200a6c <memcpy+0x70>
    40200a28:	aa0103e9 	mov	x9, x1
    40200a2c:	aa0003ea 	mov	x10, x0
    40200a30:	14000020 	b	40200ab0 <memcpy+0xb4>
    40200a34:	927b690b 	and	x11, x8, #0xffffffe0
    40200a38:	91004009 	add	x9, x0, #0x10
    40200a3c:	9100402a 	add	x10, x1, #0x10
    40200a40:	aa0b03ec 	mov	x12, x11
    40200a44:	ad7f8540 	ldp	q0, q1, [x10, #-16]
    40200a48:	f100818c 	subs	x12, x12, #0x20
    40200a4c:	9100814a 	add	x10, x10, #0x20
    40200a50:	ad3f8520 	stp	q0, q1, [x9, #-16]
    40200a54:	91008129 	add	x9, x9, #0x20
    40200a58:	54ffff61 	b.ne	40200a44 <memcpy+0x48>  // b.any
    40200a5c:	eb08017f 	cmp	x11, x8
    40200a60:	54000300 	b.eq	40200ac0 <memcpy+0xc4>  // b.none
    40200a64:	f27d051f 	tst	x8, #0x18
    40200a68:	540001e0 	b.eq	40200aa4 <memcpy+0xa8>  // b.none
    40200a6c:	927d710c 	and	x12, x8, #0xfffffff8
    40200a70:	8b0b000d 	add	x13, x0, x11
    40200a74:	8b0b002e 	add	x14, x1, x11
    40200a78:	8b0c0029 	add	x9, x1, x12
    40200a7c:	8b0c000a 	add	x10, x0, x12
    40200a80:	4b0c0042 	sub	w2, w2, w12
    40200a84:	cb0c016b 	sub	x11, x11, x12
    40200a88:	fc4085c0 	ldr	d0, [x14], #8
    40200a8c:	b100216b 	adds	x11, x11, #0x8
    40200a90:	fc0085a0 	str	d0, [x13], #8
    40200a94:	54ffffa1 	b.ne	40200a88 <memcpy+0x8c>  // b.any
    40200a98:	eb08019f 	cmp	x12, x8
    40200a9c:	540000a1 	b.ne	40200ab0 <memcpy+0xb4>  // b.any
    40200aa0:	14000008 	b	40200ac0 <memcpy+0xc4>
    40200aa4:	4b0b0042 	sub	w2, w2, w11
    40200aa8:	8b0b000a 	add	x10, x0, x11
    40200aac:	8b0b0029 	add	x9, x1, x11
    40200ab0:	38401528 	ldrb	w8, [x9], #1
    40200ab4:	71000442 	subs	w2, w2, #0x1
    40200ab8:	38001548 	strb	w8, [x10], #1
    40200abc:	54ffffa1 	b.ne	40200ab0 <memcpy+0xb4>  // b.any
    40200ac0:	d65f03c0 	ret

0000000040200ac4 <memset>:
    40200ac4:	340004e2 	cbz	w2, 40200b60 <memset+0x9c>
    40200ac8:	7100205f 	cmp	w2, #0x8
    40200acc:	54000062 	b.cs	40200ad8 <memset+0x14>  // b.hs, b.nlast
    40200ad0:	aa0003e9 	mov	x9, x0
    40200ad4:	14000020 	b	40200b54 <memset+0x90>
    40200ad8:	7100805f 	cmp	w2, #0x20
    40200adc:	2a0203e8 	mov	w8, w2
    40200ae0:	54000062 	b.cs	40200aec <memset+0x28>  // b.hs, b.nlast
    40200ae4:	aa1f03ea 	mov	x10, xzr
    40200ae8:	1400000d 	b	40200b1c <memset+0x58>
    40200aec:	4e010c20 	dup	v0.16b, w1
    40200af0:	927b690a 	and	x10, x8, #0xffffffe0
    40200af4:	91004009 	add	x9, x0, #0x10
    40200af8:	aa0a03eb 	mov	x11, x10
    40200afc:	ad3f8120 	stp	q0, q0, [x9, #-16]
    40200b00:	f100816b 	subs	x11, x11, #0x20
    40200b04:	91008129 	add	x9, x9, #0x20
    40200b08:	54ffffa1 	b.ne	40200afc <memset+0x38>  // b.any
    40200b0c:	eb08015f 	cmp	x10, x8
    40200b10:	54000280 	b.eq	40200b60 <memset+0x9c>  // b.none
    40200b14:	f27d051f 	tst	x8, #0x18
    40200b18:	540001a0 	b.eq	40200b4c <memset+0x88>  // b.none
    40200b1c:	0e010c20 	dup	v0.8b, w1
    40200b20:	927d710b 	and	x11, x8, #0xfffffff8
    40200b24:	8b0a000c 	add	x12, x0, x10
    40200b28:	8b0b0009 	add	x9, x0, x11
    40200b2c:	4b0b0042 	sub	w2, w2, w11
    40200b30:	cb0b014a 	sub	x10, x10, x11
    40200b34:	b100214a 	adds	x10, x10, #0x8
    40200b38:	fc008580 	str	d0, [x12], #8
    40200b3c:	54ffffc1 	b.ne	40200b34 <memset+0x70>  // b.any
    40200b40:	eb08017f 	cmp	x11, x8
    40200b44:	54000081 	b.ne	40200b54 <memset+0x90>  // b.any
    40200b48:	14000006 	b	40200b60 <memset+0x9c>
    40200b4c:	4b0a0042 	sub	w2, w2, w10
    40200b50:	8b0a0009 	add	x9, x0, x10
    40200b54:	71000442 	subs	w2, w2, #0x1
    40200b58:	38001521 	strb	w1, [x9], #1
    40200b5c:	54ffffc1 	b.ne	40200b54 <memset+0x90>  // b.any
    40200b60:	d65f03c0 	ret

0000000040200b64 <strcpy>:
    40200b64:	39400028 	ldrb	w8, [x1]
    40200b68:	aa0003e9 	mov	x9, x0
    40200b6c:	340000c8 	cbz	w8, 40200b84 <strcpy+0x20>
    40200b70:	9100042a 	add	x10, x1, #0x1
    40200b74:	aa0003e9 	mov	x9, x0
    40200b78:	38001528 	strb	w8, [x9], #1
    40200b7c:	38401548 	ldrb	w8, [x10], #1
    40200b80:	35ffffc8 	cbnz	w8, 40200b78 <strcpy+0x14>
    40200b84:	3900013f 	strb	wzr, [x9]
    40200b88:	d65f03c0 	ret

0000000040200b8c <strcmp>:
    40200b8c:	39400008 	ldrb	w8, [x0]
    40200b90:	34000108 	cbz	w8, 40200bb0 <strcmp+0x24>
    40200b94:	91000409 	add	x9, x0, #0x1
    40200b98:	3940002a 	ldrb	w10, [x1]
    40200b9c:	6b0a011f 	cmp	w8, w10
    40200ba0:	54000081 	b.ne	40200bb0 <strcmp+0x24>  // b.any
    40200ba4:	38401528 	ldrb	w8, [x9], #1
    40200ba8:	91000421 	add	x1, x1, #0x1
    40200bac:	35ffff68 	cbnz	w8, 40200b98 <strcmp+0xc>
    40200bb0:	39400029 	ldrb	w9, [x1]
    40200bb4:	4b090100 	sub	w0, w8, w9
    40200bb8:	d65f03c0 	ret

0000000040200bbc <printf>:
    40200bbc:	d104c3ff 	sub	sp, sp, #0x130
    40200bc0:	a90e7bfd 	stp	x29, x30, [sp, #224]
    40200bc4:	f9007bfc 	str	x28, [sp, #240]
    40200bc8:	a9105ff8 	stp	x24, x23, [sp, #256]
    40200bcc:	a91157f6 	stp	x22, x21, [sp, #272]
    40200bd0:	a9124ff4 	stp	x20, x19, [sp, #288]
    40200bd4:	910383fd 	add	x29, sp, #0xe0
    40200bd8:	928006e8 	mov	x8, #0xffffffffffffffc8    	// #-56
    40200bdc:	910003e9 	mov	x9, sp
    40200be0:	d10163aa 	sub	x10, x29, #0x58
    40200be4:	f2dff008 	movk	x8, #0xff80, lsl #32
    40200be8:	91020129 	add	x9, x9, #0x80
    40200bec:	529999b4 	mov	w20, #0xcccd                	// #52429
    40200bf0:	aa0003f3 	mov	x19, x0
    40200bf4:	a93f23a9 	stp	x9, x8, [x29, #-16]
    40200bf8:	9100e148 	add	x8, x10, #0x38
    40200bfc:	910143a9 	add	x9, x29, #0x50
    40200c00:	72b99994 	movk	w20, #0xcccc, lsl #16
    40200c04:	d503201f 	nop
    40200c08:	30001b55 	adr	x21, 40200f71 <printf+0x3b5>
    40200c0c:	a93a8ba1 	stp	x1, x2, [x29, #-88]
    40200c10:	a93b93a3 	stp	x3, x4, [x29, #-72]
    40200c14:	a93c9ba5 	stp	x5, x6, [x29, #-56]
    40200c18:	f81d83a7 	stur	x7, [x29, #-40]
    40200c1c:	ad0007e0 	stp	q0, q1, [sp]
    40200c20:	ad010fe2 	stp	q2, q3, [sp, #32]
    40200c24:	ad0217e4 	stp	q4, q5, [sp, #64]
    40200c28:	ad031fe6 	stp	q6, q7, [sp, #96]
    40200c2c:	a93e23a9 	stp	x9, x8, [x29, #-32]
    40200c30:	14000003 	b	40200c3c <printf+0x80>
    40200c34:	34000d40 	cbz	w0, 40200ddc <printf+0x220>
    40200c38:	91000673 	add	x19, x19, #0x1
    40200c3c:	39400260 	ldrb	w0, [x19]
    40200c40:	7100941f 	cmp	w0, #0x25
    40200c44:	540000a0 	b.eq	40200c58 <printf+0x9c>  // b.none
    40200c48:	34000ce0 	cbz	w0, 40200de4 <printf+0x228>
    40200c4c:	97fffcf8 	bl	4020002c <putchar>
    40200c50:	91000673 	add	x19, x19, #0x1
    40200c54:	17fffffa 	b	40200c3c <printf+0x80>
    40200c58:	38401e60 	ldrb	w0, [x19, #1]!
    40200c5c:	7101c81f 	cmp	w0, #0x72
    40200c60:	5400020c 	b.gt	40200ca0 <printf+0xe4>
    40200c64:	7100941f 	cmp	w0, #0x25
    40200c68:	54ffff20 	b.eq	40200c4c <printf+0x90>  // b.none
    40200c6c:	7101901f 	cmp	w0, #0x64
    40200c70:	54fffe21 	b.ne	40200c34 <printf+0x78>  // b.any
    40200c74:	b89f83a8 	ldursw	x8, [x29, #-8]
    40200c78:	36f80408 	tbz	w8, #31, 40200cf8 <printf+0x13c>
    40200c7c:	11002109 	add	w9, w8, #0x8
    40200c80:	3100211f 	cmn	w8, #0x8
    40200c84:	b81f83a9 	stur	w9, [x29, #-8]
    40200c88:	54000388 	b.hi	40200cf8 <printf+0x13c>  // b.pmore
    40200c8c:	f85e83a9 	ldur	x9, [x29, #-24]
    40200c90:	8b080128 	add	x8, x9, x8
    40200c94:	b9400116 	ldr	w22, [x8]
    40200c98:	36f80416 	tbz	w22, #31, 40200d18 <printf+0x15c>
    40200c9c:	1400001c 	b	40200d0c <printf+0x150>
    40200ca0:	7101cc1f 	cmp	w0, #0x73
    40200ca4:	54000180 	b.eq	40200cd4 <printf+0x118>  // b.none
    40200ca8:	7101e01f 	cmp	w0, #0x78
    40200cac:	54fffc61 	b.ne	40200c38 <printf+0x7c>  // b.any
    40200cb0:	b89f83a8 	ldursw	x8, [x29, #-8]
    40200cb4:	36f806c8 	tbz	w8, #31, 40200d8c <printf+0x1d0>
    40200cb8:	11002109 	add	w9, w8, #0x8
    40200cbc:	3100211f 	cmn	w8, #0x8
    40200cc0:	b81f83a9 	stur	w9, [x29, #-8]
    40200cc4:	54000648 	b.hi	40200d8c <printf+0x1d0>  // b.pmore
    40200cc8:	f85e83a9 	ldur	x9, [x29, #-24]
    40200ccc:	8b080129 	add	x9, x9, x8
    40200cd0:	14000032 	b	40200d98 <printf+0x1dc>
    40200cd4:	b89f83a8 	ldursw	x8, [x29, #-8]
    40200cd8:	36f80448 	tbz	w8, #31, 40200d60 <printf+0x1a4>
    40200cdc:	11002109 	add	w9, w8, #0x8
    40200ce0:	3100211f 	cmn	w8, #0x8
    40200ce4:	b81f83a9 	stur	w9, [x29, #-8]
    40200ce8:	540003c8 	b.hi	40200d60 <printf+0x1a4>  // b.pmore
    40200cec:	f85e83a9 	ldur	x9, [x29, #-24]
    40200cf0:	8b080128 	add	x8, x9, x8
    40200cf4:	1400001e 	b	40200d6c <printf+0x1b0>
    40200cf8:	f85e03a8 	ldur	x8, [x29, #-32]
    40200cfc:	91002109 	add	x9, x8, #0x8
    40200d00:	f81e03a9 	stur	x9, [x29, #-32]
    40200d04:	b9400116 	ldr	w22, [x8]
    40200d08:	36f80096 	tbz	w22, #31, 40200d18 <printf+0x15c>
    40200d0c:	528005a0 	mov	w0, #0x2d                  	// #45
    40200d10:	97fffcc7 	bl	4020002c <putchar>
    40200d14:	4b1603f6 	neg	w22, w22
    40200d18:	52800037 	mov	w23, #0x1                   	// #1
    40200d1c:	71002adf 	cmp	w22, #0xa
    40200d20:	540000c3 	b.cc	40200d38 <printf+0x17c>  // b.lo, b.ul, b.last
    40200d24:	0b170ae8 	add	w8, w23, w23, lsl #2
    40200d28:	531f7917 	lsl	w23, w8, #1
    40200d2c:	1ad70ac8 	udiv	w8, w22, w23
    40200d30:	7100251f 	cmp	w8, #0x9
    40200d34:	54ffff88 	b.hi	40200d24 <printf+0x168>  // b.pmore
    40200d38:	1ad70ad8 	udiv	w24, w22, w23
    40200d3c:	1100c300 	add	w0, w24, #0x30
    40200d40:	97fffcbb 	bl	4020002c <putchar>
    40200d44:	9bb47ee8 	umull	x8, w23, w20
    40200d48:	71002aff 	cmp	w23, #0xa
    40200d4c:	1b17db16 	msub	w22, w24, w23, w22
    40200d50:	d363fd08 	lsr	x8, x8, #35
    40200d54:	2a0803f7 	mov	w23, w8
    40200d58:	54ffff02 	b.cs	40200d38 <printf+0x17c>  // b.hs, b.nlast
    40200d5c:	17ffffb7 	b	40200c38 <printf+0x7c>
    40200d60:	f85e03a8 	ldur	x8, [x29, #-32]
    40200d64:	91002109 	add	x9, x8, #0x8
    40200d68:	f81e03a9 	stur	x9, [x29, #-32]
    40200d6c:	f9400108 	ldr	x8, [x8]
    40200d70:	39400100 	ldrb	w0, [x8]
    40200d74:	34fff620 	cbz	w0, 40200c38 <printf+0x7c>
    40200d78:	91000516 	add	x22, x8, #0x1
    40200d7c:	97fffcac 	bl	4020002c <putchar>
    40200d80:	384016c0 	ldrb	w0, [x22], #1
    40200d84:	35ffffc0 	cbnz	w0, 40200d7c <printf+0x1c0>
    40200d88:	17ffffac 	b	40200c38 <printf+0x7c>
    40200d8c:	f85e03a9 	ldur	x9, [x29, #-32]
    40200d90:	91002128 	add	x8, x9, #0x8
    40200d94:	f81e03a8 	stur	x8, [x29, #-32]
    40200d98:	f9400136 	ldr	x22, [x9]
    40200d9c:	2a1f03e8 	mov	w8, wzr
    40200da0:	52800797 	mov	w23, #0x3c                  	// #60
    40200da4:	14000008 	b	40200dc4 <printf+0x208>
    40200da8:	92400d28 	and	x8, x9, #0xf
    40200dac:	38686aa0 	ldrb	w0, [x21, x8]
    40200db0:	97fffc9f 	bl	4020002c <putchar>
    40200db4:	52800028 	mov	w8, #0x1                   	// #1
    40200db8:	d10012f7 	sub	x23, x23, #0x4
    40200dbc:	b10012ff 	cmn	x23, #0x4
    40200dc0:	54fff3c0 	b.eq	40200c38 <printf+0x7c>  // b.none
    40200dc4:	9ad726c9 	lsr	x9, x22, x23
    40200dc8:	b4ffff17 	cbz	x23, 40200da8 <printf+0x1ec>
    40200dcc:	12000d2a 	and	w10, w9, #0xf
    40200dd0:	2a080148 	orr	w8, w10, w8
    40200dd4:	34ffff28 	cbz	w8, 40200db8 <printf+0x1fc>
    40200dd8:	17fffff4 	b	40200da8 <printf+0x1ec>
    40200ddc:	528004a0 	mov	w0, #0x25                  	// #37
    40200de0:	97fffc93 	bl	4020002c <putchar>
    40200de4:	a9524ff4 	ldp	x20, x19, [sp, #288]
    40200de8:	f9407bfc 	ldr	x28, [sp, #240]
    40200dec:	a95157f6 	ldp	x22, x21, [sp, #272]
    40200df0:	a9505ff8 	ldp	x24, x23, [sp, #256]
    40200df4:	a94e7bfd 	ldp	x29, x30, [sp, #224]
    40200df8:	9104c3ff 	add	sp, sp, #0x130
    40200dfc:	d65f03c0 	ret
