
kernel.elf:     file format elf64-littleaarch64


Disassembly of section .text:

0000000040200000 <boot>:
    40200000:	b0008228 	adrp	x8, 41245000 <__bss_end+0x1f650>
    40200004:	9126c108 	add	x8, x8, #0x9b0
    40200008:	d2800002 	mov	x2, #0x0                   	// #0
    4020000c:	d5184202 	msr	spsel, x2
    40200010:	9100011f 	mov	sp, x8
    40200014:	94000783 	bl	40201e20 <kernel_main>

0000000040200018 <uboot_call>:
    40200018:	d10043ff 	sub	sp, sp, #0x10
    4020001c:	390033e1 	strb	w1, [sp, #12]
    40200020:	910033e1 	add	x1, sp, #0xc
    40200024:	aa0303e7 	mov	x7, x3
    40200028:	d45e0000 	hlt	#0xf000
    4020002c:	910043ff 	add	sp, sp, #0x10
    40200030:	d65f03c0 	ret

0000000040200034 <putchar>:
    40200034:	d10043ff 	sub	sp, sp, #0x10
    40200038:	390033e0 	strb	w0, [sp, #12]
    4020003c:	52800060 	mov	w0, #0x3                   	// #3
    40200040:	910033e1 	add	x1, sp, #0xc
    40200044:	52800022 	mov	w2, #0x1                   	// #1
    40200048:	52800807 	mov	w7, #0x40                  	// #64
    4020004c:	d45e0000 	hlt	#0xf000
    40200050:	910043ff 	add	sp, sp, #0x10
    40200054:	d65f03c0 	ret

0000000040200058 <getchar>:
    40200058:	d10043ff 	sub	sp, sp, #0x10
    4020005c:	390033ff 	strb	wzr, [sp, #12]
    40200060:	52800060 	mov	w0, #0x3                   	// #3
    40200064:	910033e1 	add	x1, sp, #0xc
    40200068:	aa1f03e2 	mov	x2, xzr
    4020006c:	52800807 	mov	w7, #0x40                  	// #64
    40200070:	d45e0000 	hlt	#0xf000
    40200074:	f100001f 	cmp	x0, #0x0
    40200078:	5a9f03e0 	csetm	w0, ne	// ne = any
    4020007c:	910043ff 	add	sp, sp, #0x10
    40200080:	d65f03c0 	ret

0000000040200084 <setup_vect>:
    40200084:	52a8e028 	mov	w8, #0x47010000            	// #1191247872
    40200088:	10013bc0 	adr	x0, 40202800 <_vector_table>
    4020008c:	d518c000 	msr	vbar_el1, x0
    40200090:	9100011f 	mov	sp, x8
    40200094:	d5033fdf 	isb
    40200098:	d65f03c0 	ret

000000004020009c <init_exceptions>:
    4020009c:	d5384248 	mrs	x8, currentel
    402000a0:	d342fd01 	lsr	x1, x8, #2
    402000a4:	f100043f 	cmp	x1, #0x1
    402000a8:	54000241 	b.ne	402000f0 <init_exceptions+0x54>  // b.any
    402000ac:	a9bf7bfd 	stp	x29, x30, [sp, #-16]!
    402000b0:	910003fd 	mov	x29, sp
    402000b4:	5286a208 	mov	w8, #0x3510                	// #13584
    402000b8:	52801fe9 	mov	w9, #0xff                  	// #255
    402000bc:	d518a209 	msr	mair_el1, x9
    402000c0:	d5182048 	msr	tcr_el1, x8
    402000c4:	d5033fdf 	isb
    402000c8:	97ffffef 	bl	40200084 <setup_vect>
    402000cc:	d5381008 	mrs	x8, sctlr_el1
    402000d0:	528201a9 	mov	w9, #0x100d                	// #4109
    402000d4:	f0000000 	adrp	x0, 40203000 <_vector_table+0x800>
    402000d8:	91087800 	add	x0, x0, #0x21e
    402000dc:	aa090108 	orr	x8, x8, x9
    402000e0:	d5181008 	msr	sctlr_el1, x8
    402000e4:	d5033fdf 	isb
    402000e8:	a8c17bfd 	ldp	x29, x30, [sp], #16
    402000ec:	140007ff 	b	402020e8 <printf>
    402000f0:	d503201f 	nop
    402000f4:	30018c60 	adr	x0, 40203281 <_vector_table+0xa81>
    402000f8:	140007fc 	b	402020e8 <printf>

00000000402000fc <alloc_pages>:
    402000fc:	a9be7bfd 	stp	x29, x30, [sp, #-32]!
    40200100:	f9000bf3 	str	x19, [sp, #16]
    40200104:	910003fd 	mov	x29, sp
    40200108:	f0000008 	adrp	x8, 40203000 <_vector_table+0x800>
    4020010c:	53144c02 	lsl	w2, w0, #12
    40200110:	d001822a 	adrp	x10, 43246000 <__free_ram_end>
    40200114:	9100014a 	add	x10, x10, #0x0
    40200118:	f942c113 	ldr	x19, [x8, #1408]
    4020011c:	8b020269 	add	x9, x19, x2
    40200120:	eb0a013f 	cmp	x9, x10
    40200124:	f902c109 	str	x9, [x8, #1408]
    40200128:	54000109 	b.ls	40200148 <alloc_pages+0x4c>  // b.plast
    4020012c:	f0000000 	adrp	x0, 40203000 <_vector_table+0x800>
    40200130:	9108f800 	add	x0, x0, #0x23e
    40200134:	d0000001 	adrp	x1, 40202000 <memset+0x10>
    40200138:	913ec021 	add	x1, x1, #0xfb0
    4020013c:	52800e82 	mov	w2, #0x74                  	// #116
    40200140:	940007ea 	bl	402020e8 <printf>
    40200144:	14000000 	b	40200144 <alloc_pages+0x48>
    40200148:	aa1303e0 	mov	x0, x19
    4020014c:	2a1f03e1 	mov	w1, wzr
    40200150:	940007a8 	bl	40201ff0 <memset>
    40200154:	aa1303e0 	mov	x0, x19
    40200158:	f9400bf3 	ldr	x19, [sp, #16]
    4020015c:	a8c27bfd 	ldp	x29, x30, [sp], #32
    40200160:	d65f03c0 	ret

0000000040200164 <map_page>:
    40200164:	a9bc7bfd 	stp	x29, x30, [sp, #-64]!
    40200168:	a9015ff8 	stp	x24, x23, [sp, #16]
    4020016c:	a90257f6 	stp	x22, x21, [sp, #32]
    40200170:	a9034ff4 	stp	x20, x19, [sp, #48]
    40200174:	910003fd 	mov	x29, sp
    40200178:	aa0103f3 	mov	x19, x1
    4020017c:	f2402c3f 	tst	x1, #0xfff
    40200180:	54000120 	b.eq	402001a4 <map_page+0x40>  // b.none
    40200184:	f0000000 	adrp	x0, 40203000 <_vector_table+0x800>
    40200188:	91096c00 	add	x0, x0, #0x25b
    4020018c:	d0000001 	adrp	x1, 40202000 <memset+0x10>
    40200190:	913ec021 	add	x1, x1, #0xfb0
    40200194:	52800f82 	mov	w2, #0x7c                  	// #124
    40200198:	aa1303e3 	mov	x3, x19
    4020019c:	940007d3 	bl	402020e8 <printf>
    402001a0:	14000000 	b	402001a0 <map_page+0x3c>
    402001a4:	f2402c5f 	tst	x2, #0xfff
    402001a8:	54000120 	b.eq	402001cc <map_page+0x68>  // b.none
    402001ac:	f0000000 	adrp	x0, 40203000 <_vector_table+0x800>
    402001b0:	91036c00 	add	x0, x0, #0xdb
    402001b4:	d0000001 	adrp	x1, 40202000 <memset+0x10>
    402001b8:	913ec021 	add	x1, x1, #0xfb0
    402001bc:	aa0203e3 	mov	x3, x2
    402001c0:	52800fc2 	mov	w2, #0x7e                  	// #126
    402001c4:	940007c9 	bl	402020e8 <printf>
    402001c8:	14000000 	b	402001c8 <map_page+0x64>
    402001cc:	d367be75 	ubfx	x21, x19, #39, #9
    402001d0:	f8757808 	ldr	x8, [x0, x21, lsl #3]
    402001d4:	37000408 	tbnz	w8, #0, 40200254 <map_page+0xf0>
    402001d8:	f0000008 	adrp	x8, 40203000 <_vector_table+0x800>
    402001dc:	d001822a 	adrp	x10, 43246000 <__free_ram_end>
    402001e0:	9100014a 	add	x10, x10, #0x0
    402001e4:	f942c114 	ldr	x20, [x8, #1408]
    402001e8:	91400689 	add	x9, x20, #0x1, lsl #12
    402001ec:	eb0a013f 	cmp	x9, x10
    402001f0:	f902c109 	str	x9, [x8, #1408]
    402001f4:	54000109 	b.ls	40200214 <map_page+0xb0>  // b.plast
    402001f8:	f0000000 	adrp	x0, 40203000 <_vector_table+0x800>
    402001fc:	9108f800 	add	x0, x0, #0x23e
    40200200:	d0000001 	adrp	x1, 40202000 <memset+0x10>
    40200204:	913ec021 	add	x1, x1, #0xfb0
    40200208:	52800e82 	mov	w2, #0x74                  	// #116
    4020020c:	940007b7 	bl	402020e8 <printf>
    40200210:	14000000 	b	40200210 <map_page+0xac>
    40200214:	aa0003f8 	mov	x24, x0
    40200218:	aa1403e0 	mov	x0, x20
    4020021c:	2a1f03e1 	mov	w1, wzr
    40200220:	aa0203f6 	mov	x22, x2
    40200224:	52820002 	mov	w2, #0x1000                	// #4096
    40200228:	aa0303f7 	mov	x23, x3
    4020022c:	94000771 	bl	40201ff0 <memset>
    40200230:	aa1403e0 	mov	x0, x20
    40200234:	2a1f03e1 	mov	w1, wzr
    40200238:	52820002 	mov	w2, #0x1000                	// #4096
    4020023c:	9400076d 	bl	40201ff0 <memset>
    40200240:	9274ce88 	and	x8, x20, #0xfffffffffffff000
    40200244:	aa1703e3 	mov	x3, x23
    40200248:	aa1603e2 	mov	x2, x22
    4020024c:	b2400508 	orr	x8, x8, #0x3
    40200250:	f8357b08 	str	x8, [x24, x21, lsl #3]
    40200254:	9274cd15 	and	x21, x8, #0xfffffffffffff000
    40200258:	d35efe68 	lsr	x8, x19, #30
    4020025c:	aa1503e9 	mov	x9, x21
    40200260:	b37d2109 	bfi	x9, x8, #3, #9
    40200264:	f9400128 	ldr	x8, [x9]
    40200268:	37000408 	tbnz	w8, #0, 402002e8 <map_page+0x184>
    4020026c:	f0000008 	adrp	x8, 40203000 <_vector_table+0x800>
    40200270:	d001822a 	adrp	x10, 43246000 <__free_ram_end>
    40200274:	9100014a 	add	x10, x10, #0x0
    40200278:	f942c114 	ldr	x20, [x8, #1408]
    4020027c:	91400689 	add	x9, x20, #0x1, lsl #12
    40200280:	eb0a013f 	cmp	x9, x10
    40200284:	f902c109 	str	x9, [x8, #1408]
    40200288:	54000109 	b.ls	402002a8 <map_page+0x144>  // b.plast
    4020028c:	f0000000 	adrp	x0, 40203000 <_vector_table+0x800>
    40200290:	9108f800 	add	x0, x0, #0x23e
    40200294:	d0000001 	adrp	x1, 40202000 <memset+0x10>
    40200298:	913ec021 	add	x1, x1, #0xfb0
    4020029c:	52800e82 	mov	w2, #0x74                  	// #116
    402002a0:	94000792 	bl	402020e8 <printf>
    402002a4:	14000000 	b	402002a4 <map_page+0x140>
    402002a8:	aa1403e0 	mov	x0, x20
    402002ac:	2a1f03e1 	mov	w1, wzr
    402002b0:	aa0203f6 	mov	x22, x2
    402002b4:	52820002 	mov	w2, #0x1000                	// #4096
    402002b8:	d35e9a78 	ubfx	x24, x19, #30, #9
    402002bc:	aa0303f7 	mov	x23, x3
    402002c0:	9400074c 	bl	40201ff0 <memset>
    402002c4:	aa1403e0 	mov	x0, x20
    402002c8:	2a1f03e1 	mov	w1, wzr
    402002cc:	52820002 	mov	w2, #0x1000                	// #4096
    402002d0:	94000748 	bl	40201ff0 <memset>
    402002d4:	9274ce88 	and	x8, x20, #0xfffffffffffff000
    402002d8:	aa1703e3 	mov	x3, x23
    402002dc:	aa1603e2 	mov	x2, x22
    402002e0:	b2400508 	orr	x8, x8, #0x3
    402002e4:	f8387aa8 	str	x8, [x21, x24, lsl #3]
    402002e8:	9274cd15 	and	x21, x8, #0xfffffffffffff000
    402002ec:	d355fe68 	lsr	x8, x19, #21
    402002f0:	aa1503e9 	mov	x9, x21
    402002f4:	b37d2109 	bfi	x9, x8, #3, #9
    402002f8:	f9400128 	ldr	x8, [x9]
    402002fc:	37000408 	tbnz	w8, #0, 4020037c <map_page+0x218>
    40200300:	f0000008 	adrp	x8, 40203000 <_vector_table+0x800>
    40200304:	d001822a 	adrp	x10, 43246000 <__free_ram_end>
    40200308:	9100014a 	add	x10, x10, #0x0
    4020030c:	f942c114 	ldr	x20, [x8, #1408]
    40200310:	91400689 	add	x9, x20, #0x1, lsl #12
    40200314:	eb0a013f 	cmp	x9, x10
    40200318:	f902c109 	str	x9, [x8, #1408]
    4020031c:	54000109 	b.ls	4020033c <map_page+0x1d8>  // b.plast
    40200320:	f0000000 	adrp	x0, 40203000 <_vector_table+0x800>
    40200324:	9108f800 	add	x0, x0, #0x23e
    40200328:	d0000001 	adrp	x1, 40202000 <memset+0x10>
    4020032c:	913ec021 	add	x1, x1, #0xfb0
    40200330:	52800e82 	mov	w2, #0x74                  	// #116
    40200334:	9400076d 	bl	402020e8 <printf>
    40200338:	14000000 	b	40200338 <map_page+0x1d4>
    4020033c:	aa1403e0 	mov	x0, x20
    40200340:	2a1f03e1 	mov	w1, wzr
    40200344:	aa0203f6 	mov	x22, x2
    40200348:	52820002 	mov	w2, #0x1000                	// #4096
    4020034c:	d3557678 	ubfx	x24, x19, #21, #9
    40200350:	aa0303f7 	mov	x23, x3
    40200354:	94000727 	bl	40201ff0 <memset>
    40200358:	aa1403e0 	mov	x0, x20
    4020035c:	2a1f03e1 	mov	w1, wzr
    40200360:	52820002 	mov	w2, #0x1000                	// #4096
    40200364:	94000723 	bl	40201ff0 <memset>
    40200368:	9274ce88 	and	x8, x20, #0xfffffffffffff000
    4020036c:	aa1703e3 	mov	x3, x23
    40200370:	aa1603e2 	mov	x2, x22
    40200374:	b2400508 	orr	x8, x8, #0x3
    40200378:	f8387aa8 	str	x8, [x21, x24, lsl #3]
    4020037c:	d34cfe69 	lsr	x9, x19, #12
    40200380:	9274cd08 	and	x8, x8, #0xfffffffffffff000
    40200384:	aa03004a 	orr	x10, x2, x3
    40200388:	5280806b 	mov	w11, #0x403                 	// #1027
    4020038c:	a9434ff4 	ldp	x20, x19, [sp, #48]
    40200390:	b37d2128 	bfi	x8, x9, #3, #9
    40200394:	a94257f6 	ldp	x22, x21, [sp, #32]
    40200398:	a9415ff8 	ldp	x24, x23, [sp, #16]
    4020039c:	aa0b0149 	orr	x9, x10, x11
    402003a0:	f9000109 	str	x9, [x8]
    402003a4:	a8c47bfd 	ldp	x29, x30, [sp], #64
    402003a8:	d65f03c0 	ret

00000000402003ac <switch_context>:
    402003ac:	a9ba53f3 	stp	x19, x20, [sp, #-96]!
    402003b0:	a9015bf5 	stp	x21, x22, [sp, #16]
    402003b4:	a90263f7 	stp	x23, x24, [sp, #32]
    402003b8:	a9036bf9 	stp	x25, x26, [sp, #48]
    402003bc:	a90473fb 	stp	x27, x28, [sp, #64]
    402003c0:	a9057bfd 	stp	x29, x30, [sp, #80]
    402003c4:	910003e2 	mov	x2, sp
    402003c8:	f9000002 	str	x2, [x0]
    402003cc:	f9400022 	ldr	x2, [x1]
    402003d0:	9100005f 	mov	sp, x2
    402003d4:	a8c153f3 	ldp	x19, x20, [sp], #16
    402003d8:	a8c15bf5 	ldp	x21, x22, [sp], #16
    402003dc:	a8c163f7 	ldp	x23, x24, [sp], #16
    402003e0:	a8c16bf9 	ldp	x25, x26, [sp], #16
    402003e4:	a8c173fb 	ldp	x27, x28, [sp], #16
    402003e8:	a8c17bfd 	ldp	x29, x30, [sp], #16
    402003ec:	d65f03c0 	ret

00000000402003f0 <delay>:
    402003f0:	52987008 	mov	w8, #0xc380                	// #50048
    402003f4:	72a03928 	movk	w8, #0x1c9, lsl #16
    402003f8:	71000508 	subs	w8, w8, #0x1
    402003fc:	d503201f 	nop
    40200400:	54ffffc1 	b.ne	402003f8 <delay+0x8>  // b.any
    40200404:	d65f03c0 	ret

0000000040200408 <mmu_enable>:
    40200408:	528203ab 	mov	w11, #0x101d                	// #4125
    4020040c:	aa0003e8 	mov	x8, x0
    40200410:	5286a209 	mov	w9, #0x3510                	// #13584
    40200414:	52801fea 	mov	w10, #0xff                  	// #255
    40200418:	72a0100b 	movk	w11, #0x80, lsl #16
    4020041c:	d5033b9f 	dsb	ish
    40200420:	d5033fdf 	isb
    40200424:	d518a20a 	msr	mair_el1, x10
    40200428:	d5182049 	msr	tcr_el1, x9
    4020042c:	d5033fdf 	isb
    40200430:	d5182008 	msr	ttbr0_el1, x8
    40200434:	d5033fdf 	isb
    40200438:	d5381000 	mrs	x0, sctlr_el1
    4020043c:	aa0b0000 	orr	x0, x0, x11
    40200440:	d5181000 	msr	sctlr_el1, x0
    40200444:	d5033fdf 	isb
    40200448:	d65f03c0 	ret

000000004020044c <yield>:
    4020044c:	90008129 	adrp	x9, 41224000 <procs+0xfa60>
    40200450:	5284040e 	mov	w14, #0x2020                	// #8224
    40200454:	f9435128 	ldr	x8, [x9, #1696]
    40200458:	b940010c 	ldr	w12, [x8]
    4020045c:	6b0c03ea 	negs	w10, w12
    40200460:	1200098b 	and	w11, w12, #0x7
    40200464:	1200094a 	and	w10, w10, #0x7
    40200468:	5a8a456d 	csneg	w13, w11, w10, mi	// mi = first
    4020046c:	900080ab 	adrp	x11, 41214000 <_binary_shell_bin_start+0x1010a78>
    40200470:	9116816b 	add	x11, x11, #0x5a0
    40200474:	9b2e2daa 	smaddl	x10, w13, w14, x11
    40200478:	b940054f 	ldr	w15, [x10, #4]
    4020047c:	900080aa 	adrp	x10, 41214000 <_binary_shell_bin_start+0x1010a78>
    40200480:	f942c94a 	ldr	x10, [x10, #1424]
    40200484:	710005ff 	cmp	w15, #0x1
    40200488:	540000e1 	b.ne	402004a4 <yield+0x58>  // b.any
    4020048c:	93407dad 	sxtw	x13, w13
    40200490:	5284040f 	mov	w15, #0x2020                	// #8224
    40200494:	9b2f2dad 	smaddl	x13, w13, w15, x11
    40200498:	b94001af 	ldr	w15, [x13]
    4020049c:	710001ff 	cmp	w15, #0x0
    402004a0:	54000dcc 	b.gt	40200658 <yield+0x20c>
    402004a4:	1100058d 	add	w13, w12, #0x1
    402004a8:	6b0d03ef 	negs	w15, w13
    402004ac:	120009ad 	and	w13, w13, #0x7
    402004b0:	120009ef 	and	w15, w15, #0x7
    402004b4:	5a8f45ad 	csneg	w13, w13, w15, mi	// mi = first
    402004b8:	9b2e2dae 	smaddl	x14, w13, w14, x11
    402004bc:	b94005ce 	ldr	w14, [x14, #4]
    402004c0:	710005df 	cmp	w14, #0x1
    402004c4:	540000e1 	b.ne	402004e0 <yield+0x94>  // b.any
    402004c8:	93407dad 	sxtw	x13, w13
    402004cc:	5284040e 	mov	w14, #0x2020                	// #8224
    402004d0:	9b2e2dad 	smaddl	x13, w13, w14, x11
    402004d4:	b94001ae 	ldr	w14, [x13]
    402004d8:	710001df 	cmp	w14, #0x0
    402004dc:	54000bec 	b.gt	40200658 <yield+0x20c>
    402004e0:	1100098d 	add	w13, w12, #0x2
    402004e4:	6b0d03ee 	negs	w14, w13
    402004e8:	120009ad 	and	w13, w13, #0x7
    402004ec:	120009ce 	and	w14, w14, #0x7
    402004f0:	5a8e45ad 	csneg	w13, w13, w14, mi	// mi = first
    402004f4:	5284040e 	mov	w14, #0x2020                	// #8224
    402004f8:	9b2e2daf 	smaddl	x15, w13, w14, x11
    402004fc:	b94005ef 	ldr	w15, [x15, #4]
    40200500:	710005ff 	cmp	w15, #0x1
    40200504:	540000e1 	b.ne	40200520 <yield+0xd4>  // b.any
    40200508:	93407dad 	sxtw	x13, w13
    4020050c:	5284040f 	mov	w15, #0x2020                	// #8224
    40200510:	9b2f2dad 	smaddl	x13, w13, w15, x11
    40200514:	b94001af 	ldr	w15, [x13]
    40200518:	710001ff 	cmp	w15, #0x0
    4020051c:	540009ec 	b.gt	40200658 <yield+0x20c>
    40200520:	11000d8d 	add	w13, w12, #0x3
    40200524:	6b0d03ef 	negs	w15, w13
    40200528:	120009ad 	and	w13, w13, #0x7
    4020052c:	120009ef 	and	w15, w15, #0x7
    40200530:	5a8f45ad 	csneg	w13, w13, w15, mi	// mi = first
    40200534:	9b2e2dae 	smaddl	x14, w13, w14, x11
    40200538:	b94005ce 	ldr	w14, [x14, #4]
    4020053c:	710005df 	cmp	w14, #0x1
    40200540:	540000e1 	b.ne	4020055c <yield+0x110>  // b.any
    40200544:	93407dad 	sxtw	x13, w13
    40200548:	5284040e 	mov	w14, #0x2020                	// #8224
    4020054c:	9b2e2dad 	smaddl	x13, w13, w14, x11
    40200550:	b94001ae 	ldr	w14, [x13]
    40200554:	710001df 	cmp	w14, #0x0
    40200558:	5400080c 	b.gt	40200658 <yield+0x20c>
    4020055c:	1100118d 	add	w13, w12, #0x4
    40200560:	6b0d03ee 	negs	w14, w13
    40200564:	120009ad 	and	w13, w13, #0x7
    40200568:	120009ce 	and	w14, w14, #0x7
    4020056c:	5a8e45ad 	csneg	w13, w13, w14, mi	// mi = first
    40200570:	5284040e 	mov	w14, #0x2020                	// #8224
    40200574:	9b2e2daf 	smaddl	x15, w13, w14, x11
    40200578:	b94005ef 	ldr	w15, [x15, #4]
    4020057c:	710005ff 	cmp	w15, #0x1
    40200580:	540000e1 	b.ne	4020059c <yield+0x150>  // b.any
    40200584:	93407dad 	sxtw	x13, w13
    40200588:	5284040f 	mov	w15, #0x2020                	// #8224
    4020058c:	9b2f2dad 	smaddl	x13, w13, w15, x11
    40200590:	b94001af 	ldr	w15, [x13]
    40200594:	710001ff 	cmp	w15, #0x0
    40200598:	5400060c 	b.gt	40200658 <yield+0x20c>
    4020059c:	1100158d 	add	w13, w12, #0x5
    402005a0:	6b0d03ef 	negs	w15, w13
    402005a4:	120009ad 	and	w13, w13, #0x7
    402005a8:	120009ef 	and	w15, w15, #0x7
    402005ac:	5a8f45ad 	csneg	w13, w13, w15, mi	// mi = first
    402005b0:	9b2e2dae 	smaddl	x14, w13, w14, x11
    402005b4:	b94005ce 	ldr	w14, [x14, #4]
    402005b8:	710005df 	cmp	w14, #0x1
    402005bc:	540000e1 	b.ne	402005d8 <yield+0x18c>  // b.any
    402005c0:	93407dad 	sxtw	x13, w13
    402005c4:	5284040e 	mov	w14, #0x2020                	// #8224
    402005c8:	9b2e2dad 	smaddl	x13, w13, w14, x11
    402005cc:	b94001ae 	ldr	w14, [x13]
    402005d0:	710001df 	cmp	w14, #0x0
    402005d4:	5400042c 	b.gt	40200658 <yield+0x20c>
    402005d8:	1100198d 	add	w13, w12, #0x6
    402005dc:	6b0d03ee 	negs	w14, w13
    402005e0:	120009ad 	and	w13, w13, #0x7
    402005e4:	120009ce 	and	w14, w14, #0x7
    402005e8:	5a8e45ad 	csneg	w13, w13, w14, mi	// mi = first
    402005ec:	5284040e 	mov	w14, #0x2020                	// #8224
    402005f0:	9b2e2daf 	smaddl	x15, w13, w14, x11
    402005f4:	b94005ef 	ldr	w15, [x15, #4]
    402005f8:	710005ff 	cmp	w15, #0x1
    402005fc:	540000e1 	b.ne	40200618 <yield+0x1cc>  // b.any
    40200600:	93407dad 	sxtw	x13, w13
    40200604:	5284040f 	mov	w15, #0x2020                	// #8224
    40200608:	9b2f2dad 	smaddl	x13, w13, w15, x11
    4020060c:	b94001af 	ldr	w15, [x13]
    40200610:	710001ff 	cmp	w15, #0x0
    40200614:	5400022c 	b.gt	40200658 <yield+0x20c>
    40200618:	11001d8c 	add	w12, w12, #0x7
    4020061c:	6b0c03ed 	negs	w13, w12
    40200620:	1200098c 	and	w12, w12, #0x7
    40200624:	120009ad 	and	w13, w13, #0x7
    40200628:	5a8d458c 	csneg	w12, w12, w13, mi	// mi = first
    4020062c:	9b2e2d8d 	smaddl	x13, w12, w14, x11
    40200630:	b94005ad 	ldr	w13, [x13, #4]
    40200634:	710005bf 	cmp	w13, #0x1
    40200638:	540000e1 	b.ne	40200654 <yield+0x208>  // b.any
    4020063c:	93407d8c 	sxtw	x12, w12
    40200640:	5284040d 	mov	w13, #0x2020                	// #8224
    40200644:	9b2d2d8d 	smaddl	x13, w12, w13, x11
    40200648:	b94001ab 	ldr	w11, [x13]
    4020064c:	7100017f 	cmp	w11, #0x0
    40200650:	5400004c 	b.gt	40200658 <yield+0x20c>
    40200654:	aa0a03ed 	mov	x13, x10
    40200658:	eb0801bf 	cmp	x13, x8
    4020065c:	54000260 	b.eq	402006a8 <yield+0x25c>  // b.none
    40200660:	5284040a 	mov	w10, #0x2020                	// #8224
    40200664:	f903512d 	str	x13, [x9, #1696]
    40200668:	f94009ab 	ldr	x11, [x13, #16]
    4020066c:	8b0a01a9 	add	x9, x13, x10
    40200670:	d5033a9f 	dsb	ishst
    40200674:	d508871f 	tlbi	vmalle1
    40200678:	d5033b9f 	dsb	ish
    4020067c:	d5033fdf 	isb
    40200680:	aa0b03e0 	mov	x0, x11
    40200684:	d5382001 	mrs	x1, ttbr0_el1
    40200688:	d5381002 	mrs	x2, sctlr_el1
    4020068c:	d518200b 	msr	ttbr0_el1, x11
    40200690:	d5382003 	mrs	x3, ttbr0_el1
    40200694:	d5033fdf 	isb
    40200698:	d518d089 	msr	tpidr_el1, x9
    4020069c:	91002100 	add	x0, x8, #0x8
    402006a0:	910021a1 	add	x1, x13, #0x8
    402006a4:	17ffff42 	b	402003ac <switch_context>
    402006a8:	d65f03c0 	ret

00000000402006ac <proc_a_entry>:
    402006ac:	a9be7bfd 	stp	x29, x30, [sp, #-32]!
    402006b0:	f9000bf3 	str	x19, [sp, #16]
    402006b4:	910003fd 	mov	x29, sp
    402006b8:	f0000000 	adrp	x0, 40203000 <_vector_table+0x800>
    402006bc:	91049c00 	add	x0, x0, #0x127
    402006c0:	9400068a 	bl	402020e8 <printf>
    402006c4:	52800833 	mov	w19, #0x41                  	// #65
    402006c8:	390073b3 	strb	w19, [x29, #28]
    402006cc:	52800060 	mov	w0, #0x3                   	// #3
    402006d0:	910073a1 	add	x1, x29, #0x1c
    402006d4:	52800022 	mov	w2, #0x1                   	// #1
    402006d8:	52800807 	mov	w7, #0x40                  	// #64
    402006dc:	d45e0000 	hlt	#0xf000
    402006e0:	97ffff5b 	bl	4020044c <yield>
    402006e4:	17fffff9 	b	402006c8 <proc_a_entry+0x1c>

00000000402006e8 <proc_b_entry>:
    402006e8:	a9be7bfd 	stp	x29, x30, [sp, #-32]!
    402006ec:	f9000bf3 	str	x19, [sp, #16]
    402006f0:	910003fd 	mov	x29, sp
    402006f4:	f0000000 	adrp	x0, 40203000 <_vector_table+0x800>
    402006f8:	91019400 	add	x0, x0, #0x65
    402006fc:	9400067b 	bl	402020e8 <printf>
    40200700:	52800853 	mov	w19, #0x42                  	// #66
    40200704:	390073b3 	strb	w19, [x29, #28]
    40200708:	52800060 	mov	w0, #0x3                   	// #3
    4020070c:	910073a1 	add	x1, x29, #0x1c
    40200710:	52800022 	mov	w2, #0x1                   	// #1
    40200714:	52800807 	mov	w7, #0x40                  	// #64
    40200718:	d45e0000 	hlt	#0xf000
    4020071c:	97ffff4c 	bl	4020044c <yield>
    40200720:	17fffff9 	b	40200704 <proc_b_entry+0x1c>

0000000040200724 <user_entry>:
    40200724:	52a8c008 	mov	w8, #0x46000000            	// #1174405120
    40200728:	52800089 	mov	w9, #0x4                   	// #4
    4020072c:	d5184028 	msr	elr_el1, x8
    40200730:	d5184009 	msr	spsr_el1, x9
    40200734:	d5384021 	mrs	x1, elr_el1
    40200738:	d5384002 	mrs	x2, spsr_el1
    4020073c:	d69f03e0 	eret

0000000040200740 <create_process>:
    40200740:	d101c3ff 	sub	sp, sp, #0x70
    40200744:	a9017bfd 	stp	x29, x30, [sp, #16]
    40200748:	a9026ffc 	stp	x28, x27, [sp, #32]
    4020074c:	a90367fa 	stp	x26, x25, [sp, #48]
    40200750:	a9045ff8 	stp	x24, x23, [sp, #64]
    40200754:	a90557f6 	stp	x22, x21, [sp, #80]
    40200758:	a9064ff4 	stp	x20, x19, [sp, #96]
    4020075c:	910043fd 	add	x29, sp, #0x10
    40200760:	900080a8 	adrp	x8, 41214000 <_binary_shell_bin_start+0x1010a78>
    40200764:	2a0103f7 	mov	w23, w1
    40200768:	f90007e0 	str	x0, [sp, #8]
    4020076c:	b945a508 	ldr	w8, [x8, #1444]
    40200770:	340003a8 	cbz	w8, 402007e4 <create_process+0xa4>
    40200774:	d00080a8 	adrp	x8, 41216000 <procs+0x1a60>
    40200778:	b945c508 	ldr	w8, [x8, #1476]
    4020077c:	34000388 	cbz	w8, 402007ec <create_process+0xac>
    40200780:	900080c8 	adrp	x8, 41218000 <procs+0x3a60>
    40200784:	b945e508 	ldr	w8, [x8, #1508]
    40200788:	34000368 	cbz	w8, 402007f4 <create_process+0xb4>
    4020078c:	d00080c8 	adrp	x8, 4121a000 <procs+0x5a60>
    40200790:	b9460508 	ldr	w8, [x8, #1540]
    40200794:	34000348 	cbz	w8, 402007fc <create_process+0xbc>
    40200798:	900080e8 	adrp	x8, 4121c000 <procs+0x7a60>
    4020079c:	b9462508 	ldr	w8, [x8, #1572]
    402007a0:	34000328 	cbz	w8, 40200804 <create_process+0xc4>
    402007a4:	d00080e8 	adrp	x8, 4121e000 <procs+0x9a60>
    402007a8:	b9464508 	ldr	w8, [x8, #1604]
    402007ac:	34000308 	cbz	w8, 4020080c <create_process+0xcc>
    402007b0:	90008108 	adrp	x8, 41220000 <procs+0xba60>
    402007b4:	b9466508 	ldr	w8, [x8, #1636]
    402007b8:	340002e8 	cbz	w8, 40200814 <create_process+0xd4>
    402007bc:	d0008108 	adrp	x8, 41222000 <procs+0xda60>
    402007c0:	b9468508 	ldr	w8, [x8, #1668]
    402007c4:	340002c8 	cbz	w8, 4020081c <create_process+0xdc>
    402007c8:	f0000000 	adrp	x0, 40203000 <_vector_table+0x800>
    402007cc:	9112a400 	add	x0, x0, #0x4a9
    402007d0:	d0000001 	adrp	x1, 40202000 <memset+0x10>
    402007d4:	913ec021 	add	x1, x1, #0xfb0
    402007d8:	52802c22 	mov	w2, #0x161                 	// #353
    402007dc:	94000643 	bl	402020e8 <printf>
    402007e0:	14000000 	b	402007e0 <create_process+0xa0>
    402007e4:	aa1f03f3 	mov	x19, xzr
    402007e8:	1400000e 	b	40200820 <create_process+0xe0>
    402007ec:	52800033 	mov	w19, #0x1                   	// #1
    402007f0:	1400000c 	b	40200820 <create_process+0xe0>
    402007f4:	52800053 	mov	w19, #0x2                   	// #2
    402007f8:	1400000a 	b	40200820 <create_process+0xe0>
    402007fc:	52800073 	mov	w19, #0x3                   	// #3
    40200800:	14000008 	b	40200820 <create_process+0xe0>
    40200804:	52800093 	mov	w19, #0x4                   	// #4
    40200808:	14000006 	b	40200820 <create_process+0xe0>
    4020080c:	528000b3 	mov	w19, #0x5                   	// #5
    40200810:	14000004 	b	40200820 <create_process+0xe0>
    40200814:	528000d3 	mov	w19, #0x6                   	// #6
    40200818:	14000002 	b	40200820 <create_process+0xe0>
    4020081c:	528000f3 	mov	w19, #0x7                   	// #7
    40200820:	52840408 	mov	w8, #0x2020                	// #8224
    40200824:	900080a9 	adrp	x9, 41214000 <_binary_shell_bin_start+0x1010a78>
    40200828:	91168129 	add	x9, x9, #0x5a0
    4020082c:	9ba8267b 	umaddl	x27, w19, w8, x9
    40200830:	f0000019 	adrp	x25, 40203000 <_vector_table+0x800>
    40200834:	6f00e400 	movi	v0.2d, #0x0
    40200838:	f942c334 	ldr	x20, [x25, #1408]
    4020083c:	d503201f 	nop
    40200840:	10fff728 	adr	x8, 40200724 <user_entry>
    40200844:	d001823a 	adrp	x26, 43246000 <__free_ram_end>
    40200848:	9100035a 	add	x26, x26, #0x0
    4020084c:	f9100f68 	str	x8, [x27, #8216]
    40200850:	91400688 	add	x8, x20, #0x1, lsl #12
    40200854:	eb1a011f 	cmp	x8, x26
    40200858:	f9100b7f 	str	xzr, [x27, #8208]
    4020085c:	3d880360 	str	q0, [x27, #8192]
    40200860:	3d87ff60 	str	q0, [x27, #8176]
    40200864:	3d87fb60 	str	q0, [x27, #8160]
    40200868:	3d87f760 	str	q0, [x27, #8144]
    4020086c:	3d87f360 	str	q0, [x27, #8128]
    40200870:	f902c328 	str	x8, [x25, #1408]
    40200874:	54000109 	b.ls	40200894 <create_process+0x154>  // b.plast
    40200878:	f0000000 	adrp	x0, 40203000 <_vector_table+0x800>
    4020087c:	9108f800 	add	x0, x0, #0x23e
    40200880:	d0000001 	adrp	x1, 40202000 <memset+0x10>
    40200884:	913ec021 	add	x1, x1, #0xfb0
    40200888:	52800e82 	mov	w2, #0x74                  	// #116
    4020088c:	94000617 	bl	402020e8 <printf>
    40200890:	14000000 	b	40200890 <create_process+0x150>
    40200894:	aa1403e0 	mov	x0, x20
    40200898:	2a1f03e1 	mov	w1, wzr
    4020089c:	52820002 	mov	w2, #0x1000                	// #4096
    402008a0:	940005d4 	bl	40201ff0 <memset>
    402008a4:	f2402e9f 	tst	x20, #0xfff
    402008a8:	54000100 	b.eq	402008c8 <create_process+0x188>  // b.none
    402008ac:	f0000000 	adrp	x0, 40203000 <_vector_table+0x800>
    402008b0:	910ff000 	add	x0, x0, #0x3fc
    402008b4:	d0000001 	adrp	x1, 40202000 <memset+0x10>
    402008b8:	913ec021 	add	x1, x1, #0xfb0
    402008bc:	52802ee2 	mov	w2, #0x177                 	// #375
    402008c0:	9400060a 	bl	402020e8 <printf>
    402008c4:	14000000 	b	402008c4 <create_process+0x184>
    402008c8:	d503201f 	nop
    402008cc:	10ffb9a8 	adr	x8, 40200000 <boot>
    402008d0:	f90003f3 	str	x19, [sp]
    402008d4:	eb1a011f 	cmp	x8, x26
    402008d8:	54000142 	b.cs	40200900 <create_process+0x1c0>  // b.hs, b.nlast
    402008dc:	d503201f 	nop
    402008e0:	10ffb916 	adr	x22, 40200000 <boot>
    402008e4:	aa1403e0 	mov	x0, x20
    402008e8:	aa1603e1 	mov	x1, x22
    402008ec:	aa1603e2 	mov	x2, x22
    402008f0:	97fffe1d 	bl	40200164 <map_page>
    402008f4:	914006d6 	add	x22, x22, #0x1, lsl #12
    402008f8:	eb1a02df 	cmp	x22, x26
    402008fc:	54ffff43 	b.cc	402008e4 <create_process+0x1a4>  // b.lo, b.ul, b.last
    40200900:	f0000000 	adrp	x0, 40203000 <_vector_table+0x800>
    40200904:	910f1c00 	add	x0, x0, #0x3c7
    40200908:	940005f8 	bl	402020e8 <printf>
    4020090c:	aa1403e0 	mov	x0, x20
    40200910:	52a14001 	mov	w1, #0xa000000             	// #167772160
    40200914:	52a14002 	mov	w2, #0xa000000             	// #167772160
    40200918:	52808003 	mov	w3, #0x400                 	// #1024
    4020091c:	97fffe12 	bl	40200164 <map_page>
    40200920:	f0000000 	adrp	x0, 40203000 <_vector_table+0x800>
    40200924:	91142000 	add	x0, x0, #0x508
    40200928:	2a1703e1 	mov	w1, w23
    4020092c:	940005ef 	bl	402020e8 <printf>
    40200930:	340003b7 	cbz	w23, 402009a4 <create_process+0x264>
    40200934:	aa1f03fc 	mov	x28, xzr
    40200938:	2a1703f8 	mov	w24, w23
    4020093c:	52a8c013 	mov	w19, #0x46000000            	// #1174405120
    40200940:	f942c336 	ldr	x22, [x25, #1408]
    40200944:	914006c8 	add	x8, x22, #0x1, lsl #12
    40200948:	eb1a011f 	cmp	x8, x26
    4020094c:	f902c328 	str	x8, [x25, #1408]
    40200950:	54000a28 	b.hi	40200a94 <create_process+0x354>  // b.pmore
    40200954:	aa1603e0 	mov	x0, x22
    40200958:	2a1f03e1 	mov	w1, wzr
    4020095c:	52820002 	mov	w2, #0x1000                	// #4096
    40200960:	940005a4 	bl	40201ff0 <memset>
    40200964:	714006f5 	subs	w21, w23, #0x1, lsl #12
    40200968:	52820008 	mov	w8, #0x1000                	// #4096
    4020096c:	aa1603e0 	mov	x0, x22
    40200970:	1a8832e2 	csel	w2, w23, w8, cc	// cc = lo, ul, last
    40200974:	f94007e8 	ldr	x8, [sp, #8]
    40200978:	8b1c0101 	add	x1, x8, x28
    4020097c:	9400056b 	bl	40201f28 <memcpy>
    40200980:	8b130381 	add	x1, x28, x19
    40200984:	aa1403e0 	mov	x0, x20
    40200988:	aa1603e2 	mov	x2, x22
    4020098c:	52808003 	mov	w3, #0x400                 	// #1024
    40200990:	97fffdf5 	bl	40200164 <map_page>
    40200994:	9140079c 	add	x28, x28, #0x1, lsl #12
    40200998:	2a1503f7 	mov	w23, w21
    4020099c:	eb18039f 	cmp	x28, x24
    402009a0:	54fffd03 	b.cc	40200940 <create_process+0x200>  // b.lo, b.ul, b.last
    402009a4:	f942c333 	ldr	x19, [x25, #1408]
    402009a8:	91400668 	add	x8, x19, #0x1, lsl #12
    402009ac:	eb1a011f 	cmp	x8, x26
    402009b0:	f902c328 	str	x8, [x25, #1408]
    402009b4:	54000109 	b.ls	402009d4 <create_process+0x294>  // b.plast
    402009b8:	f0000000 	adrp	x0, 40203000 <_vector_table+0x800>
    402009bc:	9108f800 	add	x0, x0, #0x23e
    402009c0:	d0000001 	adrp	x1, 40202000 <memset+0x10>
    402009c4:	913ec021 	add	x1, x1, #0xfb0
    402009c8:	52800e82 	mov	w2, #0x74                  	// #116
    402009cc:	940005c7 	bl	402020e8 <printf>
    402009d0:	14000000 	b	402009d0 <create_process+0x290>
    402009d4:	5283f808 	mov	w8, #0x1fc0                	// #8128
    402009d8:	aa1303e0 	mov	x0, x19
    402009dc:	2a1f03e1 	mov	w1, wzr
    402009e0:	52820002 	mov	w2, #0x1000                	// #4096
    402009e4:	8b080375 	add	x21, x27, x8
    402009e8:	94000582 	bl	40201ff0 <memset>
    402009ec:	aa1403e0 	mov	x0, x20
    402009f0:	52a8e001 	mov	w1, #0x47000000            	// #1191182336
    402009f4:	aa1303e2 	mov	x2, x19
    402009f8:	52808003 	mov	w3, #0x400                 	// #1024
    402009fc:	97fffdda 	bl	40200164 <map_page>
    40200a00:	52820017 	mov	w23, #0x1000                	// #4096
    40200a04:	9281fff6 	mov	x22, #0xfffffffffffff000    	// #-4096
    40200a08:	72a8dff7 	movk	w23, #0x46ff, lsl #16
    40200a0c:	f942c333 	ldr	x19, [x25, #1408]
    40200a10:	91400668 	add	x8, x19, #0x1, lsl #12
    40200a14:	eb1a011f 	cmp	x8, x26
    40200a18:	f902c328 	str	x8, [x25, #1408]
    40200a1c:	540004a8 	b.hi	40200ab0 <create_process+0x370>  // b.pmore
    40200a20:	aa1303e0 	mov	x0, x19
    40200a24:	2a1f03e1 	mov	w1, wzr
    40200a28:	52820002 	mov	w2, #0x1000                	// #4096
    40200a2c:	94000571 	bl	40201ff0 <memset>
    40200a30:	8b1702c1 	add	x1, x22, x23
    40200a34:	aa1403e0 	mov	x0, x20
    40200a38:	aa1303e2 	mov	x2, x19
    40200a3c:	52808003 	mov	w3, #0x400                 	// #1024
    40200a40:	97fffdc9 	bl	40200164 <map_page>
    40200a44:	914006d6 	add	x22, x22, #0x1, lsl #12
    40200a48:	f1403edf 	cmp	x22, #0xf, lsl #12
    40200a4c:	54fffe03 	b.cc	40200a0c <create_process+0x2cc>  // b.lo, b.ul, b.last
    40200a50:	f94003e9 	ldr	x9, [sp]
    40200a54:	52840408 	mov	w8, #0x2020                	// #8224
    40200a58:	900080aa 	adrp	x10, 41214000 <_binary_shell_bin_start+0x1010a78>
    40200a5c:	9116814a 	add	x10, x10, #0x5a0
    40200a60:	a9445ff8 	ldp	x24, x23, [sp, #64]
    40200a64:	9ba82920 	umaddl	x0, w9, w8, x10
    40200a68:	a94367fa 	ldp	x26, x25, [sp, #48]
    40200a6c:	a9426ffc 	ldp	x28, x27, [sp, #32]
    40200a70:	11000528 	add	w8, w9, #0x1
    40200a74:	a9417bfd 	ldp	x29, x30, [sp, #16]
    40200a78:	52800029 	mov	w9, #0x1                   	// #1
    40200a7c:	a900d015 	stp	x21, x20, [x0, #8]
    40200a80:	a9464ff4 	ldp	x20, x19, [sp, #96]
    40200a84:	a94557f6 	ldp	x22, x21, [sp, #80]
    40200a88:	29002408 	stp	w8, w9, [x0]
    40200a8c:	9101c3ff 	add	sp, sp, #0x70
    40200a90:	d65f03c0 	ret
    40200a94:	f0000000 	adrp	x0, 40203000 <_vector_table+0x800>
    40200a98:	9108f800 	add	x0, x0, #0x23e
    40200a9c:	d0000001 	adrp	x1, 40202000 <memset+0x10>
    40200aa0:	913ec021 	add	x1, x1, #0xfb0
    40200aa4:	52800e82 	mov	w2, #0x74                  	// #116
    40200aa8:	94000590 	bl	402020e8 <printf>
    40200aac:	14000000 	b	40200aac <create_process+0x36c>
    40200ab0:	f0000000 	adrp	x0, 40203000 <_vector_table+0x800>
    40200ab4:	9108f800 	add	x0, x0, #0x23e
    40200ab8:	d0000001 	adrp	x1, 40202000 <memset+0x10>
    40200abc:	913ec021 	add	x1, x1, #0xfb0
    40200ac0:	52800e82 	mov	w2, #0x74                  	// #116
    40200ac4:	94000589 	bl	402020e8 <printf>
    40200ac8:	14000000 	b	40200ac8 <create_process+0x388>

0000000040200acc <fs_lookup>:
    40200acc:	a9bd7bfd 	stp	x29, x30, [sp, #-48]!
    40200ad0:	f9000bf5 	str	x21, [sp, #16]
    40200ad4:	a9024ff4 	stp	x20, x19, [sp, #32]
    40200ad8:	910003fd 	mov	x29, sp
    40200adc:	90008134 	adrp	x20, 41224000 <procs+0xfa60>
    40200ae0:	911ab294 	add	x20, x20, #0x6ac
    40200ae4:	aa0003f3 	mov	x19, x0
    40200ae8:	f0000000 	adrp	x0, 40203000 <_vector_table+0x800>
    40200aec:	910a9c00 	add	x0, x0, #0x2a7
    40200af0:	2a1f03e1 	mov	w1, wzr
    40200af4:	aa1403e2 	mov	x2, x20
    40200af8:	9400057c 	bl	402020e8 <printf>
    40200afc:	f0000000 	adrp	x0, 40203000 <_vector_table+0x800>
    40200b00:	910f7000 	add	x0, x0, #0x3dc
    40200b04:	aa1303e1 	mov	x1, x19
    40200b08:	94000578 	bl	402020e8 <printf>
    40200b0c:	aa1403e0 	mov	x0, x20
    40200b10:	aa1303e1 	mov	x1, x19
    40200b14:	94000569 	bl	402020b8 <strcmp>
    40200b18:	34000260 	cbz	w0, 40200b64 <fs_lookup+0x98>
    40200b1c:	90008134 	adrp	x20, 41224000 <procs+0xfa60>
    40200b20:	912c6294 	add	x20, x20, #0xb18
    40200b24:	f0000000 	adrp	x0, 40203000 <_vector_table+0x800>
    40200b28:	910a9c00 	add	x0, x0, #0x2a7
    40200b2c:	52800021 	mov	w1, #0x1                   	// #1
    40200b30:	aa1403e2 	mov	x2, x20
    40200b34:	52800035 	mov	w21, #0x1                   	// #1
    40200b38:	9400056c 	bl	402020e8 <printf>
    40200b3c:	f0000000 	adrp	x0, 40203000 <_vector_table+0x800>
    40200b40:	910f7000 	add	x0, x0, #0x3dc
    40200b44:	aa1303e1 	mov	x1, x19
    40200b48:	94000568 	bl	402020e8 <printf>
    40200b4c:	aa1403e0 	mov	x0, x20
    40200b50:	aa1303e1 	mov	x1, x19
    40200b54:	94000559 	bl	402020b8 <strcmp>
    40200b58:	34000080 	cbz	w0, 40200b68 <fs_lookup+0x9c>
    40200b5c:	aa1f03f4 	mov	x20, xzr
    40200b60:	1400000a 	b	40200b88 <fs_lookup+0xbc>
    40200b64:	aa1f03f5 	mov	x21, xzr
    40200b68:	52808d88 	mov	w8, #0x46c                 	// #1132
    40200b6c:	f0000000 	adrp	x0, 40203000 <_vector_table+0x800>
    40200b70:	91152800 	add	x0, x0, #0x54a
    40200b74:	aa1303e1 	mov	x1, x19
    40200b78:	90008129 	adrp	x9, 41224000 <procs+0xfa60>
    40200b7c:	911aa129 	add	x9, x9, #0x6a8
    40200b80:	9ba826b4 	umaddl	x20, w21, w8, x9
    40200b84:	94000559 	bl	402020e8 <printf>
    40200b88:	aa1403e0 	mov	x0, x20
    40200b8c:	a9424ff4 	ldp	x20, x19, [sp, #32]
    40200b90:	f9400bf5 	ldr	x21, [sp, #16]
    40200b94:	a8c37bfd 	ldp	x29, x30, [sp], #48
    40200b98:	d65f03c0 	ret

0000000040200b9c <handle_syscall>:
    40200b9c:	d10143ff 	sub	sp, sp, #0x50
    40200ba0:	a9017bfd 	stp	x29, x30, [sp, #16]
    40200ba4:	a9025ff8 	stp	x24, x23, [sp, #32]
    40200ba8:	a90357f6 	stp	x22, x21, [sp, #48]
    40200bac:	a9044ff4 	stp	x20, x19, [sp, #64]
    40200bb0:	910043fd 	add	x29, sp, #0x10
    40200bb4:	f9402016 	ldr	x22, [x0, #64]
    40200bb8:	aa0003f3 	mov	x19, x0
    40200bbc:	d10012c8 	sub	x8, x22, #0x4
    40200bc0:	f100091f 	cmp	x8, #0x2
    40200bc4:	540002e3 	b.cc	40200c20 <handle_syscall+0x84>  // b.lo, b.ul, b.last
    40200bc8:	f10006df 	cmp	x22, #0x1
    40200bcc:	540006a0 	b.eq	40200ca0 <handle_syscall+0x104>  // b.none
    40200bd0:	f1000adf 	cmp	x22, #0x2
    40200bd4:	54000ac1 	b.ne	40200d2c <handle_syscall+0x190>  // b.any
    40200bd8:	2a1f03e8 	mov	w8, wzr
    40200bdc:	381fc3bf 	sturb	wzr, [x29, #-4]
    40200be0:	52800060 	mov	w0, #0x3                   	// #3
    40200be4:	d10013a1 	sub	x1, x29, #0x4
    40200be8:	aa1f03e2 	mov	x2, xzr
    40200bec:	52800807 	mov	w7, #0x40                  	// #64
    40200bf0:	d45e0000 	hlt	#0xf000
    40200bf4:	b4000b20 	cbz	x0, 40200d58 <handle_syscall+0x1bc>
    40200bf8:	52807d09 	mov	w9, #0x3e8                 	// #1000
    40200bfc:	71000529 	subs	w9, w9, #0x1
    40200c00:	d503201f 	nop
    40200c04:	54ffffc1 	b.ne	40200bfc <handle_syscall+0x60>  // b.any
    40200c08:	11000508 	add	w8, w8, #0x1
    40200c0c:	710fa11f 	cmp	w8, #0x3e8
    40200c10:	54fffe61 	b.ne	40200bdc <handle_syscall+0x40>  // b.any
    40200c14:	92800008 	mov	x8, #0xffffffffffffffff    	// #-1
    40200c18:	f9000268 	str	x8, [x19]
    40200c1c:	1400003c 	b	40200d0c <handle_syscall+0x170>
    40200c20:	a9405e78 	ldp	x24, x23, [x19]
    40200c24:	b9401275 	ldr	w21, [x19, #16]
    40200c28:	aa1803e0 	mov	x0, x24
    40200c2c:	97ffffa8 	bl	40200acc <fs_lookup>
    40200c30:	aa0003f4 	mov	x20, x0
    40200c34:	b9446803 	ldr	w3, [x0, #1128]
    40200c38:	b9400004 	ldr	w4, [x0]
    40200c3c:	f0000000 	adrp	x0, 40203000 <_vector_table+0x800>
    40200c40:	9103f800 	add	x0, x0, #0xfe
    40200c44:	91001281 	add	x1, x20, #0x4
    40200c48:	9101a282 	add	x2, x20, #0x68
    40200c4c:	94000527 	bl	402020e8 <printf>
    40200c50:	d0000000 	adrp	x0, 40202000 <memset+0x10>
    40200c54:	913f8000 	add	x0, x0, #0xfe0
    40200c58:	2a1503e1 	mov	w1, w21
    40200c5c:	94000523 	bl	402020e8 <printf>
    40200c60:	711006bf 	cmp	w21, #0x401
    40200c64:	5400004b 	b.lt	40200c6c <handle_syscall+0xd0>  // b.tstop
    40200c68:	b9446a95 	ldr	w21, [x20, #1128]
    40200c6c:	f10016df 	cmp	x22, #0x5
    40200c70:	540002e1 	b.ne	40200ccc <handle_syscall+0x130>  // b.any
    40200c74:	f0000000 	adrp	x0, 40203000 <_vector_table+0x800>
    40200c78:	91082400 	add	x0, x0, #0x209
    40200c7c:	aa1803e1 	mov	x1, x24
    40200c80:	9400051a 	bl	402020e8 <printf>
    40200c84:	9101a280 	add	x0, x20, #0x68
    40200c88:	aa1703e1 	mov	x1, x23
    40200c8c:	2a1503e2 	mov	w2, w21
    40200c90:	940004a6 	bl	40201f28 <memcpy>
    40200c94:	b9046a95 	str	w21, [x20, #1128]
    40200c98:	94000032 	bl	40200d60 <fs_flush>
    40200c9c:	14000010 	b	40200cdc <handle_syscall+0x140>
    40200ca0:	f9400268 	ldr	x8, [x19]
    40200ca4:	52800060 	mov	w0, #0x3                   	// #3
    40200ca8:	910023e1 	add	x1, sp, #0x8
    40200cac:	52800022 	mov	w2, #0x1                   	// #1
    40200cb0:	52800807 	mov	w7, #0x40                  	// #64
    40200cb4:	390023e8 	strb	w8, [sp, #8]
    40200cb8:	d45e0000 	hlt	#0xf000
    40200cbc:	f9408268 	ldr	x8, [x19, #256]
    40200cc0:	91001108 	add	x8, x8, #0x4
    40200cc4:	f9008268 	str	x8, [x19, #256]
    40200cc8:	14000011 	b	40200d0c <handle_syscall+0x170>
    40200ccc:	9101a281 	add	x1, x20, #0x68
    40200cd0:	aa1703e0 	mov	x0, x23
    40200cd4:	2a1503e2 	mov	w2, w21
    40200cd8:	94000494 	bl	40201f28 <memcpy>
    40200cdc:	93407ea8 	sxtw	x8, w21
    40200ce0:	b9446a83 	ldr	w3, [x20, #1128]
    40200ce4:	b9400284 	ldr	w4, [x20]
    40200ce8:	f0000000 	adrp	x0, 40203000 <_vector_table+0x800>
    40200cec:	9103f800 	add	x0, x0, #0xfe
    40200cf0:	91001281 	add	x1, x20, #0x4
    40200cf4:	9101a282 	add	x2, x20, #0x68
    40200cf8:	f9000268 	str	x8, [x19]
    40200cfc:	940004fb 	bl	402020e8 <printf>
    40200d00:	f0000000 	adrp	x0, 40203000 <_vector_table+0x800>
    40200d04:	91013c00 	add	x0, x0, #0x4f
    40200d08:	940004f8 	bl	402020e8 <printf>
    40200d0c:	f9408268 	ldr	x8, [x19, #256]
    40200d10:	d5184028 	msr	elr_el1, x8
    40200d14:	a9444ff4 	ldp	x20, x19, [sp, #64]
    40200d18:	a94357f6 	ldp	x22, x21, [sp, #48]
    40200d1c:	a9425ff8 	ldp	x24, x23, [sp, #32]
    40200d20:	a9417bfd 	ldp	x29, x30, [sp, #16]
    40200d24:	910143ff 	add	sp, sp, #0x50
    40200d28:	d65f03c0 	ret
    40200d2c:	f0000000 	adrp	x0, 40203000 <_vector_table+0x800>
    40200d30:	910ba800 	add	x0, x0, #0x2ea
    40200d34:	aa1603e1 	mov	x1, x22
    40200d38:	940004ec 	bl	402020e8 <printf>
    40200d3c:	d0000000 	adrp	x0, 40202000 <memset+0x10>
    40200d40:	913fc000 	add	x0, x0, #0xff0
    40200d44:	d0000001 	adrp	x1, 40202000 <memset+0x10>
    40200d48:	913ec021 	add	x1, x1, #0xfb0
    40200d4c:	52804022 	mov	w2, #0x201                 	// #513
    40200d50:	940004e6 	bl	402020e8 <printf>
    40200d54:	14000000 	b	40200d54 <handle_syscall+0x1b8>
    40200d58:	f900027f 	str	xzr, [x19]
    40200d5c:	17ffffee 	b	40200d14 <handle_syscall+0x178>

0000000040200d60 <fs_flush>:
    40200d60:	d10243ff 	sub	sp, sp, #0x90
    40200d64:	fd0013e8 	str	d8, [sp, #32]
    40200d68:	a9037bfd 	stp	x29, x30, [sp, #48]
    40200d6c:	a9046ffc 	stp	x28, x27, [sp, #64]
    40200d70:	a90567fa 	stp	x26, x25, [sp, #80]
    40200d74:	a9065ff8 	stp	x24, x23, [sp, #96]
    40200d78:	a90757f6 	stp	x22, x21, [sp, #112]
    40200d7c:	a9084ff4 	stp	x20, x19, [sp, #128]
    40200d80:	9100c3fd 	add	x29, sp, #0x30
    40200d84:	90008133 	adrp	x19, 41224000 <procs+0xfa60>
    40200d88:	913e8273 	add	x19, x19, #0xfa0
    40200d8c:	2a1f03e1 	mov	w1, wzr
    40200d90:	aa1303e0 	mov	x0, x19
    40200d94:	52814002 	mov	w2, #0xa00                 	// #2560
    40200d98:	94000496 	bl	40201ff0 <memset>
    40200d9c:	d0000009 	adrp	x9, 40202000 <memset+0x10>
    40200da0:	0f0084e8 	movi	v8.4h, #0x7
    40200da4:	d000000a 	adrp	x10, 40202000 <memset+0x10>
    40200da8:	3dc3e920 	ldr	q0, [x9, #4000]
    40200dac:	aa1f03f5 	mov	x21, xzr
    40200db0:	2a1f03f8 	mov	w24, wzr
    40200db4:	52800028 	mov	w8, #0x1                   	// #1
    40200db8:	90008139 	adrp	x25, 41224000 <procs+0xfa60>
    40200dbc:	911aa339 	add	x25, x25, #0x6a8
    40200dc0:	3d8007e0 	str	q0, [sp, #16]
    40200dc4:	3dc3e540 	ldr	q0, [x10, #3984]
    40200dc8:	52808d9a 	mov	w26, #0x46c                 	// #1132
    40200dcc:	5280061b 	mov	w27, #0x30                  	// #48
    40200dd0:	12b80014 	mov	w20, #0x3fffffff            	// #1073741823
    40200dd4:	3d8003e0 	str	q0, [sp]
    40200dd8:	14000106 	b	402011f0 <fs_flush+0x490>
    40200ddc:	11008308 	add	w8, w24, #0x20
    40200de0:	ad4012e0 	ldp	q0, q4, [x23]
    40200de4:	8b080268 	add	x8, x19, x8
    40200de8:	11010309 	add	w9, w24, #0x40
    40200dec:	ad400901 	ldp	q1, q2, [x8]
    40200df0:	8b090268 	add	x8, x19, x9
    40200df4:	2f08a406 	uxtl	v6.8h, v0.8b
    40200df8:	ad401d05 	ldp	q5, q7, [x8]
    40200dfc:	11018308 	add	w8, w24, #0x60
    40200e00:	6f08a403 	uxtl2	v3.8h, v0.16b
    40200e04:	2f08a431 	uxtl	v17.8h, v1.8b
    40200e08:	8b080268 	add	x8, x19, x8
    40200e0c:	6f08a430 	uxtl2	v16.8h, v1.16b
    40200e10:	2f08a4b2 	uxtl	v18.8h, v5.8b
    40200e14:	ad405501 	ldp	q1, q21, [x8]
    40200e18:	2e220093 	uaddl	v19.8h, v4.8b, v2.8b
    40200e1c:	6e220080 	uaddl2	v0.8h, v4.16b, v2.16b
    40200e20:	6f08a4a4 	uxtl2	v4.8h, v5.16b
    40200e24:	2e660234 	uaddl	v20.4s, v17.4h, v6.4h
    40200e28:	6e7100c6 	uaddl2	v6.4s, v6.8h, v17.8h
    40200e2c:	2f08a4e5 	uxtl	v5.8h, v7.8b
    40200e30:	2f08a436 	uxtl	v22.8h, v1.8b
    40200e34:	6f08a422 	uxtl2	v2.8h, v1.16b
    40200e38:	6f08a6a1 	uxtl2	v1.8h, v21.16b
    40200e3c:	2f08a6b1 	uxtl	v17.8h, v21.8b
    40200e40:	6e700075 	uaddl2	v21.4s, v3.8h, v16.8h
    40200e44:	2e700063 	uaddl	v3.4s, v3.4h, v16.4h
    40200e48:	6f08a4e7 	uxtl2	v7.8h, v7.16b
    40200e4c:	11020308 	add	w8, w24, #0x80
    40200e50:	6e650278 	uaddl2	v24.4s, v19.8h, v5.8h
    40200e54:	2e721290 	uaddw	v16.4s, v20.4s, v18.4h
    40200e58:	2e650265 	uaddl	v5.4s, v19.4h, v5.4h
    40200e5c:	6e7210c6 	uaddw2	v6.4s, v6.4s, v18.8h
    40200e60:	8b080268 	add	x8, x19, x8
    40200e64:	6e6412b5 	uaddw2	v21.4s, v21.4s, v4.8h
    40200e68:	2e641063 	uaddw	v3.4s, v3.4s, v4.4h
    40200e6c:	ad405117 	ldp	q23, q20, [x8]
    40200e70:	11028308 	add	w8, w24, #0xa0
    40200e74:	2e761204 	uaddw	v4.4s, v16.4s, v22.4h
    40200e78:	2e670010 	uaddl	v16.4s, v0.4h, v7.4h
    40200e7c:	6e670007 	uaddl2	v7.4s, v0.8h, v7.8h
    40200e80:	2e7110a5 	uaddw	v5.4s, v5.4s, v17.4h
    40200e84:	6e711311 	uaddw2	v17.4s, v24.4s, v17.8h
    40200e88:	6e7610c6 	uaddw2	v6.4s, v6.4s, v22.8h
    40200e8c:	6e6212b5 	uaddw2	v21.4s, v21.4s, v2.8h
    40200e90:	2e621062 	uaddw	v2.4s, v3.4s, v2.4h
    40200e94:	2f08a6f3 	uxtl	v19.8h, v23.8b
    40200e98:	6f08a6f7 	uxtl2	v23.8h, v23.16b
    40200e9c:	2f08a692 	uxtl	v18.8h, v20.8b
    40200ea0:	6f08a694 	uxtl2	v20.8h, v20.16b
    40200ea4:	6e6110e7 	uaddw2	v7.4s, v7.4s, v1.8h
    40200ea8:	2e611201 	uaddw	v1.4s, v16.4s, v1.4h
    40200eac:	8b080268 	add	x8, x19, x8
    40200eb0:	ad406100 	ldp	q0, q24, [x8]
    40200eb4:	2e731083 	uaddw	v3.4s, v4.4s, v19.4h
    40200eb8:	11030308 	add	w8, w24, #0xc0
    40200ebc:	6e7712b0 	uaddw2	v16.4s, v21.4s, v23.8h
    40200ec0:	6e7310c6 	uaddw2	v6.4s, v6.4s, v19.8h
    40200ec4:	2e771042 	uaddw	v2.4s, v2.4s, v23.4h
    40200ec8:	6e721231 	uaddw2	v17.4s, v17.4s, v18.8h
    40200ecc:	2e7210a5 	uaddw	v5.4s, v5.4s, v18.4h
    40200ed0:	2e741021 	uaddw	v1.4s, v1.4s, v20.4h
    40200ed4:	6e7410e7 	uaddw2	v7.4s, v7.4s, v20.8h
    40200ed8:	2f08a416 	uxtl	v22.8h, v0.8b
    40200edc:	6f08a404 	uxtl2	v4.8h, v0.16b
    40200ee0:	6f08a700 	uxtl2	v0.8h, v24.16b
    40200ee4:	2f08a718 	uxtl	v24.8h, v24.8b
    40200ee8:	8b080268 	add	x8, x19, x8
    40200eec:	ad405513 	ldp	q19, q21, [x8]
    40200ef0:	2e761063 	uaddw	v3.4s, v3.4s, v22.4h
    40200ef4:	11038308 	add	w8, w24, #0xe0
    40200ef8:	6e7610c6 	uaddw2	v6.4s, v6.4s, v22.8h
    40200efc:	6e641210 	uaddw2	v16.4s, v16.4s, v4.8h
    40200f00:	2e641042 	uaddw	v2.4s, v2.4s, v4.4h
    40200f04:	2e7810a5 	uaddw	v5.4s, v5.4s, v24.4h
    40200f08:	6e781231 	uaddw2	v17.4s, v17.4s, v24.8h
    40200f0c:	6e6010e7 	uaddw2	v7.4s, v7.4s, v0.8h
    40200f10:	2e601020 	uaddw	v0.4s, v1.4s, v0.4h
    40200f14:	2f08a672 	uxtl	v18.8h, v19.8b
    40200f18:	8b080268 	add	x8, x19, x8
    40200f1c:	6f08a673 	uxtl2	v19.8h, v19.16b
    40200f20:	2f08a6a1 	uxtl	v1.8h, v21.8b
    40200f24:	6f08a6b5 	uxtl2	v21.8h, v21.16b
    40200f28:	ad405104 	ldp	q4, q20, [x8]
    40200f2c:	2e721063 	uaddw	v3.4s, v3.4s, v18.4h
    40200f30:	11040308 	add	w8, w24, #0x100
    40200f34:	6e7210c6 	uaddw2	v6.4s, v6.4s, v18.8h
    40200f38:	2e731042 	uaddw	v2.4s, v2.4s, v19.4h
    40200f3c:	6e731210 	uaddw2	v16.4s, v16.4s, v19.8h
    40200f40:	2e6110a5 	uaddw	v5.4s, v5.4s, v1.4h
    40200f44:	2e751000 	uaddw	v0.4s, v0.4s, v21.4h
    40200f48:	6e7510e7 	uaddw2	v7.4s, v7.4s, v21.8h
    40200f4c:	6e611221 	uaddw2	v1.4s, v17.4s, v1.8h
    40200f50:	2f08a496 	uxtl	v22.8h, v4.8b
    40200f54:	8b080268 	add	x8, x19, x8
    40200f58:	6f08a484 	uxtl2	v4.8h, v4.16b
    40200f5c:	2f08a691 	uxtl	v17.8h, v20.8b
    40200f60:	6f08a694 	uxtl2	v20.8h, v20.16b
    40200f64:	ad404917 	ldp	q23, q18, [x8]
    40200f68:	11048308 	add	w8, w24, #0x120
    40200f6c:	2e761063 	uaddw	v3.4s, v3.4s, v22.4h
    40200f70:	6e7610c6 	uaddw2	v6.4s, v6.4s, v22.8h
    40200f74:	6e641210 	uaddw2	v16.4s, v16.4s, v4.8h
    40200f78:	2e641042 	uaddw	v2.4s, v2.4s, v4.4h
    40200f7c:	2e7110a4 	uaddw	v4.4s, v5.4s, v17.4h
    40200f80:	6e711021 	uaddw2	v1.4s, v1.4s, v17.8h
    40200f84:	2e741000 	uaddw	v0.4s, v0.4s, v20.4h
    40200f88:	6e7410e7 	uaddw2	v7.4s, v7.4s, v20.8h
    40200f8c:	2f08a6f3 	uxtl	v19.8h, v23.8b
    40200f90:	8b080268 	add	x8, x19, x8
    40200f94:	6f08a6f1 	uxtl2	v17.8h, v23.16b
    40200f98:	6f08a654 	uxtl2	v20.8h, v18.16b
    40200f9c:	2f08a652 	uxtl	v18.8h, v18.8b
    40200fa0:	ad405505 	ldp	q5, q21, [x8]
    40200fa4:	2e731063 	uaddw	v3.4s, v3.4s, v19.4h
    40200fa8:	11050308 	add	w8, w24, #0x140
    40200fac:	6e7310c6 	uaddw2	v6.4s, v6.4s, v19.8h
    40200fb0:	2e711042 	uaddw	v2.4s, v2.4s, v17.4h
    40200fb4:	6e711210 	uaddw2	v16.4s, v16.4s, v17.8h
    40200fb8:	2e741000 	uaddw	v0.4s, v0.4s, v20.4h
    40200fbc:	6e7410e7 	uaddw2	v7.4s, v7.4s, v20.8h
    40200fc0:	2e721084 	uaddw	v4.4s, v4.4s, v18.4h
    40200fc4:	6e721021 	uaddw2	v1.4s, v1.4s, v18.8h
    40200fc8:	2f08a4b6 	uxtl	v22.8h, v5.8b
    40200fcc:	8b080268 	add	x8, x19, x8
    40200fd0:	6f08a4a5 	uxtl2	v5.8h, v5.16b
    40200fd4:	2f08a6b2 	uxtl	v18.8h, v21.8b
    40200fd8:	6f08a6b4 	uxtl2	v20.8h, v21.16b
    40200fdc:	ad404517 	ldp	q23, q17, [x8]
    40200fe0:	11058308 	add	w8, w24, #0x160
    40200fe4:	2e761063 	uaddw	v3.4s, v3.4s, v22.4h
    40200fe8:	6e7610c6 	uaddw2	v6.4s, v6.4s, v22.8h
    40200fec:	6e651210 	uaddw2	v16.4s, v16.4s, v5.8h
    40200ff0:	2e651042 	uaddw	v2.4s, v2.4s, v5.4h
    40200ff4:	2e721084 	uaddw	v4.4s, v4.4s, v18.4h
    40200ff8:	6e721021 	uaddw2	v1.4s, v1.4s, v18.8h
    40200ffc:	6e7410e7 	uaddw2	v7.4s, v7.4s, v20.8h
    40201000:	2e741000 	uaddw	v0.4s, v0.4s, v20.4h
    40201004:	8b080268 	add	x8, x19, x8
    40201008:	2f08a6f3 	uxtl	v19.8h, v23.8b
    4020100c:	6f08a6e5 	uxtl2	v5.8h, v23.16b
    40201010:	2f08a632 	uxtl	v18.8h, v17.8b
    40201014:	6f08a631 	uxtl2	v17.8h, v17.16b
    40201018:	ad405915 	ldp	q21, q22, [x8]
    4020101c:	11060308 	add	w8, w24, #0x180
    40201020:	2e731063 	uaddw	v3.4s, v3.4s, v19.4h
    40201024:	6e651210 	uaddw2	v16.4s, v16.4s, v5.8h
    40201028:	6e7310c6 	uaddw2	v6.4s, v6.4s, v19.8h
    4020102c:	2e651042 	uaddw	v2.4s, v2.4s, v5.4h
    40201030:	2e721084 	uaddw	v4.4s, v4.4s, v18.4h
    40201034:	2e711000 	uaddw	v0.4s, v0.4s, v17.4h
    40201038:	6e721021 	uaddw2	v1.4s, v1.4s, v18.8h
    4020103c:	6e7110e7 	uaddw2	v7.4s, v7.4s, v17.8h
    40201040:	8b080268 	add	x8, x19, x8
    40201044:	2f08a6b7 	uxtl	v23.8h, v21.8b
    40201048:	6f08a6a5 	uxtl2	v5.8h, v21.16b
    4020104c:	2f08a6d2 	uxtl	v18.8h, v22.8b
    40201050:	6f08a6d1 	uxtl2	v17.8h, v22.16b
    40201054:	ad404d14 	ldp	q20, q19, [x8]
    40201058:	11068308 	add	w8, w24, #0x1a0
    4020105c:	2e771063 	uaddw	v3.4s, v3.4s, v23.4h
    40201060:	6e7710c6 	uaddw2	v6.4s, v6.4s, v23.8h
    40201064:	6e651210 	uaddw2	v16.4s, v16.4s, v5.8h
    40201068:	2e651042 	uaddw	v2.4s, v2.4s, v5.4h
    4020106c:	2e721084 	uaddw	v4.4s, v4.4s, v18.4h
    40201070:	6e721021 	uaddw2	v1.4s, v1.4s, v18.8h
    40201074:	6e7110e7 	uaddw2	v7.4s, v7.4s, v17.8h
    40201078:	2e711000 	uaddw	v0.4s, v0.4s, v17.4h
    4020107c:	8b080268 	add	x8, x19, x8
    40201080:	2f08a698 	uxtl	v24.8h, v20.8b
    40201084:	6f08a685 	uxtl2	v5.8h, v20.16b
    40201088:	2f08a671 	uxtl	v17.8h, v19.8b
    4020108c:	6f08a673 	uxtl2	v19.8h, v19.16b
    40201090:	ad405112 	ldp	q18, q20, [x8]
    40201094:	11070308 	add	w8, w24, #0x1c0
    40201098:	2e781063 	uaddw	v3.4s, v3.4s, v24.4h
    4020109c:	2e651042 	uaddw	v2.4s, v2.4s, v5.4h
    402010a0:	6e651205 	uaddw2	v5.4s, v16.4s, v5.8h
    402010a4:	6e7810c6 	uaddw2	v6.4s, v6.4s, v24.8h
    402010a8:	6e711021 	uaddw2	v1.4s, v1.4s, v17.8h
    402010ac:	2e711084 	uaddw	v4.4s, v4.4s, v17.4h
    402010b0:	2e731000 	uaddw	v0.4s, v0.4s, v19.4h
    402010b4:	6e7310e7 	uaddw2	v7.4s, v7.4s, v19.8h
    402010b8:	8b080268 	add	x8, x19, x8
    402010bc:	2f08a655 	uxtl	v21.8h, v18.8b
    402010c0:	6f08a651 	uxtl2	v17.8h, v18.16b
    402010c4:	2f08a697 	uxtl	v23.8h, v20.8b
    402010c8:	6f08a693 	uxtl2	v19.8h, v20.16b
    402010cc:	ad404910 	ldp	q16, q18, [x8]
    402010d0:	11078308 	add	w8, w24, #0x1e0
    402010d4:	2e751063 	uaddw	v3.4s, v3.4s, v21.4h
    402010d8:	6e7510c6 	uaddw2	v6.4s, v6.4s, v21.8h
    402010dc:	6e7110a5 	uaddw2	v5.4s, v5.4s, v17.8h
    402010e0:	2e711042 	uaddw	v2.4s, v2.4s, v17.4h
    402010e4:	2e771084 	uaddw	v4.4s, v4.4s, v23.4h
    402010e8:	6e771021 	uaddw2	v1.4s, v1.4s, v23.8h
    402010ec:	2e731000 	uaddw	v0.4s, v0.4s, v19.4h
    402010f0:	6e7310e7 	uaddw2	v7.4s, v7.4s, v19.8h
    402010f4:	8b080268 	add	x8, x19, x8
    402010f8:	2f08a616 	uxtl	v22.8h, v16.8b
    402010fc:	6f08a610 	uxtl2	v16.8h, v16.16b
    40201100:	2f08a651 	uxtl	v17.8h, v18.8b
    40201104:	6f08a652 	uxtl2	v18.8h, v18.16b
    40201108:	ad405113 	ldp	q19, q20, [x8]
    4020110c:	2e761063 	uaddw	v3.4s, v3.4s, v22.4h
    40201110:	2e701042 	uaddw	v2.4s, v2.4s, v16.4h
    40201114:	6e7010a5 	uaddw2	v5.4s, v5.4s, v16.8h
    40201118:	6e7610c6 	uaddw2	v6.4s, v6.4s, v22.8h
    4020111c:	2e711084 	uaddw	v4.4s, v4.4s, v17.4h
    40201120:	2e721000 	uaddw	v0.4s, v0.4s, v18.4h
    40201124:	6e7210e7 	uaddw2	v7.4s, v7.4s, v18.8h
    40201128:	6e711021 	uaddw2	v1.4s, v1.4s, v17.8h
    4020112c:	2f08a670 	uxtl	v16.8h, v19.8b
    40201130:	2f08a695 	uxtl	v21.8h, v20.8b
    40201134:	6f08a671 	uxtl2	v17.8h, v19.16b
    40201138:	6f08a692 	uxtl2	v18.8h, v20.16b
    4020113c:	2e701063 	uaddw	v3.4s, v3.4s, v16.4h
    40201140:	6e7010c6 	uaddw2	v6.4s, v6.4s, v16.8h
    40201144:	2e751084 	uaddw	v4.4s, v4.4s, v21.4h
    40201148:	6e7110a5 	uaddw2	v5.4s, v5.4s, v17.8h
    4020114c:	2e711042 	uaddw	v2.4s, v2.4s, v17.4h
    40201150:	6e751021 	uaddw2	v1.4s, v1.4s, v21.8h
    40201154:	6e7210e7 	uaddw2	v7.4s, v7.4s, v18.8h
    40201158:	2e721000 	uaddw	v0.4s, v0.4s, v18.4h
    4020115c:	4ea48463 	add	v3.4s, v3.4s, v4.4s
    40201160:	4ea28400 	add	v0.4s, v0.4s, v2.4s
    40201164:	4ea584e2 	add	v2.4s, v7.4s, v5.4s
    40201168:	4ea68421 	add	v1.4s, v1.4s, v6.4s
    4020116c:	4ea08460 	add	v0.4s, v3.4s, v0.4s
    40201170:	4ea28421 	add	v1.4s, v1.4s, v2.4s
    40201174:	4ea18400 	add	v0.4s, v0.4s, v1.4s
    40201178:	3dc003e1 	ldr	q1, [sp]
    4020117c:	4ea18400 	add	v0.4s, v0.4s, v1.4s
    40201180:	4eb1b800 	addv	s0, v0.4s
    40201184:	1e260008 	fmov	w8, s0
    40201188:	4e040d00 	dup	v0.4s, w8
    4020118c:	3dc007e1 	ldr	q1, [sp, #16]
    40201190:	9b1a66ab 	madd	x11, x21, x26, x25
    40201194:	52800609 	mov	w9, #0x30                  	// #48
    40201198:	5280060a 	mov	w10, #0x30                  	// #48
    4020119c:	910802e0 	add	x0, x23, #0x200
    402011a0:	33000909 	bfxil	w9, w8, #0, #3
    402011a4:	3303150a 	bfxil	w10, w8, #3, #3
    402011a8:	9111a395 	add	x21, x28, #0x468
    402011ac:	6ea14400 	ushl	v0.4s, v0.4s, v1.4s
    402011b0:	390266e9 	strb	w9, [x23, #153]
    402011b4:	9101a161 	add	x1, x11, #0x68
    402011b8:	390262ea 	strb	w10, [x23, #152]
    402011bc:	0e612800 	xtn	v0.4h, v0.4s
    402011c0:	0e281c00 	and	v0.8b, v0.8b, v8.8b
    402011c4:	0f019600 	orr	v0.4h, #0x30
    402011c8:	0e212800 	xtn	v0.8b, v0.8h
    402011cc:	bd0096e0 	str	s0, [x23, #148]
    402011d0:	94000356 	bl	40201f28 <memcpy>
    402011d4:	b94002a8 	ldr	w8, [x21]
    402011d8:	110ffd08 	add	w8, w8, #0x3ff
    402011dc:	12175908 	and	w8, w8, #0xfffffe00
    402011e0:	0b180118 	add	w24, w8, w24
    402011e4:	2a1f03e8 	mov	w8, wzr
    402011e8:	52800035 	mov	w21, #0x1                   	// #1
    402011ec:	36001176 	tbz	w22, #0, 40201418 <fs_flush+0x6b8>
    402011f0:	9b1a7ea9 	mul	x9, x21, x26
    402011f4:	2a0803f6 	mov	w22, w8
    402011f8:	b8696b29 	ldr	w9, [x25, x9]
    402011fc:	34ffff49 	cbz	w9, 402011e4 <fs_flush+0x484>
    40201200:	8b384277 	add	x23, x19, w24, uxtw
    40201204:	2a1f03e1 	mov	w1, wzr
    40201208:	52804002 	mov	w2, #0x200                 	// #512
    4020120c:	aa1703e0 	mov	x0, x23
    40201210:	94000378 	bl	40201ff0 <memset>
    40201214:	9b1a66bc 	madd	x28, x21, x26, x25
    40201218:	aa1703e0 	mov	x0, x23
    4020121c:	91001381 	add	x1, x28, #0x4
    40201220:	9400039c 	bl	40202090 <strcpy>
    40201224:	910192e0 	add	x0, x23, #0x64
    40201228:	d0000001 	adrp	x1, 40203000 <_vector_table+0x800>
    4020122c:	910e7821 	add	x1, x1, #0x39e
    40201230:	94000398 	bl	40202090 <strcpy>
    40201234:	910406e0 	add	x0, x23, #0x101
    40201238:	d0000001 	adrp	x1, 40203000 <_vector_table+0x800>
    4020123c:	91113821 	add	x1, x1, #0x44e
    40201240:	94000394 	bl	40202090 <strcpy>
    40201244:	91041ee0 	add	x0, x23, #0x107
    40201248:	d0000001 	adrp	x1, 40203000 <_vector_table+0x800>
    4020124c:	9109f821 	add	x1, x1, #0x27e
    40201250:	94000390 	bl	40202090 <strcpy>
    40201254:	b9446b82 	ldr	w2, [x28, #1128]
    40201258:	12bfe010 	mov	w16, #0xffffff              	// #16777215
    4020125c:	528fffed 	mov	w13, #0x7fff                	// #32767
    40201260:	12bfff8e 	mov	w14, #0x3ffff               	// #262143
    40201264:	12bffc0f 	mov	w15, #0x1fffff              	// #2097151
    40201268:	390272fb 	strb	w27, [x23, #156]
    4020126c:	11001c48 	add	w8, w2, #0x7
    40201270:	7100005f 	cmp	w2, #0x0
    40201274:	1100fc49 	add	w9, w2, #0x3f
    40201278:	1a82b108 	csel	w8, w8, w2, lt	// lt = tstop
    4020127c:	0b100050 	add	w16, w2, w16
    40201280:	1107fc4a 	add	w10, w2, #0x1ff
    40201284:	121d710c 	and	w12, w8, #0xfffffff8
    40201288:	13037d08 	asr	w8, w8, #3
    4020128c:	113ffc4b 	add	w11, w2, #0xfff
    40201290:	4b0c004c 	sub	w12, w2, w12
    40201294:	0b0d004d 	add	w13, w2, w13
    40201298:	0b0e004e 	add	w14, w2, w14
    4020129c:	6b0803f1 	negs	w17, w8
    402012a0:	12000908 	and	w8, w8, #0x7
    402012a4:	1100c18c 	add	w12, w12, #0x30
    402012a8:	12000a31 	and	w17, w17, #0x7
    402012ac:	39021eec 	strb	w12, [x23, #135]
    402012b0:	12bf000c 	mov	w12, #0x7ffffff             	// #134217727
    402012b4:	5a914508 	csneg	w8, w8, w17, mi	// mi = first
    402012b8:	7100005f 	cmp	w2, #0x0
    402012bc:	0b0f004f 	add	w15, w2, w15
    402012c0:	1100c112 	add	w18, w8, #0x30
    402012c4:	1a82b128 	csel	w8, w9, w2, lt	// lt = tstop
    402012c8:	1a82b209 	csel	w9, w16, w2, lt	// lt = tstop
    402012cc:	13067d10 	asr	w16, w8, #6
    402012d0:	0b0c004c 	add	w12, w2, w12
    402012d4:	0b140051 	add	w17, w2, w20
    402012d8:	1a82b140 	csel	w0, w10, w2, lt	// lt = tstop
    402012dc:	1a82b16b 	csel	w11, w11, w2, lt	// lt = tstop
    402012e0:	1a82b1ad 	csel	w13, w13, w2, lt	// lt = tstop
    402012e4:	1a82b1ce 	csel	w14, w14, w2, lt	// lt = tstop
    402012e8:	1a82b1ef 	csel	w15, w15, w2, lt	// lt = tstop
    402012ec:	1a82b18a 	csel	w10, w12, w2, lt	// lt = tstop
    402012f0:	1a82b228 	csel	w8, w17, w2, lt	// lt = tstop
    402012f4:	13097c0c 	asr	w12, w0, #9
    402012f8:	6b1003f1 	negs	w17, w16
    402012fc:	12000a10 	and	w16, w16, #0x7
    40201300:	12000a31 	and	w17, w17, #0x7
    40201304:	130c7d6b 	asr	w11, w11, #12
    40201308:	5a914610 	csneg	w16, w16, w17, mi	// mi = first
    4020130c:	6b0c03f1 	negs	w17, w12
    40201310:	1200098c 	and	w12, w12, #0x7
    40201314:	12000a31 	and	w17, w17, #0x7
    40201318:	130f7dad 	asr	w13, w13, #15
    4020131c:	13127dce 	asr	w14, w14, #18
    40201320:	1100c210 	add	w16, w16, #0x30
    40201324:	5a91458c 	csneg	w12, w12, w17, mi	// mi = first
    40201328:	6b0b03f1 	negs	w17, w11
    4020132c:	1200096b 	and	w11, w11, #0x7
    40201330:	390216f0 	strb	w16, [x23, #133]
    40201334:	12000a30 	and	w16, w17, #0x7
    40201338:	120009b1 	and	w17, w13, #0x7
    4020133c:	5a90456b 	csneg	w11, w11, w16, mi	// mi = first
    40201340:	6b0d03ed 	negs	w13, w13
    40201344:	530d3dd0 	ubfx	w16, w14, #13, #3
    40201348:	13157def 	asr	w15, w15, #21
    4020134c:	1100c18c 	add	w12, w12, #0x30
    40201350:	120009ad 	and	w13, w13, #0x7
    40201354:	390212ec 	strb	w12, [x23, #132]
    40201358:	1100c16b 	add	w11, w11, #0x30
    4020135c:	5a8d462c 	csneg	w12, w17, w13, mi	// mi = first
    40201360:	0b1001cd 	add	w13, w14, w16
    40201364:	39020eeb 	strb	w11, [x23, #131]
    40201368:	1100c18b 	add	w11, w12, #0x30
    4020136c:	121d11ac 	and	w12, w13, #0xf8
    40201370:	530d3ded 	ubfx	w13, w15, #13, #3
    40201374:	13187d30 	asr	w16, w9, #24
    40201378:	131b7d4a 	asr	w10, w10, #27
    4020137c:	39020aeb 	strb	w11, [x23, #130]
    40201380:	4b0c01cb 	sub	w11, w14, w12
    40201384:	0b0d01ec 	add	w12, w15, w13
    40201388:	53187d29 	lsr	w9, w9, #24
    4020138c:	530c3a0d 	ubfx	w13, w16, #12, #3
    40201390:	1100c16b 	add	w11, w11, #0x30
    40201394:	121d118c 	and	w12, w12, #0xf8
    40201398:	53051d4e 	ubfx	w14, w10, #5, #3
    4020139c:	390206eb 	strb	w11, [x23, #129]
    402013a0:	4b0c01eb 	sub	w11, w15, w12
    402013a4:	0b0d012c 	add	w12, w9, w13
    402013a8:	1100c16b 	add	w11, w11, #0x30
    402013ac:	131e7d08 	asr	w8, w8, #30
    402013b0:	121d118c 	and	w12, w12, #0xf8
    402013b4:	0b0e014d 	add	w13, w10, w14
    402013b8:	390202eb 	strb	w11, [x23, #128]
    402013bc:	4b0c0129 	sub	w9, w9, w12
    402013c0:	121d11ab 	and	w11, w13, #0xf8
    402013c4:	1100c108 	add	w8, w8, #0x30
    402013c8:	1100c129 	add	w9, w9, #0x30
    402013cc:	4b0b014a 	sub	w10, w10, w11
    402013d0:	3107ff1f 	cmn	w24, #0x1ff
    402013d4:	3901fee9 	strb	w9, [x23, #127]
    402013d8:	1100c149 	add	w9, w10, #0x30
    402013dc:	39021af2 	strb	w18, [x23, #134]
    402013e0:	3901fae9 	strb	w9, [x23, #126]
    402013e4:	3901f6e8 	strb	w8, [x23, #125]
    402013e8:	3901f2fb 	strb	w27, [x23, #124]
    402013ec:	54ffcf83 	b.cc	40200ddc <fs_flush+0x7c>  // b.lo, b.ul, b.last
    402013f0:	aa1f03e9 	mov	x9, xzr
    402013f4:	2a1803ea 	mov	w10, w24
    402013f8:	52802008 	mov	w8, #0x100                 	// #256
    402013fc:	0b09014b 	add	w11, w10, w9
    40201400:	91000529 	add	x9, x9, #0x1
    40201404:	386b4a6b 	ldrb	w11, [x19, w11, uxtw]
    40201408:	f108013f 	cmp	x9, #0x200
    4020140c:	0b0b0108 	add	w8, w8, w11
    40201410:	54ffff61 	b.ne	402013fc <fs_flush+0x69c>  // b.any
    40201414:	17ffff5d 	b	40201188 <fs_flush+0x428>
    40201418:	aa1303e0 	mov	x0, x19
    4020141c:	2a1f03e1 	mov	w1, wzr
    40201420:	52800022 	mov	w2, #0x1                   	// #1
    40201424:	94000121 	bl	402018a8 <read_write_disk>
    40201428:	91080260 	add	x0, x19, #0x200
    4020142c:	52800021 	mov	w1, #0x1                   	// #1
    40201430:	52800022 	mov	w2, #0x1                   	// #1
    40201434:	9400011d 	bl	402018a8 <read_write_disk>
    40201438:	91100260 	add	x0, x19, #0x400
    4020143c:	52800041 	mov	w1, #0x2                   	// #2
    40201440:	52800022 	mov	w2, #0x1                   	// #1
    40201444:	94000119 	bl	402018a8 <read_write_disk>
    40201448:	91180260 	add	x0, x19, #0x600
    4020144c:	52800061 	mov	w1, #0x3                   	// #3
    40201450:	52800022 	mov	w2, #0x1                   	// #1
    40201454:	94000115 	bl	402018a8 <read_write_disk>
    40201458:	91200260 	add	x0, x19, #0x800
    4020145c:	52800081 	mov	w1, #0x4                   	// #4
    40201460:	52800022 	mov	w2, #0x1                   	// #1
    40201464:	94000111 	bl	402018a8 <read_write_disk>
    40201468:	a9484ff4 	ldp	x20, x19, [sp, #128]
    4020146c:	d0000000 	adrp	x0, 40203000 <_vector_table+0x800>
    40201470:	910ae400 	add	x0, x0, #0x2b9
    40201474:	a94757f6 	ldp	x22, x21, [sp, #112]
    40201478:	a9465ff8 	ldp	x24, x23, [sp, #96]
    4020147c:	52814001 	mov	w1, #0xa00                 	// #2560
    40201480:	a94567fa 	ldp	x26, x25, [sp, #80]
    40201484:	fd4013e8 	ldr	d8, [sp, #32]
    40201488:	a9446ffc 	ldp	x28, x27, [sp, #64]
    4020148c:	a9437bfd 	ldp	x29, x30, [sp, #48]
    40201490:	910243ff 	add	sp, sp, #0x90
    40201494:	14000315 	b	402020e8 <printf>

0000000040201498 <handle_trap>:
    40201498:	a9bd7bfd 	stp	x29, x30, [sp, #-48]!
    4020149c:	a90157f6 	stp	x22, x21, [sp, #16]
    402014a0:	a9024ff4 	stp	x20, x19, [sp, #32]
    402014a4:	910003fd 	mov	x29, sp
    402014a8:	d5385214 	mrs	x20, esr_el1
    402014ac:	d5386015 	mrs	x21, far_el1
    402014b0:	d5384033 	mrs	x19, elr_el1
    402014b4:	d5384108 	mrs	x8, sp_el0
    402014b8:	d35a7e96 	ubfx	x22, x20, #26, #6
    402014bc:	d5382008 	mrs	x8, ttbr0_el1
    402014c0:	f10096df 	cmp	x22, #0x25
    402014c4:	54000468 	b.hi	40201550 <handle_trap+0xb8>  // b.pmore
    402014c8:	52800028 	mov	w8, #0x1                   	// #1
    402014cc:	d2c00669 	mov	x9, #0x3300000000          	// #219043332096
    402014d0:	9ad62108 	lsl	x8, x8, x22
    402014d4:	ea09011f 	tst	x8, x9
    402014d8:	54000300 	b.eq	40201538 <handle_trap+0xa0>  // b.none
    402014dc:	d0000000 	adrp	x0, 40203000 <_vector_table+0x800>
    402014e0:	910e1400 	add	x0, x0, #0x385
    402014e4:	94000301 	bl	402020e8 <printf>
    402014e8:	d0000000 	adrp	x0, 40203000 <_vector_table+0x800>
    402014ec:	91057400 	add	x0, x0, #0x15d
    402014f0:	92406283 	and	x3, x20, #0x1ffffff
    402014f4:	aa1403e1 	mov	x1, x20
    402014f8:	aa1603e2 	mov	x2, x22
    402014fc:	940002fb 	bl	402020e8 <printf>
    40201500:	d0000000 	adrp	x0, 40203000 <_vector_table+0x800>
    40201504:	91108800 	add	x0, x0, #0x422
    40201508:	aa1503e1 	mov	x1, x21
    4020150c:	940002f7 	bl	402020e8 <printf>
    40201510:	d0000000 	adrp	x0, 40203000 <_vector_table+0x800>
    40201514:	910fac00 	add	x0, x0, #0x3eb
    40201518:	aa1303e1 	mov	x1, x19
    4020151c:	940002f3 	bl	402020e8 <printf>
    40201520:	aa1403e0 	mov	x0, x20
    40201524:	aa1503e1 	mov	x1, x21
    40201528:	a9424ff4 	ldp	x20, x19, [sp, #32]
    4020152c:	a94157f6 	ldp	x22, x21, [sp, #16]
    40201530:	a8c37bfd 	ldp	x29, x30, [sp], #48
    40201534:	140003b9 	b	40202418 <handle_data_abort>
    40201538:	f10056df 	cmp	x22, #0x15
    4020153c:	540000a1 	b.ne	40201550 <handle_trap+0xb8>  // b.any
    40201540:	a9424ff4 	ldp	x20, x19, [sp, #32]
    40201544:	a94157f6 	ldp	x22, x21, [sp, #16]
    40201548:	a8c37bfd 	ldp	x29, x30, [sp], #48
    4020154c:	17fffd94 	b	40200b9c <handle_syscall>
    40201550:	d0000000 	adrp	x0, 40203000 <_vector_table+0x800>
    40201554:	91133800 	add	x0, x0, #0x4ce
    40201558:	92406282 	and	x2, x20, #0x1ffffff
    4020155c:	aa1603e1 	mov	x1, x22
    40201560:	aa1303e3 	mov	x3, x19
    40201564:	940002e1 	bl	402020e8 <printf>
    40201568:	d0000000 	adrp	x0, 40203000 <_vector_table+0x800>
    4020156c:	91157c00 	add	x0, x0, #0x55f
    40201570:	b0000001 	adrp	x1, 40202000 <memset+0x10>
    40201574:	913ec021 	add	x1, x1, #0xfb0
    40201578:	52804622 	mov	w2, #0x231                 	// #561
    4020157c:	940002db 	bl	402020e8 <printf>
    40201580:	14000000 	b	40201580 <handle_trap+0xe8>

0000000040201584 <virtio_reg_read32>:
    40201584:	52a14008 	mov	w8, #0xa000000             	// #167772160
    40201588:	b8686800 	ldr	w0, [x0, x8]
    4020158c:	d65f03c0 	ret

0000000040201590 <virtio_reg_read64>:
    40201590:	52a14008 	mov	w8, #0xa000000             	// #167772160
    40201594:	f8686800 	ldr	x0, [x0, x8]
    40201598:	d65f03c0 	ret

000000004020159c <virtio_reg_write32>:
    4020159c:	52a14008 	mov	w8, #0xa000000             	// #167772160
    402015a0:	b8286801 	str	w1, [x0, x8]
    402015a4:	d65f03c0 	ret

00000000402015a8 <virtio_reg_fetch_and_or32>:
    402015a8:	52a14008 	mov	w8, #0xa000000             	// #167772160
    402015ac:	b8686809 	ldr	w9, [x0, x8]
    402015b0:	2a010129 	orr	w9, w9, w1
    402015b4:	b8286809 	str	w9, [x0, x8]
    402015b8:	d65f03c0 	ret

00000000402015bc <virtq_init>:
    402015bc:	a9bd7bfd 	stp	x29, x30, [sp, #-48]!
    402015c0:	f9000bf5 	str	x21, [sp, #16]
    402015c4:	a9024ff4 	stp	x20, x19, [sp, #32]
    402015c8:	910003fd 	mov	x29, sp
    402015cc:	2a0003f3 	mov	w19, w0
    402015d0:	52800615 	mov	w21, #0x30                  	// #48
    402015d4:	d0000000 	adrp	x0, 40203000 <_vector_table+0x800>
    402015d8:	9110cc00 	add	x0, x0, #0x433
    402015dc:	2a1303e1 	mov	w1, w19
    402015e0:	72a14015 	movk	w21, #0xa00, lsl #16
    402015e4:	940002c1 	bl	402020e8 <printf>
    402015e8:	b90002b3 	str	w19, [x21]
    402015ec:	d0000000 	adrp	x0, 40203000 <_vector_table+0x800>
    402015f0:	9113d000 	add	x0, x0, #0x4f4
    402015f4:	d5033bbf 	dmb	ish
    402015f8:	d5033f9f 	dsb	sy
    402015fc:	b94006b4 	ldr	w20, [x21, #4]
    40201600:	2a1403e1 	mov	w1, w20
    40201604:	940002b9 	bl	402020e8 <printf>
    40201608:	71003e9f 	cmp	w20, #0xf
    4020160c:	540000e8 	b.hi	40201628 <virtq_init+0x6c>  // b.pmore
    40201610:	d0000000 	adrp	x0, 40203000 <_vector_table+0x800>
    40201614:	91118c00 	add	x0, x0, #0x463
    40201618:	2a1403e1 	mov	w1, w20
    4020161c:	940002b3 	bl	402020e8 <printf>
    40201620:	aa1f03f4 	mov	x20, xzr
    40201624:	1400002a 	b	402016cc <virtq_init+0x110>
    40201628:	d0000008 	adrp	x8, 40203000 <_vector_table+0x800>
    4020162c:	b001822a 	adrp	x10, 43246000 <__free_ram_end>
    40201630:	9100014a 	add	x10, x10, #0x0
    40201634:	f942c114 	ldr	x20, [x8, #1408]
    40201638:	91400a89 	add	x9, x20, #0x2, lsl #12
    4020163c:	eb0a013f 	cmp	x9, x10
    40201640:	f902c109 	str	x9, [x8, #1408]
    40201644:	54000109 	b.ls	40201664 <virtq_init+0xa8>  // b.plast
    40201648:	d0000000 	adrp	x0, 40203000 <_vector_table+0x800>
    4020164c:	9108f800 	add	x0, x0, #0x23e
    40201650:	b0000001 	adrp	x1, 40202000 <memset+0x10>
    40201654:	913ec021 	add	x1, x1, #0xfb0
    40201658:	52800e82 	mov	w2, #0x74                  	// #116
    4020165c:	940002a3 	bl	402020e8 <printf>
    40201660:	14000000 	b	40201660 <virtq_init+0xa4>
    40201664:	aa1403e0 	mov	x0, x20
    40201668:	2a1f03e1 	mov	w1, wzr
    4020166c:	52840002 	mov	w2, #0x2000                	// #8192
    40201670:	94000260 	bl	40201ff0 <memset>
    40201674:	aa1403e0 	mov	x0, x20
    40201678:	2a1f03e1 	mov	w1, wzr
    4020167c:	52840002 	mov	w2, #0x2000                	// #8192
    40201680:	9400025c 	bl	40201ff0 <memset>
    40201684:	52800208 	mov	w8, #0x10                  	// #16
    40201688:	528210c9 	mov	w9, #0x1086                	// #4230
    4020168c:	d34cfe8a 	lsr	x10, x20, #12
    40201690:	b9000aa8 	str	w8, [x21, #8]
    40201694:	d0000000 	adrp	x0, 40203000 <_vector_table+0x800>
    40201698:	910bfc00 	add	x0, x0, #0x2ff
    4020169c:	d5033bbf 	dmb	ish
    402016a0:	d5033f9f 	dsb	sy
    402016a4:	79210a93 	strh	w19, [x20, #4228]
    402016a8:	b8296a9f 	str	wzr, [x20, x9]
    402016ac:	2a1303e1 	mov	w1, w19
    402016b0:	aa1403e2 	mov	x2, x20
    402016b4:	d5033bbf 	dmb	ish
    402016b8:	d5033f9f 	dsb	sy
    402016bc:	b90012aa 	str	w10, [x21, #16]
    402016c0:	d5033bbf 	dmb	ish
    402016c4:	d5033f9f 	dsb	sy
    402016c8:	94000288 	bl	402020e8 <printf>
    402016cc:	aa1403e0 	mov	x0, x20
    402016d0:	a9424ff4 	ldp	x20, x19, [sp, #32]
    402016d4:	f9400bf5 	ldr	x21, [sp, #16]
    402016d8:	a8c37bfd 	ldp	x29, x30, [sp], #48
    402016dc:	d65f03c0 	ret

00000000402016e0 <virtio_blk_init>:
    402016e0:	d100c3ff 	sub	sp, sp, #0x30
    402016e4:	a9017bfd 	stp	x29, x30, [sp, #16]
    402016e8:	a9024ff4 	stp	x20, x19, [sp, #32]
    402016ec:	910043fd 	add	x29, sp, #0x10
    402016f0:	52800e13 	mov	w19, #0x70                  	// #112
    402016f4:	52909014 	mov	w20, #0x8480                	// #33920
    402016f8:	d0000000 	adrp	x0, 40203000 <_vector_table+0x800>
    402016fc:	91149400 	add	x0, x0, #0x525
    40201700:	72a14013 	movk	w19, #0xa00, lsl #16
    40201704:	72a003d4 	movk	w20, #0x1e, lsl #16
    40201708:	94000278 	bl	402020e8 <printf>
    4020170c:	b900027f 	str	wzr, [x19]
    40201710:	d5033bbf 	dmb	ish
    40201714:	d5033f9f 	dsb	sy
    40201718:	b81fc3bf 	stur	wzr, [x29, #-4]
    4020171c:	b85fc3a8 	ldur	w8, [x29, #-4]
    40201720:	6b14011f 	cmp	w8, w20
    40201724:	540000aa 	b.ge	40201738 <virtio_blk_init+0x58>  // b.tcont
    40201728:	b85fc3a8 	ldur	w8, [x29, #-4]
    4020172c:	11000508 	add	w8, w8, #0x1
    40201730:	b81fc3a8 	stur	w8, [x29, #-4]
    40201734:	17fffffa 	b	4020171c <virtio_blk_init+0x3c>
    40201738:	52800028 	mov	w8, #0x1                   	// #1
    4020173c:	2a1f03e0 	mov	w0, wzr
    40201740:	b9000268 	str	w8, [x19]
    40201744:	d5033bbf 	dmb	ish
    40201748:	d5033f9f 	dsb	sy
    4020174c:	b9400268 	ldr	w8, [x19]
    40201750:	321f0108 	orr	w8, w8, #0x2
    40201754:	b9000268 	str	w8, [x19]
    40201758:	d5033bbf 	dmb	ish
    4020175c:	d5033f9f 	dsb	sy
    40201760:	b9400268 	ldr	w8, [x19]
    40201764:	321d0108 	orr	w8, w8, #0x8
    40201768:	b9000268 	str	w8, [x19]
    4020176c:	d5033bbf 	dmb	ish
    40201770:	d5033f9f 	dsb	sy
    40201774:	97ffff92 	bl	402015bc <virtq_init>
    40201778:	f0008108 	adrp	x8, 41224000 <procs+0xfa60>
    4020177c:	f907c100 	str	x0, [x8, #3968]
    40201780:	b4000380 	cbz	x0, 402017f0 <virtio_blk_init+0x110>
    40201784:	b9400268 	ldr	w8, [x19]
    40201788:	d0000000 	adrp	x0, 40203000 <_vector_table+0x800>
    4020178c:	9104ec00 	add	x0, x0, #0x13b
    40201790:	321e0108 	orr	w8, w8, #0x4
    40201794:	b9000268 	str	w8, [x19]
    40201798:	d5033bbf 	dmb	ish
    4020179c:	d5033f9f 	dsb	sy
    402017a0:	f9404a68 	ldr	x8, [x19, #144]
    402017a4:	53175901 	lsl	w1, w8, #9
    402017a8:	f0008108 	adrp	x8, 41224000 <procs+0xfa60>
    402017ac:	b90f8901 	str	w1, [x8, #3976]
    402017b0:	9400024e 	bl	402020e8 <printf>
    402017b4:	d0000008 	adrp	x8, 40203000 <_vector_table+0x800>
    402017b8:	b001822a 	adrp	x10, 43246000 <__free_ram_end>
    402017bc:	9100014a 	add	x10, x10, #0x0
    402017c0:	f942c113 	ldr	x19, [x8, #1408]
    402017c4:	91400669 	add	x9, x19, #0x1, lsl #12
    402017c8:	eb0a013f 	cmp	x9, x10
    402017cc:	f902c109 	str	x9, [x8, #1408]
    402017d0:	540001e9 	b.ls	4020180c <virtio_blk_init+0x12c>  // b.plast
    402017d4:	d0000000 	adrp	x0, 40203000 <_vector_table+0x800>
    402017d8:	9108f800 	add	x0, x0, #0x23e
    402017dc:	b0000001 	adrp	x1, 40202000 <memset+0x10>
    402017e0:	913ec021 	add	x1, x1, #0xfb0
    402017e4:	52800e82 	mov	w2, #0x74                  	// #116
    402017e8:	94000240 	bl	402020e8 <printf>
    402017ec:	14000000 	b	402017ec <virtio_blk_init+0x10c>
    402017f0:	d0000000 	adrp	x0, 40203000 <_vector_table+0x800>
    402017f4:	91061000 	add	x0, x0, #0x184
    402017f8:	b0000001 	adrp	x1, 40202000 <memset+0x10>
    402017fc:	913ec021 	add	x1, x1, #0xfb0
    40201800:	528052a2 	mov	w2, #0x295                 	// #661
    40201804:	94000239 	bl	402020e8 <printf>
    40201808:	14000000 	b	40201808 <virtio_blk_init+0x128>
    4020180c:	aa1303e0 	mov	x0, x19
    40201810:	2a1f03e1 	mov	w1, wzr
    40201814:	52820002 	mov	w2, #0x1000                	// #4096
    40201818:	940001f6 	bl	40201ff0 <memset>
    4020181c:	f0008108 	adrp	x8, 41224000 <procs+0xfa60>
    40201820:	f0008109 	adrp	x9, 41224000 <procs+0xfa60>
    40201824:	aa1303e0 	mov	x0, x19
    40201828:	2a1f03e1 	mov	w1, wzr
    4020182c:	52804222 	mov	w2, #0x211                 	// #529
    40201830:	f907c913 	str	x19, [x8, #3984]
    40201834:	f907cd33 	str	x19, [x9, #3992]
    40201838:	940001ee 	bl	40201ff0 <memset>
    4020183c:	d5033bbf 	dmb	ish
    40201840:	d5033f9f 	dsb	sy
    40201844:	a9424ff4 	ldp	x20, x19, [sp, #32]
    40201848:	a9417bfd 	ldp	x29, x30, [sp, #16]
    4020184c:	9100c3ff 	add	sp, sp, #0x30
    40201850:	d65f03c0 	ret

0000000040201854 <virtq_kick>:
    40201854:	79420408 	ldrh	w8, [x0, #258]
    40201858:	92400d09 	and	x9, x8, #0xf
    4020185c:	11000508 	add	w8, w8, #0x1
    40201860:	8b090409 	add	x9, x0, x9, lsl #1
    40201864:	79020408 	strh	w8, [x0, #258]
    40201868:	79020921 	strh	w1, [x9, #260]
    4020186c:	52800a09 	mov	w9, #0x50                  	// #80
    40201870:	d5033bbf 	dmb	ish
    40201874:	d5033f9f 	dsb	sy
    40201878:	79610808 	ldrh	w8, [x0, #4228]
    4020187c:	72a14009 	movk	w9, #0xa00, lsl #16
    40201880:	b9000128 	str	w8, [x9]
    40201884:	79611008 	ldrh	w8, [x0, #4232]
    40201888:	11000508 	add	w8, w8, #0x1
    4020188c:	79211008 	strh	w8, [x0, #4232]
    40201890:	d65f03c0 	ret

0000000040201894 <virtq_is_busy>:
    40201894:	79611008 	ldrh	w8, [x0, #4232]
    40201898:	79610809 	ldrh	w9, [x0, #4228]
    4020189c:	6b09011f 	cmp	w8, w9
    402018a0:	1a9f07e0 	cset	w0, ne	// ne = any
    402018a4:	d65f03c0 	ret

00000000402018a8 <read_write_disk>:
    402018a8:	d101c3ff 	sub	sp, sp, #0x70
    402018ac:	a9017bfd 	stp	x29, x30, [sp, #16]
    402018b0:	a9026ffc 	stp	x28, x27, [sp, #32]
    402018b4:	a90367fa 	stp	x26, x25, [sp, #48]
    402018b8:	a9045ff8 	stp	x24, x23, [sp, #64]
    402018bc:	a90557f6 	stp	x22, x21, [sp, #80]
    402018c0:	a9064ff4 	stp	x20, x19, [sp, #96]
    402018c4:	910043fd 	add	x29, sp, #0x10
    402018c8:	2a0103f5 	mov	w21, w1
    402018cc:	7100005f 	cmp	w2, #0x0
    402018d0:	d0000008 	adrp	x8, 40203000 <_vector_table+0x800>
    402018d4:	9106c908 	add	x8, x8, #0x1b2
    402018d8:	d0000009 	adrp	x9, 40203000 <_vector_table+0x800>
    402018dc:	91024d29 	add	x9, x9, #0x93
    402018e0:	2a0203f4 	mov	w20, w2
    402018e4:	aa0003f6 	mov	x22, x0
    402018e8:	9a881121 	csel	x1, x9, x8, ne	// ne = any
    402018ec:	d0000000 	adrp	x0, 40203000 <_vector_table+0x800>
    402018f0:	9101e400 	add	x0, x0, #0x79
    402018f4:	2a1503e2 	mov	w2, w21
    402018f8:	1a9f07f3 	cset	w19, ne	// ne = any
    402018fc:	940001fb 	bl	402020e8 <printf>
    40201900:	f0008109 	adrp	x9, 41224000 <procs+0xfa60>
    40201904:	f0008119 	adrp	x25, 41224000 <procs+0xfa60>
    40201908:	f947c137 	ldr	x23, [x9, #3968]
    4020190c:	f947cf28 	ldr	x8, [x25, #3992]
    40201910:	2a1503e9 	mov	w9, w21
    40201914:	79610ef8 	ldrh	w24, [x23, #4230]
    40201918:	f9000509 	str	x9, [x8, #8]
    4020191c:	52801fe9 	mov	w9, #0xff                  	// #255
    40201920:	29007d13 	stp	w19, wzr, [x8]
    40201924:	39084109 	strb	w9, [x8, #528]
    40201928:	340000f4 	cbz	w20, 40201944 <read_write_disk+0x9c>
    4020192c:	91004100 	add	x0, x8, #0x10
    40201930:	aa1603e1 	mov	x1, x22
    40201934:	52804002 	mov	w2, #0x200                 	// #512
    40201938:	9400017c 	bl	40201f28 <memcpy>
    4020193c:	52800028 	mov	w8, #0x1                   	// #1
    40201940:	14000002 	b	40201948 <read_write_disk+0xa0>
    40201944:	52800068 	mov	w8, #0x3                   	// #3
    40201948:	8b1812e9 	add	x9, x23, x24, lsl #4
    4020194c:	f000810a 	adrp	x10, 41224000 <procs+0xfa60>
    40201950:	5280020b 	mov	w11, #0x10                  	// #16
    40201954:	5280002c 	mov	w12, #0x1                   	// #1
    40201958:	9100070d 	add	x13, x24, #0x1
    4020195c:	52800a1a 	mov	w26, #0x50                  	// #80
    40201960:	b900092b 	str	w11, [x9, #8]
    40201964:	f947c94b 	ldr	x11, [x10, #3984]
    40201968:	72a1401a 	movk	w26, #0xa00, lsl #16
    4020196c:	7900192c 	strh	w12, [x9, #12]
    40201970:	12000dac 	and	w12, w13, #0xf
    40201974:	d0000000 	adrp	x0, 40203000 <_vector_table+0x800>
    40201978:	91026400 	add	x0, x0, #0x99
    4020197c:	79001d2c 	strh	w12, [x9, #14]
    40201980:	5280400c 	mov	w12, #0x200                 	// #512
    40201984:	f900012b 	str	x11, [x9]
    40201988:	8b0d12eb 	add	x11, x23, x13, lsl #4
    4020198c:	d5033bbf 	dmb	ish
    40201990:	d5033f9f 	dsb	sy
    40201994:	f947c949 	ldr	x9, [x10, #3984]
    40201998:	b900096c 	str	w12, [x11, #8]
    4020199c:	91004129 	add	x9, x9, #0x10
    402019a0:	79001968 	strh	w8, [x11, #12]
    402019a4:	f9000169 	str	x9, [x11]
    402019a8:	91000b09 	add	x9, x24, #0x2
    402019ac:	f947c94a 	ldr	x10, [x10, #3984]
    402019b0:	12000d2c 	and	w12, w9, #0xf
    402019b4:	8b0912e9 	add	x9, x23, x9, lsl #4
    402019b8:	79001d6c 	strh	w12, [x11, #14]
    402019bc:	91084148 	add	x8, x10, #0x210
    402019c0:	d280002a 	mov	x10, #0x1                   	// #1
    402019c4:	f2c0004a 	movk	x10, #0x2, lsl #32
    402019c8:	a9002928 	stp	x8, x10, [x9]
    402019cc:	d5033bbf 	dmb	ish
    402019d0:	d5033f9f 	dsb	sy
    402019d4:	794206e8 	ldrh	w8, [x23, #258]
    402019d8:	92400d08 	and	x8, x8, #0xf
    402019dc:	8b0806e8 	add	x8, x23, x8, lsl #1
    402019e0:	79020918 	strh	w24, [x8, #260]
    402019e4:	d5033bbf 	dmb	ish
    402019e8:	d5033f9f 	dsb	sy
    402019ec:	794206e8 	ldrh	w8, [x23, #258]
    402019f0:	79610ae9 	ldrh	w9, [x23, #4228]
    402019f4:	796006f5 	ldrh	w21, [x23, #4098]
    402019f8:	11000508 	add	w8, w8, #0x1
    402019fc:	790206e8 	strh	w8, [x23, #258]
    40201a00:	2a1503e1 	mov	w1, w21
    40201a04:	b9000349 	str	w9, [x26]
    40201a08:	d5033bbf 	dmb	ish
    40201a0c:	d5033f9f 	dsb	sy
    40201a10:	940001b6 	bl	402020e8 <printf>
    40201a14:	796006e8 	ldrh	w8, [x23, #4098]
    40201a18:	6b15011f 	cmp	w8, w21
    40201a1c:	540004a1 	b.ne	40201ab0 <read_write_disk+0x208>  // b.any
    40201a20:	5297b813 	mov	w19, #0xbdc0                	// #48576
    40201a24:	528847fb 	mov	w27, #0x423f                	// #16959
    40201a28:	528b58bc 	mov	w28, #0x5ac5                	// #23237
    40201a2c:	5290d419 	mov	w25, #0x86a0                	// #34464
    40201a30:	f90007f6 	str	x22, [sp, #8]
    40201a34:	72bffe13 	movk	w19, #0xfff0, lsl #16
    40201a38:	72a001fb 	movk	w27, #0xf, lsl #16
    40201a3c:	72a14f9c 	movk	w28, #0xa7c, lsl #16
    40201a40:	72a00039 	movk	w25, #0x1, lsl #16
    40201a44:	d0000016 	adrp	x22, 40203000 <_vector_table+0x800>
    40201a48:	910d7ed6 	add	x22, x22, #0x35f
    40201a4c:	53057f68 	lsr	w8, w27, #5
    40201a50:	d5033bbf 	dmb	ish
    40201a54:	9bbc7d08 	umull	x8, w8, w28
    40201a58:	d367fd08 	lsr	x8, x8, #39
    40201a5c:	1b194d08 	madd	w8, w8, w25, w19
    40201a60:	3100051f 	cmn	w8, #0x1
    40201a64:	54000101 	b.ne	40201a84 <read_write_disk+0x1dc>  // b.any
    40201a68:	b9402341 	ldr	w1, [x26, #32]
    40201a6c:	371000c1 	tbnz	w1, #2, 40201a84 <read_write_disk+0x1dc>
    40201a70:	aa1603e0 	mov	x0, x22
    40201a74:	9400019d 	bl	402020e8 <printf>
    40201a78:	79610ae8 	ldrh	w8, [x23, #4228]
    40201a7c:	b9000348 	str	w8, [x26]
    40201a80:	d5033bbf 	dmb	ish
    40201a84:	3100067f 	cmn	w19, #0x1
    40201a88:	11000668 	add	w8, w19, #0x1
    40201a8c:	540000c0 	b.eq	40201aa4 <read_write_disk+0x1fc>  // b.none
    40201a90:	796006e9 	ldrh	w9, [x23, #4098]
    40201a94:	5100077b 	sub	w27, w27, #0x1
    40201a98:	2a0803f3 	mov	w19, w8
    40201a9c:	6b15013f 	cmp	w9, w21
    40201aa0:	54fffd60 	b.eq	40201a4c <read_write_disk+0x1a4>  // b.none
    40201aa4:	f94007f6 	ldr	x22, [sp, #8]
    40201aa8:	f0008119 	adrp	x25, 41224000 <procs+0xfa60>
    40201aac:	34000448 	cbz	w8, 40201b34 <read_write_disk+0x28c>
    40201ab0:	f947cf28 	ldr	x8, [x25, #3992]
    40201ab4:	39484101 	ldrb	w1, [x8, #528]
    40201ab8:	34000161 	cbz	w1, 40201ae4 <read_write_disk+0x23c>
    40201abc:	a9464ff4 	ldp	x20, x19, [sp, #96]
    40201ac0:	b0000000 	adrp	x0, 40202000 <memset+0x10>
    40201ac4:	913ee400 	add	x0, x0, #0xfb9
    40201ac8:	a94557f6 	ldp	x22, x21, [sp, #80]
    40201acc:	a9445ff8 	ldp	x24, x23, [sp, #64]
    40201ad0:	a94367fa 	ldp	x26, x25, [sp, #48]
    40201ad4:	a9426ffc 	ldp	x28, x27, [sp, #32]
    40201ad8:	a9417bfd 	ldp	x29, x30, [sp, #16]
    40201adc:	9101c3ff 	add	sp, sp, #0x70
    40201ae0:	14000182 	b	402020e8 <printf>
    40201ae4:	35000134 	cbnz	w20, 40201b08 <read_write_disk+0x260>
    40201ae8:	91004101 	add	x1, x8, #0x10
    40201aec:	aa1603e0 	mov	x0, x22
    40201af0:	52804002 	mov	w2, #0x200                 	// #512
    40201af4:	9400010d 	bl	40201f28 <memcpy>
    40201af8:	d0000000 	adrp	x0, 40203000 <_vector_table+0x800>
    40201afc:	91030800 	add	x0, x0, #0xc2
    40201b00:	aa1603e1 	mov	x1, x22
    40201b04:	94000179 	bl	402020e8 <printf>
    40201b08:	11000f08 	add	w8, w24, #0x3
    40201b0c:	a9464ff4 	ldp	x20, x19, [sp, #96]
    40201b10:	12000d08 	and	w8, w8, #0xf
    40201b14:	a94557f6 	ldp	x22, x21, [sp, #80]
    40201b18:	79210ee8 	strh	w8, [x23, #4230]
    40201b1c:	a9445ff8 	ldp	x24, x23, [sp, #64]
    40201b20:	a94367fa 	ldp	x26, x25, [sp, #48]
    40201b24:	a9426ffc 	ldp	x28, x27, [sp, #32]
    40201b28:	a9417bfd 	ldp	x29, x30, [sp, #16]
    40201b2c:	9101c3ff 	add	sp, sp, #0x70
    40201b30:	d65f03c0 	ret
    40201b34:	d0000000 	adrp	x0, 40203000 <_vector_table+0x800>
    40201b38:	910ca000 	add	x0, x0, #0x328
    40201b3c:	9400016b 	bl	402020e8 <printf>
    40201b40:	b900235f 	str	wzr, [x26, #32]
    40201b44:	d5033bbf 	dmb	ish
    40201b48:	a9464ff4 	ldp	x20, x19, [sp, #96]
    40201b4c:	a94557f6 	ldp	x22, x21, [sp, #80]
    40201b50:	a9445ff8 	ldp	x24, x23, [sp, #64]
    40201b54:	a94367fa 	ldp	x26, x25, [sp, #48]
    40201b58:	a9426ffc 	ldp	x28, x27, [sp, #32]
    40201b5c:	a9417bfd 	ldp	x29, x30, [sp, #16]
    40201b60:	9101c3ff 	add	sp, sp, #0x70
    40201b64:	17fffedf 	b	402016e0 <virtio_blk_init>

0000000040201b68 <oct2int>:
    40201b68:	7100043f 	cmp	w1, #0x1
    40201b6c:	540001ab 	b.lt	40201ba0 <oct2int+0x38>  // b.tstop
    40201b70:	2a1f03e8 	mov	w8, wzr
    40201b74:	2a0103e9 	mov	w9, w1
    40201b78:	3840140a 	ldrb	w10, [x0], #1
    40201b7c:	5100e14b 	sub	w11, w10, #0x38
    40201b80:	3100217f 	cmn	w11, #0x8
    40201b84:	540000a3 	b.cc	40201b98 <oct2int+0x30>  // b.lo, b.ul, b.last
    40201b88:	0b080d48 	add	w8, w10, w8, lsl #3
    40201b8c:	f1000529 	subs	x9, x9, #0x1
    40201b90:	5100c108 	sub	w8, w8, #0x30
    40201b94:	54ffff21 	b.ne	40201b78 <oct2int+0x10>  // b.any
    40201b98:	2a0803e0 	mov	w0, w8
    40201b9c:	d65f03c0 	ret
    40201ba0:	2a1f03e8 	mov	w8, wzr
    40201ba4:	2a0803e0 	mov	w0, w8
    40201ba8:	d65f03c0 	ret

0000000040201bac <fs_init>:
    40201bac:	a9ba7bfd 	stp	x29, x30, [sp, #-96]!
    40201bb0:	a9016ffc 	stp	x28, x27, [sp, #16]
    40201bb4:	a90267fa 	stp	x26, x25, [sp, #32]
    40201bb8:	a9035ff8 	stp	x24, x23, [sp, #48]
    40201bbc:	a90457f6 	stp	x22, x21, [sp, #64]
    40201bc0:	a9054ff4 	stp	x20, x19, [sp, #80]
    40201bc4:	910003fd 	mov	x29, sp
    40201bc8:	f0008113 	adrp	x19, 41224000 <procs+0xfa60>
    40201bcc:	913e8273 	add	x19, x19, #0xfa0
    40201bd0:	2a1f03e1 	mov	w1, wzr
    40201bd4:	aa1303e0 	mov	x0, x19
    40201bd8:	2a1f03e2 	mov	w2, wzr
    40201bdc:	97ffff33 	bl	402018a8 <read_write_disk>
    40201be0:	91080260 	add	x0, x19, #0x200
    40201be4:	52800021 	mov	w1, #0x1                   	// #1
    40201be8:	2a1f03e2 	mov	w2, wzr
    40201bec:	97ffff2f 	bl	402018a8 <read_write_disk>
    40201bf0:	91100260 	add	x0, x19, #0x400
    40201bf4:	52800041 	mov	w1, #0x2                   	// #2
    40201bf8:	2a1f03e2 	mov	w2, wzr
    40201bfc:	97ffff2b 	bl	402018a8 <read_write_disk>
    40201c00:	91180260 	add	x0, x19, #0x600
    40201c04:	52800061 	mov	w1, #0x3                   	// #3
    40201c08:	2a1f03e2 	mov	w2, wzr
    40201c0c:	97ffff27 	bl	402018a8 <read_write_disk>
    40201c10:	91200260 	add	x0, x19, #0x800
    40201c14:	52800081 	mov	w1, #0x4                   	// #4
    40201c18:	2a1f03e2 	mov	w2, wzr
    40201c1c:	97ffff23 	bl	402018a8 <read_write_disk>
    40201c20:	aa1f03f8 	mov	x24, xzr
    40201c24:	2a1f03f9 	mov	w25, wzr
    40201c28:	52808d9a 	mov	w26, #0x46c                 	// #1132
    40201c2c:	d0000014 	adrp	x20, 40203000 <_vector_table+0x800>
    40201c30:	91113a94 	add	x20, x20, #0x44e
    40201c34:	f000811b 	adrp	x27, 41224000 <procs+0xfa60>
    40201c38:	911aa37b 	add	x27, x27, #0x6a8
    40201c3c:	d0000015 	adrp	x21, 40203000 <_vector_table+0x800>
    40201c40:	910096b5 	add	x21, x21, #0x25
    40201c44:	52800028 	mov	w8, #0x1                   	// #1
    40201c48:	14000017 	b	40201ca4 <fs_init+0xf8>
    40201c4c:	2a1f03f7 	mov	w23, wzr
    40201c50:	9b1a6f18 	madd	x24, x24, x26, x27
    40201c54:	52800028 	mov	w8, #0x1                   	// #1
    40201c58:	aa1603e1 	mov	x1, x22
    40201c5c:	91001300 	add	x0, x24, #0x4
    40201c60:	b9000308 	str	w8, [x24]
    40201c64:	9400010b 	bl	40202090 <strcpy>
    40201c68:	9101a300 	add	x0, x24, #0x68
    40201c6c:	910802c1 	add	x1, x22, #0x200
    40201c70:	2a1703e2 	mov	w2, w23
    40201c74:	940000ad 	bl	40201f28 <memcpy>
    40201c78:	91001301 	add	x1, x24, #0x4
    40201c7c:	aa1503e0 	mov	x0, x21
    40201c80:	2a1703e2 	mov	w2, w23
    40201c84:	b9046b17 	str	w23, [x24, #1128]
    40201c88:	94000118 	bl	402020e8 <printf>
    40201c8c:	110ffee9 	add	w9, w23, #0x3ff
    40201c90:	2a1f03e8 	mov	w8, wzr
    40201c94:	52800038 	mov	w24, #0x1                   	// #1
    40201c98:	12175929 	and	w9, w9, #0xfffffe00
    40201c9c:	0b190139 	add	w25, w9, w25
    40201ca0:	36000a3c 	tbz	w28, #0, 40201de4 <fs_init+0x238>
    40201ca4:	8b394276 	add	x22, x19, w25, uxtw
    40201ca8:	394002c9 	ldrb	w9, [x22]
    40201cac:	340009c9 	cbz	w9, 40201de4 <fs_init+0x238>
    40201cb0:	910406c0 	add	x0, x22, #0x101
    40201cb4:	aa1403e1 	mov	x1, x20
    40201cb8:	2a0803fc 	mov	w28, w8
    40201cbc:	940000ff 	bl	402020b8 <strcmp>
    40201cc0:	35000a00 	cbnz	w0, 40201e00 <fs_init+0x254>
    40201cc4:	3941f2c8 	ldrb	w8, [x22, #124]
    40201cc8:	5100e109 	sub	w9, w8, #0x38
    40201ccc:	3100213f 	cmn	w9, #0x8
    40201cd0:	54fffbe3 	b.cc	40201c4c <fs_init+0xa0>  // b.lo, b.ul, b.last
    40201cd4:	3941f6c9 	ldrb	w9, [x22, #125]
    40201cd8:	5100c117 	sub	w23, w8, #0x30
    40201cdc:	5100e12a 	sub	w10, w9, #0x38
    40201ce0:	3100215f 	cmn	w10, #0x8
    40201ce4:	54fffb63 	b.cc	40201c50 <fs_init+0xa4>  // b.lo, b.ul, b.last
    40201ce8:	3941fac8 	ldrb	w8, [x22, #126]
    40201cec:	0b170d29 	add	w9, w9, w23, lsl #3
    40201cf0:	5100e10a 	sub	w10, w8, #0x38
    40201cf4:	5100c137 	sub	w23, w9, #0x30
    40201cf8:	3100215f 	cmn	w10, #0x8
    40201cfc:	54fffaa3 	b.cc	40201c50 <fs_init+0xa4>  // b.lo, b.ul, b.last
    40201d00:	3941fec9 	ldrb	w9, [x22, #127]
    40201d04:	0b170d08 	add	w8, w8, w23, lsl #3
    40201d08:	5100e12a 	sub	w10, w9, #0x38
    40201d0c:	5100c117 	sub	w23, w8, #0x30
    40201d10:	3100215f 	cmn	w10, #0x8
    40201d14:	54fff9e3 	b.cc	40201c50 <fs_init+0xa4>  // b.lo, b.ul, b.last
    40201d18:	394202c8 	ldrb	w8, [x22, #128]
    40201d1c:	0b170d29 	add	w9, w9, w23, lsl #3
    40201d20:	5100e10a 	sub	w10, w8, #0x38
    40201d24:	5100c137 	sub	w23, w9, #0x30
    40201d28:	3100215f 	cmn	w10, #0x8
    40201d2c:	54fff923 	b.cc	40201c50 <fs_init+0xa4>  // b.lo, b.ul, b.last
    40201d30:	394206c9 	ldrb	w9, [x22, #129]
    40201d34:	0b170d08 	add	w8, w8, w23, lsl #3
    40201d38:	5100e12a 	sub	w10, w9, #0x38
    40201d3c:	5100c117 	sub	w23, w8, #0x30
    40201d40:	3100215f 	cmn	w10, #0x8
    40201d44:	54fff863 	b.cc	40201c50 <fs_init+0xa4>  // b.lo, b.ul, b.last
    40201d48:	39420ac8 	ldrb	w8, [x22, #130]
    40201d4c:	0b170d29 	add	w9, w9, w23, lsl #3
    40201d50:	5100e10a 	sub	w10, w8, #0x38
    40201d54:	5100c137 	sub	w23, w9, #0x30
    40201d58:	3100215f 	cmn	w10, #0x8
    40201d5c:	54fff7a3 	b.cc	40201c50 <fs_init+0xa4>  // b.lo, b.ul, b.last
    40201d60:	39420ec9 	ldrb	w9, [x22, #131]
    40201d64:	0b170d08 	add	w8, w8, w23, lsl #3
    40201d68:	5100e12a 	sub	w10, w9, #0x38
    40201d6c:	5100c117 	sub	w23, w8, #0x30
    40201d70:	3100215f 	cmn	w10, #0x8
    40201d74:	54fff6e3 	b.cc	40201c50 <fs_init+0xa4>  // b.lo, b.ul, b.last
    40201d78:	394212c8 	ldrb	w8, [x22, #132]
    40201d7c:	0b170d29 	add	w9, w9, w23, lsl #3
    40201d80:	5100e10a 	sub	w10, w8, #0x38
    40201d84:	5100c137 	sub	w23, w9, #0x30
    40201d88:	3100215f 	cmn	w10, #0x8
    40201d8c:	54fff623 	b.cc	40201c50 <fs_init+0xa4>  // b.lo, b.ul, b.last
    40201d90:	394216c9 	ldrb	w9, [x22, #133]
    40201d94:	0b170d08 	add	w8, w8, w23, lsl #3
    40201d98:	5100e12a 	sub	w10, w9, #0x38
    40201d9c:	5100c117 	sub	w23, w8, #0x30
    40201da0:	3100215f 	cmn	w10, #0x8
    40201da4:	54fff563 	b.cc	40201c50 <fs_init+0xa4>  // b.lo, b.ul, b.last
    40201da8:	39421ac8 	ldrb	w8, [x22, #134]
    40201dac:	0b170d29 	add	w9, w9, w23, lsl #3
    40201db0:	5100e10a 	sub	w10, w8, #0x38
    40201db4:	5100c137 	sub	w23, w9, #0x30
    40201db8:	3100215f 	cmn	w10, #0x8
    40201dbc:	54fff4a3 	b.cc	40201c50 <fs_init+0xa4>  // b.lo, b.ul, b.last
    40201dc0:	39421ec9 	ldrb	w9, [x22, #135]
    40201dc4:	0b170d08 	add	w8, w8, w23, lsl #3
    40201dc8:	5100e12a 	sub	w10, w9, #0x38
    40201dcc:	5100c117 	sub	w23, w8, #0x30
    40201dd0:	3100215f 	cmn	w10, #0x8
    40201dd4:	54fff3e3 	b.cc	40201c50 <fs_init+0xa4>  // b.lo, b.ul, b.last
    40201dd8:	0b170d28 	add	w8, w9, w23, lsl #3
    40201ddc:	5100c117 	sub	w23, w8, #0x30
    40201de0:	17ffff9c 	b	40201c50 <fs_init+0xa4>
    40201de4:	a9454ff4 	ldp	x20, x19, [sp, #80]
    40201de8:	a94457f6 	ldp	x22, x21, [sp, #64]
    40201dec:	a9435ff8 	ldp	x24, x23, [sp, #48]
    40201df0:	a94267fa 	ldp	x26, x25, [sp, #32]
    40201df4:	a9416ffc 	ldp	x28, x27, [sp, #16]
    40201df8:	a8c67bfd 	ldp	x29, x30, [sp], #96
    40201dfc:	d65f03c0 	ret
    40201e00:	d0000000 	adrp	x0, 40203000 <_vector_table+0x800>
    40201e04:	9106dc00 	add	x0, x0, #0x1b7
    40201e08:	b0000001 	adrp	x1, 40202000 <memset+0x10>
    40201e0c:	913ec021 	add	x1, x1, #0xfb0
    40201e10:	910406c3 	add	x3, x22, #0x101
    40201e14:	52806d62 	mov	w2, #0x36b                 	// #875
    40201e18:	940000b4 	bl	402020e8 <printf>
    40201e1c:	14000000 	b	40201e1c <fs_init+0x270>

0000000040201e20 <kernel_main>:
    40201e20:	a9bf7bfd 	stp	x29, x30, [sp, #-16]!
    40201e24:	910003fd 	mov	x29, sp
    40201e28:	f0008080 	adrp	x0, 41214000 <_binary_shell_bin_start+0x1010a78>
    40201e2c:	91164000 	add	x0, x0, #0x590
    40201e30:	90008128 	adrp	x8, 41225000 <disk+0x60>
    40201e34:	9126c108 	add	x8, x8, #0x9b0
    40201e38:	2a1f03e1 	mov	w1, wzr
    40201e3c:	4b000102 	sub	w2, w8, w0
    40201e40:	9400006c 	bl	40201ff0 <memset>
    40201e44:	d5384248 	mrs	x8, currentel
    40201e48:	d342fd01 	lsr	x1, x8, #2
    40201e4c:	f100043f 	cmp	x1, #0x1
    40201e50:	54000201 	b.ne	40201e90 <kernel_main+0x70>  // b.any
    40201e54:	5286a208 	mov	w8, #0x3510                	// #13584
    40201e58:	52801fe9 	mov	w9, #0xff                  	// #255
    40201e5c:	d518a209 	msr	mair_el1, x9
    40201e60:	d5182048 	msr	tcr_el1, x8
    40201e64:	d5033fdf 	isb
    40201e68:	97fff887 	bl	40200084 <setup_vect>
    40201e6c:	d5381008 	mrs	x8, sctlr_el1
    40201e70:	528201a9 	mov	w9, #0x100d                	// #4109
    40201e74:	d0000000 	adrp	x0, 40203000 <_vector_table+0x800>
    40201e78:	91087800 	add	x0, x0, #0x21e
    40201e7c:	aa090108 	orr	x8, x8, x9
    40201e80:	d5181008 	msr	sctlr_el1, x8
    40201e84:	d5033fdf 	isb
    40201e88:	94000098 	bl	402020e8 <printf>
    40201e8c:	14000004 	b	40201e9c <kernel_main+0x7c>
    40201e90:	d503201f 	nop
    40201e94:	30009f60 	adr	x0, 40203281 <_vector_table+0xa81>
    40201e98:	94000094 	bl	402020e8 <printf>
    40201e9c:	aa1f03e0 	mov	x0, xzr
    40201ea0:	2a1f03e1 	mov	w1, wzr
    40201ea4:	97fffa27 	bl	40200740 <create_process>
    40201ea8:	f0008088 	adrp	x8, 41214000 <_binary_shell_bin_start+0x1010a78>
    40201eac:	b900001f 	str	wzr, [x0]
    40201eb0:	f902c900 	str	x0, [x8, #1424]
    40201eb4:	f0008108 	adrp	x8, 41224000 <procs+0xfa60>
    40201eb8:	f9035100 	str	x0, [x8, #1696]
    40201ebc:	97fffe09 	bl	402016e0 <virtio_blk_init>
    40201ec0:	97ffff3b 	bl	40201bac <fs_init>
    40201ec4:	d0000000 	adrp	x0, 40203000 <_vector_table+0x800>
    40201ec8:	910b4400 	add	x0, x0, #0x2d1
    40201ecc:	94000087 	bl	402020e8 <printf>
    40201ed0:	90e07081 	adrp	x1, 1011000 <_binary_shell_bin_size>
    40201ed4:	91000021 	add	x1, x1, #0x0
    40201ed8:	d503201f 	nop
    40201edc:	1000b560 	adr	x0, 40203588 <_binary_shell_bin_start>
    40201ee0:	97fffa18 	bl	40200740 <create_process>
    40201ee4:	d0000000 	adrp	x0, 40203000 <_vector_table+0x800>
    40201ee8:	91003c00 	add	x0, x0, #0xf
    40201eec:	9400007f 	bl	402020e8 <printf>
    40201ef0:	d0000000 	adrp	x0, 40203000 <_vector_table+0x800>
    40201ef4:	910d1400 	add	x0, x0, #0x345
    40201ef8:	9400007c 	bl	402020e8 <printf>
    40201efc:	97fff954 	bl	4020044c <yield>
    40201f00:	d0000000 	adrp	x0, 40203000 <_vector_table+0x800>
    40201f04:	91046c00 	add	x0, x0, #0x11b
    40201f08:	94000078 	bl	402020e8 <printf>
    40201f0c:	d0000000 	adrp	x0, 40203000 <_vector_table+0x800>
    40201f10:	9100e000 	add	x0, x0, #0x38
    40201f14:	b0000001 	adrp	x1, 40202000 <memset+0x10>
    40201f18:	913ec021 	add	x1, x1, #0xfb0
    40201f1c:	52807c42 	mov	w2, #0x3e2                 	// #994
    40201f20:	94000072 	bl	402020e8 <printf>
    40201f24:	14000000 	b	40201f24 <kernel_main+0x104>

0000000040201f28 <memcpy>:
    40201f28:	34000622 	cbz	w2, 40201fec <memcpy+0xc4>
    40201f2c:	7100205f 	cmp	w2, #0x8
    40201f30:	54000123 	b.cc	40201f54 <memcpy+0x2c>  // b.lo, b.ul, b.last
    40201f34:	cb010008 	sub	x8, x0, x1
    40201f38:	f100811f 	cmp	x8, #0x20
    40201f3c:	540000c3 	b.cc	40201f54 <memcpy+0x2c>  // b.lo, b.ul, b.last
    40201f40:	7100805f 	cmp	w2, #0x20
    40201f44:	2a0203e8 	mov	w8, w2
    40201f48:	540000c2 	b.cs	40201f60 <memcpy+0x38>  // b.hs, b.nlast
    40201f4c:	aa1f03eb 	mov	x11, xzr
    40201f50:	14000012 	b	40201f98 <memcpy+0x70>
    40201f54:	aa0103e9 	mov	x9, x1
    40201f58:	aa0003ea 	mov	x10, x0
    40201f5c:	14000020 	b	40201fdc <memcpy+0xb4>
    40201f60:	927b690b 	and	x11, x8, #0xffffffe0
    40201f64:	91004009 	add	x9, x0, #0x10
    40201f68:	9100402a 	add	x10, x1, #0x10
    40201f6c:	aa0b03ec 	mov	x12, x11
    40201f70:	ad7f8540 	ldp	q0, q1, [x10, #-16]
    40201f74:	f100818c 	subs	x12, x12, #0x20
    40201f78:	9100814a 	add	x10, x10, #0x20
    40201f7c:	ad3f8520 	stp	q0, q1, [x9, #-16]
    40201f80:	91008129 	add	x9, x9, #0x20
    40201f84:	54ffff61 	b.ne	40201f70 <memcpy+0x48>  // b.any
    40201f88:	eb08017f 	cmp	x11, x8
    40201f8c:	54000300 	b.eq	40201fec <memcpy+0xc4>  // b.none
    40201f90:	f27d051f 	tst	x8, #0x18
    40201f94:	540001e0 	b.eq	40201fd0 <memcpy+0xa8>  // b.none
    40201f98:	927d710c 	and	x12, x8, #0xfffffff8
    40201f9c:	8b0b000d 	add	x13, x0, x11
    40201fa0:	8b0b002e 	add	x14, x1, x11
    40201fa4:	8b0c0029 	add	x9, x1, x12
    40201fa8:	8b0c000a 	add	x10, x0, x12
    40201fac:	4b0c0042 	sub	w2, w2, w12
    40201fb0:	cb0c016b 	sub	x11, x11, x12
    40201fb4:	fc4085c0 	ldr	d0, [x14], #8
    40201fb8:	b100216b 	adds	x11, x11, #0x8
    40201fbc:	fc0085a0 	str	d0, [x13], #8
    40201fc0:	54ffffa1 	b.ne	40201fb4 <memcpy+0x8c>  // b.any
    40201fc4:	eb08019f 	cmp	x12, x8
    40201fc8:	540000a1 	b.ne	40201fdc <memcpy+0xb4>  // b.any
    40201fcc:	14000008 	b	40201fec <memcpy+0xc4>
    40201fd0:	4b0b0042 	sub	w2, w2, w11
    40201fd4:	8b0b000a 	add	x10, x0, x11
    40201fd8:	8b0b0029 	add	x9, x1, x11
    40201fdc:	38401528 	ldrb	w8, [x9], #1
    40201fe0:	71000442 	subs	w2, w2, #0x1
    40201fe4:	38001548 	strb	w8, [x10], #1
    40201fe8:	54ffffa1 	b.ne	40201fdc <memcpy+0xb4>  // b.any
    40201fec:	d65f03c0 	ret

0000000040201ff0 <memset>:
    40201ff0:	340004e2 	cbz	w2, 4020208c <memset+0x9c>
    40201ff4:	7100205f 	cmp	w2, #0x8
    40201ff8:	54000062 	b.cs	40202004 <memset+0x14>  // b.hs, b.nlast
    40201ffc:	aa0003e9 	mov	x9, x0
    40202000:	14000020 	b	40202080 <memset+0x90>
    40202004:	7100805f 	cmp	w2, #0x20
    40202008:	2a0203e8 	mov	w8, w2
    4020200c:	54000062 	b.cs	40202018 <memset+0x28>  // b.hs, b.nlast
    40202010:	aa1f03ea 	mov	x10, xzr
    40202014:	1400000d 	b	40202048 <memset+0x58>
    40202018:	4e010c20 	dup	v0.16b, w1
    4020201c:	927b690a 	and	x10, x8, #0xffffffe0
    40202020:	91004009 	add	x9, x0, #0x10
    40202024:	aa0a03eb 	mov	x11, x10
    40202028:	ad3f8120 	stp	q0, q0, [x9, #-16]
    4020202c:	f100816b 	subs	x11, x11, #0x20
    40202030:	91008129 	add	x9, x9, #0x20
    40202034:	54ffffa1 	b.ne	40202028 <memset+0x38>  // b.any
    40202038:	eb08015f 	cmp	x10, x8
    4020203c:	54000280 	b.eq	4020208c <memset+0x9c>  // b.none
    40202040:	f27d051f 	tst	x8, #0x18
    40202044:	540001a0 	b.eq	40202078 <memset+0x88>  // b.none
    40202048:	0e010c20 	dup	v0.8b, w1
    4020204c:	927d710b 	and	x11, x8, #0xfffffff8
    40202050:	8b0a000c 	add	x12, x0, x10
    40202054:	8b0b0009 	add	x9, x0, x11
    40202058:	4b0b0042 	sub	w2, w2, w11
    4020205c:	cb0b014a 	sub	x10, x10, x11
    40202060:	b100214a 	adds	x10, x10, #0x8
    40202064:	fc008580 	str	d0, [x12], #8
    40202068:	54ffffc1 	b.ne	40202060 <memset+0x70>  // b.any
    4020206c:	eb08017f 	cmp	x11, x8
    40202070:	54000081 	b.ne	40202080 <memset+0x90>  // b.any
    40202074:	14000006 	b	4020208c <memset+0x9c>
    40202078:	4b0a0042 	sub	w2, w2, w10
    4020207c:	8b0a0009 	add	x9, x0, x10
    40202080:	71000442 	subs	w2, w2, #0x1
    40202084:	38001521 	strb	w1, [x9], #1
    40202088:	54ffffc1 	b.ne	40202080 <memset+0x90>  // b.any
    4020208c:	d65f03c0 	ret

0000000040202090 <strcpy>:
    40202090:	39400028 	ldrb	w8, [x1]
    40202094:	aa0003e9 	mov	x9, x0
    40202098:	340000c8 	cbz	w8, 402020b0 <strcpy+0x20>
    4020209c:	9100042a 	add	x10, x1, #0x1
    402020a0:	aa0003e9 	mov	x9, x0
    402020a4:	38001528 	strb	w8, [x9], #1
    402020a8:	38401548 	ldrb	w8, [x10], #1
    402020ac:	35ffffc8 	cbnz	w8, 402020a4 <strcpy+0x14>
    402020b0:	3900013f 	strb	wzr, [x9]
    402020b4:	d65f03c0 	ret

00000000402020b8 <strcmp>:
    402020b8:	39400008 	ldrb	w8, [x0]
    402020bc:	34000108 	cbz	w8, 402020dc <strcmp+0x24>
    402020c0:	91000409 	add	x9, x0, #0x1
    402020c4:	3940002a 	ldrb	w10, [x1]
    402020c8:	6b0a011f 	cmp	w8, w10
    402020cc:	54000081 	b.ne	402020dc <strcmp+0x24>  // b.any
    402020d0:	38401528 	ldrb	w8, [x9], #1
    402020d4:	91000421 	add	x1, x1, #0x1
    402020d8:	35ffff68 	cbnz	w8, 402020c4 <strcmp+0xc>
    402020dc:	39400029 	ldrb	w9, [x1]
    402020e0:	4b090100 	sub	w0, w8, w9
    402020e4:	d65f03c0 	ret

00000000402020e8 <printf>:
    402020e8:	d104c3ff 	sub	sp, sp, #0x130
    402020ec:	a90e7bfd 	stp	x29, x30, [sp, #224]
    402020f0:	f9007bfc 	str	x28, [sp, #240]
    402020f4:	a9105ff8 	stp	x24, x23, [sp, #256]
    402020f8:	a91157f6 	stp	x22, x21, [sp, #272]
    402020fc:	a9124ff4 	stp	x20, x19, [sp, #288]
    40202100:	910383fd 	add	x29, sp, #0xe0
    40202104:	928006e8 	mov	x8, #0xffffffffffffffc8    	// #-56
    40202108:	910003e9 	mov	x9, sp
    4020210c:	d10163aa 	sub	x10, x29, #0x58
    40202110:	f2dff008 	movk	x8, #0xff80, lsl #32
    40202114:	91020129 	add	x9, x9, #0x80
    40202118:	529999b4 	mov	w20, #0xcccd                	// #52429
    4020211c:	aa0003f3 	mov	x19, x0
    40202120:	a93f23a9 	stp	x9, x8, [x29, #-16]
    40202124:	9100e148 	add	x8, x10, #0x38
    40202128:	910143a9 	add	x9, x29, #0x50
    4020212c:	72b99994 	movk	w20, #0xcccc, lsl #16
    40202130:	d503201f 	nop
    40202134:	50009a75 	adr	x21, 40203482 <_vector_table+0xc82>
    40202138:	a93a8ba1 	stp	x1, x2, [x29, #-88]
    4020213c:	a93b93a3 	stp	x3, x4, [x29, #-72]
    40202140:	a93c9ba5 	stp	x5, x6, [x29, #-56]
    40202144:	f81d83a7 	stur	x7, [x29, #-40]
    40202148:	ad0007e0 	stp	q0, q1, [sp]
    4020214c:	ad010fe2 	stp	q2, q3, [sp, #32]
    40202150:	ad0217e4 	stp	q4, q5, [sp, #64]
    40202154:	ad031fe6 	stp	q6, q7, [sp, #96]
    40202158:	a93e23a9 	stp	x9, x8, [x29, #-32]
    4020215c:	14000003 	b	40202168 <printf+0x80>
    40202160:	34000d40 	cbz	w0, 40202308 <printf+0x220>
    40202164:	91000673 	add	x19, x19, #0x1
    40202168:	39400260 	ldrb	w0, [x19]
    4020216c:	7100941f 	cmp	w0, #0x25
    40202170:	540000a0 	b.eq	40202184 <printf+0x9c>  // b.none
    40202174:	34000ce0 	cbz	w0, 40202310 <printf+0x228>
    40202178:	97fff7af 	bl	40200034 <putchar>
    4020217c:	91000673 	add	x19, x19, #0x1
    40202180:	17fffffa 	b	40202168 <printf+0x80>
    40202184:	38401e60 	ldrb	w0, [x19, #1]!
    40202188:	7101c81f 	cmp	w0, #0x72
    4020218c:	5400020c 	b.gt	402021cc <printf+0xe4>
    40202190:	7100941f 	cmp	w0, #0x25
    40202194:	54ffff20 	b.eq	40202178 <printf+0x90>  // b.none
    40202198:	7101901f 	cmp	w0, #0x64
    4020219c:	54fffe21 	b.ne	40202160 <printf+0x78>  // b.any
    402021a0:	b89f83a8 	ldursw	x8, [x29, #-8]
    402021a4:	36f80408 	tbz	w8, #31, 40202224 <printf+0x13c>
    402021a8:	11002109 	add	w9, w8, #0x8
    402021ac:	3100211f 	cmn	w8, #0x8
    402021b0:	b81f83a9 	stur	w9, [x29, #-8]
    402021b4:	54000388 	b.hi	40202224 <printf+0x13c>  // b.pmore
    402021b8:	f85e83a9 	ldur	x9, [x29, #-24]
    402021bc:	8b080128 	add	x8, x9, x8
    402021c0:	b9400116 	ldr	w22, [x8]
    402021c4:	36f80416 	tbz	w22, #31, 40202244 <printf+0x15c>
    402021c8:	1400001c 	b	40202238 <printf+0x150>
    402021cc:	7101cc1f 	cmp	w0, #0x73
    402021d0:	54000180 	b.eq	40202200 <printf+0x118>  // b.none
    402021d4:	7101e01f 	cmp	w0, #0x78
    402021d8:	54fffc61 	b.ne	40202164 <printf+0x7c>  // b.any
    402021dc:	b89f83a8 	ldursw	x8, [x29, #-8]
    402021e0:	36f806c8 	tbz	w8, #31, 402022b8 <printf+0x1d0>
    402021e4:	11002109 	add	w9, w8, #0x8
    402021e8:	3100211f 	cmn	w8, #0x8
    402021ec:	b81f83a9 	stur	w9, [x29, #-8]
    402021f0:	54000648 	b.hi	402022b8 <printf+0x1d0>  // b.pmore
    402021f4:	f85e83a9 	ldur	x9, [x29, #-24]
    402021f8:	8b080129 	add	x9, x9, x8
    402021fc:	14000032 	b	402022c4 <printf+0x1dc>
    40202200:	b89f83a8 	ldursw	x8, [x29, #-8]
    40202204:	36f80448 	tbz	w8, #31, 4020228c <printf+0x1a4>
    40202208:	11002109 	add	w9, w8, #0x8
    4020220c:	3100211f 	cmn	w8, #0x8
    40202210:	b81f83a9 	stur	w9, [x29, #-8]
    40202214:	540003c8 	b.hi	4020228c <printf+0x1a4>  // b.pmore
    40202218:	f85e83a9 	ldur	x9, [x29, #-24]
    4020221c:	8b080128 	add	x8, x9, x8
    40202220:	1400001e 	b	40202298 <printf+0x1b0>
    40202224:	f85e03a8 	ldur	x8, [x29, #-32]
    40202228:	91002109 	add	x9, x8, #0x8
    4020222c:	f81e03a9 	stur	x9, [x29, #-32]
    40202230:	b9400116 	ldr	w22, [x8]
    40202234:	36f80096 	tbz	w22, #31, 40202244 <printf+0x15c>
    40202238:	528005a0 	mov	w0, #0x2d                  	// #45
    4020223c:	97fff77e 	bl	40200034 <putchar>
    40202240:	4b1603f6 	neg	w22, w22
    40202244:	52800037 	mov	w23, #0x1                   	// #1
    40202248:	71002adf 	cmp	w22, #0xa
    4020224c:	540000c3 	b.cc	40202264 <printf+0x17c>  // b.lo, b.ul, b.last
    40202250:	0b170ae8 	add	w8, w23, w23, lsl #2
    40202254:	531f7917 	lsl	w23, w8, #1
    40202258:	1ad70ac8 	udiv	w8, w22, w23
    4020225c:	7100251f 	cmp	w8, #0x9
    40202260:	54ffff88 	b.hi	40202250 <printf+0x168>  // b.pmore
    40202264:	1ad70ad8 	udiv	w24, w22, w23
    40202268:	1100c300 	add	w0, w24, #0x30
    4020226c:	97fff772 	bl	40200034 <putchar>
    40202270:	9bb47ee8 	umull	x8, w23, w20
    40202274:	71002aff 	cmp	w23, #0xa
    40202278:	1b17db16 	msub	w22, w24, w23, w22
    4020227c:	d363fd08 	lsr	x8, x8, #35
    40202280:	2a0803f7 	mov	w23, w8
    40202284:	54ffff02 	b.cs	40202264 <printf+0x17c>  // b.hs, b.nlast
    40202288:	17ffffb7 	b	40202164 <printf+0x7c>
    4020228c:	f85e03a8 	ldur	x8, [x29, #-32]
    40202290:	91002109 	add	x9, x8, #0x8
    40202294:	f81e03a9 	stur	x9, [x29, #-32]
    40202298:	f9400108 	ldr	x8, [x8]
    4020229c:	39400100 	ldrb	w0, [x8]
    402022a0:	34fff620 	cbz	w0, 40202164 <printf+0x7c>
    402022a4:	91000516 	add	x22, x8, #0x1
    402022a8:	97fff763 	bl	40200034 <putchar>
    402022ac:	384016c0 	ldrb	w0, [x22], #1
    402022b0:	35ffffc0 	cbnz	w0, 402022a8 <printf+0x1c0>
    402022b4:	17ffffac 	b	40202164 <printf+0x7c>
    402022b8:	f85e03a9 	ldur	x9, [x29, #-32]
    402022bc:	91002128 	add	x8, x9, #0x8
    402022c0:	f81e03a8 	stur	x8, [x29, #-32]
    402022c4:	f9400136 	ldr	x22, [x9]
    402022c8:	2a1f03e8 	mov	w8, wzr
    402022cc:	52800797 	mov	w23, #0x3c                  	// #60
    402022d0:	14000008 	b	402022f0 <printf+0x208>
    402022d4:	92400d28 	and	x8, x9, #0xf
    402022d8:	38686aa0 	ldrb	w0, [x21, x8]
    402022dc:	97fff756 	bl	40200034 <putchar>
    402022e0:	52800028 	mov	w8, #0x1                   	// #1
    402022e4:	d10012f7 	sub	x23, x23, #0x4
    402022e8:	b10012ff 	cmn	x23, #0x4
    402022ec:	54fff3c0 	b.eq	40202164 <printf+0x7c>  // b.none
    402022f0:	9ad726c9 	lsr	x9, x22, x23
    402022f4:	b4ffff17 	cbz	x23, 402022d4 <printf+0x1ec>
    402022f8:	12000d2a 	and	w10, w9, #0xf
    402022fc:	2a080148 	orr	w8, w10, w8
    40202300:	34ffff28 	cbz	w8, 402022e4 <printf+0x1fc>
    40202304:	17fffff4 	b	402022d4 <printf+0x1ec>
    40202308:	528004a0 	mov	w0, #0x25                  	// #37
    4020230c:	97fff74a 	bl	40200034 <putchar>
    40202310:	a9524ff4 	ldp	x20, x19, [sp, #288]
    40202314:	f9407bfc 	ldr	x28, [sp, #240]
    40202318:	a95157f6 	ldp	x22, x21, [sp, #272]
    4020231c:	a9505ff8 	ldp	x24, x23, [sp, #256]
    40202320:	a94e7bfd 	ldp	x29, x30, [sp, #224]
    40202324:	9104c3ff 	add	sp, sp, #0x130
    40202328:	d65f03c0 	ret

000000004020232c <sync_el1_handler>:
    4020232c:	d10443ff 	sub	sp, sp, #0x110
    40202330:	a90007e0 	stp	x0, x1, [sp]
    40202334:	a9010fe2 	stp	x2, x3, [sp, #16]
    40202338:	a90217e4 	stp	x4, x5, [sp, #32]
    4020233c:	a9031fe6 	stp	x6, x7, [sp, #48]
    40202340:	a90427e8 	stp	x8, x9, [sp, #64]
    40202344:	a9052fea 	stp	x10, x11, [sp, #80]
    40202348:	a90637ec 	stp	x12, x13, [sp, #96]
    4020234c:	a9073fee 	stp	x14, x15, [sp, #112]
    40202350:	a90847f0 	stp	x16, x17, [sp, #128]
    40202354:	a9094ff2 	stp	x18, x19, [sp, #144]
    40202358:	a90a57f4 	stp	x20, x21, [sp, #160]
    4020235c:	a90b5ff6 	stp	x22, x23, [sp, #176]
    40202360:	a90c67f8 	stp	x24, x25, [sp, #192]
    40202364:	a90d6ffa 	stp	x26, x27, [sp, #208]
    40202368:	a90e77fc 	stp	x28, x29, [sp, #224]
    4020236c:	f9007bfe 	str	x30, [sp, #240]
    40202370:	d5384015 	mrs	x21, spsr_el1
    40202374:	d5384036 	mrs	x22, elr_el1
    40202378:	f9007ff5 	str	x21, [sp, #248]
    4020237c:	f90083f6 	str	x22, [sp, #256]
    40202380:	910003e0 	mov	x0, sp
    40202384:	97fffc45 	bl	40201498 <handle_trap>
    40202388:	f94083f5 	ldr	x21, [sp, #256]
    4020238c:	f9407ff6 	ldr	x22, [sp, #248]
    40202390:	d5184035 	msr	elr_el1, x21
    40202394:	d5184016 	msr	spsr_el1, x22
    40202398:	a94007e0 	ldp	x0, x1, [sp]
    4020239c:	a9410fe2 	ldp	x2, x3, [sp, #16]
    402023a0:	a94217e4 	ldp	x4, x5, [sp, #32]
    402023a4:	a9431fe6 	ldp	x6, x7, [sp, #48]
    402023a8:	a94427e8 	ldp	x8, x9, [sp, #64]
    402023ac:	a9452fea 	ldp	x10, x11, [sp, #80]
    402023b0:	a94637ec 	ldp	x12, x13, [sp, #96]
    402023b4:	a9473fee 	ldp	x14, x15, [sp, #112]
    402023b8:	a94847f0 	ldp	x16, x17, [sp, #128]
    402023bc:	a9494ff2 	ldp	x18, x19, [sp, #144]
    402023c0:	a94a57f4 	ldp	x20, x21, [sp, #160]
    402023c4:	a94b5ff6 	ldp	x22, x23, [sp, #176]
    402023c8:	a94c67f8 	ldp	x24, x25, [sp, #192]
    402023cc:	a94d6ffa 	ldp	x26, x27, [sp, #208]
    402023d0:	a94e77fc 	ldp	x28, x29, [sp, #224]
    402023d4:	f9407bfe 	ldr	x30, [sp, #240]
    402023d8:	910443ff 	add	sp, sp, #0x110
    402023dc:	d69f03e0 	eret

00000000402023e0 <irq_el1_handler>:
    402023e0:	94000034 	bl	402024b0 <handle_irq_el1>
    402023e4:	14000000 	b	402023e4 <irq_el1_handler+0x4>

00000000402023e8 <fiq_el1_handler>:
    402023e8:	94000033 	bl	402024b4 <handle_fiq_el1>
    402023ec:	14000000 	b	402023ec <fiq_el1_handler+0x4>

00000000402023f0 <serror_el1_handler>:
    402023f0:	94000032 	bl	402024b8 <handle_serror_el1>
    402023f4:	14000000 	b	402023f4 <serror_el1_handler+0x4>

00000000402023f8 <sync_el2_handler>:
    402023f8:	94000031 	bl	402024bc <handle_sync_el2>
    402023fc:	14000000 	b	402023fc <sync_el2_handler+0x4>

0000000040202400 <irq_el2_handler>:
    40202400:	94000030 	bl	402024c0 <handle_irq_el2>
    40202404:	14000000 	b	40202404 <irq_el2_handler+0x4>

0000000040202408 <fiq_el2_handler>:
    40202408:	9400002f 	bl	402024c4 <handle_fiq_el2>
    4020240c:	14000000 	b	4020240c <fiq_el2_handler+0x4>

0000000040202410 <serror_el2_handler>:
    40202410:	9400002e 	bl	402024c8 <handle_serror_el2>
    40202414:	14000000 	b	40202414 <serror_el2_handler+0x4>

0000000040202418 <handle_data_abort>:
    40202418:	a9bd7bfd 	stp	x29, x30, [sp, #-48]!
    4020241c:	f9000bf5 	str	x21, [sp, #16]
    40202420:	a9024ff4 	stp	x20, x19, [sp, #32]
    40202424:	910003fd 	mov	x29, sp
    40202428:	aa0003f3 	mov	x19, x0
    4020242c:	d35a7c14 	ubfx	x20, x0, #26, #6
    40202430:	d503201f 	nop
    40202434:	10007be0 	adr	x0, 402033b0 <_vector_table+0xbb0>
    40202438:	aa0103f5 	mov	x21, x1
    4020243c:	97ffff2b 	bl	402020e8 <printf>
    40202440:	b0000000 	adrp	x0, 40203000 <_vector_table+0x800>
    40202444:	91115000 	add	x0, x0, #0x454
    40202448:	aa1303e1 	mov	x1, x19
    4020244c:	97ffff27 	bl	402020e8 <printf>
    40202450:	b0000000 	adrp	x0, 40203000 <_vector_table+0x800>
    40202454:	91124c00 	add	x0, x0, #0x493
    40202458:	aa1503e1 	mov	x1, x21
    4020245c:	97ffff23 	bl	402020e8 <printf>
    40202460:	b0000000 	adrp	x0, 40203000 <_vector_table+0x800>
    40202464:	91034400 	add	x0, x0, #0xd1
    40202468:	aa1403e1 	mov	x1, x20
    4020246c:	97ffff1f 	bl	402020e8 <printf>
    40202470:	b0000000 	adrp	x0, 40203000 <_vector_table+0x800>
    40202474:	91146400 	add	x0, x0, #0x519
    40202478:	92401661 	and	x1, x19, #0x3f
    4020247c:	97ffff1b 	bl	402020e8 <printf>
    40202480:	b0000000 	adrp	x0, 40203000 <_vector_table+0x800>
    40202484:	910e9400 	add	x0, x0, #0x3a5
    40202488:	92406261 	and	x1, x19, #0x1ffffff
    4020248c:	97ffff17 	bl	402020e8 <printf>
    40202490:	b0000000 	adrp	x0, 40203000 <_vector_table+0x800>
    40202494:	91079400 	add	x0, x0, #0x1e5
    40202498:	b0000001 	adrp	x1, 40203000 <_vector_table+0x800>
    4020249c:	91128821 	add	x1, x1, #0x4a2
    402024a0:	528002a2 	mov	w2, #0x15                  	// #21
    402024a4:	97ffff11 	bl	402020e8 <printf>
    402024a8:	14000000 	b	402024a8 <handle_data_abort+0x90>

00000000402024ac <handle_sync_el1>:
    402024ac:	14000000 	b	402024ac <handle_sync_el1>

00000000402024b0 <handle_irq_el1>:
    402024b0:	14000000 	b	402024b0 <handle_irq_el1>

00000000402024b4 <handle_fiq_el1>:
    402024b4:	14000000 	b	402024b4 <handle_fiq_el1>

00000000402024b8 <handle_serror_el1>:
    402024b8:	14000000 	b	402024b8 <handle_serror_el1>

00000000402024bc <handle_sync_el2>:
    402024bc:	14000000 	b	402024bc <handle_sync_el2>

00000000402024c0 <handle_irq_el2>:
    402024c0:	14000000 	b	402024c0 <handle_irq_el2>

00000000402024c4 <handle_fiq_el2>:
    402024c4:	14000000 	b	402024c4 <handle_fiq_el2>

00000000402024c8 <handle_serror_el2>:
    402024c8:	14000000 	b	402024c8 <handle_serror_el2>

Disassembly of section .vectors:

0000000040202800 <_vector_table>:
    40202800:	17fffecb 	b	4020232c <sync_el1_handler>
    40202804:	d503201f 	nop
    40202808:	d503201f 	nop
    4020280c:	d503201f 	nop
    40202810:	d503201f 	nop
    40202814:	d503201f 	nop
    40202818:	d503201f 	nop
    4020281c:	d503201f 	nop
    40202820:	d503201f 	nop
    40202824:	d503201f 	nop
    40202828:	d503201f 	nop
    4020282c:	d503201f 	nop
    40202830:	d503201f 	nop
    40202834:	d503201f 	nop
    40202838:	d503201f 	nop
    4020283c:	d503201f 	nop
    40202840:	d503201f 	nop
    40202844:	d503201f 	nop
    40202848:	d503201f 	nop
    4020284c:	d503201f 	nop
    40202850:	d503201f 	nop
    40202854:	d503201f 	nop
    40202858:	d503201f 	nop
    4020285c:	d503201f 	nop
    40202860:	d503201f 	nop
    40202864:	d503201f 	nop
    40202868:	d503201f 	nop
    4020286c:	d503201f 	nop
    40202870:	d503201f 	nop
    40202874:	d503201f 	nop
    40202878:	d503201f 	nop
    4020287c:	d503201f 	nop
    40202880:	17fffed8 	b	402023e0 <irq_el1_handler>
    40202884:	d503201f 	nop
    40202888:	d503201f 	nop
    4020288c:	d503201f 	nop
    40202890:	d503201f 	nop
    40202894:	d503201f 	nop
    40202898:	d503201f 	nop
    4020289c:	d503201f 	nop
    402028a0:	d503201f 	nop
    402028a4:	d503201f 	nop
    402028a8:	d503201f 	nop
    402028ac:	d503201f 	nop
    402028b0:	d503201f 	nop
    402028b4:	d503201f 	nop
    402028b8:	d503201f 	nop
    402028bc:	d503201f 	nop
    402028c0:	d503201f 	nop
    402028c4:	d503201f 	nop
    402028c8:	d503201f 	nop
    402028cc:	d503201f 	nop
    402028d0:	d503201f 	nop
    402028d4:	d503201f 	nop
    402028d8:	d503201f 	nop
    402028dc:	d503201f 	nop
    402028e0:	d503201f 	nop
    402028e4:	d503201f 	nop
    402028e8:	d503201f 	nop
    402028ec:	d503201f 	nop
    402028f0:	d503201f 	nop
    402028f4:	d503201f 	nop
    402028f8:	d503201f 	nop
    402028fc:	d503201f 	nop
    40202900:	17fffeba 	b	402023e8 <fiq_el1_handler>
    40202904:	d503201f 	nop
    40202908:	d503201f 	nop
    4020290c:	d503201f 	nop
    40202910:	d503201f 	nop
    40202914:	d503201f 	nop
    40202918:	d503201f 	nop
    4020291c:	d503201f 	nop
    40202920:	d503201f 	nop
    40202924:	d503201f 	nop
    40202928:	d503201f 	nop
    4020292c:	d503201f 	nop
    40202930:	d503201f 	nop
    40202934:	d503201f 	nop
    40202938:	d503201f 	nop
    4020293c:	d503201f 	nop
    40202940:	d503201f 	nop
    40202944:	d503201f 	nop
    40202948:	d503201f 	nop
    4020294c:	d503201f 	nop
    40202950:	d503201f 	nop
    40202954:	d503201f 	nop
    40202958:	d503201f 	nop
    4020295c:	d503201f 	nop
    40202960:	d503201f 	nop
    40202964:	d503201f 	nop
    40202968:	d503201f 	nop
    4020296c:	d503201f 	nop
    40202970:	d503201f 	nop
    40202974:	d503201f 	nop
    40202978:	d503201f 	nop
    4020297c:	d503201f 	nop
    40202980:	17fffe9c 	b	402023f0 <serror_el1_handler>
    40202984:	d503201f 	nop
    40202988:	d503201f 	nop
    4020298c:	d503201f 	nop
    40202990:	d503201f 	nop
    40202994:	d503201f 	nop
    40202998:	d503201f 	nop
    4020299c:	d503201f 	nop
    402029a0:	d503201f 	nop
    402029a4:	d503201f 	nop
    402029a8:	d503201f 	nop
    402029ac:	d503201f 	nop
    402029b0:	d503201f 	nop
    402029b4:	d503201f 	nop
    402029b8:	d503201f 	nop
    402029bc:	d503201f 	nop
    402029c0:	d503201f 	nop
    402029c4:	d503201f 	nop
    402029c8:	d503201f 	nop
    402029cc:	d503201f 	nop
    402029d0:	d503201f 	nop
    402029d4:	d503201f 	nop
    402029d8:	d503201f 	nop
    402029dc:	d503201f 	nop
    402029e0:	d503201f 	nop
    402029e4:	d503201f 	nop
    402029e8:	d503201f 	nop
    402029ec:	d503201f 	nop
    402029f0:	d503201f 	nop
    402029f4:	d503201f 	nop
    402029f8:	d503201f 	nop
    402029fc:	d503201f 	nop
    40202a00:	17fffe4b 	b	4020232c <sync_el1_handler>
    40202a04:	d503201f 	nop
    40202a08:	d503201f 	nop
    40202a0c:	d503201f 	nop
    40202a10:	d503201f 	nop
    40202a14:	d503201f 	nop
    40202a18:	d503201f 	nop
    40202a1c:	d503201f 	nop
    40202a20:	d503201f 	nop
    40202a24:	d503201f 	nop
    40202a28:	d503201f 	nop
    40202a2c:	d503201f 	nop
    40202a30:	d503201f 	nop
    40202a34:	d503201f 	nop
    40202a38:	d503201f 	nop
    40202a3c:	d503201f 	nop
    40202a40:	d503201f 	nop
    40202a44:	d503201f 	nop
    40202a48:	d503201f 	nop
    40202a4c:	d503201f 	nop
    40202a50:	d503201f 	nop
    40202a54:	d503201f 	nop
    40202a58:	d503201f 	nop
    40202a5c:	d503201f 	nop
    40202a60:	d503201f 	nop
    40202a64:	d503201f 	nop
    40202a68:	d503201f 	nop
    40202a6c:	d503201f 	nop
    40202a70:	d503201f 	nop
    40202a74:	d503201f 	nop
    40202a78:	d503201f 	nop
    40202a7c:	d503201f 	nop
    40202a80:	17fffe58 	b	402023e0 <irq_el1_handler>
    40202a84:	d503201f 	nop
    40202a88:	d503201f 	nop
    40202a8c:	d503201f 	nop
    40202a90:	d503201f 	nop
    40202a94:	d503201f 	nop
    40202a98:	d503201f 	nop
    40202a9c:	d503201f 	nop
    40202aa0:	d503201f 	nop
    40202aa4:	d503201f 	nop
    40202aa8:	d503201f 	nop
    40202aac:	d503201f 	nop
    40202ab0:	d503201f 	nop
    40202ab4:	d503201f 	nop
    40202ab8:	d503201f 	nop
    40202abc:	d503201f 	nop
    40202ac0:	d503201f 	nop
    40202ac4:	d503201f 	nop
    40202ac8:	d503201f 	nop
    40202acc:	d503201f 	nop
    40202ad0:	d503201f 	nop
    40202ad4:	d503201f 	nop
    40202ad8:	d503201f 	nop
    40202adc:	d503201f 	nop
    40202ae0:	d503201f 	nop
    40202ae4:	d503201f 	nop
    40202ae8:	d503201f 	nop
    40202aec:	d503201f 	nop
    40202af0:	d503201f 	nop
    40202af4:	d503201f 	nop
    40202af8:	d503201f 	nop
    40202afc:	d503201f 	nop
    40202b00:	17fffe3a 	b	402023e8 <fiq_el1_handler>
    40202b04:	d503201f 	nop
    40202b08:	d503201f 	nop
    40202b0c:	d503201f 	nop
    40202b10:	d503201f 	nop
    40202b14:	d503201f 	nop
    40202b18:	d503201f 	nop
    40202b1c:	d503201f 	nop
    40202b20:	d503201f 	nop
    40202b24:	d503201f 	nop
    40202b28:	d503201f 	nop
    40202b2c:	d503201f 	nop
    40202b30:	d503201f 	nop
    40202b34:	d503201f 	nop
    40202b38:	d503201f 	nop
    40202b3c:	d503201f 	nop
    40202b40:	d503201f 	nop
    40202b44:	d503201f 	nop
    40202b48:	d503201f 	nop
    40202b4c:	d503201f 	nop
    40202b50:	d503201f 	nop
    40202b54:	d503201f 	nop
    40202b58:	d503201f 	nop
    40202b5c:	d503201f 	nop
    40202b60:	d503201f 	nop
    40202b64:	d503201f 	nop
    40202b68:	d503201f 	nop
    40202b6c:	d503201f 	nop
    40202b70:	d503201f 	nop
    40202b74:	d503201f 	nop
    40202b78:	d503201f 	nop
    40202b7c:	d503201f 	nop
    40202b80:	17fffe1c 	b	402023f0 <serror_el1_handler>
    40202b84:	d503201f 	nop
    40202b88:	d503201f 	nop
    40202b8c:	d503201f 	nop
    40202b90:	d503201f 	nop
    40202b94:	d503201f 	nop
    40202b98:	d503201f 	nop
    40202b9c:	d503201f 	nop
    40202ba0:	d503201f 	nop
    40202ba4:	d503201f 	nop
    40202ba8:	d503201f 	nop
    40202bac:	d503201f 	nop
    40202bb0:	d503201f 	nop
    40202bb4:	d503201f 	nop
    40202bb8:	d503201f 	nop
    40202bbc:	d503201f 	nop
    40202bc0:	d503201f 	nop
    40202bc4:	d503201f 	nop
    40202bc8:	d503201f 	nop
    40202bcc:	d503201f 	nop
    40202bd0:	d503201f 	nop
    40202bd4:	d503201f 	nop
    40202bd8:	d503201f 	nop
    40202bdc:	d503201f 	nop
    40202be0:	d503201f 	nop
    40202be4:	d503201f 	nop
    40202be8:	d503201f 	nop
    40202bec:	d503201f 	nop
    40202bf0:	d503201f 	nop
    40202bf4:	d503201f 	nop
    40202bf8:	d503201f 	nop
    40202bfc:	d503201f 	nop
    40202c00:	17fffdcb 	b	4020232c <sync_el1_handler>
    40202c04:	d503201f 	nop
    40202c08:	d503201f 	nop
    40202c0c:	d503201f 	nop
    40202c10:	d503201f 	nop
    40202c14:	d503201f 	nop
    40202c18:	d503201f 	nop
    40202c1c:	d503201f 	nop
    40202c20:	d503201f 	nop
    40202c24:	d503201f 	nop
    40202c28:	d503201f 	nop
    40202c2c:	d503201f 	nop
    40202c30:	d503201f 	nop
    40202c34:	d503201f 	nop
    40202c38:	d503201f 	nop
    40202c3c:	d503201f 	nop
    40202c40:	d503201f 	nop
    40202c44:	d503201f 	nop
    40202c48:	d503201f 	nop
    40202c4c:	d503201f 	nop
    40202c50:	d503201f 	nop
    40202c54:	d503201f 	nop
    40202c58:	d503201f 	nop
    40202c5c:	d503201f 	nop
    40202c60:	d503201f 	nop
    40202c64:	d503201f 	nop
    40202c68:	d503201f 	nop
    40202c6c:	d503201f 	nop
    40202c70:	d503201f 	nop
    40202c74:	d503201f 	nop
    40202c78:	d503201f 	nop
    40202c7c:	d503201f 	nop
    40202c80:	17fffdd8 	b	402023e0 <irq_el1_handler>
    40202c84:	d503201f 	nop
    40202c88:	d503201f 	nop
    40202c8c:	d503201f 	nop
    40202c90:	d503201f 	nop
    40202c94:	d503201f 	nop
    40202c98:	d503201f 	nop
    40202c9c:	d503201f 	nop
    40202ca0:	d503201f 	nop
    40202ca4:	d503201f 	nop
    40202ca8:	d503201f 	nop
    40202cac:	d503201f 	nop
    40202cb0:	d503201f 	nop
    40202cb4:	d503201f 	nop
    40202cb8:	d503201f 	nop
    40202cbc:	d503201f 	nop
    40202cc0:	d503201f 	nop
    40202cc4:	d503201f 	nop
    40202cc8:	d503201f 	nop
    40202ccc:	d503201f 	nop
    40202cd0:	d503201f 	nop
    40202cd4:	d503201f 	nop
    40202cd8:	d503201f 	nop
    40202cdc:	d503201f 	nop
    40202ce0:	d503201f 	nop
    40202ce4:	d503201f 	nop
    40202ce8:	d503201f 	nop
    40202cec:	d503201f 	nop
    40202cf0:	d503201f 	nop
    40202cf4:	d503201f 	nop
    40202cf8:	d503201f 	nop
    40202cfc:	d503201f 	nop
    40202d00:	17fffdba 	b	402023e8 <fiq_el1_handler>
    40202d04:	d503201f 	nop
    40202d08:	d503201f 	nop
    40202d0c:	d503201f 	nop
    40202d10:	d503201f 	nop
    40202d14:	d503201f 	nop
    40202d18:	d503201f 	nop
    40202d1c:	d503201f 	nop
    40202d20:	d503201f 	nop
    40202d24:	d503201f 	nop
    40202d28:	d503201f 	nop
    40202d2c:	d503201f 	nop
    40202d30:	d503201f 	nop
    40202d34:	d503201f 	nop
    40202d38:	d503201f 	nop
    40202d3c:	d503201f 	nop
    40202d40:	d503201f 	nop
    40202d44:	d503201f 	nop
    40202d48:	d503201f 	nop
    40202d4c:	d503201f 	nop
    40202d50:	d503201f 	nop
    40202d54:	d503201f 	nop
    40202d58:	d503201f 	nop
    40202d5c:	d503201f 	nop
    40202d60:	d503201f 	nop
    40202d64:	d503201f 	nop
    40202d68:	d503201f 	nop
    40202d6c:	d503201f 	nop
    40202d70:	d503201f 	nop
    40202d74:	d503201f 	nop
    40202d78:	d503201f 	nop
    40202d7c:	d503201f 	nop
    40202d80:	17fffd9c 	b	402023f0 <serror_el1_handler>
    40202d84:	d503201f 	nop
    40202d88:	d503201f 	nop
    40202d8c:	d503201f 	nop
    40202d90:	d503201f 	nop
    40202d94:	d503201f 	nop
    40202d98:	d503201f 	nop
    40202d9c:	d503201f 	nop
    40202da0:	d503201f 	nop
    40202da4:	d503201f 	nop
    40202da8:	d503201f 	nop
    40202dac:	d503201f 	nop
    40202db0:	d503201f 	nop
    40202db4:	d503201f 	nop
    40202db8:	d503201f 	nop
    40202dbc:	d503201f 	nop
    40202dc0:	d503201f 	nop
    40202dc4:	d503201f 	nop
    40202dc8:	d503201f 	nop
    40202dcc:	d503201f 	nop
    40202dd0:	d503201f 	nop
    40202dd4:	d503201f 	nop
    40202dd8:	d503201f 	nop
    40202ddc:	d503201f 	nop
    40202de0:	d503201f 	nop
    40202de4:	d503201f 	nop
    40202de8:	d503201f 	nop
    40202dec:	d503201f 	nop
    40202df0:	d503201f 	nop
    40202df4:	d503201f 	nop
    40202df8:	d503201f 	nop
    40202dfc:	d503201f 	nop
    40202e00:	17fffd4b 	b	4020232c <sync_el1_handler>
    40202e04:	d503201f 	nop
    40202e08:	d503201f 	nop
    40202e0c:	d503201f 	nop
    40202e10:	d503201f 	nop
    40202e14:	d503201f 	nop
    40202e18:	d503201f 	nop
    40202e1c:	d503201f 	nop
    40202e20:	d503201f 	nop
    40202e24:	d503201f 	nop
    40202e28:	d503201f 	nop
    40202e2c:	d503201f 	nop
    40202e30:	d503201f 	nop
    40202e34:	d503201f 	nop
    40202e38:	d503201f 	nop
    40202e3c:	d503201f 	nop
    40202e40:	d503201f 	nop
    40202e44:	d503201f 	nop
    40202e48:	d503201f 	nop
    40202e4c:	d503201f 	nop
    40202e50:	d503201f 	nop
    40202e54:	d503201f 	nop
    40202e58:	d503201f 	nop
    40202e5c:	d503201f 	nop
    40202e60:	d503201f 	nop
    40202e64:	d503201f 	nop
    40202e68:	d503201f 	nop
    40202e6c:	d503201f 	nop
    40202e70:	d503201f 	nop
    40202e74:	d503201f 	nop
    40202e78:	d503201f 	nop
    40202e7c:	d503201f 	nop
    40202e80:	17fffd58 	b	402023e0 <irq_el1_handler>
    40202e84:	d503201f 	nop
    40202e88:	d503201f 	nop
    40202e8c:	d503201f 	nop
    40202e90:	d503201f 	nop
    40202e94:	d503201f 	nop
    40202e98:	d503201f 	nop
    40202e9c:	d503201f 	nop
    40202ea0:	d503201f 	nop
    40202ea4:	d503201f 	nop
    40202ea8:	d503201f 	nop
    40202eac:	d503201f 	nop
    40202eb0:	d503201f 	nop
    40202eb4:	d503201f 	nop
    40202eb8:	d503201f 	nop
    40202ebc:	d503201f 	nop
    40202ec0:	d503201f 	nop
    40202ec4:	d503201f 	nop
    40202ec8:	d503201f 	nop
    40202ecc:	d503201f 	nop
    40202ed0:	d503201f 	nop
    40202ed4:	d503201f 	nop
    40202ed8:	d503201f 	nop
    40202edc:	d503201f 	nop
    40202ee0:	d503201f 	nop
    40202ee4:	d503201f 	nop
    40202ee8:	d503201f 	nop
    40202eec:	d503201f 	nop
    40202ef0:	d503201f 	nop
    40202ef4:	d503201f 	nop
    40202ef8:	d503201f 	nop
    40202efc:	d503201f 	nop
    40202f00:	17fffd3a 	b	402023e8 <fiq_el1_handler>
    40202f04:	d503201f 	nop
    40202f08:	d503201f 	nop
    40202f0c:	d503201f 	nop
    40202f10:	d503201f 	nop
    40202f14:	d503201f 	nop
    40202f18:	d503201f 	nop
    40202f1c:	d503201f 	nop
    40202f20:	d503201f 	nop
    40202f24:	d503201f 	nop
    40202f28:	d503201f 	nop
    40202f2c:	d503201f 	nop
    40202f30:	d503201f 	nop
    40202f34:	d503201f 	nop
    40202f38:	d503201f 	nop
    40202f3c:	d503201f 	nop
    40202f40:	d503201f 	nop
    40202f44:	d503201f 	nop
    40202f48:	d503201f 	nop
    40202f4c:	d503201f 	nop
    40202f50:	d503201f 	nop
    40202f54:	d503201f 	nop
    40202f58:	d503201f 	nop
    40202f5c:	d503201f 	nop
    40202f60:	d503201f 	nop
    40202f64:	d503201f 	nop
    40202f68:	d503201f 	nop
    40202f6c:	d503201f 	nop
    40202f70:	d503201f 	nop
    40202f74:	d503201f 	nop
    40202f78:	d503201f 	nop
    40202f7c:	d503201f 	nop
    40202f80:	17fffd1c 	b	402023f0 <serror_el1_handler>

Disassembly of section .rodata:

0000000040202f90 <.rodata>:
    40202f90:	00000100 	udf	#256
	...
    40202fa0:	fffffff1 	.inst	0xfffffff1 ; undefined
    40202fa4:	fffffff4 	.inst	0xfffffff4 ; undefined
    40202fa8:	fffffff7 	.inst	0xfffffff7 ; undefined
    40202fac:	fffffffa 	.inst	0xfffffffa ; undefined
    40202fb0:	6e72656b 	umax	v11.8h, v11.8h, v18.8h
    40202fb4:	632e6c65 	.inst	0x632e6c65 ; undefined
    40202fb8:	72697600 	.inst	0x72697600 ; undefined
    40202fbc:	3a6f6974 	.inst	0x3a6f6974 ; undefined
    40202fc0:	71657220 	subs	w0, w17, #0x95c, lsl #12
    40202fc4:	74736575 	.inst	0x74736575 ; undefined
    40202fc8:	69616620 	ldpsw	x0, x25, [x17, #-248]
    40202fcc:	2064656c 	.inst	0x2064656c ; undefined
    40202fd0:	68746977 	.inst	0x68746977 ; undefined
    40202fd4:	61747320 	.inst	0x61747320 ; undefined
    40202fd8:	20737574 	.inst	0x20737574 ; undefined
    40202fdc:	000a6425 	.inst	0x000a6425 ; undefined
    40202fe0:	74746567 	.inst	0x74746567 ; undefined
    40202fe4:	20676e69 	.inst	0x20676e69 ; undefined
    40202fe8:	206e656c 	.inst	0x206e656c ; undefined
    40202fec:	000a6425 	.inst	0x000a6425 ; undefined
    40202ff0:	494e4150 	.inst	0x494e4150 ; undefined
    40202ff4:	25203a43 	.inst	0x25203a43 ; undefined
    40202ff8:	64253a73 	.inst	0x64253a73 ; undefined
    40202ffc:	6e75203a 	usubl2	v26.4s, v1.8h, v21.8h
    40203000:	776f6e6b 	.inst	0x776f6e6b ; undefined
    40203004:	7973206e 	ldrh	w14, [x3, #6544]
    40203008:	6c616373 	ldnp	d19, d24, [x27, #-496]
    4020300c:	43000a6c 	.inst	0x43000a6c ; undefined
    40203010:	74616572 	.inst	0x74616572 ; undefined
    40203014:	70206465 	adr	x5, 40243ca3 <_binary_shell_bin_start+0x4071b>
    40203018:	65636f72 	fnmls	z18.h, p3/m, z27.h, z3.h
    4020301c:	75207373 	.inst	0x75207373 ; undefined
    40203020:	0a726573 	bic	w19, w11, w18, lsr #25
    40203024:	6c696600 	ldnp	d0, d25, [x16, #-368]
    40203028:	25203a65 	.inst	0x25203a65 ; undefined
    4020302c:	73202c73 	.inst	0x73202c73 ; undefined
    40203030:	3d657a69 	ldr	b9, [x19, #2398]
    40203034:	000a6425 	.inst	0x000a6425 ; undefined
    40203038:	494e4150 	.inst	0x494e4150 ; undefined
    4020303c:	25203a43 	.inst	0x25203a43 ; undefined
    40203040:	64253a73 	.inst	0x64253a73 ; undefined
    40203044:	6f62203a 	umlal2	v26.4s, v1.8h, v2.h[2]
    40203048:	6465746f 	.inst	0x6465746f ; undefined
    4020304c:	68000a0a 	.inst	0x68000a0a ; undefined
    40203050:	6c646e61 	ldnp	d1, d27, [x19, #-448]
    40203054:	79735f65 	ldrh	w5, [x27, #6574]
    40203058:	6c616373 	ldnp	d19, d24, [x27, #-496]
    4020305c:	64203a6c 	.inst	0x64203a6c ; undefined
    40203060:	0a656e6f 	bic	w15, w19, w5, lsr #27
    40203064:	61747300 	.inst	0x61747300 ; undefined
    40203068:	6e697472 	uabd	v18.8h, v3.8h, v9.8h
    4020306c:	72702067 	.inst	0x72702067 ; undefined
    40203070:	7365636f 	.inst	0x7365636f ; undefined
    40203074:	0a422073 	and	w19, w3, w2, lsr #8
    40203078:	61745300 	.inst	0x61745300 ; undefined
    4020307c:	6e697472 	uabd	v18.8h, v3.8h, v9.8h
    40203080:	73252067 	.inst	0x73252067 ; undefined
    40203084:	20746120 	.inst	0x20746120 ; undefined
    40203088:	74636573 	.inst	0x74636573 ; undefined
    4020308c:	2520726f 	.inst	0x2520726f ; undefined
    40203090:	77000a64 	.inst	0x77000a64 ; undefined
    40203094:	65746972 	fnmls	z18.h, p2/m, z11.h, z20.h
    40203098:	69615700 	ldpsw	x0, x21, [x24, #-248]
    4020309c:	676e6974 	.inst	0x676e6974 ; undefined
    402030a0:	726f6620 	.inst	0x726f6620 ; undefined
    402030a4:	6d6f6320 	ldp	d0, d24, [x25, #-272]
    402030a8:	74656c70 	.inst	0x74656c70 ; undefined
    402030ac:	206e6f69 	.inst	0x206e6f69 ; undefined
    402030b0:	65737528 	fnmls	z8.h, p5/m, z9.h, z19.h
    402030b4:	64695f64 	.inst	0x64695f64 ; undefined
    402030b8:	64253d78 	.inst	0x64253d78 ; undefined
    402030bc:	2e2e2e29 	uqsub	v9.8b, v17.8b, v14.8b
    402030c0:	6552000a 	fadd	z10.h, z0.h, z18.h
    402030c4:	64206461 	.inst	0x64206461 ; undefined
    402030c8:	3a617461 	.inst	0x3a617461 ; undefined
    402030cc:	0a732520 	bic	w0, w9, w19, lsr #9
    402030d0:	3a434500 	.inst	0x3a434500 ; undefined
    402030d4:	25783020 	whilewr	p0.h, x1, x24
    402030d8:	50000a78 	adr	x24, 40203226 <_vector_table+0xa26>
    402030dc:	43494e41 	.inst	0x43494e41 ; undefined
    402030e0:	7325203a 	.inst	0x7325203a ; undefined
    402030e4:	3a64253a 	.inst	0x3a64253a ; undefined
    402030e8:	616e7520 	.inst	0x616e7520 ; undefined
    402030ec:	6e67696c 	.inst	0x6e67696c ; undefined
    402030f0:	70206465 	adr	x5, 40243d7f <_binary_shell_bin_start+0x407f7>
    402030f4:	72646461 	.inst	0x72646461 ; undefined
    402030f8:	786c2520 	.inst	0x786c2520 ; undefined
    402030fc:	6168000a 	.inst	0x6168000a ; undefined
    40203100:	656c646e 	fnmls	z14.h, p1/m, z3.h, z12.h
    40203104:	7379735f 	.inst	0x7379735f ; undefined
    40203108:	6c6c6163 	ldnp	d3, d24, [x11, #-320]
    4020310c:	7325203a 	.inst	0x7325203a ; undefined
    40203110:	20732520 	.inst	0x20732520 ; undefined
    40203114:	25206425 	.inst	0x25206425 ; undefined
    40203118:	79000a64 	strh	w4, [x19, #4]
    4020311c:	646c6569 	.inst	0x646c6569 ; undefined
    40203120:	6e6f6420 	umax	v0.8h, v1.8h, v15.8h
    40203124:	73000a65 	.inst	0x73000a65 ; undefined
    40203128:	74726174 	.inst	0x74726174 ; undefined
    4020312c:	20676e69 	.inst	0x20676e69 ; undefined
    40203130:	636f7270 	.inst	0x636f7270 ; undefined
    40203134:	20737365 	.inst	0x20737365 ; undefined
    40203138:	76000a41 	.inst	0x76000a41 ; undefined
    4020313c:	69747269 	ldpsw	x9, x28, [x19, #-96]
    40203140:	6c622d6f 	ldnp	d15, d11, [x11, #-480]
    40203144:	63203a6b 	.inst	0x63203a6b ; undefined
    40203148:	63617061 	.inst	0x63617061 ; undefined
    4020314c:	20797469 	.inst	0x20797469 ; undefined
    40203150:	25207369 	.inst	0x25207369 ; undefined
    40203154:	79622064 	ldrh	w4, [x3, #4368]
    40203158:	0a736574 	bic	w20, w11, w19, lsr #25
    4020315c:	45202000 	.inst	0x45202000 ; undefined
    40203160:	455f5253 	ssubwb	z19.h, z18.h, z31.b
    40203164:	203a314c 	.inst	0x203a314c ; undefined
    40203168:	78257830 	strh	w16, [x1, x5, lsl #1]
    4020316c:	43452820 	.inst	0x43452820 ; undefined
    40203170:	7830203a 	ldeorh	w16, w26, [x1]
    40203174:	202c7825 	.inst	0x202c7825 ; undefined
    40203178:	3a535349 	ccmn	w26, w19, #0x9, pl	// pl = nfrst
    4020317c:	25783020 	whilewr	p0.h, x1, x24
    40203180:	000a2978 	.inst	0x000a2978 ; undefined
    40203184:	494e4150 	.inst	0x494e4150 ; undefined
    40203188:	25203a43 	.inst	0x25203a43 ; undefined
    4020318c:	64253a73 	.inst	0x64253a73 ; undefined
    40203190:	6146203a 	.inst	0x6146203a ; undefined
    40203194:	64656c69 	.inst	0x64656c69 ; undefined
    40203198:	206f7420 	.inst	0x206f7420 ; undefined
    4020319c:	74696e69 	.inst	0x74696e69 ; undefined
    402031a0:	696c6169 	ldpsw	x9, x24, [x11, #-160]
    402031a4:	7620657a 	.inst	0x7620657a ; undefined
    402031a8:	71747269 	subs	w9, w19, #0xd1c, lsl #12
    402031ac:	65756575 	fnmls	z21.h, p1/m, z11.h, z21.h
    402031b0:	6572000a 	fmla	z10.h, p0/m, z0.h, z18.h
    402031b4:	50006461 	adr	x1, 40203e42 <_binary_shell_bin_start+0x8ba>
    402031b8:	43494e41 	.inst	0x43494e41 ; undefined
    402031bc:	7325203a 	.inst	0x7325203a ; undefined
    402031c0:	3a64253a 	.inst	0x3a64253a ; undefined
    402031c4:	766e6920 	.inst	0x766e6920 ; undefined
    402031c8:	64696c61 	.inst	0x64696c61 ; undefined
    402031cc:	72617420 	.inst	0x72617420 ; undefined
    402031d0:	61656820 	.inst	0x61656820 ; undefined
    402031d4:	3a726564 	.inst	0x3a726564 ; undefined
    402031d8:	67616d20 	.inst	0x67616d20 ; undefined
    402031dc:	223d6369 	.inst	0x223d6369 ; undefined
    402031e0:	0a227325 	bic	w5, w25, w2, lsl #28
    402031e4:	4e415000 	.inst	0x4e415000 ; undefined
    402031e8:	203a4349 	.inst	0x203a4349 ; undefined
    402031ec:	253a7325 	.inst	0x253a7325 ; undefined
    402031f0:	44203a64 	.inst	0x44203a64 ; undefined
    402031f4:	20617461 	.inst	0x20617461 ; undefined
    402031f8:	726f6261 	.inst	0x726f6261 ; undefined
    402031fc:	78652074 	ldeorlh	w5, w20, [x3]
    40203200:	74706563 	.inst	0x74706563 ; undefined
    40203204:	0a6e6f69 	bic	w9, w27, w14, lsr #27
    40203208:	69725700 	ldpsw	x0, x21, [x24, #-112]
    4020320c:	676e6974 	.inst	0x676e6974 ; undefined
    40203210:	206f7420 	.inst	0x206f7420 ; undefined
    40203214:	656c6966 	fnmls	z6.h, p2/m, z11.h, z12.h
    40203218:	7325203a 	.inst	0x7325203a ; undefined
    4020321c:	7845000a 	ldurh	w10, [x0, #80]
    40203220:	74706563 	.inst	0x74706563 ; undefined
    40203224:	206e6f69 	.inst	0x206e6f69 ; undefined
    40203228:	646e6168 	.inst	0x646e6168 ; undefined
    4020322c:	676e696c 	.inst	0x676e696c ; undefined
    40203230:	696e6920 	ldpsw	x0, x26, [x9, #-144]
    40203234:	6c616974 	ldnp	d20, d26, [x11, #-496]
    40203238:	64657a69 	.inst	0x64657a69 ; undefined
    4020323c:	4150000a 	.inst	0x4150000a ; undefined
    40203240:	3a43494e 	ccmn	w10, #0x3, #0xe, mi	// mi = first
    40203244:	3a732520 	.inst	0x3a732520 ; undefined
    40203248:	203a6425 	.inst	0x203a6425 ; undefined
    4020324c:	2074756f 	.inst	0x2074756f ; undefined
    40203250:	6d20666f 	stp	d15, d25, [x19, #-512]
    40203254:	726f6d65 	.inst	0x726f6d65 ; undefined
    40203258:	50000a79 	adr	x25, 402033a6 <_vector_table+0xba6>
    4020325c:	43494e41 	.inst	0x43494e41 ; undefined
    40203260:	7325203a 	.inst	0x7325203a ; undefined
    40203264:	3a64253a 	.inst	0x3a64253a ; undefined
    40203268:	616e7520 	.inst	0x616e7520 ; undefined
    4020326c:	6e67696c 	.inst	0x6e67696c ; undefined
    40203270:	76206465 	.inst	0x76206465 ; undefined
    40203274:	72646461 	.inst	0x72646461 ; undefined
    40203278:	786c2520 	.inst	0x786c2520 ; undefined
    4020327c:	3030000a 	adr	x10, 4026327d <_binary_shell_bin_start+0x5fcf5>
    40203280:	72615700 	.inst	0x72615700 ; undefined
    40203284:	676e696e 	.inst	0x676e696e ; undefined
    40203288:	6f4e203a 	umlal2	v26.4s, v1.8h, v14.h[0]
    4020328c:	6e692074 	usubl2	v20.4s, v3.8h, v9.8h
    40203290:	314c4520 	adds	w0, w9, #0x311, lsl #12
    40203294:	75432820 	.inst	0x75432820 ; undefined
    40203298:	6e657272 	uabdl2	v18.4s, v19.8h, v5.8h
    4020329c:	4c452074 	.inst	0x4c452074 ; undefined
    402032a0:	6425203a 	fmul	z26.h, z1.h, z5.h[0]
    402032a4:	66000a29 	.inst	0x66000a29 ; undefined
    402032a8:	6f6c5f73 	.inst	0x6f6c5f73 ; undefined
    402032ac:	70756b6f 	adr	x15, 402ee01b <_binary_shell_bin_start+0xeaa93>
    402032b0:	6425203a 	fmul	z26.h, z1.h, z5.h[0]
    402032b4:	0a732520 	bic	w0, w9, w19, lsr #9
    402032b8:	6f727700 	uqshl	v0.2d, v24.2d, #50
    402032bc:	25206574 	whilelt	pn12.b, x11, x0, vlx4
    402032c0:	79622064 	ldrh	w4, [x3, #4368]
    402032c4:	20736574 	.inst	0x20736574 ; undefined
    402032c8:	64206f74 	.inst	0x64206f74 ; undefined
    402032cc:	0a6b7369 	bic	w9, w27, w11, lsr #28
    402032d0:	65724300 	fnmla	z0.h, p0/m, z24.h, z18.h
    402032d4:	6e697461 	uabd	v1.8h, v3.8h, v9.8h
    402032d8:	72702067 	.inst	0x72702067 ; undefined
    402032dc:	7365636f 	.inst	0x7365636f ; undefined
    402032e0:	203a2073 	.inst	0x203a2073 ; undefined
    402032e4:	72657375 	.inst	0x72657375 ; undefined
    402032e8:	6e55000a 	.inst	0x6e55000a ; undefined
    402032ec:	776f6e6b 	.inst	0x776f6e6b ; undefined
    402032f0:	7973206e 	ldrh	w14, [x3, #6544]
    402032f4:	6c616373 	ldnp	d19, d24, [x27, #-496]
    402032f8:	25203a6c 	.inst	0x25203a6c ; undefined
    402032fc:	76000a64 	.inst	0x76000a64 ; undefined
    40203300:	71747269 	subs	w9, w19, #0xd1c, lsl #12
    40203304:	65756575 	fnmls	z21.h, p1/m, z11.h, z21.h
    40203308:	20642520 	.inst	0x20642520 ; undefined
    4020330c:	74696e69 	.inst	0x74696e69 ; undefined
    40203310:	696c6169 	ldpsw	x9, x24, [x11, #-160]
    40203314:	2064657a 	.inst	0x2064657a ; undefined
    40203318:	70207461 	adr	x1, 402441a7 <_binary_shell_bin_start+0x40c1f>
    4020331c:	72646461 	.inst	0x72646461 ; undefined
    40203320:	25783020 	whilewr	p0.h, x1, x24
    40203324:	000a786c 	.inst	0x000a786c ; undefined
    40203328:	74726976 	.inst	0x74726976 ; undefined
    4020332c:	203a6f69 	.inst	0x203a6f69 ; undefined
    40203330:	7265706f 	.inst	0x7265706f ; undefined
    40203334:	6f697461 	uqshl	v1.2d, v3.2d, #41
    40203338:	6974206e 	ldpsw	x14, x8, [x3, #-96]
    4020333c:	2064656d 	.inst	0x2064656d ; undefined
    40203340:	0a74756f 	bic	w15, w11, w20, lsr #29
    40203344:	65697900 	fnmls	z0.h, p6/m, z8.h, z9.h
    40203348:	6e69646c 	umax	v12.8h, v3.8h, v9.8h
    4020334c:	6f742067 	umlal2	v7.4s, v3.8h, v4.h[3]
    40203350:	65737520 	fnmls	z0.h, p5/m, z9.h, z19.h
    40203354:	72702072 	.inst	0x72702072 ; undefined
    40203358:	7365636f 	.inst	0x7365636f ; undefined
    4020335c:	76000a73 	.inst	0x76000a73 ; undefined
    40203360:	69747269 	ldpsw	x9, x28, [x19, #-96]
    40203364:	64203a6f 	.inst	0x64203a6f ; undefined
    40203368:	63697665 	.inst	0x63697665 ; undefined
    4020336c:	6f6e2065 	umlal2	v5.4s, v3.8h, v14.h[2]
    40203370:	65722074 	fmls	z20.h, p0/m, z3.h, z18.h
    40203374:	20796461 	.inst	0x20796461 ; undefined
    40203378:	61747328 	.inst	0x61747328 ; undefined
    4020337c:	3d737574 	ldr	b20, [x11, #3293]
    40203380:	0a297825 	bic	w5, w1, w9, lsl #30
    40203384:	74614400 	.inst	0x74614400 ; undefined
    40203388:	6e492f61 	facge	v1.8h, v27.8h, v9.8h
    4020338c:	75727473 	.inst	0x75727473 ; undefined
    40203390:	6f697463 	uqshl	v3.2d, v3.2d, #41
    40203394:	6241206e 	.inst	0x6241206e ; undefined
    40203398:	3a74726f 	.inst	0x3a74726f ; undefined
    4020339c:	3030000a 	adr	x10, 4026339d <_binary_shell_bin_start+0x5fe15>
    402033a0:	34343630 	cbz	w16, 4026ba64 <_binary_shell_bin_start+0x684dc>
    402033a4:	53534900 	.inst	0x53534900 ; undefined
    402033a8:	7830203a 	ldeorh	w16, w26, [x1]
    402033ac:	000a7825 	.inst	0x000a7825 ; undefined
    402033b0:	61746144 	.inst	0x61746144 ; undefined
    402033b4:	6f624120 	mls	v0.8h, v9.8h, v2.h[2]
    402033b8:	45207472 	.inst	0x45207472 ; undefined
    402033bc:	70656378 	adr	x24, 402ce02b <_binary_shell_bin_start+0xcaaa3>
    402033c0:	6e6f6974 	.inst	0x6e6f6974 ; undefined
    402033c4:	4b000a21 	sub	w1, w17, w0, lsl #2
    402033c8:	656e7265 	fnmls	z5.h, p4/m, z19.h, z14.h
    402033cc:	6170206c 	.inst	0x6170206c ; undefined
    402033d0:	20736567 	.inst	0x20736567 ; undefined
    402033d4:	7070616d 	adr	x13, 402e4003 <_binary_shell_bin_start+0xe0a7b>
    402033d8:	000a6465 	.inst	0x000a6465 ; undefined
    402033dc:	6c5f7366 	ldnp	d6, d28, [x27, #496]
    402033e0:	756b6f6f 	.inst	0x756b6f6f ; undefined
    402033e4:	25203a70 	.inst	0x25203a70 ; undefined
    402033e8:	20000a73 	.inst	0x20000a73 ; undefined
    402033ec:	524c4520 	.inst	0x524c4520 ; undefined
    402033f0:	314c455f 	cmn	w10, #0x311, lsl #12
    402033f4:	7830203a 	ldeorh	w16, w26, [x1]
    402033f8:	000a7825 	.inst	0x000a7825 ; undefined
    402033fc:	494e4150 	.inst	0x494e4150 ; undefined
    40203400:	25203a43 	.inst	0x25203a43 ; undefined
    40203404:	64253a73 	.inst	0x64253a73 ; undefined
    40203408:	6150203a 	.inst	0x6150203a ; undefined
    4020340c:	74206567 	.inst	0x74206567 ; undefined
    40203410:	656c6261 	fnmls	z1.h, p0/m, z19.h, z12.h
    40203414:	746f6e20 	.inst	0x746f6e20 ; undefined
    40203418:	696c6120 	ldpsw	x0, x24, [x9, #-160]
    4020341c:	64656e67 	.inst	0x64656e67 ; undefined
    40203420:	2020000a 	.inst	0x2020000a ; undefined
    40203424:	5f524146 	.inst	0x5f524146 ; undefined
    40203428:	3a314c45 	.inst	0x3a314c45 ; undefined
    4020342c:	25783020 	whilewr	p0.h, x1, x24
    40203430:	49000a78 	.inst	0x49000a78 ; undefined
    40203434:	6974696e 	ldpsw	x14, x26, [x11, #-96]
    40203438:	7a696c61 	.inst	0x7a696c61 ; undefined
    4020343c:	20676e69 	.inst	0x20676e69 ; undefined
    40203440:	74726976 	.inst	0x74726976 ; undefined
    40203444:	75657571 	.inst	0x75657571 ; undefined
    40203448:	64252065 	fmul	z5.h, z3.h, z5.h[0]
    4020344c:	7375000a 	.inst	0x7375000a ; undefined
    40203450:	00726174 	.inst	0x00726174 ; undefined
    40203454:	5f525345 	.inst	0x5f525345 ; undefined
    40203458:	3a314c45 	.inst	0x3a314c45 ; undefined
    4020345c:	25783020 	whilewr	p0.h, x1, x24
    40203460:	76000a78 	.inst	0x76000a78 ; undefined
    40203464:	69747269 	ldpsw	x9, x28, [x19, #-96]
    40203468:	69203a6f 	stgp	x15, x14, [x19, #-1024]
    4020346c:	6c61766e 	ldnp	d14, d29, [x19, #-496]
    40203470:	71206469 	subs	w9, w3, #0x819
    40203474:	65756575 	fnmls	z21.h, p1/m, z11.h, z21.h
    40203478:	7a697320 	.inst	0x7a697320 ; undefined
    4020347c:	64252065 	fmul	z5.h, z3.h, z5.h[0]
    40203480:	3130000a 	adds	w10, w0, #0xc00
    40203484:	35343332 	cbnz	w18, 4026bae8 <_binary_shell_bin_start+0x68560>
    40203488:	39383736 	strb	w22, [x25, #3597]
    4020348c:	64636261 	.inst	0x64636261 ; undefined
    40203490:	46006665 	.inst	0x46006665 ; undefined
    40203494:	455f5241 	ssubwb	z1.h, z18.h, z31.b
    40203498:	203a314c 	.inst	0x203a314c ; undefined
    4020349c:	78257830 	strh	w16, [x1, x5, lsl #1]
    402034a0:	6576000a 	fmla	z10.h, p0/m, z0.h, z22.h
    402034a4:	632e7463 	.inst	0x632e7463 ; undefined
    402034a8:	4e415000 	.inst	0x4e415000 ; undefined
    402034ac:	203a4349 	.inst	0x203a4349 ; undefined
    402034b0:	253a7325 	.inst	0x253a7325 ; undefined
    402034b4:	6e203a64 	usqadd	v4.16b, v19.16b
    402034b8:	7266206f 	.inst	0x7266206f ; undefined
    402034bc:	70206565 	adr	x5, 4024416b <_binary_shell_bin_start+0x40be3>
    402034c0:	65636f72 	fnmls	z18.h, p3/m, z27.h, z3.h
    402034c4:	73207373 	.inst	0x73207373 ; undefined
    402034c8:	73746f6c 	.inst	0x73746f6c ; undefined
    402034cc:	6e55000a 	.inst	0x6e55000a ; undefined
    402034d0:	65707865 	fnmls	z5.h, p6/m, z3.h, z16.h
    402034d4:	64657463 	.inst	0x64657463 ; undefined
    402034d8:	61727420 	.inst	0x61727420 ; undefined
    402034dc:	45203a70 	.inst	0x45203a70 ; undefined
    402034e0:	78253d43 	.inst	0x78253d43 ; undefined
    402034e4:	53534920 	.inst	0x53534920 ; undefined
    402034e8:	2078253d 	.inst	0x2078253d ; undefined
    402034ec:	3d524c45 	ldr	b5, [x2, #1171]
    402034f0:	000a7825 	.inst	0x000a7825 ; undefined
    402034f4:	2078614d 	.inst	0x2078614d ; undefined
    402034f8:	75657571 	.inst	0x75657571 ; undefined
    402034fc:	69732065 	ldpsw	x5, x8, [x3, #-104]
    40203500:	203a657a 	.inst	0x203a657a ; undefined
    40203504:	000a6425 	.inst	0x000a6425 ; undefined
    40203508:	67616d69 	.inst	0x67616d69 ; undefined
    4020350c:	69735f65 	ldpsw	x5, x23, [x27, #-104]
    40203510:	3d20657a 	str	b26, [x11, #2073]
    40203514:	0a782520 	bic	w0, w9, w24, lsr #9
    40203518:	53464400 	.inst	0x53464400 ; undefined
    4020351c:	30203a43 	adr	x3, 40243c65 <_binary_shell_bin_start+0x406dd>
    40203520:	0a782578 	bic	w24, w11, w24, lsr #9
    40203524:	696e4900 	ldpsw	x0, x18, [x8, #-144]
    40203528:	6c616974 	ldnp	d20, d26, [x11, #-496]
    4020352c:	6e697a69 	.inst	0x6e697a69 ; undefined
    40203530:	69762067 	ldpsw	x7, x8, [x3, #-80]
    40203534:	6f697472 	uqshl	v18.2d, v3.2d, #41
    40203538:	6f6c6220 	umlsl2	v0.4s, v17.8h, v12.h[2]
    4020353c:	64206b63 	.inst	0x64206b63 ; undefined
    40203540:	63697665 	.inst	0x63697665 ; undefined
    40203544:	2e2e2e65 	uqsub	v5.8b, v19.8b, v14.8b
    40203548:	7366000a 	.inst	0x7366000a ; undefined
    4020354c:	6f6f6c5f 	.inst	0x6f6f6c5f ; undefined
    40203550:	3a70756b 	.inst	0x3a70756b ; undefined
    40203554:	756f6620 	.inst	0x756f6620 ; undefined
    40203558:	2520646e 	.inst	0x2520646e ; undefined
    4020355c:	50000a73 	adr	x19, 402036aa <_binary_shell_bin_start+0x122>
    40203560:	43494e41 	.inst	0x43494e41 ; undefined
    40203564:	7325203a 	.inst	0x7325203a ; undefined
    40203568:	3a64253a 	.inst	0x3a64253a ; undefined
    4020356c:	656e7520 	fnmls	z0.h, p5/m, z9.h, z14.h
    40203570:	63657078 	.inst	0x63657078 ; undefined
    40203574:	20646574 	.inst	0x20646574 ; undefined
    40203578:	70617274 	adr	x20, 402c63c7 <_binary_shell_bin_start+0xc2e3f>
    4020357c:	Address 0x4020357c is out of bounds.


Disassembly of section .data:

0000000040203580 <alloc_pages.next_paddr>:
    40203580:	41246000 	.inst	0x41246000 ; undefined
    40203584:	00000000 	udf	#0

0000000040203588 <_binary_shell_bin_start>:
    40203588:	b0008088 	adrp	x8, 41214000 <_binary_shell_bin_start+0x1010a78>
    4020358c:	91000108 	add	x8, x8, #0x0
    40203590:	9100011f 	mov	sp, x8
    40203594:	94000002 	bl	4020359c <_binary_shell_bin_start+0x14>
    40203598:	9400001a 	bl	40203600 <_binary_shell_bin_start+0x78>
    4020359c:	d10283ff 	sub	sp, sp, #0xa0
    402035a0:	a9087bfd 	stp	x29, x30, [sp, #128]
    402035a4:	a9094ff4 	stp	x20, x19, [sp, #144]
    402035a8:	910203fd 	add	x29, sp, #0x80
    402035ac:	d503201f 	nop
    402035b0:	70002760 	adr	x0, 40203a9f <_binary_shell_bin_start+0x517>
    402035b4:	940000a4 	bl	40203844 <_binary_shell_bin_start+0x2bc>
    402035b8:	90000013 	adrp	x19, 40203000 <_vector_table+0x800>
    402035bc:	91149673 	add	x19, x19, #0x525
    402035c0:	910003e1 	mov	x1, sp
    402035c4:	aa1303e0 	mov	x0, x19
    402035c8:	52801002 	mov	w2, #0x80                  	// #128
    402035cc:	910003f4 	mov	x20, sp
    402035d0:	94000015 	bl	40203624 <_binary_shell_bin_start+0x9c>
    402035d4:	3820ca9f 	strb	wzr, [x20, w0, sxtw]
    402035d8:	90000000 	adrp	x0, 40203000 <_vector_table+0x800>
    402035dc:	91144c00 	add	x0, x0, #0x513
    402035e0:	910003e1 	mov	x1, sp
    402035e4:	94000098 	bl	40203844 <_binary_shell_bin_start+0x2bc>
    402035e8:	90000001 	adrp	x1, 40203000 <_vector_table+0x800>
    402035ec:	91140021 	add	x1, x1, #0x500
    402035f0:	aa1303e0 	mov	x0, x19
    402035f4:	52800262 	mov	w2, #0x13                  	// #19
    402035f8:	94000011 	bl	4020363c <_binary_shell_bin_start+0xb4>
    402035fc:	14000000 	b	402035fc <_binary_shell_bin_start+0x74>
    40203600:	14000000 	b	40203600 <_binary_shell_bin_start+0x78>
    40203604:	aa0103e8 	mov	x8, x1
    40203608:	aa0003e9 	mov	x9, x0
    4020360c:	aa0203e1 	mov	x1, x2
    40203610:	aa0803e0 	mov	x0, x8
    40203614:	aa0303e2 	mov	x2, x3
    40203618:	aa0903e8 	mov	x8, x9
    4020361c:	d4000001 	svc	#0x0
    40203620:	d65f03c0 	ret
    40203624:	93407c00 	sxtw	x0, w0
    40203628:	93407c21 	sxtw	x1, w1
    4020362c:	52800088 	mov	w8, #0x4                   	// #4
    40203630:	93407c42 	sxtw	x2, w2
    40203634:	d4000001 	svc	#0x0
    40203638:	d65f03c0 	ret
    4020363c:	93407c00 	sxtw	x0, w0
    40203640:	93407c21 	sxtw	x1, w1
    40203644:	528000a8 	mov	w8, #0x5                   	// #5
    40203648:	93407c42 	sxtw	x2, w2
    4020364c:	d4000001 	svc	#0x0
    40203650:	d65f03c0 	ret
    40203654:	aa1f03e1 	mov	x1, xzr
    40203658:	aa1f03e2 	mov	x2, xzr
    4020365c:	52800028 	mov	w8, #0x1                   	// #1
    40203660:	92401c00 	and	x0, x0, #0xff
    40203664:	d4000001 	svc	#0x0
    40203668:	d65f03c0 	ret
    4020366c:	aa1f03e0 	mov	x0, xzr
    40203670:	aa1f03e1 	mov	x1, xzr
    40203674:	aa1f03e2 	mov	x2, xzr
    40203678:	52800048 	mov	w8, #0x2                   	// #2
    4020367c:	d4000001 	svc	#0x0
    40203680:	d65f03c0 	ret
    40203684:	34000622 	cbz	w2, 40203748 <_binary_shell_bin_start+0x1c0>
    40203688:	7100205f 	cmp	w2, #0x8
    4020368c:	54000123 	b.cc	402036b0 <_binary_shell_bin_start+0x128>  // b.lo, b.ul, b.last
    40203690:	cb010008 	sub	x8, x0, x1
    40203694:	f100811f 	cmp	x8, #0x20
    40203698:	540000c3 	b.cc	402036b0 <_binary_shell_bin_start+0x128>  // b.lo, b.ul, b.last
    4020369c:	7100805f 	cmp	w2, #0x20
    402036a0:	2a0203e8 	mov	w8, w2
    402036a4:	540000c2 	b.cs	402036bc <_binary_shell_bin_start+0x134>  // b.hs, b.nlast
    402036a8:	aa1f03eb 	mov	x11, xzr
    402036ac:	14000012 	b	402036f4 <_binary_shell_bin_start+0x16c>
    402036b0:	aa0103e9 	mov	x9, x1
    402036b4:	aa0003ea 	mov	x10, x0
    402036b8:	14000020 	b	40203738 <_binary_shell_bin_start+0x1b0>
    402036bc:	927b690b 	and	x11, x8, #0xffffffe0
    402036c0:	91004009 	add	x9, x0, #0x10
    402036c4:	9100402a 	add	x10, x1, #0x10
    402036c8:	aa0b03ec 	mov	x12, x11
    402036cc:	ad7f8540 	ldp	q0, q1, [x10, #-16]
    402036d0:	f100818c 	subs	x12, x12, #0x20
    402036d4:	9100814a 	add	x10, x10, #0x20
    402036d8:	ad3f8520 	stp	q0, q1, [x9, #-16]
    402036dc:	91008129 	add	x9, x9, #0x20
    402036e0:	54ffff61 	b.ne	402036cc <_binary_shell_bin_start+0x144>  // b.any
    402036e4:	eb08017f 	cmp	x11, x8
    402036e8:	54000300 	b.eq	40203748 <_binary_shell_bin_start+0x1c0>  // b.none
    402036ec:	f27d051f 	tst	x8, #0x18
    402036f0:	540001e0 	b.eq	4020372c <_binary_shell_bin_start+0x1a4>  // b.none
    402036f4:	927d710c 	and	x12, x8, #0xfffffff8
    402036f8:	8b0b000d 	add	x13, x0, x11
    402036fc:	8b0b002e 	add	x14, x1, x11
    40203700:	8b0c0029 	add	x9, x1, x12
    40203704:	8b0c000a 	add	x10, x0, x12
    40203708:	4b0c0042 	sub	w2, w2, w12
    4020370c:	cb0c016b 	sub	x11, x11, x12
    40203710:	fc4085c0 	ldr	d0, [x14], #8
    40203714:	b100216b 	adds	x11, x11, #0x8
    40203718:	fc0085a0 	str	d0, [x13], #8
    4020371c:	54ffffa1 	b.ne	40203710 <_binary_shell_bin_start+0x188>  // b.any
    40203720:	eb08019f 	cmp	x12, x8
    40203724:	540000a1 	b.ne	40203738 <_binary_shell_bin_start+0x1b0>  // b.any
    40203728:	14000008 	b	40203748 <_binary_shell_bin_start+0x1c0>
    4020372c:	4b0b0042 	sub	w2, w2, w11
    40203730:	8b0b000a 	add	x10, x0, x11
    40203734:	8b0b0029 	add	x9, x1, x11
    40203738:	38401528 	ldrb	w8, [x9], #1
    4020373c:	71000442 	subs	w2, w2, #0x1
    40203740:	38001548 	strb	w8, [x10], #1
    40203744:	54ffffa1 	b.ne	40203738 <_binary_shell_bin_start+0x1b0>  // b.any
    40203748:	d65f03c0 	ret
    4020374c:	340004e2 	cbz	w2, 402037e8 <_binary_shell_bin_start+0x260>
    40203750:	7100205f 	cmp	w2, #0x8
    40203754:	54000062 	b.cs	40203760 <_binary_shell_bin_start+0x1d8>  // b.hs, b.nlast
    40203758:	aa0003e9 	mov	x9, x0
    4020375c:	14000020 	b	402037dc <_binary_shell_bin_start+0x254>
    40203760:	7100805f 	cmp	w2, #0x20
    40203764:	2a0203e8 	mov	w8, w2
    40203768:	54000062 	b.cs	40203774 <_binary_shell_bin_start+0x1ec>  // b.hs, b.nlast
    4020376c:	aa1f03ea 	mov	x10, xzr
    40203770:	1400000d 	b	402037a4 <_binary_shell_bin_start+0x21c>
    40203774:	4e010c20 	dup	v0.16b, w1
    40203778:	927b690a 	and	x10, x8, #0xffffffe0
    4020377c:	91004009 	add	x9, x0, #0x10
    40203780:	aa0a03eb 	mov	x11, x10
    40203784:	ad3f8120 	stp	q0, q0, [x9, #-16]
    40203788:	f100816b 	subs	x11, x11, #0x20
    4020378c:	91008129 	add	x9, x9, #0x20
    40203790:	54ffffa1 	b.ne	40203784 <_binary_shell_bin_start+0x1fc>  // b.any
    40203794:	eb08015f 	cmp	x10, x8
    40203798:	54000280 	b.eq	402037e8 <_binary_shell_bin_start+0x260>  // b.none
    4020379c:	f27d051f 	tst	x8, #0x18
    402037a0:	540001a0 	b.eq	402037d4 <_binary_shell_bin_start+0x24c>  // b.none
    402037a4:	0e010c20 	dup	v0.8b, w1
    402037a8:	927d710b 	and	x11, x8, #0xfffffff8
    402037ac:	8b0a000c 	add	x12, x0, x10
    402037b0:	8b0b0009 	add	x9, x0, x11
    402037b4:	4b0b0042 	sub	w2, w2, w11
    402037b8:	cb0b014a 	sub	x10, x10, x11
    402037bc:	b100214a 	adds	x10, x10, #0x8
    402037c0:	fc008580 	str	d0, [x12], #8
    402037c4:	54ffffc1 	b.ne	402037bc <_binary_shell_bin_start+0x234>  // b.any
    402037c8:	eb08017f 	cmp	x11, x8
    402037cc:	54000081 	b.ne	402037dc <_binary_shell_bin_start+0x254>  // b.any
    402037d0:	14000006 	b	402037e8 <_binary_shell_bin_start+0x260>
    402037d4:	4b0a0042 	sub	w2, w2, w10
    402037d8:	8b0a0009 	add	x9, x0, x10
    402037dc:	71000442 	subs	w2, w2, #0x1
    402037e0:	38001521 	strb	w1, [x9], #1
    402037e4:	54ffffc1 	b.ne	402037dc <_binary_shell_bin_start+0x254>  // b.any
    402037e8:	d65f03c0 	ret
    402037ec:	39400028 	ldrb	w8, [x1]
    402037f0:	aa0003e9 	mov	x9, x0
    402037f4:	340000c8 	cbz	w8, 4020380c <_binary_shell_bin_start+0x284>
    402037f8:	9100042a 	add	x10, x1, #0x1
    402037fc:	aa0003e9 	mov	x9, x0
    40203800:	38001528 	strb	w8, [x9], #1
    40203804:	38401548 	ldrb	w8, [x10], #1
    40203808:	35ffffc8 	cbnz	w8, 40203800 <_binary_shell_bin_start+0x278>
    4020380c:	3900013f 	strb	wzr, [x9]
    40203810:	d65f03c0 	ret
    40203814:	39400008 	ldrb	w8, [x0]
    40203818:	34000108 	cbz	w8, 40203838 <_binary_shell_bin_start+0x2b0>
    4020381c:	91000409 	add	x9, x0, #0x1
    40203820:	3940002a 	ldrb	w10, [x1]
    40203824:	6b0a011f 	cmp	w8, w10
    40203828:	54000081 	b.ne	40203838 <_binary_shell_bin_start+0x2b0>  // b.any
    4020382c:	38401528 	ldrb	w8, [x9], #1
    40203830:	91000421 	add	x1, x1, #0x1
    40203834:	35ffff68 	cbnz	w8, 40203820 <_binary_shell_bin_start+0x298>
    40203838:	39400029 	ldrb	w9, [x1]
    4020383c:	4b090100 	sub	w0, w8, w9
    40203840:	d65f03c0 	ret
    40203844:	d104c3ff 	sub	sp, sp, #0x130
    40203848:	a90e7bfd 	stp	x29, x30, [sp, #224]
    4020384c:	f9007bfc 	str	x28, [sp, #240]
    40203850:	a9105ff8 	stp	x24, x23, [sp, #256]
    40203854:	a91157f6 	stp	x22, x21, [sp, #272]
    40203858:	a9124ff4 	stp	x20, x19, [sp, #288]
    4020385c:	910383fd 	add	x29, sp, #0xe0
    40203860:	928006e8 	mov	x8, #0xffffffffffffffc8    	// #-56
    40203864:	910003e9 	mov	x9, sp
    40203868:	d10163aa 	sub	x10, x29, #0x58
    4020386c:	f2dff008 	movk	x8, #0xff80, lsl #32
    40203870:	91020129 	add	x9, x9, #0x80
    40203874:	529999b4 	mov	w20, #0xcccd                	// #52429
    40203878:	aa0003f3 	mov	x19, x0
    4020387c:	a93f23a9 	stp	x9, x8, [x29, #-16]
    40203880:	9100e148 	add	x8, x10, #0x38
    40203884:	910143a9 	add	x9, x29, #0x50
    40203888:	72b99994 	movk	w20, #0xcccc, lsl #16
    4020388c:	d503201f 	nop
    40203890:	70001135 	adr	x21, 40203ab7 <_binary_shell_bin_start+0x52f>
    40203894:	a93a8ba1 	stp	x1, x2, [x29, #-88]
    40203898:	a93b93a3 	stp	x3, x4, [x29, #-72]
    4020389c:	a93c9ba5 	stp	x5, x6, [x29, #-56]
    402038a0:	f81d83a7 	stur	x7, [x29, #-40]
    402038a4:	ad0007e0 	stp	q0, q1, [sp]
    402038a8:	ad010fe2 	stp	q2, q3, [sp, #32]
    402038ac:	ad0217e4 	stp	q4, q5, [sp, #64]
    402038b0:	ad031fe6 	stp	q6, q7, [sp, #96]
    402038b4:	a93e23a9 	stp	x9, x8, [x29, #-32]
    402038b8:	14000003 	b	402038c4 <_binary_shell_bin_start+0x33c>
    402038bc:	34000d40 	cbz	w0, 40203a64 <_binary_shell_bin_start+0x4dc>
    402038c0:	91000673 	add	x19, x19, #0x1
    402038c4:	39400260 	ldrb	w0, [x19]
    402038c8:	7100941f 	cmp	w0, #0x25
    402038cc:	540000a0 	b.eq	402038e0 <_binary_shell_bin_start+0x358>  // b.none
    402038d0:	34000ce0 	cbz	w0, 40203a6c <_binary_shell_bin_start+0x4e4>
    402038d4:	97ffff60 	bl	40203654 <_binary_shell_bin_start+0xcc>
    402038d8:	91000673 	add	x19, x19, #0x1
    402038dc:	17fffffa 	b	402038c4 <_binary_shell_bin_start+0x33c>
    402038e0:	38401e60 	ldrb	w0, [x19, #1]!
    402038e4:	7101c81f 	cmp	w0, #0x72
    402038e8:	5400020c 	b.gt	40203928 <_binary_shell_bin_start+0x3a0>
    402038ec:	7100941f 	cmp	w0, #0x25
    402038f0:	54ffff20 	b.eq	402038d4 <_binary_shell_bin_start+0x34c>  // b.none
    402038f4:	7101901f 	cmp	w0, #0x64
    402038f8:	54fffe21 	b.ne	402038bc <_binary_shell_bin_start+0x334>  // b.any
    402038fc:	b89f83a8 	ldursw	x8, [x29, #-8]
    40203900:	36f80408 	tbz	w8, #31, 40203980 <_binary_shell_bin_start+0x3f8>
    40203904:	11002109 	add	w9, w8, #0x8
    40203908:	3100211f 	cmn	w8, #0x8
    4020390c:	b81f83a9 	stur	w9, [x29, #-8]
    40203910:	54000388 	b.hi	40203980 <_binary_shell_bin_start+0x3f8>  // b.pmore
    40203914:	f85e83a9 	ldur	x9, [x29, #-24]
    40203918:	8b080128 	add	x8, x9, x8
    4020391c:	b9400116 	ldr	w22, [x8]
    40203920:	36f80416 	tbz	w22, #31, 402039a0 <_binary_shell_bin_start+0x418>
    40203924:	1400001c 	b	40203994 <_binary_shell_bin_start+0x40c>
    40203928:	7101cc1f 	cmp	w0, #0x73
    4020392c:	54000180 	b.eq	4020395c <_binary_shell_bin_start+0x3d4>  // b.none
    40203930:	7101e01f 	cmp	w0, #0x78
    40203934:	54fffc61 	b.ne	402038c0 <_binary_shell_bin_start+0x338>  // b.any
    40203938:	b89f83a8 	ldursw	x8, [x29, #-8]
    4020393c:	36f806c8 	tbz	w8, #31, 40203a14 <_binary_shell_bin_start+0x48c>
    40203940:	11002109 	add	w9, w8, #0x8
    40203944:	3100211f 	cmn	w8, #0x8
    40203948:	b81f83a9 	stur	w9, [x29, #-8]
    4020394c:	54000648 	b.hi	40203a14 <_binary_shell_bin_start+0x48c>  // b.pmore
    40203950:	f85e83a9 	ldur	x9, [x29, #-24]
    40203954:	8b080129 	add	x9, x9, x8
    40203958:	14000032 	b	40203a20 <_binary_shell_bin_start+0x498>
    4020395c:	b89f83a8 	ldursw	x8, [x29, #-8]
    40203960:	36f80448 	tbz	w8, #31, 402039e8 <_binary_shell_bin_start+0x460>
    40203964:	11002109 	add	w9, w8, #0x8
    40203968:	3100211f 	cmn	w8, #0x8
    4020396c:	b81f83a9 	stur	w9, [x29, #-8]
    40203970:	540003c8 	b.hi	402039e8 <_binary_shell_bin_start+0x460>  // b.pmore
    40203974:	f85e83a9 	ldur	x9, [x29, #-24]
    40203978:	8b080128 	add	x8, x9, x8
    4020397c:	1400001e 	b	402039f4 <_binary_shell_bin_start+0x46c>
    40203980:	f85e03a8 	ldur	x8, [x29, #-32]
    40203984:	91002109 	add	x9, x8, #0x8
    40203988:	f81e03a9 	stur	x9, [x29, #-32]
    4020398c:	b9400116 	ldr	w22, [x8]
    40203990:	36f80096 	tbz	w22, #31, 402039a0 <_binary_shell_bin_start+0x418>
    40203994:	528005a0 	mov	w0, #0x2d                  	// #45
    40203998:	97ffff2f 	bl	40203654 <_binary_shell_bin_start+0xcc>
    4020399c:	4b1603f6 	neg	w22, w22
    402039a0:	52800037 	mov	w23, #0x1                   	// #1
    402039a4:	71002adf 	cmp	w22, #0xa
    402039a8:	540000c3 	b.cc	402039c0 <_binary_shell_bin_start+0x438>  // b.lo, b.ul, b.last
    402039ac:	0b170ae8 	add	w8, w23, w23, lsl #2
    402039b0:	531f7917 	lsl	w23, w8, #1
    402039b4:	1ad70ac8 	udiv	w8, w22, w23
    402039b8:	7100251f 	cmp	w8, #0x9
    402039bc:	54ffff88 	b.hi	402039ac <_binary_shell_bin_start+0x424>  // b.pmore
    402039c0:	1ad70ad8 	udiv	w24, w22, w23
    402039c4:	1100c300 	add	w0, w24, #0x30
    402039c8:	97ffff23 	bl	40203654 <_binary_shell_bin_start+0xcc>
    402039cc:	9bb47ee8 	umull	x8, w23, w20
    402039d0:	71002aff 	cmp	w23, #0xa
    402039d4:	1b17db16 	msub	w22, w24, w23, w22
    402039d8:	d363fd08 	lsr	x8, x8, #35
    402039dc:	2a0803f7 	mov	w23, w8
    402039e0:	54ffff02 	b.cs	402039c0 <_binary_shell_bin_start+0x438>  // b.hs, b.nlast
    402039e4:	17ffffb7 	b	402038c0 <_binary_shell_bin_start+0x338>
    402039e8:	f85e03a8 	ldur	x8, [x29, #-32]
    402039ec:	91002109 	add	x9, x8, #0x8
    402039f0:	f81e03a9 	stur	x9, [x29, #-32]
    402039f4:	f9400108 	ldr	x8, [x8]
    402039f8:	39400100 	ldrb	w0, [x8]
    402039fc:	34fff620 	cbz	w0, 402038c0 <_binary_shell_bin_start+0x338>
    40203a00:	91000516 	add	x22, x8, #0x1
    40203a04:	97ffff14 	bl	40203654 <_binary_shell_bin_start+0xcc>
    40203a08:	384016c0 	ldrb	w0, [x22], #1
    40203a0c:	35ffffc0 	cbnz	w0, 40203a04 <_binary_shell_bin_start+0x47c>
    40203a10:	17ffffac 	b	402038c0 <_binary_shell_bin_start+0x338>
    40203a14:	f85e03a9 	ldur	x9, [x29, #-32]
    40203a18:	91002128 	add	x8, x9, #0x8
    40203a1c:	f81e03a8 	stur	x8, [x29, #-32]
    40203a20:	f9400136 	ldr	x22, [x9]
    40203a24:	2a1f03e8 	mov	w8, wzr
    40203a28:	52800797 	mov	w23, #0x3c                  	// #60
    40203a2c:	14000008 	b	40203a4c <_binary_shell_bin_start+0x4c4>
    40203a30:	92400d28 	and	x8, x9, #0xf
    40203a34:	38686aa0 	ldrb	w0, [x21, x8]
    40203a38:	97ffff07 	bl	40203654 <_binary_shell_bin_start+0xcc>
    40203a3c:	52800028 	mov	w8, #0x1                   	// #1
    40203a40:	d10012f7 	sub	x23, x23, #0x4
    40203a44:	b10012ff 	cmn	x23, #0x4
    40203a48:	54fff3c0 	b.eq	402038c0 <_binary_shell_bin_start+0x338>  // b.none
    40203a4c:	9ad726c9 	lsr	x9, x22, x23
    40203a50:	b4ffff17 	cbz	x23, 40203a30 <_binary_shell_bin_start+0x4a8>
    40203a54:	12000d2a 	and	w10, w9, #0xf
    40203a58:	2a080148 	orr	w8, w10, w8
    40203a5c:	34ffff28 	cbz	w8, 40203a40 <_binary_shell_bin_start+0x4b8>
    40203a60:	17fffff4 	b	40203a30 <_binary_shell_bin_start+0x4a8>
    40203a64:	528004a0 	mov	w0, #0x25                  	// #37
    40203a68:	97fffefb 	bl	40203654 <_binary_shell_bin_start+0xcc>
    40203a6c:	a9524ff4 	ldp	x20, x19, [sp, #288]
    40203a70:	f9407bfc 	ldr	x28, [sp, #240]
    40203a74:	a95157f6 	ldp	x22, x21, [sp, #272]
    40203a78:	a9505ff8 	ldp	x24, x23, [sp, #256]
    40203a7c:	a94e7bfd 	ldp	x29, x30, [sp, #224]
    40203a80:	9104c3ff 	add	sp, sp, #0x130
    40203a84:	d65f03c0 	ret
    40203a88:	6c6c6548 	ldnp	d8, d25, [x10, #-320]
    40203a8c:	7266206f 	.inst	0x7266206f ; undefined
    40203a90:	73206d6f 	.inst	0x73206d6f ; undefined
    40203a94:	6c6c6568 	ldnp	d8, d25, [x11, #-320]
    40203a98:	25000a21 	cmpge	p1.b, p2/z, z17.b, #0
    40203a9c:	48000a73 	stxrh	w0, w19, [x19]
    40203aa0:	6f6c6c65 	.inst	0x6f6c6c65 ; undefined
    40203aa4:	726f5720 	.inst	0x726f5720 ; undefined
    40203aa8:	0a21646c 	bic	w12, w3, w1, lsl #25
    40203aac:	6c656800 	ldnp	d0, d26, [x0, #-432]
    40203ab0:	742e6f6c 	.inst	0x742e6f6c ; undefined
    40203ab4:	30007478 	adr	x24, 40204941 <_binary_shell_bin_start+0x13b9>
    40203ab8:	34333231 	cbz	w17, 4026a0fc <_binary_shell_bin_start+0x66b74>
    40203abc:	38373635 	.inst	0x38373635 ; undefined
    40203ac0:	63626139 	.inst	0x63626139 ; undefined
    40203ac4:	00666564 	.inst	0x00666564 ; undefined
	...

Disassembly of section .debug_loclists:

0000000000000000 <.debug_loclists>:
       0:	00000e51 	udf	#3665
       4:	00080005 	.inst	0x00080005 ; undefined
       8:	0000007a 	udf	#122
       c:	000001e8 	udf	#488
      10:	000001f8 	udf	#504
      14:	00000205 	udf	#517
      18:	0000020d 	udf	#525
      1c:	00000215 	udf	#533
      20:	00000225 	udf	#549
      24:	00000236 	udf	#566
      28:	0000023e 	udf	#574
      2c:	00000256 	udf	#598
      30:	0000026d 	udf	#621
      34:	00000292 	udf	#658
      38:	0000029c 	udf	#668
      3c:	000002e0 	udf	#736
      40:	000002fb 	udf	#763
      44:	0000033f 	udf	#831
      48:	00000383 	udf	#899
      4c:	0000038d 	udf	#909
      50:	00000397 	udf	#919
      54:	000003a1 	udf	#929
      58:	000003ab 	udf	#939
      5c:	000003b5 	udf	#949
      60:	000003bf 	udf	#959
      64:	000003c9 	udf	#969
      68:	000003d3 	udf	#979
      6c:	000003dd 	udf	#989
      70:	000003e7 	udf	#999
      74:	000003f1 	udf	#1009
      78:	000003fb 	udf	#1019
      7c:	00000425 	udf	#1061
      80:	00000436 	udf	#1078
      84:	00000471 	udf	#1137
      88:	000004c5 	udf	#1221
      8c:	000004d6 	udf	#1238
      90:	000004e0 	udf	#1248
      94:	000004ea 	udf	#1258
      98:	000004f4 	udf	#1268
      9c:	0000050e 	udf	#1294
      a0:	00000529 	udf	#1321
      a4:	000005c5 	udf	#1477
      a8:	000005d7 	udf	#1495
      ac:	00000611 	udf	#1553
      b0:	0000061b 	udf	#1563
      b4:	00000626 	udf	#1574
      b8:	00000637 	udf	#1591
      bc:	00000641 	udf	#1601
      c0:	0000065a 	udf	#1626
      c4:	0000066d 	udf	#1645
      c8:	0000067e 	udf	#1662
      cc:	00000688 	udf	#1672
      d0:	00000692 	udf	#1682
      d4:	0000069c 	udf	#1692
      d8:	000006a6 	udf	#1702
      dc:	000006c8 	udf	#1736
      e0:	000006e5 	udf	#1765
      e4:	000006f8 	udf	#1784
      e8:	00000709 	udf	#1801
      ec:	00000713 	udf	#1811
      f0:	0000072e 	udf	#1838
      f4:	00000738 	udf	#1848
      f8:	0000076e 	udf	#1902
      fc:	00000790 	udf	#1936
     100:	000007a1 	udf	#1953
     104:	000007b2 	udf	#1970
     108:	000007c5 	udf	#1989
     10c:	000007eb 	udf	#2027
     110:	000007fc 	udf	#2044
     114:	0000080d 	udf	#2061
     118:	0000081e 	udf	#2078
     11c:	0000082f 	udf	#2095
     120:	0000083c 	udf	#2108
     124:	00000848 	udf	#2120
     128:	00000854 	udf	#2132
     12c:	00000860 	udf	#2144
     130:	0000086d 	udf	#2157
     134:	00000879 	udf	#2169
     138:	00000885 	udf	#2181
     13c:	00000890 	udf	#2192
     140:	000008a1 	udf	#2209
     144:	000008ba 	udf	#2234
     148:	00000929 	udf	#2345
     14c:	0000093a 	udf	#2362
     150:	00000961 	udf	#2401
     154:	0000096b 	udf	#2411
     158:	0000097a 	udf	#2426
     15c:	000009f2 	udf	#2546
     160:	000009fc 	udf	#2556
     164:	00000a2f 	udf	#2607
     168:	00000a54 	udf	#2644
     16c:	00000a6c 	udf	#2668
     170:	00000a84 	udf	#2692
     174:	00000a9c 	udf	#2716
     178:	00000aa6 	udf	#2726
     17c:	00000ab0 	udf	#2736
     180:	00000ac4 	udf	#2756
     184:	00000ad8 	udf	#2776
     188:	00000af3 	udf	#2803
     18c:	00000b04 	udf	#2820
     190:	00000b0e 	udf	#2830
     194:	00000b18 	udf	#2840
     198:	00000b22 	udf	#2850
     19c:	00000b35 	udf	#2869
     1a0:	00000b46 	udf	#2886
     1a4:	00000b5a 	udf	#2906
     1a8:	00000b7b 	udf	#2939
     1ac:	00000b96 	udf	#2966
     1b0:	00000bd3 	udf	#3027
     1b4:	00000beb 	udf	#3051
     1b8:	00000c24 	udf	#3108
     1bc:	00000c5e 	udf	#3166
     1c0:	00000c68 	udf	#3176
     1c4:	00000c8d 	udf	#3213
     1c8:	00000c99 	udf	#3225
     1cc:	00000cbc 	udf	#3260
     1d0:	00000cef 	udf	#3311
     1d4:	00000d02 	udf	#3330
     1d8:	00000d7a 	udf	#3450
     1dc:	00000dd6 	udf	#3542
     1e0:	00000dee 	udf	#3566
     1e4:	00000e06 	udf	#3590
     1e8:	00000e10 	udf	#3600
     1ec:	00000e1a 	udf	#3610
     1f0:	00000e32 	udf	#3634
     1f4:	00044101 	.inst	0x00044101 ; undefined
     1f8:	04500114 	mul	z20.h, p0/m, z20.h, z8.h
     1fc:	a3041c14 	.inst	0xa3041c14 ; undefined
     200:	009f5001 	.inst	0x009f5001 ; undefined
     204:	00044101 	.inst	0x00044101 ; undefined
     208:	04530110 	umulh	z16.h, p0/m, z16.h, z8.h
     20c:	57011c10 	.inst	0x57011c10 ; undefined
     210:	04410100 	sub	z0.h, p0/m, z0.h, z8.h
     214:	50011408 	adr	x8, 2496 <_binary_shell_bin_size-0x100eb6a>
     218:	04410100 	sub	z0.h, p0/m, z0.h, z8.h
     21c:	50011c14 	adr	x20, 259e <_binary_shell_bin_size-0x100ea62>
     220:	04410100 	sub	z0.h, p0/m, z0.h, z8.h
     224:	5001281c 	adr	x28, 2726 <_binary_shell_bin_size-0x100e8da>
     228:	04402804 	saddv	d4, p2, z0.h
     22c:	9f5001a3 	.inst	0x9f5001a3 ; undefined
     230:	04410100 	sub	z0.h, p0/m, z0.h, z8.h
     234:	300a6c44 	adr	x4, 14fbd <_binary_shell_bin_size-0xffc043>
     238:	9308939f 	.inst	0x9308939f ; undefined
     23c:	939f3108 	.inst	0x939f3108 ; undefined
     240:	41010008 	.inst	0x41010008 ; undefined
     244:	01645c04 	.inst	0x01645c04 ; undefined
     248:	41010050 	.inst	0x41010050 ; undefined
     24c:	8c018804 	.inst	0x8c018804 ; undefined
     250:	04580101 	orr	z1.h, p0/m, z1.h, z8.h
     254:	01b4018c 	.inst	0x01b4018c ; undefined
     258:	d8045101 	prfm	pldl1strm, 8c78 <_binary_shell_bin_size-0x1008388>
     25c:	0101e401 	.inst	0x0101e401 ; undefined
     260:	41010051 	.inst	0x41010051 ; undefined
     264:	c801b804 	stlxr	w1, x4, [x0]
     268:	00780701 	.inst	0x00780701 ; undefined
     26c:	21208910 	.inst	0x21208910 ; undefined
     270:	01c8049f 	.inst	0x01c8049f ; undefined
     274:	580101d8 	ldr	x24, 22ac <_binary_shell_bin_size-0x100ed54>
     278:	04410100 	sub	z0.h, p0/m, z0.h, z8.h
     27c:	029801e4 	.inst	0x029801e4 ; undefined
     280:	98045001 	ldrsw	x1, 8c80 <_binary_shell_bin_size-0x1008380>
     284:	0402b002 	.inst	0x0402b002 ; undefined
     288:	9f5001a3 	.inst	0x9f5001a3 ; undefined
     28c:	b402b004 	cbz	x4, 588c <_binary_shell_bin_size-0x100b774>
     290:	04500102 	mul	z2.h, p0/m, z2.h, z8.h
     294:	02cc02b4 	.inst	0x02cc02b4 ; undefined
     298:	5001a304 	adr	x4, 36fa <_binary_shell_bin_size-0x100d906>
     29c:	4101009f 	.inst	0x4101009f ; undefined
     2a0:	c4028404 	ldnt1sb	{z4.d}, p1/z, [z0.d, x2]
     2a4:	00630102 	.inst	0x00630102 ; undefined
     2a8:	cc044101 	.inst	0xcc044101 ; undefined
     2ac:	0102f002 	.inst	0x0102f002 ; undefined
     2b0:	02f00450 	.inst	0x02f00450 ; undefined
     2b4:	a304038c 	.inst	0xa304038c ; undefined
     2b8:	049f5001 	mla	z1.s, p4/m, z0.s, z31.s
     2bc:	0398038c 	.inst	0x0398038c ; undefined
     2c0:	98045001 	ldrsw	x1, 8cc0 <_binary_shell_bin_size-0x1008340>
     2c4:	0403b403 	.inst	0x0403b403 ; undefined
     2c8:	9f5001a3 	.inst	0x9f5001a3 ; undefined
     2cc:	e403b404 	st1b	{z4.d}, p5, [x0, z3.d]
     2d0:	04500103 	mul	z3.h, p0/m, z3.h, z8.h
     2d4:	03fc03e4 	.inst	0x03fc03e4 ; undefined
     2d8:	5001a304 	adr	x4, 373a <_binary_shell_bin_size-0x100d8c6>
     2dc:	03fc049f 	.inst	0x03fc049f ; undefined
     2e0:	50010480 	adr	x0, 2372 <_binary_shell_bin_size-0x100ec8e>
     2e4:	bc048004 	stur	s4, [x0, #72]
     2e8:	00680104 	.inst	0x00680104 ; undefined
     2ec:	cc044101 	.inst	0xcc044101 ; undefined
     2f0:	0102e402 	.inst	0x0102e402 ; undefined
     2f4:	02e40451 	.inst	0x02e40451 ; undefined
     2f8:	630106f8 	.inst	0x630106f8 ; undefined
     2fc:	9406f804 	bl	1be30c <_binary_shell_bin_size-0xe52cf4>
     300:	01a30407 	.inst	0x01a30407 ; undefined
     304:	01009f51 	.inst	0x01009f51 ; undefined
     308:	02cc0441 	.inst	0x02cc0441 ; undefined
     30c:	52010380 	eor	w0, w28, #0x80000000
     310:	8c038004 	.inst	0x8c038004 ; undefined
     314:	01a30403 	.inst	0x01a30403 ; undefined
     318:	8c049f52 	.inst	0x8c049f52 ; undefined
     31c:	0103ac03 	.inst	0x0103ac03 ; undefined
     320:	03ac0452 	.inst	0x03ac0452 ; undefined
     324:	a30403b4 	.inst	0xa30403b4 ; undefined
     328:	049f5201 	mla	z1.s, p4/m, z16.s, z31.s
     32c:	03f403b4 	.inst	0x03f403b4 ; undefined
     330:	f4045201 	.inst	0xf4045201 ; undefined
     334:	0403fc03 	msb	z3.b, p7/m, z3.b, z0.b
     338:	9f5201a3 	.inst	0x9f5201a3 ; undefined
     33c:	8c03fc04 	.inst	0x8c03fc04 ; undefined
     340:	04520104 	smulh	z4.h, p0/m, z4.h, z8.h
     344:	04bc048c 	sub	z12.s, z4.s, z28.s
     348:	01006601 	.inst	0x01006601 ; undefined
     34c:	02cc0441 	.inst	0x02cc0441 ; undefined
     350:	53010384 	lsl	w4, w28, #31
     354:	8c038404 	.inst	0x8c038404 ; undefined
     358:	01a30403 	.inst	0x01a30403 ; undefined
     35c:	8c049f53 	.inst	0x8c049f53 ; undefined
     360:	0103a803 	.inst	0x0103a803 ; undefined
     364:	03a80453 	.inst	0x03a80453 ; undefined
     368:	a30403b4 	.inst	0xa30403b4 ; undefined
     36c:	049f5301 	mla	z1.s, p4/m, z24.s, z31.s
     370:	03f803b4 	.inst	0x03f803b4 ; undefined
     374:	f8045301 	stur	x1, [x24, #69]
     378:	0403fc03 	msb	z3.b, p7/m, z3.b, z0.b
     37c:	9f5301a3 	.inst	0x9f5301a3 ; undefined
     380:	9403fc04 	bl	ff390 <_binary_shell_bin_size-0xf11c70>
     384:	04530104 	umulh	z4.h, p0/m, z4.h, z8.h
     388:	04bc0494 	sub	z20.s, z4.s, z28.s
     38c:	01006701 	.inst	0x01006701 ; undefined
     390:	03b80441 	.inst	0x03b80441 ; undefined
     394:	650104c0 	bfsub	z0.h, z6.h, z1.h
     398:	04410100 	sub	z0.h, p0/m, z0.h, z8.h
     39c:	04bc03d0 	add	z16.s, z30.s, z28.s
     3a0:	01006401 	.inst	0x01006401 ; undefined
     3a4:	04980441 	orr	z1.s, p1/m, z1.s, z2.s
     3a8:	640104bc 	.inst	0x640104bc ; undefined
     3ac:	04410100 	sub	z0.h, p0/m, z0.h, z8.h
     3b0:	05d404c0 	mov	z0.d, p4/z, #38
     3b4:	01006501 	.inst	0x01006501 ; undefined
     3b8:	05a40441 	zip2	z1.q, z2.q, z4.q
     3bc:	680105d0 	.inst	0x680105d0 ; undefined
     3c0:	04410100 	sub	z0.h, p0/m, z0.h, z8.h
     3c4:	05d004e4 	mov	z4.d, p0/z, #39
     3c8:	01006401 	.inst	0x01006401 ; undefined
     3cc:	05ac0441 	zip2	z1.q, z2.q, z12.q
     3d0:	640105d0 	.inst	0x640105d0 ; undefined
     3d4:	04410100 	sub	z0.h, p0/m, z0.h, z8.h
     3d8:	078005d4 	.inst	0x078005d4 ; undefined
     3dc:	01006501 	.inst	0x01006501 ; undefined
     3e0:	06b80441 	.inst	0x06b80441 ; undefined
     3e4:	680106e4 	.inst	0x680106e4 ; undefined
     3e8:	04410100 	sub	z0.h, p0/m, z0.h, z8.h
     3ec:	06e405f8 	.inst	0x06e405f8 ; undefined
     3f0:	01006401 	.inst	0x01006401 ; undefined
     3f4:	06c00441 	.inst	0x06c00441 ; undefined
     3f8:	640106e4 	.inst	0x640106e4 ; undefined
     3fc:	04410100 	sub	z0.h, p0/m, z0.h, z8.h
     400:	06fc06ec 	.inst	0x06fc06ec ; undefined
     404:	01005801 	.inst	0x01005801 ; undefined
     408:	07e00441 	.inst	0x07e00441 ; undefined
     40c:	780c07e4 	strh	w4, [sp], #192
     410:	87801100 	.inst	0x87801100 ; undefined
     414:	111c0ea7 	add	w7, w21, #0x703
     418:	049f1b7f 	.inst	0x049f1b7f ; undefined
     41c:	07ec07e8 	.inst	0x07ec07e8 ; undefined
     420:	1100780f 	add	w15, w0, #0x1e
     424:	0ea78780 	add	v0.2s, v28.2s, v7.2s
     428:	1b7f111c 	.inst	0x1b7f111c ; undefined
     42c:	9f220111 	.inst	0x9f220111 ; undefined
     430:	04410100 	sub	z0.h, p0/m, z0.h, z8.h
     434:	07f807f0 	.inst	0x07f807f0 ; undefined
     438:	f8045001 	stur	x1, [x0, #69]
     43c:	0108b407 	.inst	0x0108b407 ; undefined
     440:	41010058 	.inst	0x41010058 ; undefined
     444:	8c098004 	.inst	0x8c098004 ; undefined
     448:	045d0109 	.inst	0x045d0109 ; undefined
     44c:	09c809bc 	.inst	0x09c809bc ; undefined
     450:	fc045d01 	str	d1, [x8, #69]!
     454:	010a8809 	.inst	0x010a8809 ; undefined
     458:	0ab8045d 	bic	w29, w2, w24, asr #1
     45c:	5d010ac4 	stlur	h4, [x22, #16]
     460:	840af804 	prfb	pldl3keep, p6, [z0.s, #10]
     464:	045d010b 	.inst	0x045d010b ; undefined
     468:	0bc00bb4 	.inst	0x0bc00bb4 ; undefined
     46c:	f4045d01 	.inst	0xf4045d01 ; undefined
     470:	010c800b 	.inst	0x010c800b ; undefined
     474:	0cb0045d 	.inst	0x0cb0045d ; undefined
     478:	5d010cbc 	.inst	0x5d010cbc ; undefined
     47c:	04410100 	sub	z0.h, p0/m, z0.h, z8.h
     480:	098c08ec 	.inst	0x098c08ec ; undefined
     484:	9f001103 	.inst	0x9f001103 ; undefined
     488:	c8098c04 	stlxr	w9, x4, [x0]
     48c:	01110309 	.inst	0x01110309 ; undefined
     490:	09c8049f 	.inst	0x09c8049f ; undefined
     494:	11030a88 	add	w8, w20, #0xc2
     498:	88049f02 	stlxr	w4, w2, [x24]
     49c:	030ac40a 	.inst	0x030ac40a ; undefined
     4a0:	049f0311 	.inst	0x049f0311 ; undefined
     4a4:	0b840ac4 	add	w4, w22, w4, asr #2
     4a8:	9f041103 	.inst	0x9f041103 ; undefined
     4ac:	c00b8404 	.inst	0xc00b8404 ; undefined
     4b0:	0511030b 	mov	z11.b, p1/z, #24
     4b4:	0bc0049f 	.inst	0x0bc0049f ; undefined
     4b8:	11030c80 	add	w0, w4, #0xc3
     4bc:	80049f06 	.inst	0x80049f06 ; undefined
     4c0:	030cbc0c 	.inst	0x030cbc0c ; undefined
     4c4:	049f0711 	.inst	0x049f0711 ; undefined
     4c8:	0cc00cbc 	.inst	0x0cc00cbc ; undefined
     4cc:	9f081103 	.inst	0x9f081103 ; undefined
     4d0:	04410100 	sub	z0.h, p0/m, z0.h, z8.h
     4d4:	0cc008ec 	ld4	{v12.2s-v15.2s}, [x7], x0
     4d8:	c0045a01 	.inst	0xc0045a01 ; undefined
     4dc:	010d940c 	.inst	0x010d940c ; undefined
     4e0:	4101005d 	.inst	0x4101005d ; undefined
     4e4:	900cc804 	adrp	x4, 19900000 <_binary_shell_bin_size+0x188ef000>
     4e8:	0058010d 	.inst	0x0058010d ; undefined
     4ec:	d4044101 	svc	#0x2208
     4f0:	010d900c 	.inst	0x010d900c ; undefined
     4f4:	4101005b 	.inst	0x4101005b ; undefined
     4f8:	900cd804 	adrp	x4, 19b00000 <_binary_shell_bin_size+0x18aef000>
     4fc:	0059010d 	.inst	0x0059010d ; undefined
     500:	a8044101 	stnp	x1, x16, [x8, #64]
     504:	010ed40e 	.inst	0x010ed40e ; undefined
     508:	0ed40450 	fminnm	v16.4h, v2.4h, v20.4h
     50c:	8f0214f8 	.inst	0x8f0214f8 ; undefined
     510:	14fc0408 	b	3f01530 <_binary_shell_bin_size+0x2ef0530>
     514:	8f0215b4 	.inst	0x8f0215b4 ; undefined
     518:	41010008 	.inst	0x41010008 ; undefined
     51c:	d00ea804 	adrp	x4, 1d502000 <_binary_shell_bin_size+0x1c4f1000>
     520:	0451010e 	.inst	0x0451010e ; undefined
     524:	12a80ed0 	mov	w16, #0xbf89ffff            	// #-1081475073
     528:	84046701 	ldff1b	{z1.s}, p1/z, [x24, z4.s, uxtw]
     52c:	04138c13 	lsl	z19.b, p3/m, z19.b, z0.b
     530:	9f5101a3 	.inst	0x9f5101a3 ; undefined
     534:	04410100 	sub	z0.h, p0/m, z0.h, z8.h
     538:	0edc0ed4 	fmls	v20.4h, v22.4h, v28.4h
     53c:	9f001103 	.inst	0x9f001103 ; undefined
     540:	e80edc04 	.inst	0xe80edc04 ; undefined
     544:	0111030e 	.inst	0x0111030e ; undefined
     548:	0ee8049f 	.inst	0x0ee8049f ; undefined
     54c:	11030ef4 	add	w20, w23, #0xc3
     550:	f4049f02 	.inst	0xf4049f02 ; undefined
     554:	030f800e 	.inst	0x030f800e ; undefined
     558:	049f0311 	.inst	0x049f0311 ; undefined
     55c:	0f8c0f80 	.inst	0x0f8c0f80 ; undefined
     560:	9f041103 	.inst	0x9f041103 ; undefined
     564:	980f8c04 	ldrsw	x4, 1f6e4 <_binary_shell_bin_size-0xff191c>
     568:	0511030f 	mov	z15.b, p1/z, #24
     56c:	0f98049f 	.inst	0x0f98049f ; undefined
     570:	11030fa4 	add	w4, w29, #0xc3
     574:	a4049f06 	.inst	0xa4049f06 ; undefined
     578:	030fb00f 	.inst	0x030fb00f ; undefined
     57c:	049f0711 	.inst	0x049f0711 ; undefined
     580:	0fcc0fb0 	.inst	0x0fcc0fb0 ; undefined
     584:	9f081103 	.inst	0x9f081103 ; undefined
     588:	d40fcc04 	.inst	0xd40fcc04 ; undefined
     58c:	0011030f 	.inst	0x0011030f ; undefined
     590:	0fd4049f 	.inst	0x0fd4049f ; undefined
     594:	11030fdc 	add	w28, w30, #0xc3
     598:	dc049f01 	.inst	0xdc049f01 ; undefined
     59c:	030fe40f 	.inst	0x030fe40f ; undefined
     5a0:	049f0211 	.inst	0x049f0211 ; undefined
     5a4:	0fec0fe4 	.inst	0x0fec0fe4 ; undefined
     5a8:	9f031103 	.inst	0x9f031103 ; undefined
     5ac:	f40fec04 	.inst	0xf40fec04 ; undefined
     5b0:	0411030f 	.inst	0x0411030f ; undefined
     5b4:	0ff4049f 	.inst	0x0ff4049f ; undefined
     5b8:	11030ffc 	add	w28, wsp, #0xc3
     5bc:	fc049f05 	str	d5, [x24, #73]!
     5c0:	0310840f 	.inst	0x0310840f ; undefined
     5c4:	049f0611 	.inst	0x049f0611 ; undefined
     5c8:	10881084 	adr	x4, fffffffffff107d8 <__free_ram_end+0xffffffffbccca7d8>
     5cc:	9f071103 	.inst	0x9f071103 ; undefined
     5d0:	04410100 	sub	z0.h, p0/m, z0.h, z8.h
     5d4:	10880ed4 	adr	x20, fffffffffff107ac <__free_ram_end+0xffffffffbccca7ac>
     5d8:	049f3002 	.inst	0x049f3002 ; undefined
     5dc:	14fc14d0 	b	3f0591c <_binary_shell_bin_size+0x2ef491c>
     5e0:	01005001 	.inst	0x01005001 ; undefined
     5e4:	10940441 	adr	x1, fffffffffff2866c <__free_ram_end+0xffffffffbcce266c>
     5e8:	790d1098 	strh	w24, [x4, #1672]
     5ec:	10008300 	adr	x0, 164c <_binary_shell_bin_size-0x100f9b4>
     5f0:	221e40a0 	.inst	0x221e40a0 ; undefined
     5f4:	9f3fc823 	.inst	0x9f3fc823 ; undefined
     5f8:	d4109804 	.inst	0xd4109804 ; undefined
     5fc:	988b0510 	ldrsw	x16, fffffffffff1669c <__free_ram_end+0xffffffffbccd069c>
     600:	049f00c0 	.inst	0x049f00c0 ; undefined
     604:	14d013d0 	b	3405544 <_binary_shell_bin_size+0x23f4544>
     608:	d0046501 	adrp	x1, 8ca2000 <_binary_shell_bin_size+0x7c91000>
     60c:	0514fc14 	.inst	0x0514fc14 ; undefined
     610:	00c0a070 	.inst	0x00c0a070 ; undefined
     614:	1598049f 	b	6601890 <_binary_shell_bin_size+0x55f0890>
     618:	650115b4 	.inst	0x650115b4 ; undefined
     61c:	04410100 	sub	z0.h, p0/m, z0.h, z8.h
     620:	119410a4 	.inst	0x119410a4 ; undefined
     624:	01006401 	.inst	0x01006401 ; undefined
     628:	10d80441 	adr	x1, fffffffffffb06b0 <__free_ram_end+0xffffffffbcd6a6b0>
     62c:	31021194 	adds	w20, w12, #0x84
     630:	4101009f 	.inst	0x4101009f ; undefined
     634:	ec118c04 	.inst	0xec118c04 ; undefined
     638:	04640114 	add	z20.h, z8.h, z4.h
     63c:	15b414fc 	b	6d05a2c <_binary_shell_bin_size+0x5cf4a2c>
     640:	01006401 	.inst	0x01006401 ; undefined
     644:	11cc0441 	umin	w1, w2, #1
     648:	660111e8 	.inst	0x660111e8 ; undefined
     64c:	04410100 	sub	z0.h, p0/m, z0.h, z8.h
     650:	12a81298 	mov	w24, #0xbf6bffff            	// #-1083441153
     654:	049f3002 	.inst	0x049f3002 ; undefined
     658:	138c12a8 	extr	w8, w21, w12, #4
     65c:	fc046c01 	str	d1, [x0, #70]!
     660:	01159814 	.inst	0x01159814 ; undefined
     664:	4101006c 	.inst	0x4101006c ; undefined
     668:	8c12a804 	.inst	0x8c12a804 ; undefined
     66c:	9f310213 	.inst	0x9f310213 ; undefined
     670:	9814fc04 	ldrsw	x4, 2a5f0 <_binary_shell_bin_size-0xfe6a10>
     674:	9f310215 	.inst	0x9f310215 ; undefined
     678:	04410100 	sub	z0.h, p0/m, z0.h, z8.h
     67c:	138c12ac 	extr	w12, w21, w12, #4
     680:	fc046601 	str	d1, [x16], #70
     684:	01159814 	.inst	0x01159814 ; undefined
     688:	41010066 	.inst	0x41010066 ; undefined
     68c:	8c12cc04 	.inst	0x8c12cc04 ; undefined
     690:	00660113 	.inst	0x00660113 ; undefined
     694:	dc044101 	.inst	0xdc044101 ; undefined
     698:	0112e812 	.inst	0x0112e812 ; undefined
     69c:	41010052 	.inst	0x41010052 ; undefined
     6a0:	f4139004 	.inst	0xf4139004 ; undefined
     6a4:	00630113 	.inst	0x00630113 ; undefined
     6a8:	d4044101 	svc	#0x2208
     6ac:	0113f413 	.inst	0x0113f413 ; undefined
     6b0:	41010063 	.inst	0x41010063 ; undefined
     6b4:	ac13f404 	stnp	q4, q29, [x0, #624]
     6b8:	80860414 	.inst	0x80860414 ; undefined
     6bc:	ac049f20 	stnp	q0, q7, [x25, #144]
     6c0:	0514b014 	.inst	0x0514b014 ; undefined
     6c4:	00c08086 	.inst	0x00c08086 ; undefined
     6c8:	1598049f 	b	6601944 <_binary_shell_bin_size+0x55f0944>
     6cc:	860415b4 	.inst	0x860415b4 ; undefined
     6d0:	009f2080 	.inst	0x009f2080 ; undefined
     6d4:	f0044101 	adrp	x1, 8823000 <_binary_shell_bin_size+0x7812000>
     6d8:	0714fc13 	.inst	0x0714fc13 ; undefined
     6dc:	fc808010 	.inst	0xfc808010 ; undefined
     6e0:	049f04b7 	.inst	0x049f04b7 ; undefined
     6e4:	15b41598 	b	6d05d44 <_binary_shell_bin_size+0x5cf4d44>
     6e8:	80801007 	.inst	0x80801007 ; undefined
     6ec:	9f04b7fc 	.inst	0x9f04b7fc ; undefined
     6f0:	04410100 	sub	z0.h, p0/m, z0.h, z8.h
     6f4:	14b813f4 	b	2e056c4 <_binary_shell_bin_size+0x1df46c4>
     6f8:	049f3102 	.inst	0x049f3102 ; undefined
     6fc:	15b41598 	b	6d05d5c <_binary_shell_bin_size+0x5cf4d5c>
     700:	009f3102 	.inst	0x009f3102 ; undefined
     704:	f8044101 	stur	x1, [x8, #68]
     708:	0114b813 	.inst	0x0114b813 ; undefined
     70c:	15980463 	b	6601898 <_binary_shell_bin_size+0x55f0898>
     710:	630115b4 	.inst	0x630115b4 ; undefined
     714:	04410100 	sub	z0.h, p0/m, z0.h, z8.h
     718:	14b81498 	b	2e05978 <_binary_shell_bin_size+0x1df4978>
     71c:	01006301 	.inst	0x01006301 ; undefined
     720:	15b40441 	b	6d01824 <_binary_shell_bin_size+0x5cf0824>
     724:	500115d0 	adr	x16, 29de <_binary_shell_bin_size-0x100e622>
     728:	f815d004 	stur	x4, [x0, #-163]
     72c:	04630116 	add	z22.h, z8.h, z3.h
     730:	178416f8 	b	fffffffffe106310 <__free_ram_end+0xffffffffbaec0310>
     734:	5001a304 	adr	x4, 3b96 <_binary_shell_bin_size-0x100d46a>
     738:	4101009f 	.inst	0x4101009f ; undefined
     73c:	f016ec04 	adrp	x4, 2dd83000 <_binary_shell_bin_size+0x2cd72000>
     740:	00640116 	.inst	0x00640116 ; undefined
     744:	d0044101 	adrp	x1, 8822000 <_binary_shell_bin_size+0x7811000>
     748:	03168015 	.inst	0x03168015 ; undefined
     74c:	049f0011 	.inst	0x049f0011 ; undefined
     750:	16841680 	b	fffffffffa106150 <__free_ram_end+0xffffffffb6ec0150>
     754:	23001105 	.inst	0x23001105 ; undefined
     758:	84049f01 	ldnt1sb	{z1.s}, p7/z, [z24.s, x4]
     75c:	0316c016 	.inst	0x0316c016 ; undefined
     760:	049f0111 	.inst	0x049f0111 ; undefined
     764:	16cc16c0 	b	fffffffffb306264 <__free_ram_end+0xffffffffb80c0264>
     768:	23011105 	.inst	0x23011105 ; undefined
     76c:	cc049f01 	.inst	0xcc049f01 ; undefined
     770:	0516d016 	.inst	0x0516d016 ; undefined
     774:	01230011 	.inst	0x01230011 ; undefined
     778:	4101009f 	.inst	0x4101009f ; undefined
     77c:	a4178404 	.inst	0xa4178404 ; undefined
     780:	04500117 	mul	z23.h, p0/m, z23.h, z8.h
     784:	1a8017a4 	csinc	w4, w29, w0, ne	// ne = any
     788:	80046301 	.inst	0x80046301 ; undefined
     78c:	041a941a 	.inst	0x041a941a ; undefined
     790:	9f5001a3 	.inst	0x9f5001a3 ; undefined
     794:	c81a9404 	stlxr	w26, x4, [x0]
     798:	0063011a 	.inst	0x0063011a ; undefined
     79c:	a0044101 	ldnt1w	{z0.s-z1.s}, pn8/z, [x8, x4, lsl #2]
     7a0:	011a8417 	.inst	0x011a8417 ; undefined
     7a4:	1a940466 	csinc	w6, w3, w20, eq	// eq = none
     7a8:	66011ac8 	.inst	0x66011ac8 ; undefined
     7ac:	04410100 	sub	z0.h, p0/m, z0.h, z8.h
     7b0:	188017c4 	ldr	w4, fffffffffff00aa8 <__free_ram_end+0xffffffffbccbaaa8>
     7b4:	c0045801 	.inst	0xc0045801 ; undefined
     7b8:	011ac81a 	.inst	0x011ac81a ; undefined
     7bc:	41010058 	.inst	0x41010058 ; undefined
     7c0:	e017c804 	ld1b	{za0v.b[w14, 4]}, p2/z, [x0, x23]
     7c4:	9f300a17 	.inst	0x9f300a17 ; undefined
     7c8:	08930893 	stllrb	w19, [x4]
     7cc:	08939f31 	stlrb	w17, [x25]
     7d0:	04410100 	sub	z0.h, p0/m, z0.h, z8.h
     7d4:	17e817e4 	b	ffffffffffa06764 <__free_ram_end+0xffffffffbc7c0764>
     7d8:	1100790a 	add	w10, w8, #0x1e
     7dc:	111c07e8 	add	w8, wsp, #0x701
     7e0:	049f1b7f 	.inst	0x049f1b7f ; undefined
     7e4:	17f017ec 	b	ffffffffffc06794 <__free_ram_end+0xffffffffbc9c0794>
     7e8:	1100790d 	add	w13, w8, #0x1e
     7ec:	111c07e8 	add	w8, wsp, #0x701
     7f0:	01111b7f 	.inst	0x01111b7f ; undefined
     7f4:	01009f22 	.inst	0x01009f22 ; undefined
     7f8:	188c0441 	ldr	w1, fffffffffff18880 <__free_ram_end+0xffffffffbccd2880>
     7fc:	68011988 	.inst	0x68011988 ; undefined
     800:	f419b404 	.inst	0xf419b404 ; undefined
     804:	00680119 	.inst	0x00680119 ; undefined
     808:	8c044101 	.inst	0x8c044101 ; undefined
     80c:	01198818 	.inst	0x01198818 ; undefined
     810:	19b40467 	.inst	0x19b40467 ; undefined
     814:	670119f4 	.inst	0x670119f4 ; undefined
     818:	04410100 	sub	z0.h, p0/m, z0.h, z8.h
     81c:	198818b8 	.inst	0x198818b8 ; undefined
     820:	b4046501 	cbz	x1, 94c0 <_binary_shell_bin_size-0x1007b40>
     824:	0119f419 	.inst	0x0119f419 ; undefined
     828:	41010065 	.inst	0x41010065 ; undefined
     82c:	88189c04 	stlxr	w24, w4, [x0]
     830:	04640119 	add	z25.h, z8.h, z4.h
     834:	19f419b4 	.inst	0x19f419b4 ; undefined
     838:	01006401 	.inst	0x01006401 ; undefined
     83c:	19a00441 	.inst	0x19a00441 ; undefined
     840:	110419b4 	add	w20, w13, #0x106
     844:	009f00c0 	.inst	0x009f00c0 ; undefined
     848:	a0044101 	ldnt1w	{z0.s-z1.s}, pn8/z, [x8, x4, lsl #2]
     84c:	0319b419 	.inst	0x0319b419 ; undefined
     850:	009f0111 	.inst	0x009f0111 ; undefined
     854:	a0044101 	ldnt1w	{z0.s-z1.s}, pn8/z, [x8, x4, lsl #2]
     858:	0319b419 	.inst	0x0319b419 ; undefined
     85c:	009f0311 	.inst	0x009f0311 ; undefined
     860:	a0044101 	ldnt1w	{z0.s-z1.s}, pn8/z, [x8, x4, lsl #2]
     864:	0319b419 	.inst	0x0319b419 ; undefined
     868:	009f088f 	.inst	0x009f088f ; undefined
     86c:	a0044101 	ldnt1w	{z0.s-z1.s}, pn8/z, [x8, x4, lsl #2]
     870:	0419b419 	clz	z25.b, p5/m, z0.b
     874:	9f00c011 	.inst	0x9f00c011 ; undefined
     878:	04410100 	sub	z0.h, p0/m, z0.h, z8.h
     87c:	19b419a0 	.inst	0x19b419a0 ; undefined
     880:	9f011103 	.inst	0x9f011103 ; undefined
     884:	04410100 	sub	z0.h, p0/m, z0.h, z8.h
     888:	19b419a0 	.inst	0x19b419a0 ; undefined
     88c:	9f031103 	.inst	0x9f031103 ; undefined
     890:	04410100 	sub	z0.h, p0/m, z0.h, z8.h
     894:	19b419a0 	.inst	0x19b419a0 ; undefined
     898:	00088f02 	.inst	0x00088f02 ; undefined
     89c:	c4044101 	ld1b	{z1.d}, p0/z, [x8, z4.d, uxtw]
     8a0:	0123941b 	.inst	0x0123941b ; undefined
     8a4:	23e00465 	.inst	0x23e00465 ; undefined
     8a8:	65012880 	.inst	0x65012880 ; undefined
     8ac:	04410100 	sub	z0.h, p0/m, z0.h, z8.h
     8b0:	1bc41ba0 	.inst	0x1bc41ba0 ; undefined
     8b4:	049f3002 	.inst	0x049f3002 ; undefined
     8b8:	23d81bc4 	.inst	0x23d81bc4 ; undefined
     8bc:	e0046801 	ld1b	{za0h.b[w15, 1]}, p2/z, [x0, x4]
     8c0:	0128e423 	.inst	0x0128e423 ; undefined
     8c4:	41010068 	.inst	0x41010068 ; undefined
     8c8:	cc1bc404 	.inst	0xcc1bc404 ; undefined
     8cc:	00110523 	.inst	0x00110523 ; undefined
     8d0:	049f1b38 	.inst	0x049f1b38 ; undefined
     8d4:	24f424c0 	cmplo	p0.d, p1/z, z6.d, #80
     8d8:	f4045201 	.inst	0xf4045201 ; undefined
     8dc:	01258c24 	.inst	0x01258c24 ; undefined
     8e0:	25b80458 	whilele	p8.s, w2, w24
     8e4:	600125e0 	.inst	0x600125e0 ; undefined
     8e8:	f025e004 	adrp	x4, 4bc03000 <__free_ram_end+0x89bd000>
     8ec:	045c0125 	.inst	0x045c0125 ; undefined
     8f0:	268425f0 	.inst	0x268425f0 ; undefined
     8f4:	84045b01 	ld1b	{z1.s}, p6/z, [x24, z4.s, uxtw]
     8f8:	01268826 	.inst	0x01268826 ; undefined
     8fc:	2688045d 	.inst	0x2688045d ; undefined
     900:	5e0126b4 	.inst	0x5e0126b4 ; undefined
     904:	e426b404 	.inst	0xe426b404 ; undefined
     908:	045f0126 	.inst	0x045f0126 ; undefined
     90c:	26f426e4 	.inst	0x26f426e4 ; undefined
     910:	f4045a01 	.inst	0xf4045a01 ; undefined
     914:	01279826 	.inst	0x01279826 ; undefined
     918:	27980459 	.inst	0x27980459 ; undefined
     91c:	580127b0 	ldr	x16, 2e10 <_binary_shell_bin_size-0x100e1f0>
     920:	d427d004 	.inst	0xd427d004 ; undefined
     924:	00110327 	.inst	0x00110327 ; undefined
     928:	27d4049f 	.inst	0x27d4049f ; undefined
     92c:	11052880 	add	w0, w4, #0x14a
     930:	9f1b3800 	.inst	0x9f1b3800 ; undefined
     934:	04410100 	sub	z0.h, p0/m, z0.h, z8.h
     938:	23cc1bc4 	.inst	0x23cc1bc4 ; undefined
     93c:	ec046701 	.inst	0xec046701 ; undefined
     940:	01288023 	.inst	0x01288023 ; undefined
     944:	41010067 	.inst	0x41010067 ; undefined
     948:	98239404 	ldrsw	x4, 47bc8 <_binary_shell_bin_size-0xfc9438>
     94c:	05110323 	mov	z3.b, p1/z, #25
     950:	2398049f 	.inst	0x2398049f ; undefined
     954:	1103239c 	add	w28, w28, #0xc8
     958:	9c049f00 	ldr	q0, 9d38 <_binary_shell_bin_size-0x10072c8>
     95c:	0323b823 	.inst	0x0323b823 ; undefined
     960:	049f0411 	.inst	0x049f0411 ; undefined
     964:	23cc23b8 	.inst	0x23cc23b8 ; undefined
     968:	9f7f1103 	.inst	0x9f7f1103 ; undefined
     96c:	04410100 	sub	z0.h, p0/m, z0.h, z8.h
     970:	288027e4 	stp	w4, w9, [sp], #0
     974:	01005801 	.inst	0x01005801 ; undefined
     978:	23dc0441 	.inst	0x23dc0441 ; undefined
     97c:	890623e4 	.inst	0x890623e4 ; undefined
     980:	22007900 	.inst	0x22007900 ; undefined
     984:	4101009f 	.inst	0x4101009f ; undefined
     988:	9824c004 	ldrsw	x4, 4a188 <_binary_shell_bin_size-0xfc6e78>
     98c:	0c110325 	.inst	0x0c110325 ; undefined
     990:	2598049f 	cmpgt	p15.s, p1/z, z4.s, #-8
     994:	110325b8 	add	w24, w13, #0xc9
     998:	b8049f0b 	str	w11, [x24, #73]!
     99c:	0325e025 	.inst	0x0325e025 ; undefined
     9a0:	049f0a11 	.inst	0x049f0a11 ; undefined
     9a4:	25f025e0 	.inst	0x25f025e0 ; undefined
     9a8:	9f091103 	.inst	0x9f091103 ; undefined
     9ac:	8425f004 	ldff1b	{z4.s}, p4/z, [z0.s, #5]
     9b0:	08110326 	stxrb	w17, w6, [x25]
     9b4:	2684049f 	.inst	0x2684049f ; undefined
     9b8:	11032688 	add	w8, w20, #0xc9
     9bc:	88049f07 	stlxr	w4, w7, [x24]
     9c0:	0326b426 	.inst	0x0326b426 ; undefined
     9c4:	049f0611 	.inst	0x049f0611 ; undefined
     9c8:	26e426b4 	.inst	0x26e426b4 ; undefined
     9cc:	9f051103 	.inst	0x9f051103 ; undefined
     9d0:	f426e404 	.inst	0xf426e404 ; undefined
     9d4:	03110326 	.inst	0x03110326 ; undefined
     9d8:	26f4049f 	.inst	0x26f4049f ; undefined
     9dc:	11032798 	add	w24, w28, #0xc9
     9e0:	98049f04 	ldrsw	x4, 9dc0 <_binary_shell_bin_size-0x1007240>
     9e4:	0327d027 	.inst	0x0327d027 ; undefined
     9e8:	049f0211 	.inst	0x049f0211 ; undefined
     9ec:	27d427d0 	.inst	0x27d427d0 ; undefined
     9f0:	9f011103 	.inst	0x9f011103 ; undefined
     9f4:	d827d404 	prfm	pldl3keep, 50474 <_binary_shell_bin_size-0xfc0b8c>
     9f8:	00110327 	.inst	0x00110327 ; undefined
     9fc:	4101009f 	.inst	0x4101009f ; undefined
     a00:	8027e404 	.inst	0x8027e404 ; NYI
     a04:	00590128 	.inst	0x00590128 ; undefined
     a08:	80044101 	.inst	0x80044101 ; undefined
     a0c:	02289028 	.inst	0x02289028 ; undefined
     a10:	90049f30 	adrp	x16, 93e4000 <_binary_shell_bin_size+0x83d3000>
     a14:	0228a028 	.inst	0x0228a028 ; undefined
     a18:	a0049f31 	ldnt1b	{z16.b-z19.b}, pn15/z, [x25, x4]
     a1c:	0228b028 	.inst	0x0228b028 ; undefined
     a20:	b0049f32 	adrp	x18, 93e5000 <_binary_shell_bin_size+0x83d4000>
     a24:	0228c028 	.inst	0x0228c028 ; undefined
     a28:	c0049f33 	.inst	0xc0049f33 ; undefined
     a2c:	0228d028 	.inst	0x0228d028 ; undefined
     a30:	d0049f34 	adrp	x20, 93e6000 <_binary_shell_bin_size+0x83d5000>
     a34:	02298028 	.inst	0x02298028 ; undefined
     a38:	01009f35 	.inst	0x01009f35 ; undefined
     a3c:	29800441 	stp	w1, w1, [x2, #0]!
     a40:	500129c8 	adr	x8, 2f7a <_binary_shell_bin_size-0x100e086>
     a44:	a029c804 	st1w	{z4.s-z7.s}, pn10, [x0, x9, lsl #2]
     a48:	01a3042a 	.inst	0x01a3042a ; undefined
     a4c:	a0049f50 	ld1b	{z16.b-z19.b}, pn15/z, [x26, x4]
     a50:	012abc2a 	.inst	0x012abc2a ; undefined
     a54:	2abc0450 	orn	w16, w2, w28, asr #1
     a58:	a3042aec 	.inst	0xa3042aec ; undefined
     a5c:	009f5001 	.inst	0x009f5001 ; undefined
     a60:	a0044101 	ldnt1w	{z0.s-z1.s}, pn8/z, [x8, x4, lsl #2]
     a64:	012a9429 	.inst	0x012a9429 ; undefined
     a68:	2aa00463 	orn	w3, w3, w0, asr #1
     a6c:	63012aac 	.inst	0x63012aac ; undefined
     a70:	ec2ab804 	.inst	0xec2ab804 ; undefined
     a74:	0063012a 	.inst	0x0063012a ; undefined
     a78:	a0044101 	ldnt1w	{z0.s-z1.s}, pn8/z, [x8, x4, lsl #2]
     a7c:	012a9429 	.inst	0x012a9429 ; undefined
     a80:	2aa00464 	orn	w4, w3, w0, asr #1
     a84:	64012aac 	.inst	0x64012aac ; undefined
     a88:	ec2ab804 	.inst	0xec2ab804 ; undefined
     a8c:	0064012a 	.inst	0x0064012a ; undefined
     a90:	a4044101 	ld1b	{z1.b}, p0/z, [x8, x4]
     a94:	012a9829 	.inst	0x012a9829 ; undefined
     a98:	2aa00466 	orn	w6, w3, w0, asr #1
     a9c:	66012ab0 	.inst	0x66012ab0 ; undefined
     aa0:	ec2ab804 	.inst	0xec2ab804 ; undefined
     aa4:	0066012a 	.inst	0x0066012a ; undefined
     aa8:	a8044101 	stnp	x1, x16, [x8, #64]
     aac:	0129b429 	.inst	0x0129b429 ; undefined
     ab0:	41010058 	.inst	0x41010058 ; undefined
     ab4:	9829c404 	ldrsw	x4, 54334 <_binary_shell_bin_size-0xfbcccc>
     ab8:	0065012a 	.inst	0x0065012a ; undefined
     abc:	ec044101 	.inst	0xec044101 ; undefined
     ac0:	012af42a 	.inst	0x012af42a ; undefined
     ac4:	2af40450 	orn	w16, w2, w20, ror #1
     ac8:	a3042af8 	.inst	0xa3042af8 ; undefined
     acc:	009f5001 	.inst	0x009f5001 ; undefined
     ad0:	f8044101 	stur	x1, [x8, #68]
     ad4:	012b802a 	.inst	0x012b802a ; undefined
     ad8:	2b800450 	adds	w16, w2, w0, asr #1
     adc:	a3042b84 	.inst	0xa3042b84 ; undefined
     ae0:	009f5001 	.inst	0x009f5001 ; undefined
     ae4:	a4044101 	ld1b	{z1.b}, p0/z, [x8, x4]
     ae8:	012bb82b 	.inst	0x012bb82b ; undefined
     aec:	2bb80450 	.inst	0x2bb80450 ; undefined
     af0:	63012dbc 	.inst	0x63012dbc ; undefined
     af4:	c82dbc04 	stlxp	w13, x4, x15, [x0]
     af8:	01a3042d 	.inst	0x01a3042d ; undefined
     afc:	01009f50 	.inst	0x01009f50 ; undefined
     b00:	2be80441 	.inst	0x2be80441 ; undefined
     b04:	64012c8c 	.inst	0x64012c8c ; undefined
     b08:	a02c9004 	st1b	{z4.b-z7.b}, pn12, [x0, x12]
     b0c:	0064012c 	.inst	0x0064012c ; undefined
     b10:	a0044101 	ldnt1w	{z0.s-z1.s}, pn8/z, [x8, x4, lsl #2]
     b14:	012db42c 	.inst	0x012db42c ; undefined
     b18:	41010064 	.inst	0x41010064 ; undefined
     b1c:	b42cdc04 	cbz	x4, 5a69c <_binary_shell_bin_size-0xfb6964>
     b20:	0064012d 	.inst	0x0064012d ; undefined
     b24:	dc044101 	.inst	0xdc044101 ; undefined
     b28:	012db42c 	.inst	0x012db42c ; undefined
     b2c:	41010064 	.inst	0x41010064 ; undefined
     b30:	d82f9c04 	prfm	pldl3keep, 5feb0 <_binary_shell_bin_size-0xfb1150>
     b34:	9f31022f 	.inst	0x9f31022f ; undefined
     b38:	bc2ff404 	.inst	0xbc2ff404 ; undefined
     b3c:	9f310230 	.inst	0x9f310230 ; undefined
     b40:	04410100 	sub	z0.h, p0/m, z0.h, z8.h
     b44:	2fd82fac 	.inst	0x2fd82fac ; undefined
     b48:	f4046301 	.inst	0xf4046301 ; undefined
     b4c:	0130b02f 	.inst	0x0130b02f ; undefined
     b50:	41010063 	.inst	0x41010063 ; undefined
     b54:	8c30fc04 	.inst	0x8c30fc04 ; undefined
     b58:	04500131 	mul	z17.h, p0/m, z17.h, z9.h
     b5c:	3190318c 	.inst	0x3190318c ; undefined
     b60:	5001a304 	adr	x4, 3fc2 <_binary_shell_bin_size-0x100d03e>
     b64:	4101009f 	.inst	0x4101009f ; undefined
     b68:	d0319004 	adrp	x4, 63202000 <__free_ram_end+0x1ffbc000>
     b6c:	04500131 	mul	z17.h, p0/m, z17.h, z9.h
     b70:	349c31d0 	cbz	w16, fffffffffff391a8 <__free_ram_end+0xffffffffbccf31a8>
     b74:	9c046601 	ldr	q1, 9834 <_binary_shell_bin_size-0x10077cc>
     b78:	02359834 	.inst	0x02359834 ; undefined
     b7c:	9c04088f 	ldr	q15, 8c8c <_binary_shell_bin_size-0x1008374>
     b80:	0236cc36 	.inst	0x0236cc36 ; undefined
     b84:	0100088f 	.inst	0x0100088f ; undefined
     b88:	31900441 	.inst	0x31900441 ; undefined
     b8c:	510131b4 	sub	w20, w13, #0x4c
     b90:	e031b404 	st1b	{za0v.b[w13, 4]}, p5, [x0, x17]
     b94:	04650133 	add	z19.h, z9.h, z5.h
     b98:	36d033e0 	tbz	w0, #26, 1214 <_binary_shell_bin_size-0x100fdec>
     b9c:	5101a304 	sub	w4, w24, #0x68
     ba0:	4101009f 	.inst	0x4101009f ; undefined
     ba4:	cc319004 	.inst	0xcc319004 ; undefined
     ba8:	04520131 	smulh	z17.h, p0/m, z17.h, z9.h
     bac:	35a831cc 	cbnz	w12, fffffffffff511e4 <__free_ram_end+0xffffffffbcd0b1e4>
     bb0:	a8046401 	stnp	x1, x25, [x0, #64]
     bb4:	0435cc35 	.inst	0x0435cc35 ; undefined
     bb8:	9f5201a3 	.inst	0x9f5201a3 ; undefined
     bbc:	f835cc04 	ldraa	x4, [x0, #2784]!
     bc0:	04640135 	add	z21.h, z9.h, z4.h
     bc4:	369c35f8 	tbz	w24, #19, ffffffffffff9280 <__free_ram_end+0xffffffffbcdb3280>
     bc8:	5201a304 	eor	w4, w24, #0x80ff80ff
     bcc:	369c049f 	tbz	wzr, #19, ffffffffffff8c5c <__free_ram_end+0xffffffffbcdb2c5c>
     bd0:	640136b4 	.inst	0x640136b4 ; undefined
     bd4:	d036b404 	adrp	x4, 6d682000 <__free_ram_end+0x2a43c000>
     bd8:	01a30436 	.inst	0x01a30436 ; undefined
     bdc:	01009f52 	.inst	0x01009f52 ; undefined
     be0:	31f40441 	.inst	0x31f40441 ; undefined
     be4:	670135b8 	.inst	0x670135b8 ; undefined
     be8:	8835cc04 	stlxp	w21, w4, w19, [x0]
     bec:	04670136 	add	z22.h, z9.h, z7.h
     bf0:	36bc369c 	tbz	w28, #23, ffffffffffff92c0 <__free_ram_end+0xffffffffbcdb32c0>
     bf4:	01006701 	.inst	0x01006701 ; undefined
     bf8:	32800441 	.inst	0x32800441 ; undefined
     bfc:	880c35b8 	stxr	w12, w24, [x13]
     c00:	80afa800 	.inst	0x80afa800 ; undefined
     c04:	b3a80080 	.inst	0xb3a80080 ; undefined
     c08:	04008080 	.inst	0x04008080 ; undefined
     c0c:	368835cc 	tbz	w12, #17, 12c4 <_binary_shell_bin_size-0x100fd3c>
     c10:	a800880c 	stnp	x12, x2, [x0, #8]
     c14:	008080af 	.inst	0x008080af ; undefined
     c18:	8080b3a8 	bmopa	za0.s, p4/m, p5/m, z29.s, z0.s
     c1c:	369c0400 	tbz	w0, #19, ffffffffffff8c9c <__free_ram_end+0xffffffffbcdb2c9c>
     c20:	880c36bc 	stxr	w12, w28, [x21]
     c24:	80afa800 	.inst	0x80afa800 ; undefined
     c28:	b3a80080 	.inst	0xb3a80080 ; undefined
     c2c:	00008080 	udf	#32896
     c30:	fc044101 	stur	d1, [x8, #68]
     c34:	0534b433 	.inst	0x0534b433 ; undefined
     c38:	3d84c011 	str	q17, [x0, #4864]
     c3c:	34b4049f 	cbz	wzr, fffffffffff68ccc <__free_ram_end+0xffffffffbcd22ccc>
     c40:	831034bc 	.inst	0x831034bc ; undefined
     c44:	fbc01100 	.inst	0xfbc01100 ; undefined
     c48:	7f111c42 	.inst	0x7f111c42 ; undefined
     c4c:	84c0111e 	ld1sh	{z30.s}, p4/z, [x8, z0.s, sxtw]
     c50:	049f223d 	.inst	0x049f223d ; undefined
     c54:	358434bc 	cbnz	w28, fffffffffff092e8 <__free_ram_end+0xffffffffbccc32e8>
     c58:	11008310 	add	w16, w24, #0x20
     c5c:	1c42fbc0 	ldr	s0, 86bd4 <_binary_shell_bin_size-0xf8a42c>
     c60:	111e7f11 	add	w17, w24, #0x79f
     c64:	223d84bf 	.inst	0x223d84bf ; undefined
     c68:	4101009f 	.inst	0x4101009f ; undefined
     c6c:	e034d404 	st1b	{za0v.b[w14, 4]}, p5, [x0, x20]
     c70:	00510134 	.inst	0x00510134 ; undefined
     c74:	d0044101 	adrp	x1, 8822000 <_binary_shell_bin_size+0x7811000>
     c78:	0136e036 	.inst	0x0136e036 ; undefined
     c7c:	36e40450 	tbz	w16, #28, ffffffffffff8d04 <__free_ram_end+0xffffffffbcdb2d04>
     c80:	a30436f0 	.inst	0xa30436f0 ; undefined
     c84:	049f5001 	mla	z1.s, p4/m, z0.s, z31.s
     c88:	37903788 	tbnz	w8, #18, 1378 <_binary_shell_bin_size-0x100fc88>
     c8c:	90045001 	adrp	x1, 8a00000 <_binary_shell_bin_size+0x79ef000>
     c90:	04379437 	lsr	z23.h, z1.h, #9
     c94:	9f5001a3 	.inst	0x9f5001a3 ; undefined
     c98:	04410100 	sub	z0.h, p0/m, z0.h, z8.h
     c9c:	36e036d4 	tbz	w20, #28, 1374 <_binary_shell_bin_size-0x100fc8c>
     ca0:	9f001103 	.inst	0x9f001103 ; undefined
     ca4:	04410100 	sub	z0.h, p0/m, z0.h, z8.h
     ca8:	36e036d4 	tbz	w20, #28, 1380 <_binary_shell_bin_size-0x100fc80>
     cac:	9f001103 	.inst	0x9f001103 ; undefined
     cb0:	f436e004 	.inst	0xf436e004 ; undefined
     cb4:	04580136 	orr	z22.h, p0/m, z22.h, z9.h
     cb8:	378836fc 	tbnz	w28, #17, 1394 <_binary_shell_bin_size-0x100fc6c>
     cbc:	88045801 	stxr	w4, w1, [x0]
     cc0:	03379437 	.inst	0x03379437 ; undefined
     cc4:	009f0011 	.inst	0x009f0011 ; undefined
     cc8:	b0044101 	adrp	x1, 8821000 <_binary_shell_bin_size+0x7810000>
     ccc:	0237c837 	.inst	0x0237c837 ; undefined
     cd0:	c8049f30 	stlxr	w4, x16, [x25]
     cd4:	0237d837 	.inst	0x0237d837 ; undefined
     cd8:	d8049f31 	prfm	pstl1strm, a0bc <_binary_shell_bin_size-0x1006f44>
     cdc:	0237e837 	.inst	0x0237e837 ; undefined
     ce0:	e8049f32 	.inst	0xe8049f32 ; undefined
     ce4:	0237f837 	.inst	0x0237f837 ; undefined
     ce8:	f8049f33 	str	x19, [x25, #73]!
     cec:	02388837 	.inst	0x02388837 ; undefined
     cf0:	88049f34 	stlxr	w4, w20, [x25]
     cf4:	0238b438 	.inst	0x0238b438 ; undefined
     cf8:	01009f35 	.inst	0x01009f35 ; undefined
     cfc:	39ac0441 	ldrsb	x1, [x2, #2817]
     d00:	110339c4 	add	w4, w14, #0xce
     d04:	c4049f00 	ldnt1sb	{z0.d}, p7/z, [z24.d, x4]
     d08:	013bcc39 	.inst	0x013bcc39 ; undefined
     d0c:	41010067 	.inst	0x41010067 ; undefined
     d10:	c439ac04 	ldff1sb	{z4.d}, p3/z, [z0.d, #25]
     d14:	00110339 	.inst	0x00110339 ; undefined
     d18:	39c4049f 	ldrsb	wzr, [x4, #257]
     d1c:	110339e0 	add	w0, w15, #0xce
     d20:	e0049f01 	ld1b	{za0v.b[w12, 1]}, p7/z, [x24, x4]
     d24:	0339f839 	.inst	0x0339f839 ; undefined
     d28:	049f0211 	.inst	0x049f0211 ; undefined
     d2c:	3a9039f8 	.inst	0x3a9039f8 ; undefined
     d30:	9f031103 	.inst	0x9f031103 ; undefined
     d34:	a83a9004 	stnp	x4, x4, [x0, #-88]
     d38:	0411033a 	.inst	0x0411033a ; undefined
     d3c:	3aa8049f 	.inst	0x3aa8049f ; undefined
     d40:	11033ac0 	add	w0, w22, #0xce
     d44:	c0049f05 	.inst	0xc0049f05 ; undefined
     d48:	033ad83a 	.inst	0x033ad83a ; undefined
     d4c:	049f0611 	.inst	0x049f0611 ; undefined
     d50:	3af03ad8 	.inst	0x3af03ad8 ; undefined
     d54:	9f071103 	.inst	0x9f071103 ; undefined
     d58:	883af004 	stlxp	w26, w4, w28, [x0]
     d5c:	0811033b 	stxrb	w17, w27, [x25]
     d60:	3b88049f 	.inst	0x3b88049f ; undefined
     d64:	11033ba0 	add	w0, w29, #0xce
     d68:	a0049f09 	ldnt1b	{z8.b-z11.b}, pn15/z, [x24, x4]
     d6c:	033bb83b 	.inst	0x033bb83b ; undefined
     d70:	049f0a11 	.inst	0x049f0a11 ; undefined
     d74:	3bc83bb8 	.inst	0x3bc83bb8 ; undefined
     d78:	9f0b1103 	.inst	0x9f0b1103 ; undefined
     d7c:	cc3bc804 	.inst	0xcc3bc804 ; undefined
     d80:	0c11033b 	.inst	0x0c11033b ; undefined
     d84:	4101009f 	.inst	0x4101009f ; undefined
     d88:	f438b404 	.inst	0xf438b404 ; undefined
     d8c:	04690138 	add	z24.h, z9.h, z9.h
     d90:	38f838f4 	.inst	0x38f838f4 ; undefined
     d94:	07ff8713 	.inst	0x07ff8713 ; undefined
     d98:	fffc8010 	.inst	0xfffc8010 ; undefined
     d9c:	ffffffff 	.inst	0xffffffff ; undefined
     da0:	1a01ffff 	.inst	0x1a01ffff ; undefined
     da4:	9f220089 	.inst	0x9f220089 ; undefined
     da8:	8438f804 	ldff1b	{z4.s}, p6/z, [z0.s, #24]
     dac:	00791239 	.inst	0x00791239 ; undefined
     db0:	fffc8010 	.inst	0xfffc8010 ; undefined
     db4:	ffffffff 	.inst	0xffffffff ; undefined
     db8:	1a01ffff 	.inst	0x1a01ffff ; undefined
     dbc:	9f220089 	.inst	0x9f220089 ; undefined
     dc0:	88398404 	stlxp	w25, w4, w1, [x0]
     dc4:	00790639 	.inst	0x00790639 ; undefined
     dc8:	9f220089 	.inst	0x9f220089 ; undefined
     dcc:	8c398804 	.inst	0x8c398804 ; undefined
     dd0:	04690139 	add	z25.h, z9.h, z9.h
     dd4:	3bdc3994 	.inst	0x3bdc3994 ; undefined
     dd8:	e8046901 	.inst	0xe8046901 ; undefined
     ddc:	013c883b 	.inst	0x013c883b ; undefined
     de0:	41010069 	.inst	0x41010069 ; undefined
     de4:	bc38b804 	.inst	0xbc38b804 ; undefined
     de8:	04680138 	add	z24.h, z9.h, z8.h
     dec:	3bcc3994 	.inst	0x3bcc3994 ; undefined
     df0:	e8046801 	.inst	0xe8046801 ; undefined
     df4:	013c883b 	.inst	0x013c883b ; undefined
     df8:	41010068 	.inst	0x41010068 ; undefined
     dfc:	8c38b804 	.inst	0x8c38b804 ; undefined
     e00:	04660139 	add	z25.h, z9.h, z6.h
     e04:	3bcc3990 	.inst	0x3bcc3990 ; undefined
     e08:	e8046601 	.inst	0xe8046601 ; undefined
     e0c:	013c883b 	.inst	0x013c883b ; undefined
     e10:	41010066 	.inst	0x41010066 ; undefined
     e14:	8c38b804 	.inst	0x8c38b804 ; undefined
     e18:	00670139 	.inst	0x00670139 ; undefined
     e1c:	bc044101 	stur	s1, [x8, #68]
     e20:	01398038 	.inst	0x01398038 ; undefined
     e24:	41010068 	.inst	0x41010068 ; undefined
     e28:	b43cb004 	cbz	x4, 7a428 <_binary_shell_bin_size-0xf96bd8>
     e2c:	0458013c 	orr	z28.h, p0/m, z28.h, z9.h
     e30:	3cd43cb4 	ldr	q20, [x5, #-189]!
     e34:	f8045101 	stur	x1, [x8, #69]
     e38:	013d843c 	.inst	0x013d843c ; undefined
     e3c:	41010051 	.inst	0x41010051 ; undefined
     e40:	e83cd804 	.inst	0xe83cd804 ; undefined
     e44:	0078073c 	.inst	0x0078073c ; undefined
     e48:	21208910 	.inst	0x21208910 ; undefined
     e4c:	3ce8049f 	.inst	0x3ce8049f ; undefined
     e50:	58013cf4 	ldr	x20, 35ec <_binary_shell_bin_size-0x100da14>
     e54:	00019800 	.inst	0x00019800 ; undefined
     e58:	08000500 	stxrb	w0, w0, [x8]
     e5c:	00001000 	udf	#4096
     e60:	00004000 	udf	#16384
     e64:	00004e00 	udf	#19968
     e68:	00005c00 	udf	#23552
     e6c:	00007500 	udf	#29952
     e70:	00008400 	udf	#33792
     e74:	00009e00 	udf	#40448
     e78:	0000ad00 	udf	#44288
     e7c:	0000bc00 	udf	#48128
     e80:	0000d400 	udf	#54272
     e84:	0000e300 	udf	#58112
     e88:	0000f200 	udf	#61952
     e8c:	00010100 	.inst	0x00010100 ; undefined
     e90:	00011f00 	.inst	0x00011f00 ; undefined
     e94:	00013700 	.inst	0x00013700 ; undefined
     e98:	00017700 	.inst	0x00017700 ; undefined
     e9c:	00018800 	.inst	0x00018800 ; undefined
     ea0:	b4000400 	cbz	x0, f20 <_binary_shell_bin_size-0x10100e0>
     ea4:	04500101 	mul	z1.h, p0/m, z1.h, z8.h
     ea8:	01c401b4 	.inst	0x01c401b4 ; undefined
     eac:	04005a01 	mla	z1.b, p6/m, z16.b, z0.b
     eb0:	0101b400 	.inst	0x0101b400 ; undefined
     eb4:	01b40451 	.inst	0x01b40451 ; undefined
     eb8:	590101c4 	stlurh	w4, [x14, #16]
     ebc:	88000400 	stxr	w0, w0, [x0]
     ec0:	7f720301 	.inst	0x7f720301 ; undefined
     ec4:	01a8049f 	.inst	0x01a8049f ; undefined
     ec8:	720301ac 	ands	w12, w13, #0x20000000
     ecc:	b4049f7f 	cbz	xzr, a2b8 <_binary_shell_bin_size-0x1006d48>
     ed0:	0101c001 	.inst	0x0101c001 ; undefined
     ed4:	c8040052 	stxr	w4, x18, [x2]
     ed8:	0102d801 	.inst	0x0102d801 ; undefined
     edc:	02d80450 	.inst	0x02d80450 ; undefined
     ee0:	590102e4 	stlurh	w4, [x23, #16]
     ee4:	01c80400 	.inst	0x01c80400 ; undefined
     ee8:	720302b4 	ands	w20, w21, #0x20000000
     eec:	d0049f7f 	adrp	xzr, 93ee000 <_binary_shell_bin_size+0x83dd000>
     ef0:	0302d402 	.inst	0x0302d402 ; undefined
     ef4:	049f7f72 	mls	z18.s, p7/m, z27.s, z31.s
     ef8:	02e002d8 	.inst	0x02e002d8 ; undefined
     efc:	04005201 	mla	z1.b, p4/m, z16.b, z0.b
     f00:	02fc02e8 	.inst	0x02fc02e8 ; undefined
     f04:	fc045101 	stur	d1, [x8, #69]
     f08:	01038402 	.inst	0x01038402 ; undefined
     f0c:	e804005a 	.inst	0xe804005a ; undefined
     f10:	0102fc02 	.inst	0x0102fc02 ; undefined
     f14:	02fc0450 	.inst	0x02fc0450 ; undefined
     f18:	59010388 	stlurh	w8, [x28, #16]
     f1c:	03900400 	.inst	0x03900400 ; undefined
     f20:	5001039c 	adr	x28, 2f92 <_binary_shell_bin_size-0x100e06e>
     f24:	a8039c04 	stnp	x4, x7, [x0, #56]
     f28:	7f790303 	.inst	0x7f790303 ; undefined
     f2c:	03a8049f 	.inst	0x03a8049f ; undefined
     f30:	590103ac 	stlurh	w12, [x29, #16]
     f34:	03c00400 	.inst	0x03c00400 ; undefined
     f38:	500103f8 	adr	x24, 2fb6 <_binary_shell_bin_size-0x100e04a>
     f3c:	ec03f804 	.inst	0xec03f804 ; undefined
     f40:	00630107 	.inst	0x00630107 ; undefined
     f44:	a4059c04 	.inst	0xa4059c04 ; undefined
     f48:	04660105 	add	z5.h, z8.h, z6.h
     f4c:	06e4068c 	.inst	0x06e4068c ; undefined
     f50:	04006601 	mls	z1.b, p1/m, z16.b, z0.b
     f54:	05a4059c 	zip2	z28.q, z12.q, z4.q
     f58:	8c046601 	.inst	0x8c046601 ; undefined
     f5c:	01069c06 	.inst	0x01069c06 ; undefined
     f60:	9c040066 	ldr	q6, 8f6c <_binary_shell_bin_size-0x1008094>
     f64:	0206a806 	.inst	0x0206a806 ; undefined
     f68:	a8049f31 	stnp	x17, x7, [x25, #72]
     f6c:	0106d806 	.inst	0x0106d806 ; undefined
     f70:	06d80467 	.inst	0x06d80467 ; undefined
     f74:	580106dc 	ldr	x28, 304c <_binary_shell_bin_size-0x100dfb4>
     f78:	e406dc04 	st1b	{z4.d}, p7, [x0, z6.d, sxtw]
     f7c:	00670106 	.inst	0x00670106 ; undefined
     f80:	8006f404 	.inst	0x8006f404 ; undefined
     f84:	04580107 	orr	z7.h, p0/m, z7.h, z8.h
     f88:	07840780 	.inst	0x07840780 ; undefined
     f8c:	9f7f8603 	.inst	0x9f7f8603 ; undefined
     f90:	88078404 	stlxr	w7, w4, [x0]
     f94:	00660107 	.inst	0x00660107 ; undefined
     f98:	bc07ac04 	str	s4, [x0, #122]!
     f9c:	00870f07 	.inst	0x00870f07 ; undefined
     fa0:	111c3c11 	add	w17, w0, #0x70f
     fa4:	7f111b7c 	.inst	0x7f111b7c ; undefined
     fa8:	220f111e 	.inst	0x220f111e ; undefined
     fac:	07bc049f 	.inst	0x07bc049f ; undefined
     fb0:	870f07c0 	.inst	0x870f07c0 ; undefined
     fb4:	1c3c1100 	ldr	s0, 791d4 <_binary_shell_bin_size-0xf97e2c>
     fb8:	111b7c11 	add	w17, w0, #0x6df
     fbc:	0e111e7f 	.inst	0x0e111e7f ; undefined
     fc0:	c8049f22 	stlxr	w4, x2, [x25]
     fc4:	0f07d007 	.inst	0x0f07d007 ; undefined
     fc8:	3c110087 	stur	b7, [x4, #-240]
     fcc:	1b7c111c 	.inst	0x1b7c111c ; undefined
     fd0:	111e7f11 	add	w17, w24, #0x79f
     fd4:	009f220f 	.inst	0x009f220f ; undefined
     fd8:	ac07a004 	stnp	q4, q8, [x0, #240]
     fdc:	00110307 	.inst	0x00110307 ; undefined
     fe0:	07bc049f 	.inst	0x07bc049f ; undefined
     fe4:	580107d0 	ldr	x16, 30dc <_binary_shell_bin_size-0x100df24>
     fe8:	07a00400 	.inst	0x07a00400 ; undefined
     fec:	660107d0 	.inst	0x660107d0 ; undefined
     ff0:	00003700 	udf	#14080
     ff4:	08000500 	stxrb	w0, w0, [x8]
     ff8:	00000300 	udf	#768
     ffc:	00000c00 	udf	#3072
    1000:	00001800 	udf	#6144
    1004:	00002800 	udf	#10240
    1008:	14000400 	b	2008 <_binary_shell_bin_size-0x100eff8>
    100c:	14045001 	b	115010 <_binary_shell_bin_size-0xefbff0>
    1010:	63010194 	.inst	0x63010194 ; undefined
    1014:	24000400 	cmphs	p0.b, p1/z, z0.b, z0.b
    1018:	24045101 	cmpge	p1.b, p4/z, z8.b, z4.d
    101c:	04650144 	add	z4.h, z10.h, z5.h
    1020:	51014844 	sub	w4, w2, #0x52
    1024:	94180400 	bl	602024 <_binary_shell_bin_size-0xa0efdc>
    1028:	00640101 	.inst	0x00640101 ; undefined

Disassembly of section .debug_abbrev:

0000000000000000 <.debug_abbrev>:
   0:	25011101 	cmpge	p1.b, p4/z, z8.b, #1
   4:	03051325 	.inst	0x03051325 ; undefined
   8:	10177225 	adr	x5, 2ee4c <_binary_shell_bin_size-0xfe21b4>
   c:	11251b17 	add	w23, w24, #0x946
  10:	73235501 	.inst	0x73235501 ; undefined
  14:	8c177417 	.inst	0x8c177417 ; undefined
  18:	00001701 	udf	#5889
  1c:	03002402 	.inst	0x03002402 ; undefined
  20:	0b0b3e25 	add	w5, w17, w11, lsl #15
  24:	0300000b 	.inst	0x0300000b ; undefined
  28:	13490034 	.inst	0x13490034 ; undefined
  2c:	0b3b0b3a 	add	w26, w25, w27, uxtb #2
  30:	00001802 	udf	#6146
  34:	49010104 	.inst	0x49010104 ; undefined
  38:	05000013 	orr	z19.s, z19.s, #0x1
  3c:	13490021 	.inst	0x13490021 ; undefined
  40:	00000b37 	udf	#2871
  44:	03002406 	.inst	0x03002406 ; undefined
  48:	3e0b0b25 	.inst	0x3e0b0b25 ; undefined
  4c:	0700000b 	.inst	0x0700000b ; undefined
  50:	1b11012e 	madd	w14, w9, w17, w0
  54:	18400612 	ldr	w18, 80114 <_binary_shell_bin_size-0xf90eec>
  58:	1331197a 	.inst	0x1331197a ; undefined
  5c:	34080000 	cbz	w0, 1005c <_binary_shell_bin_size-0x1000fa4>
  60:	49250300 	.inst	0x49250300 ; undefined
  64:	3b0b3a13 	.inst	0x3b0b3a13 ; undefined
  68:	0018020b 	.inst	0x0018020b ; undefined
  6c:	00050900 	.inst	0x00050900 ; undefined
  70:	13312202 	.inst	0x13312202 ; undefined
  74:	340a0000 	cbz	w0, 14074 <_binary_shell_bin_size-0xffcf8c>
  78:	31220200 	adds	w0, w16, #0x880
  7c:	0b000013 	add	w19, w0, w0
  80:	137f0148 	.inst	0x137f0148 ; undefined
  84:	00001b7d 	udf	#7037
  88:	0200490c 	.inst	0x0200490c ; undefined
  8c:	00187e18 	.inst	0x00187e18 ; undefined
  90:	00160d00 	.inst	0x00160d00 ; undefined
  94:	25031349 	cmpge	p9.b, p4/z, z26.b, #3
  98:	0b3b0b3a 	add	w26, w25, w27, uxtb #2
  9c:	340e0000 	cbz	w0, 1c09c <_binary_shell_bin_size-0xff4f64>
  a0:	3a134900 	.inst	0x3a134900 ; undefined
  a4:	02053b0b 	.inst	0x02053b0b ; undefined
  a8:	0f000018 	.inst	0x0f000018 ; undefined
  ac:	13490034 	.inst	0x13490034 ; undefined
  b0:	053b0b3a 	ext	z26.b, z26.b, z25.b, #218
  b4:	34100000 	cbz	w0, 200b4 <_binary_shell_bin_size-0xff0f4c>
  b8:	49250300 	.inst	0x49250300 ; undefined
  bc:	3a193f13 	.inst	0x3a193f13 ; undefined
  c0:	020b3b0b 	.inst	0x020b3b0b ; undefined
  c4:	11000018 	add	w24, w0, #0x0
  c8:	25030113 	cmpgt	p3.b, p0/z, z8.b, #3
  cc:	0b3a050b 	add	w11, w8, w26, uxtb #1
  d0:	00000b3b 	udf	#2875
  d4:	03000d12 	.inst	0x03000d12 ; undefined
  d8:	3a134925 	.inst	0x3a134925 ; undefined
  dc:	380b3b0b 	sttrb	w11, [x24, #179]
  e0:	1300000b 	sbfx	w11, w0, #0, #1
  e4:	2503000d 	cmpge	p13.b, p0/z, z0.b, #3
  e8:	0b3a1349 	add	w9, w26, w26, uxtb #4
  ec:	01880b3b 	.inst	0x01880b3b ; undefined
  f0:	000b380f 	.inst	0x000b380f ; undefined
  f4:	000f1400 	.inst	0x000f1400 ; undefined
  f8:	00001349 	udf	#4937
  fc:	49002115 	.inst	0x49002115 ; undefined
 100:	00053713 	.inst	0x00053713 ; undefined
 104:	00341600 	.inst	0x00341600 ; NYI
 108:	13492503 	.inst	0x13492503 ; undefined
 10c:	0b3a193f 	.inst	0x0b3a193f ; undefined
 110:	1802053b 	ldr	w27, 41b4 <_binary_shell_bin_size-0x100ce4c>
 114:	0d170000 	.inst	0x0d170000 ; undefined
 118:	49250300 	.inst	0x49250300 ; undefined
 11c:	3b0b3a13 	.inst	0x3b0b3a13 ; undefined
 120:	0005380b 	.inst	0x0005380b ; undefined
 124:	01131800 	.inst	0x01131800 ; undefined
 128:	050b2503 	.inst	0x050b2503 ; undefined
 12c:	0b3b0b3a 	add	w26, w25, w27, uxtb #2
 130:	000f0188 	.inst	0x000f0188 ; undefined
 134:	01131900 	.inst	0x01131900 ; undefined
 138:	0b0b2503 	add	w3, w8, w11, lsl #9
 13c:	0b3b0b3a 	add	w26, w25, w27, uxtb #2
 140:	0f1a0000 	.inst	0x0f1a0000 ; undefined
 144:	1b000000 	madd	w0, w0, w0, w0
 148:	13490026 	.inst	0x13490026 ; undefined
 14c:	351c0000 	cbnz	w0, 3814c <_binary_shell_bin_size-0xfd8eb4>
 150:	00134900 	.inst	0x00134900 ; undefined
 154:	00211d00 	.inst	0x00211d00 ; NYI
 158:	00001349 	udf	#4937
 15c:	0200051e 	.inst	0x0200051e ; undefined
 160:	00133118 	.inst	0x00133118 ; undefined
 164:	00341f00 	.inst	0x00341f00 ; NYI
 168:	13311802 	.inst	0x13311802 ; undefined
 16c:	2e200000 	uaddl	v0.8h, v0.8b, v0.8b
 170:	3a250301 	.inst	0x3a250301 ; undefined
 174:	270b3b0b 	.inst	0x270b3b0b ; undefined
 178:	3f134919 	.inst	0x3f134919 ; undefined
 17c:	01212019 	.inst	0x01212019 ; undefined
 180:	05210000 	ext	z0.b, z0.b, z0.b, #8
 184:	3a250300 	.inst	0x3a250300 ; undefined
 188:	490b3b0b 	.inst	0x490b3b0b ; undefined
 18c:	22000013 	.inst	0x22000013 ; undefined
 190:	25030034 	cmpgt	p4.b, p0/z, z1.b, #3
 194:	0b3b0b3a 	add	w26, w25, w27, uxtb #2
 198:	00001349 	udf	#4937
 19c:	31011d23 	adds	w3, w9, #0x47
 1a0:	121b1113 	and	w19, w8, #0x3e0
 1a4:	590b5806 	.inst	0x590b5806 ; undefined
 1a8:	000b570b 	.inst	0x000b570b ; undefined
 1ac:	00052400 	.inst	0x00052400 ; undefined
 1b0:	13310d1c 	.inst	0x13310d1c ; undefined
 1b4:	34250000 	cbz	w0, 4a1b4 <_binary_shell_bin_size-0xfc6e4c>
 1b8:	310d1c00 	adds	w0, w0, #0x347
 1bc:	26000013 	.inst	0x26000013 ; undefined
 1c0:	13310034 	.inst	0x13310034 ; undefined
 1c4:	2e270000 	uaddl	v0.8h, v0.8b, v7.8b
 1c8:	121b1100 	and	w0, w8, #0x3e0
 1cc:	7a184006 	.inst	0x7a184006 ; undefined
 1d0:	3a250319 	.inst	0x3a250319 ; undefined
 1d4:	270b3b0b 	.inst	0x270b3b0b ; undefined
 1d8:	00193f19 	.inst	0x00193f19 ; undefined
 1dc:	00482800 	.inst	0x00482800 ; undefined
 1e0:	1b7d137f 	.inst	0x1b7d137f ; undefined
 1e4:	48290000 	.inst	0x48290000 ; undefined
 1e8:	82137f00 	.inst	0x82137f00 ; undefined
 1ec:	01811901 	.inst	0x01811901 ; undefined
 1f0:	2a00001b 	orr	w27, w0, w0
 1f4:	2503012e 	cmpge	p14.b, p0/z, z9.b, #3
 1f8:	0b3b0b3a 	add	w26, w25, w27, uxtb #2
 1fc:	193c1927 	.inst	0x193c1927 ; undefined
 200:	0000193f 	udf	#6463
 204:	4900052b 	.inst	0x4900052b ; undefined
 208:	2c000013 	stnp	s19, s0, [x0]
 20c:	00000018 	udf	#24
 210:	03012e2d 	.inst	0x03012e2d ; undefined
 214:	3b0b3a25 	.inst	0x3b0b3a25 ; undefined
 218:	4919270b 	.inst	0x4919270b ; undefined
 21c:	3f193c13 	.inst	0x3f193c13 ; undefined
 220:	2e000019 	ext	v25.8b, v0.8b, v0.8b, #0
 224:	1b11012e 	madd	w14, w9, w17, w0
 228:	18400612 	ldr	w18, 802e8 <_binary_shell_bin_size-0xf90d18>
 22c:	2503197a 	cmpgt	p10.b, p6/z, z11.b, #3
 230:	0b3b0b3a 	add	w26, w25, w27, uxtb #2
 234:	193f1927 	.inst	0x193f1927 ; undefined
 238:	052f0000 	ext	z0.b, z0.b, z0.b, #120
 23c:	03220200 	.inst	0x03220200 ; undefined
 240:	3b0b3a25 	.inst	0x3b0b3a25 ; undefined
 244:	0013490b 	.inst	0x0013490b ; undefined
 248:	00343000 	.inst	0x00343000 ; NYI
 24c:	25032202 	cmplt	p2.b, p0/z, z16.b, #3
 250:	0b3b0b3a 	add	w26, w25, w27, uxtb #2
 254:	00001349 	udf	#4937
 258:	11010b31 	add	w17, w25, #0x42
 25c:	0006121b 	.inst	0x0006121b ; undefined
 260:	00053200 	.inst	0x00053200 ; undefined
 264:	13310f1c 	.inst	0x13310f1c ; undefined
 268:	0b330000 	add	w0, w0, w19, uxtb
 26c:	00235501 	.inst	0x00235501 ; NYI
 270:	011d3400 	.inst	0x011d3400 ; undefined
 274:	23551331 	.inst	0x23551331 ; undefined
 278:	0b590b58 	add	w24, w26, w25, lsr #2
 27c:	00000b57 	udf	#2903
 280:	02003435 	.inst	0x02003435 ; undefined
 284:	3a250318 	.inst	0x3a250318 ; undefined
 288:	490b3b0b 	.inst	0x490b3b0b ; undefined
 28c:	36000013 	tbz	w19, #0, 28c <_binary_shell_bin_size-0x1010d74>
 290:	22020034 	.inst	0x22020034 ; undefined
 294:	0b3a2503 	add	w3, w8, w26, uxth #1
 298:	1349053b 	.inst	0x1349053b ; undefined
 29c:	34370000 	cbz	w0, 6e29c <_binary_shell_bin_size-0xfa2d64>
 2a0:	3a250300 	.inst	0x3a250300 ; undefined
 2a4:	49053b0b 	.inst	0x49053b0b ; undefined
 2a8:	38000013 	sturb	w19, [x0]
 2ac:	2503012e 	cmpge	p14.b, p0/z, z9.b, #3
 2b0:	0b3b0b3a 	add	w26, w25, w27, uxtb #2
 2b4:	193f1927 	.inst	0x193f1927 ; undefined
 2b8:	00012120 	.inst	0x00012120 ; undefined
 2bc:	012e3900 	.inst	0x012e3900 ; undefined
 2c0:	06121b11 	.inst	0x06121b11 ; undefined
 2c4:	197a1840 	.inst	0x197a1840 ; undefined
 2c8:	0b3a2503 	add	w3, w8, w26, uxth #1
 2cc:	1927053b 	.inst	0x1927053b ; undefined
 2d0:	0000193f 	udf	#6463
 2d4:	31011d3a 	adds	w26, w9, #0x47
 2d8:	121b1113 	and	w19, w8, #0x3e0
 2dc:	590b5806 	.inst	0x590b5806 ; undefined
 2e0:	000b5705 	.inst	0x000b5705 ; undefined
 2e4:	002e3b00 	.inst	0x002e3b00 ; NYI
 2e8:	06121b11 	.inst	0x06121b11 ; undefined
 2ec:	197a1840 	.inst	0x197a1840 ; undefined
 2f0:	0b3a2503 	add	w3, w8, w26, uxth #1
 2f4:	1927053b 	.inst	0x1927053b ; undefined
 2f8:	0000193f 	udf	#6463
 2fc:	11012e3c 	add	w28, w17, #0x4b
 300:	4006121b 	.inst	0x4006121b ; undefined
 304:	03197a18 	.inst	0x03197a18 ; undefined
 308:	3b0b3a25 	.inst	0x3b0b3a25 ; undefined
 30c:	49192705 	.inst	0x49192705 ; undefined
 310:	00193f13 	.inst	0x00193f13 ; undefined
 314:	00053d00 	.inst	0x00053d00 ; undefined
 318:	25032202 	cmplt	p2.b, p0/z, z16.b, #3
 31c:	053b0b3a 	ext	z26.b, z26.b, z25.b, #218
 320:	00001349 	udf	#4937
 324:	31011d3e 	adds	w30, w9, #0x47
 328:	58235513 	ldr	x19, 46dc8 <_binary_shell_bin_size-0xfca238>
 32c:	5705590b 	.inst	0x5705590b ; undefined
 330:	3f00000b 	.inst	0x3f00000b ; undefined
 334:	00000026 	udf	#38
 338:	03012e40 	.inst	0x03012e40 ; undefined
 33c:	3b0b3a25 	.inst	0x3b0b3a25 ; undefined
 340:	3f13490b 	.inst	0x3f13490b ; undefined
 344:	01212019 	.inst	0x01212019 ; undefined
 348:	48410000 	ldxrh	w0, [x0]
 34c:	82137f01 	.inst	0x82137f01 ; undefined
 350:	01811901 	.inst	0x01811901 ; undefined
 354:	4200001b 	.inst	0x4200001b ; undefined
 358:	2503012e 	cmpge	p14.b, p0/z, z9.b, #3
 35c:	053b0b3a 	ext	z26.b, z26.b, z25.b, #218
 360:	193c1927 	.inst	0x193c1927 ; undefined
 364:	0000193f 	udf	#6463
 368:	03012e43 	.inst	0x03012e43 ; undefined
 36c:	3b0b3a25 	.inst	0x3b0b3a25 ; undefined
 370:	49192705 	.inst	0x49192705 ; undefined
 374:	20193f13 	.inst	0x20193f13 ; undefined
 378:	00000121 	udf	#289
 37c:	03000544 	.inst	0x03000544 ; undefined
 380:	3b0b3a25 	.inst	0x3b0b3a25 ; undefined
 384:	00134905 	.inst	0x00134905 ; undefined
 388:	012e4500 	.inst	0x012e4500 ; undefined
 38c:	0b3a2503 	add	w3, w8, w26, uxth #1
 390:	1927053b 	.inst	0x1927053b ; undefined
 394:	2120193f 	.inst	0x2120193f ; undefined
 398:	46000001 	.inst	0x46000001 ; undefined
 39c:	18020005 	ldr	w5, 439c <_binary_shell_bin_size-0x100cc64>
 3a0:	0b3a2503 	add	w3, w8, w26, uxth #1
 3a4:	1349053b 	.inst	0x1349053b ; undefined
 3a8:	34470000 	cbz	w0, 8e3a8 <_binary_shell_bin_size-0xf82c58>
 3ac:	03180200 	.inst	0x03180200 ; undefined
 3b0:	3b0b3a25 	.inst	0x3b0b3a25 ; undefined
 3b4:	00134905 	.inst	0x00134905 ; undefined
 3b8:	010b4800 	.inst	0x010b4800 ; undefined
 3bc:	01000000 	.inst	0x01000000 ; undefined
 3c0:	25250111 	whilegt	p1.b, w8, w5
 3c4:	25030513 	cmpgt	p3.b, p1/z, z8.b, #3
 3c8:	17101772 	b	fffffffffc406190 <__free_ram_end+0xffffffffb91c0190>
 3cc:	1b11251b 	madd	w27, w8, w17, w9
 3d0:	17730612 	b	fffffffffdcc1c18 <__free_ram_end+0xffffffffbaa7bc18>
 3d4:	018c1774 	.inst	0x018c1774 ; undefined
 3d8:	02000017 	.inst	0x02000017 ; undefined
 3dc:	13490034 	.inst	0x13490034 ; undefined
 3e0:	0b3b0b3a 	add	w26, w25, w27, uxtb #2
 3e4:	00001802 	udf	#6146
 3e8:	49010103 	.inst	0x49010103 ; undefined
 3ec:	04000013 	add	z19.b, p0/m, z19.b, z0.b
 3f0:	13490021 	.inst	0x13490021 ; undefined
 3f4:	00000b37 	udf	#2871
 3f8:	03002405 	.inst	0x03002405 ; undefined
 3fc:	0b0b3e25 	add	w5, w17, w11, lsl #15
 400:	0600000b 	.inst	0x0600000b ; undefined
 404:	25030024 	cmpge	p4.b, p0/z, z1.b, #3
 408:	0b3e0b0b 	add	w11, w24, w30, uxtb #2
 40c:	0f070000 	.inst	0x0f070000 ; undefined
 410:	00134900 	.inst	0x00134900 ; undefined
 414:	00160800 	.inst	0x00160800 ; undefined
 418:	25031349 	cmpge	p9.b, p4/z, z26.b, #3
 41c:	0b3b0b3a 	add	w26, w25, w27, uxtb #2
 420:	26090000 	.inst	0x26090000 ; undefined
 424:	00134900 	.inst	0x00134900 ; undefined
 428:	012e0a00 	.inst	0x012e0a00 ; undefined
 42c:	06121b11 	.inst	0x06121b11 ; undefined
 430:	197a1840 	.inst	0x197a1840 ; undefined
 434:	0b3a2503 	add	w3, w8, w26, uxth #1
 438:	19270b3b 	rcwcas	x7, x27, [x25]
 43c:	193f1349 	ldclrp	x9, xzr, [x26]
 440:	050b0000 	.inst	0x050b0000 ; undefined
 444:	03180200 	.inst	0x03180200 ; undefined
 448:	3b0b3a25 	.inst	0x3b0b3a25 ; undefined
 44c:	0013490b 	.inst	0x0013490b ; undefined
 450:	00050c00 	.inst	0x00050c00 ; undefined
 454:	25032202 	cmplt	p2.b, p0/z, z16.b, #3
 458:	0b3b0b3a 	add	w26, w25, w27, uxtb #2
 45c:	00001349 	udf	#4937
 460:	0200340d 	.inst	0x0200340d ; undefined
 464:	3a250322 	.inst	0x3a250322 ; undefined
 468:	490b3b0b 	.inst	0x490b3b0b ; undefined
 46c:	0e000013 	tbl	v19.8b, {v0.16b}, v0.8b
 470:	1b11012e 	madd	w14, w9, w17, w0
 474:	18400612 	ldr	w18, 80534 <_binary_shell_bin_size-0xf90acc>
 478:	2503197a 	cmpgt	p10.b, p6/z, z11.b, #3
 47c:	0b3b0b3a 	add	w26, w25, w27, uxtb #2
 480:	193f1927 	.inst	0x193f1927 ; undefined
 484:	340f0000 	cbz	w0, 1e484 <_binary_shell_bin_size-0xff2b7c>
 488:	03180200 	.inst	0x03180200 ; undefined
 48c:	3b0b3a25 	.inst	0x3b0b3a25 ; undefined
 490:	0013490b 	.inst	0x0013490b ; undefined
 494:	000a1000 	.inst	0x000a1000 ; undefined
 498:	0b3a2503 	add	w3, w8, w26, uxth #1
 49c:	1b110b3b 	madd	w27, w25, w17, w2
 4a0:	0b110000 	add	w0, w0, w17
 4a4:	00235501 	.inst	0x00235501 ; NYI
 4a8:	010b1200 	.inst	0x010b1200 ; undefined
 4ac:	06121b11 	.inst	0x06121b11 ; undefined
 4b0:	34130000 	cbz	w0, 264b0 <_binary_shell_bin_size-0xfeab50>
 4b4:	3a250300 	.inst	0x3a250300 ; undefined
 4b8:	490b3b0b 	.inst	0x490b3b0b ; undefined
 4bc:	14000013 	b	508 <_binary_shell_bin_size-0x1010af8>
 4c0:	00000018 	udf	#24
 4c4:	7f004815 	.inst	0x7f004815 ; undefined
 4c8:	001b7d13 	.inst	0x001b7d13 ; undefined
 4cc:	01481600 	.inst	0x01481600 ; undefined
 4d0:	1b7d137f 	.inst	0x1b7d137f ; undefined
 4d4:	49170000 	.inst	0x49170000 ; undefined
 4d8:	7e180200 	.inst	0x7e180200 ; undefined
 4dc:	18000018 	ldr	w24, 4dc <_binary_shell_bin_size-0x1010b24>
 4e0:	2503012e 	cmpge	p14.b, p0/z, z9.b, #3
 4e4:	0b3b0b3a 	add	w26, w25, w27, uxtb #2
 4e8:	193c1927 	.inst	0x193c1927 ; undefined
 4ec:	0000193f 	udf	#6463
 4f0:	49000519 	.inst	0x49000519 ; undefined
 4f4:	1a000013 	adc	w19, w0, w0
 4f8:	0000000f 	udf	#15
 4fc:	0000261b 	udf	#9755
 500:	00161c00 	.inst	0x00161c00 ; undefined
 504:	25031349 	cmpge	p9.b, p4/z, z26.b, #3
 508:	131d0000 	sbfiz	w0, w0, #3, #1
 50c:	0b250301 	add	w1, w24, w5, uxtb
 510:	1e00000b 	.inst	0x1e00000b ; undefined
 514:	2503000d 	cmpge	p13.b, p0/z, z0.b, #3
 518:	0b3a1349 	add	w9, w26, w26, uxtb #4
 51c:	0b380b3b 	add	w27, w25, w24, uxtb #2
 520:	01000000 	.inst	0x01000000 ; undefined
 524:	17100111 	b	fffffffffc400968 <__free_ram_end+0xffffffffb91ba968>
 528:	01120111 	.inst	0x01120111 ; undefined
 52c:	081b0803 	stxrb	w27, w3, [x0]
 530:	05130825 	mov	z5.b, p3/z, #65
 534:	0a020000 	and	w0, w0, w2
 538:	3a080300 	adcs	w0, w24, w8
 53c:	11063b06 	add	w6, w24, #0x18e
 540:	00000001 	udf	#1
 544:	10011101 	adr	x1, 2764 <_binary_shell_bin_size-0x100e89c>
 548:	12011117 	and	w23, w8, #0x8000000f
 54c:	1b080301 	madd	w1, w24, w8, w0
 550:	13082508 	sbfx	w8, w8, #8, #2
 554:	02000005 	.inst	0x02000005 ; undefined
 558:	0803000a 	stxrb	w3, w10, [x0]
 55c:	063b063a 	.inst	0x063b063a ; undefined
 560:	00000111 	udf	#273
 564:	01110100 	.inst	0x01110100 ; undefined
 568:	05132525 	.inst	0x05132525 ; undefined
 56c:	17722503 	b	fffffffffdc89978 <__free_ram_end+0xffffffffbaa43978>
 570:	251b1710 	cmpgt	p0.b, p5/z, z24.b, #-5
 574:	06121b11 	.inst	0x06121b11 ; undefined
 578:	018c1773 	.inst	0x018c1773 ; undefined
 57c:	02000017 	.inst	0x02000017 ; undefined
 580:	13490034 	.inst	0x13490034 ; undefined
 584:	0b3b0b3a 	add	w26, w25, w27, uxtb #2
 588:	00001802 	udf	#6146
 58c:	49010103 	.inst	0x49010103 ; undefined
 590:	04000013 	add	z19.b, p0/m, z19.b, z0.b
 594:	13490021 	.inst	0x13490021 ; undefined
 598:	00000b37 	udf	#2871
 59c:	03002405 	.inst	0x03002405 ; undefined
 5a0:	0b0b3e25 	add	w5, w17, w11, lsl #15
 5a4:	0600000b 	.inst	0x0600000b ; undefined
 5a8:	25030024 	cmpge	p4.b, p0/z, z1.b, #3
 5ac:	0b3e0b0b 	add	w11, w24, w30, uxtb #2
 5b0:	2e070000 	ext	v0.8b, v0.8b, v7.8b, #0
 5b4:	121b1101 	and	w1, w8, #0x3e0
 5b8:	7a184006 	.inst	0x7a184006 ; undefined
 5bc:	3a250319 	.inst	0x3a250319 ; undefined
 5c0:	270b3b0b 	.inst	0x270b3b0b ; undefined
 5c4:	00193f19 	.inst	0x00193f19 ; undefined
 5c8:	00050800 	.inst	0x00050800 ; undefined
 5cc:	25032202 	cmplt	p2.b, p0/z, z16.b, #3
 5d0:	0b3b0b3a 	add	w26, w25, w27, uxtb #2
 5d4:	00001349 	udf	#4937
 5d8:	02003409 	.inst	0x02003409 ; undefined
 5dc:	3a250322 	.inst	0x3a250322 ; undefined
 5e0:	490b3b0b 	.inst	0x490b3b0b ; undefined
 5e4:	0a000013 	and	w19, w0, w0
 5e8:	25030034 	cmpgt	p4.b, p0/z, z1.b, #3
 5ec:	0b3b0b3a 	add	w26, w25, w27, uxtb #2
 5f0:	00001349 	udf	#4937
 5f4:	7f00480b 	.inst	0x7f00480b ; undefined
 5f8:	001b7d13 	.inst	0x001b7d13 ; undefined
 5fc:	01480c00 	.inst	0x01480c00 ; undefined
 600:	1b7d137f 	.inst	0x1b7d137f ; undefined
 604:	490d0000 	.inst	0x490d0000 ; undefined
 608:	7e180200 	.inst	0x7e180200 ; undefined
 60c:	0e000018 	tbl	v24.8b, {v0.16b}, v0.8b
 610:	2503012e 	cmpge	p14.b, p0/z, z9.b, #3
 614:	0b3b0b3a 	add	w26, w25, w27, uxtb #2
 618:	193c1927 	.inst	0x193c1927 ; undefined
 61c:	0000193f 	udf	#6463
 620:	4900050f 	.inst	0x4900050f ; undefined
 624:	10000013 	adr	x19, 624 <_binary_shell_bin_size-0x10109dc>
 628:	00000018 	udf	#24
 62c:	49000f11 	.inst	0x49000f11 ; undefined
 630:	12000013 	and	w19, w0, #0x1
 634:	13490026 	.inst	0x13490026 ; undefined
 638:	2e130000 	ext	v0.8b, v0.8b, v19.8b, #0
 63c:	121b1100 	and	w0, w8, #0x3e0
 640:	7a184006 	.inst	0x7a184006 ; undefined
 644:	3a250319 	.inst	0x3a250319 ; undefined
 648:	270b3b0b 	.inst	0x270b3b0b ; undefined
 64c:	00193f19 	.inst	0x00193f19 ; undefined
 650:	00161400 	.inst	0x00161400 ; undefined
 654:	25031349 	cmpge	p9.b, p4/z, z26.b, #3
 658:	0b3b0b3a 	add	w26, w25, w27, uxtb #2
 65c:	Address 0x65c is out of bounds.


Disassembly of section .debug_info:

0000000000000000 <.debug_info>:
       0:	00001e9d 	udf	#7837
       4:	08010005 	stxrb	w1, w5, [x0]
       8:	00000000 	udf	#0
       c:	001d0001 	.inst	0x001d0001 ; undefined
      10:	00000801 	udf	#2049
      14:	00000000 	udf	#0
      18:	00000200 	udf	#512
      1c:	00000000 	udf	#0
      20:	08170000 	stxrb	w23, w0, [x0]
      24:	0c000000 	st4	{v0.8b-v3.8b}, [x0]
      28:	0c000000 	st4	{v0.8b-v3.8b}, [x0]
      2c:	02000000 	.inst	0x02000000 ; undefined
      30:	02080774 	.inst	0x02080774 ; undefined
      34:	03020773 	.inst	0x03020773 ; undefined
      38:	00000041 	udf	#65
      3c:	a1024e00 	ld1w	{z0.s, z8.s}, pn11/z, [x16, x2, lsl #2]
      40:	004d0400 	.inst	0x004d0400 ; undefined
      44:	51050000 	sub	w0, w0, #0x140
      48:	26000000 	.inst	0x26000000 ; undefined
      4c:	08030200 	stxrb	w3, w0, [x16]
      50:	08040601 	stxrb	w4, w1, [x16]
      54:	005f0307 	.inst	0x005f0307 ; undefined
      58:	6a000000 	ands	w0, w0, w0
      5c:	0401a102 	.inst	0x0401a102 ; undefined
      60:	0000004d 	udf	#77
      64:	00005105 	udf	#20741
      68:	07002000 	.inst	0x07002000 ; undefined
      6c:	0000684b 	udf	#26699
      70:	de6d0100 	.inst	0xde6d0100 ; undefined
      74:	08000009 	stxrb	w0, w9, [x0]
      78:	0000af05 	udf	#44805
      7c:	026f0000 	.inst	0x026f0000 ; undefined
      80:	090902a1 	.inst	0x090902a1 ; undefined
      84:	000009e6 	udf	#2534
      88:	09ee0a0a 	.inst	0x09ee0a0a ; undefined
      8c:	bb0b0000 	.inst	0xbb0b0000 ; undefined
      90:	4c000009 	st4	{v9.16b-v12.16b}, [x0]
      94:	0252010c 	.inst	0x0252010c ; undefined
      98:	0b007410 	add	w16, w0, w0, lsl #29
      9c:	000009c6 	udf	#2502
      a0:	51010c4d 	sub	w13, w2, #0x43
      a4:	0c008f02 	.inst	0x0c008f02 ; undefined
      a8:	83025001 	.inst	0x83025001 ; undefined
      ac:	0d000000 	st1	{v0.b}[0], [x0]
      b0:	000000b7 	udf	#183
      b4:	0d090108 	.inst	0x0d090108 ; undefined
      b8:	000000bf 	udf	#191
      bc:	02070107 	.inst	0x02070107 ; undefined
      c0:	03080706 	.inst	0x03080706 ; undefined
      c4:	000000cd 	udf	#205
      c8:	a1027400 	ld1d	{z0.d, z8.d}, pn13/z, [x0, x2, lsl #3]
      cc:	004d0403 	.inst	0x004d0403 ; undefined
      d0:	51050000 	sub	w0, w0, #0x140
      d4:	1d000000 	.inst	0x1d000000 ; undefined
      d8:	00e30300 	.inst	0x00e30300 ; undefined
      dc:	74000000 	.inst	0x74000000 ; undefined
      e0:	0404a102 	.inst	0x0404a102 ; undefined
      e4:	0000004d 	udf	#77
      e8:	00005105 	udf	#20741
      ec:	03000900 	.inst	0x03000900 ; undefined
      f0:	000000f9 	udf	#249
      f4:	a1027c00 	ld1d	{z0.d, z8.d}, pn15/z, [x0, x2, lsl #3]
      f8:	004d0405 	.inst	0x004d0405 ; undefined
      fc:	51050000 	sub	w0, w0, #0x140
     100:	23000000 	.inst	0x23000000 ; undefined
     104:	00f90300 	.inst	0x00f90300 ; undefined
     108:	7e000000 	.inst	0x7e000000 ; undefined
     10c:	0e06a102 	.inst	0x0e06a102 ; undefined
     110:	0000011a 	udf	#282
     114:	02013200 	.inst	0x02013200 ; undefined
     118:	4d0407a1 	.inst	0x4d0407a1 ; undefined
     11c:	05000000 	orr	z0.s, z0.s, #0x1
     120:	00000051 	udf	#81
     124:	1a0e0014 	adc	w20, w0, w14
     128:	00000001 	udf	#1
     12c:	a102013c 	ldnt1b	{z20.b, z28.b}, pn8/z, [x9, x2]
     130:	013c0e08 	.inst	0x013c0e08 ; undefined
     134:	61000000 	.inst	0x61000000 ; undefined
     138:	09a10201 	.inst	0x09a10201 ; undefined
     13c:	00004d04 	udf	#19716
     140:	00510500 	.inst	0x00510500 ; undefined
     144:	00250000 	.inst	0x00250000 ; NYI
     148:	0000410e 	udf	#16654
     14c:	01770000 	.inst	0x01770000 ; undefined
     150:	0e0aa102 	.inst	0x0e0aa102 ; undefined
     154:	0000015e 	udf	#350
     158:	02017e00 	.inst	0x02017e00 ; undefined
     15c:	4d040ba1 	.inst	0x4d040ba1 ; undefined
     160:	05000000 	orr	z0.s, z0.s, #0x1
     164:	00000051 	udf	#81
     168:	750e0015 	.inst	0x750e0015 ; undefined
     16c:	00000001 	udf	#1
     170:	a1020184 	ld1b	{z4.b, z12.b}, pn8/z, [x12, x2]
     174:	004d040c 	.inst	0x004d040c ; undefined
     178:	51050000 	sub	w0, w0, #0x140
     17c:	11000000 	add	w0, w0, #0x0
     180:	018c0e00 	.inst	0x018c0e00 ; undefined
     184:	b2000000 	orr	x0, x0, #0x100000001
     188:	0da10201 	st2	{v1.b-v2.b}[0], [x16], x1
     18c:	00004d04 	udf	#19716
     190:	00510500 	.inst	0x00510500 ; undefined
     194:	00120000 	.inst	0x00120000 ; undefined
     198:	0001a30e 	.inst	0x0001a30e ; undefined
     19c:	01b30000 	.inst	0x01b30000 ; undefined
     1a0:	040ea102 	.inst	0x040ea102 ; undefined
     1a4:	0000004d 	udf	#77
     1a8:	00005105 	udf	#20741
     1ac:	0e000f00 	.inst	0x0e000f00 ; undefined
     1b0:	0000015e 	udf	#350
     1b4:	0201b500 	.inst	0x0201b500 ; undefined
     1b8:	cd0e0fa1 	.inst	0xcd0e0fa1 ; undefined
     1bc:	00000000 	udf	#0
     1c0:	a10201e6 	ld1b	{z6.b, z14.b}, pn8/z, [x15, x2]
     1c4:	011a0f10 	.inst	0x011a0f10 ; undefined
     1c8:	e8000000 	.inst	0xe8000000 ; undefined
     1cc:	01d80e01 	.inst	0x01d80e01 ; undefined
     1d0:	ec000000 	.inst	0xec000000 ; undefined
     1d4:	11a10201 	.inst	0x11a10201 ; undefined
     1d8:	00004d04 	udf	#19716
     1dc:	00510500 	.inst	0x00510500 ; undefined
     1e0:	00100000 	.inst	0x00100000 ; undefined
     1e4:	00015e0e 	.inst	0x00015e0e ; undefined
     1e8:	01f20000 	.inst	0x01f20000 ; undefined
     1ec:	0e12a102 	.inst	0x0e12a102 ; undefined
     1f0:	000001fa 	udf	#506
     1f4:	0201fc00 	.inst	0x0201fc00 ; undefined
     1f8:	4d0413a1 	.inst	0x4d0413a1 ; undefined
     1fc:	05000000 	orr	z0.s, z0.s, #0x1
     200:	00000051 	udf	#81
     204:	5e0e0016 	sha1c	q22, s0, v14.4s
     208:	00000001 	udf	#1
     20c:	a1020200 	ld1b	{z0.b, z8.b}, pn8/z, [x16, x2]
     210:	021c0e14 	.inst	0x021c0e14 ; undefined
     214:	01000000 	.inst	0x01000000 ; undefined
     218:	15a10202 	b	6840a20 <_binary_shell_bin_size+0x582fa20>
     21c:	00004d04 	udf	#19716
     220:	00510500 	.inst	0x00510500 ; undefined
     224:	001f0000 	.inst	0x001f0000 ; undefined
     228:	0002330e 	.inst	0x0002330e ; undefined
     22c:	02290000 	.inst	0x02290000 ; undefined
     230:	0416a102 	abs	z2.b, p0/m, z8.b
     234:	0000004d 	udf	#77
     238:	00005105 	udf	#20741
     23c:	0e001900 	uzp1	v0.8b, v8.8b, v0.8b
     240:	0000024a 	udf	#586
     244:	02022a00 	.inst	0x02022a00 ; undefined
     248:	4d0417a1 	.inst	0x4d0417a1 ; undefined
     24c:	05000000 	orr	z0.s, z0.s, #0x1
     250:	00000051 	udf	#81
     254:	750e0027 	.inst	0x750e0027 ; undefined
     258:	00000001 	udf	#1
     25c:	a102022b 	ldnt1b	{z3.b, z11.b}, pn8/z, [x17, x2]
     260:	01750e18 	.inst	0x01750e18 ; undefined
     264:	2c000000 	stnp	s0, s0, [x0]
     268:	19a10202 	.inst	0x19a10202 ; undefined
     26c:	0000410e 	udf	#16654
     270:	02300000 	.inst	0x02300000 ; undefined
     274:	0e1aa102 	.inst	0x0e1aa102 ; undefined
     278:	0000021c 	udf	#540
     27c:	02023100 	.inst	0x02023100 ; undefined
     280:	8d0e1ba1 	.inst	0x8d0e1ba1 ; undefined
     284:	00000002 	udf	#2
     288:	a102024c 	ldnt1b	{z4.b, z12.b}, pn8/z, [x18, x2]
     28c:	004d041c 	.inst	0x004d041c ; undefined
     290:	51050000 	sub	w0, w0, #0x140
     294:	1b000000 	madd	w0, w0, w0, w0
     298:	011a0e00 	.inst	0x011a0e00 ; undefined
     29c:	54000000 	b.eq	29c <_binary_shell_bin_size-0x1010d64>  // b.none
     2a0:	1da10202 	.inst	0x1da10202 ; undefined
     2a4:	00021c0e 	.inst	0x00021c0e ; undefined
     2a8:	02570000 	.inst	0x02570000 ; undefined
     2ac:	0e1ea102 	.inst	0x0e1ea102 ; undefined
     2b0:	000002ba 	udf	#698
     2b4:	02027200 	.inst	0x02027200 ; undefined
     2b8:	4d041fa1 	.inst	0x4d041fa1 ; undefined
     2bc:	05000000 	orr	z0.s, z0.s, #0x1
     2c0:	00000051 	udf	#81
     2c4:	3c0e0029 	stur	b9, [x1, #224]
     2c8:	00000001 	udf	#1
     2cc:	a1020278 	ldnt1b	{z16.b, z24.b}, pn8/z, [x19, x2]
     2d0:	02dc0e20 	.inst	0x02dc0e20 ; undefined
     2d4:	95000000 	bl	40002d4 <_binary_shell_bin_size+0x2fef2d4>
     2d8:	21a10202 	.inst	0x21a10202 ; undefined
     2dc:	00004d04 	udf	#19716
     2e0:	00510500 	.inst	0x00510500 ; undefined
     2e4:	002e0000 	.inst	0x002e0000 ; NYI
     2e8:	0002f30e 	.inst	0x0002f30e ; undefined
     2ec:	02a00000 	.inst	0x02a00000 ; undefined
     2f0:	0422a102 	adr	z2.d, [z8.d, z2.d, sxtw]
     2f4:	0000004d 	udf	#77
     2f8:	00005105 	udf	#20741
     2fc:	0e002200 	tbl	v0.8b, {v16.16b-v17.16b}, v0.8b
     300:	0000030a 	udf	#778
     304:	0202bd00 	.inst	0x0202bd00 ; undefined
     308:	4d0423a1 	.inst	0x4d0423a1 ; undefined
     30c:	05000000 	orr	z0.s, z0.s, #0x1
     310:	00000051 	udf	#81
     314:	210e001a 	.inst	0x210e001a ; undefined
     318:	00000003 	udf	#3
     31c:	a10202bd 	ldnt1b	{z21.b, z29.b}, pn8/z, [x21, x2]
     320:	004d0424 	.inst	0x004d0424 ; undefined
     324:	51050000 	sub	w0, w0, #0x140
     328:	06000000 	.inst	0x06000000 ; undefined
     32c:	03380e00 	.inst	0x03380e00 ; undefined
     330:	bd000000 	str	s0, [x0]
     334:	25a10202 	whilege	p2.s, w16, w1
     338:	00004d04 	udf	#19716
     33c:	00510500 	.inst	0x00510500 ; undefined
     340:	00050000 	.inst	0x00050000 ; undefined
     344:	0002ba0e 	.inst	0x0002ba0e ; undefined
     348:	02f70000 	.inst	0x02f70000 ; undefined
     34c:	0e26a102 	smlsl	v2.8h, v8.8b, v6.8b
     350:	00000041 	udf	#65
     354:	02030600 	.inst	0x02030600 ; undefined
     358:	cd0e27a1 	.inst	0xcd0e27a1 ; undefined
     35c:	00000000 	udf	#0
     360:	a102030f 	ldnt1b	{z7.b, z15.b}, pn8/z, [x24, x2]
     364:	024a0e28 	.inst	0x024a0e28 ; undefined
     368:	19000000 	stlurb	w0, [x0]
     36c:	29a10203 	stp	w3, w0, [x16, #-248]!
     370:	0001a30e 	.inst	0x0001a30e ; undefined
     374:	031f0000 	.inst	0x031f0000 ; undefined
     378:	0e2aa102 	smlsl	v2.8h, v8.8b, v10.8b
     37c:	00000321 	udf	#801
     380:	02036a00 	.inst	0x02036a00 ; undefined
     384:	dc0e2ba1 	.inst	0xdc0e2ba1 ; undefined
     388:	00000002 	udf	#2
     38c:	a102036b 	ldnt1b	{z3.b, z11.b}, pn8/z, [x27, x2]
     390:	039c0e2c 	.inst	0x039c0e2c ; undefined
     394:	73000000 	.inst	0x73000000 ; undefined
     398:	2da10203 	stp	s3, s0, [x16, #-248]!
     39c:	00004d04 	udf	#19716
     3a0:	00510500 	.inst	0x00510500 ; undefined
     3a4:	00130000 	.inst	0x00130000 ; undefined
     3a8:	0003b30e 	.inst	0x0003b30e ; undefined
     3ac:	03850000 	.inst	0x03850000 ; undefined
     3b0:	042ea102 	adr	z2.d, [z8.d, z14.d, sxtw]
     3b4:	0000004d 	udf	#77
     3b8:	00005105 	udf	#20741
     3bc:	0e000700 	.inst	0x0e000700 ; undefined
     3c0:	000003ca 	udf	#970
     3c4:	02038700 	.inst	0x02038700 ; undefined
     3c8:	4d042fa1 	.inst	0x4d042fa1 ; undefined
     3cc:	05000000 	orr	z0.s, z0.s, #0x1
     3d0:	00000051 	udf	#81
     3d4:	e10e0003 	.inst	0xe10e0003 ; undefined
     3d8:	00000003 	udf	#3
     3dc:	a10203a4 	ld1b	{z4.b, z12.b}, pn8/z, [x29, x2]
     3e0:	004d0430 	.inst	0x004d0430 ; undefined
     3e4:	51050000 	sub	w0, w0, #0x140
     3e8:	18000000 	ldr	w0, 3e8 <_binary_shell_bin_size-0x1010c18>
     3ec:	02330e00 	.inst	0x02330e00 ; undefined
     3f0:	da000000 	sbc	x0, x0, x0
     3f4:	31a10203 	.inst	0x31a10203 ; undefined
     3f8:	0001fa0e 	.inst	0x0001fa0e ; undefined
     3fc:	03dc0000 	.inst	0x03dc0000 ; undefined
     400:	0e32a102 	smlsl	v2.8h, v8.8b, v18.8b
     404:	0000030a 	udf	#778
     408:	0203de00 	.inst	0x0203de00 ; undefined
     40c:	190e33a1 	stlurb	w1, [x29, #227]
     410:	00000004 	udf	#4
     414:	a10203e0 	ld1b	{z0.b, z8.b}, pn8/z, [sp, x2]
     418:	004d0434 	.inst	0x004d0434 ; undefined
     41c:	51050000 	sub	w0, w0, #0x140
     420:	0c000000 	st4	{v0.8b-v3.8b}, [x0]
     424:	04300e00 	.inst	0x04300e00 ; undefined
     428:	e2000000 	.inst	0xe2000000 ; undefined
     42c:	35a10203 	cbnz	w3, fffffffffff4246c <__free_ram_end+0xffffffffbccfc46c>
     430:	00004d04 	udf	#19716
     434:	00510500 	.inst	0x00510500 ; undefined
     438:	00170000 	.inst	0x00170000 ; undefined
     43c:	00018c0f 	.inst	0x00018c0f ; undefined
     440:	03e30000 	.inst	0x03e30000 ; undefined
     444:	044f0910 	.inst	0x044f0910 ; undefined
     448:	c5000000 	ld1sw	{z0.d}, p0/z, [x0, z0.d, uxtw]
     44c:	0436a102 	adr	z2.d, [z8.d, z22.d, sxtw]
     450:	0000045b 	udf	#1115
     454:	00005105 	udf	#20741
     458:	11000800 	add	w0, w0, #0x2
     45c:	02202013 	.inst	0x02202013 ; undefined
     460:	900a127c 	adrp	x28, 1424c000 <_binary_shell_bin_size+0x1323b000>
     464:	02000004 	.inst	0x02000004 ; undefined
     468:	0c12007d 	.inst	0x0c12007d ; undefined
     46c:	00000490 	udf	#1168
     470:	12047e02 	.inst	0x12047e02 ; undefined
     474:	0004940d 	.inst	0x0004940d ; undefined
     478:	087f0200 	.inst	0x087f0200 ; undefined
     47c:	049c0f12 	.inst	0x049c0f12 ; undefined
     480:	80020000 	.inst	0x80020000 ; undefined
     484:	a1101310 	ld1b	{z16.b, z24.b}, pn12/z, [x24, x16]
     488:	02000004 	.inst	0x02000004 ; undefined
     48c:	00201081 	.inst	0x00201081 ; NYI
     490:	04050b02 	.inst	0x04050b02 ; undefined
     494:	0000b70d 	udf	#46861
     498:	0a010e00 	and	w0, w16, w1, lsl #3
     49c:	0000b714 	udf	#46868
     4a0:	04ae0400 	sub	z0.s, z0.s, z14.s
     4a4:	51150000 	sub	w0, w0, #0x540
     4a8:	00000000 	udf	#0
     4ac:	b60d0020 	tbz	x0, #33, ffffffffffffa4b0 <__free_ram_end+0xffffffffbcdb44b0>
     4b0:	12000004 	and	w4, w0, #0x1
     4b4:	11020401 	add	w1, w0, #0x81
     4b8:	14100108 	b	4008d8 <_binary_shell_bin_size-0xc10728>
     4bc:	000004c5 	udf	#1221
     4c0:	a102ee00 	ld1d	{z0.d, z4.d, z8.d, z12.d}, pn11/z, [x16, x2, lsl #3]
     4c4:	045b1437 	bic	z23.h, p5/m, z23.h, z1.h
     4c8:	15100000 	b	44004c8 <_binary_shell_bin_size+0x33ef4c8>
     4cc:	000004c5 	udf	#1221
     4d0:	a102ef00 	ld1d	{z0.d, z4.d, z8.d, z12.d}, pn11/z, [x24, x2, lsl #3]
     4d4:	c5161038 	ld1sw	{z24.d}, p4/z, [x1, z22.d, uxtw]
     4d8:	00000004 	udf	#4
     4dc:	39a102f1 	ldrsb	x17, [x23, #2112]
     4e0:	04c51710 	.inst	0x04c51710 ; undefined
     4e4:	f2000000 	ands	x0, x0, #0x100000001
     4e8:	163aa102 	b	fffffffff8ea88f0 <__free_ram_end+0xffffffffb5c628f0>
     4ec:	0004f718 	.inst	0x0004f718 ; undefined
     4f0:	01aa0000 	.inst	0x01aa0000 ; undefined
     4f4:	043ba102 	adr	z2.d, [z8.d, z27.d, sxtw]
     4f8:	00000503 	udf	#1283
     4fc:	00005105 	udf	#20741
     500:	11000200 	add	w0, w16, #0x0
     504:	02046c21 	.inst	0x02046c21 ; undefined
     508:	2f1912f7 	.inst	0x2f1912f7 ; undefined
     50c:	02000005 	.inst	0x02000005 ; undefined
     510:	1b1200f8 	madd	w24, w7, w18, w0
     514:	00000537 	udf	#1335
     518:	1204f902 	.inst	0x1204f902 ; undefined
     51c:	0005431c 	.inst	0x0005431c ; undefined
     520:	68fa0200 	.inst	0x68fa0200 ; undefined
     524:	05501d17 	mov	z23.h, p0/z, #-24
     528:	fb020000 	.inst	0xfb020000 ; undefined
     52c:	0d000468 	st1	{v8.b}[1], [x3]
     530:	00000490 	udf	#1168
     534:	0403011a 	subr	z26.b, p0/m, z26.b, z8.b
     538:	0000004d 	udf	#77
     53c:	00005105 	udf	#20741
     540:	04006400 	mls	z0.b, p1/m, z0.b, z0.b
     544:	0000004d 	udf	#77
     548:	00005115 	udf	#20757
     54c:	00040000 	.inst	0x00040000 ; undefined
     550:	0005580d 	.inst	0x0005580d ; undefined
     554:	08012000 	stxrb	w1, w0, [x0]
     558:	0005600d 	.inst	0x0005600d ; undefined
     55c:	06011f00 	.inst	0x06011f00 ; undefined
     560:	04071e02 	.inst	0x04071e02 ; undefined
     564:	05702216 	mov	z22.q, z16.q[1]
     568:	ab000000 	adds	x0, x0, x0
     56c:	3ca10201 	.inst	0x3ca10201 ; undefined
     570:	00057d04 	.inst	0x00057d04 ; undefined
     574:	00511500 	.inst	0x00511500 ; undefined
     578:	0a000000 	and	w0, w0, w0
     57c:	04b60d00 	.inst	0x04b60d00 ; undefined
     580:	00120000 	.inst	0x00120000 ; undefined
     584:	91231609 	add	x9, x16, #0x8c5
     588:	00000005 	udf	#5
     58c:	a1020246 	ld1b	{z6.b, z14.b}, pn8/z, [x18, x2]
     590:	0596143d 	mov	z29.s, p6/z, #-95
     594:	38180000 	sturb	w0, [x0, #-128]
     598:	c5022000 	ldff1sw	{z0.d}, p0/z, [x0, z2.d, uxtw]
     59c:	24122080 	cmpeq	p0.b, p0/z, z4.b, z18.d
     5a0:	000005e4 	udf	#1508
     5a4:	1700c702 	b	fffffffffc0321ac <__free_ram_end+0xffffffffb8dec1ac>
     5a8:	0006262c 	.inst	0x0006262c ; undefined
     5ac:	00c90200 	.inst	0x00c90200 ; undefined
     5b0:	53301701 	.inst	0x53301701 ; undefined
     5b4:	02000006 	.inst	0x02000006 ; undefined
     5b8:	170124cb 	b	fffffffffc0498e4 <__free_ram_end+0xffffffffb8e038e4>
     5bc:	00066031 	.inst	0x00066031 ; undefined
     5c0:	00cd0200 	.inst	0x00cd0200 ; undefined
     5c4:	1a351710 	.inst	0x1a351710 ; undefined
     5c8:	02000006 	.inst	0x02000006 ; undefined
     5cc:	171084cf 	b	fffffffffc421908 <__free_ram_end+0xffffffffb91db908>
     5d0:	00061a36 	.inst	0x00061a36 ; undefined
     5d4:	86d00200 	.inst	0x86d00200 ; undefined
     5d8:	1a371710 	.inst	0x1a371710 ; undefined
     5dc:	02000006 	.inst	0x02000006 ; undefined
     5e0:	001088d1 	.inst	0x001088d1 ; undefined
     5e4:	0005f004 	.inst	0x0005f004 ; undefined
     5e8:	00510500 	.inst	0x00510500 ; undefined
     5ec:	00100000 	.inst	0x00100000 ; undefined
     5f0:	02102b19 	.inst	0x02102b19 ; undefined
     5f4:	b72512a9 	tbnz	x9, #36, ffffffffffffa848 <__free_ram_end+0xffffffffbcdb4848>
     5f8:	02000000 	.inst	0x02000000 ; undefined
     5fc:	261200aa 	.inst	0x261200aa ; undefined
     600:	00000558 	udf	#1368
     604:	1208ab02 	and	w2, w24, #0xff07ff07
     608:	00061a27 	.inst	0x00061a27 ; undefined
     60c:	0cac0200 	.inst	0x0cac0200 ; undefined
     610:	061a2a12 	.inst	0x061a2a12 ; undefined
     614:	ad020000 	stp	q0, q0, [x0, #64]
     618:	220d000e 	.inst	0x220d000e ; undefined
     61c:	29000006 	stp	w6, w0, [x0]
     620:	28020501 	stnp	w1, w1, [x8, #16]
     624:	2f190207 	.inst	0x2f190207 ; undefined
     628:	12b10224 	mov	w4, #0x77eeffff            	// #2012151807
     62c:	00061a27 	.inst	0x00061a27 ; undefined
     630:	00b20200 	.inst	0x00b20200 ; undefined
     634:	061a2d12 	.inst	0x061a2d12 ; undefined
     638:	b3020000 	.inst	0xb3020000 ; undefined
     63c:	472e1202 	.inst	0x472e1202 ; undefined
     640:	02000006 	.inst	0x02000006 ; undefined
     644:	040004b4 	add	z20.b, p1/m, z20.b, z5.b
     648:	0000061a 	udf	#1562
     64c:	00005105 	udf	#20741
     650:	04001000 	add	z0.b, p4/m, z0.b, z0.b
     654:	000004ae 	udf	#1198
     658:	00005115 	udf	#20757
     65c:	000edc00 	.inst	0x000edc00 ; undefined
     660:	02843419 	.inst	0x02843419 ; undefined
     664:	1a2712be 	.inst	0x1a2712be ; undefined
     668:	02000006 	.inst	0x02000006 ; undefined
     66c:	2d1200bf 	stp	s31, s0, [x5, #144]
     670:	0000061a 	udf	#1562
     674:	1202c002 	and	w2, w0, #0x40404040
     678:	0006812e 	.inst	0x0006812e ; undefined
     67c:	04c10200 	sub	z0.d, p0/m, z0.d, z16.d
     680:	068d0400 	.inst	0x068d0400 ; undefined
     684:	51050000 	sub	w0, w0, #0x140
     688:	10000000 	adr	x0, 688 <_binary_shell_bin_size-0x1010978>
     68c:	08331900 	.inst	0x08331900 ; undefined
     690:	3212b802 	orr	w2, w0, #0xdfffdfff
     694:	00000558 	udf	#1368
     698:	1200b902 	and	w2, w8, #0x7fff7fff
     69c:	00055826 	.inst	0x00055826 ; undefined
     6a0:	04ba0200 	add	z0.s, z16.s, z26.s
     6a4:	b1391600 	adds	x0, x16, #0xe45
     6a8:	00000006 	udf	#6
     6ac:	a1020247 	ld1b	{z7.b, z15.b}, pn8/z, [x18, x2]
     6b0:	06b6143e 	.inst	0x06b6143e ; undefined
     6b4:	3e110000 	.inst	0x3e110000 ; undefined
     6b8:	d5020211 	msr	s0_2_c0_c2_0, x17
     6bc:	05583a12 	mov	z18.h, p8/z, #-12288
     6c0:	d6020000 	.inst	0xd6020000 ; undefined
     6c4:	583b1200 	ldr	x0, 76904 <_binary_shell_bin_size-0xf9a6fc>
     6c8:	02000005 	.inst	0x02000005 ; undefined
     6cc:	3c1204d7 	str	b23, [x6], #-224
     6d0:	000000b7 	udf	#183
     6d4:	1208d802 	and	w2, w0, #0x7f7f7f7f
     6d8:	0006eb1c 	.inst	0x0006eb1c ; undefined
     6dc:	10d90200 	adr	x0, fffffffffffb271c <__free_ram_end+0xffffffffbcd6c71c>
     6e0:	04ae3d17 	bsl2n	z23.d, z23.d, z14.d, z8.d
     6e4:	da020000 	sbc	x0, x0, x2
     6e8:	04000210 	add	z16.b, p0/m, z16.b, z16.b
     6ec:	000004ae 	udf	#1198
     6f0:	00005115 	udf	#20757
     6f4:	00020000 	.inst	0x00020000 ; undefined
     6f8:	00af3f16 	.inst	0x00af3f16 ; undefined
     6fc:	48000000 	stxrh	w0, w0, [x0]
     700:	3fa10202 	.inst	0x3fa10202 ; undefined
     704:	05604016 	.inst	0x05604016 ; undefined
     708:	49000000 	.inst	0x49000000 ; undefined
     70c:	40a10202 	.inst	0x40a10202 ; undefined
     710:	08054102 	stxrb	w5, w2, [x8]
     714:	071a141a 	.inst	0x071a141a ; undefined
     718:	4d1b0000 	.inst	0x4d1b0000 ; undefined
     71c:	14000000 	b	71c <_binary_shell_bin_size-0x10108e4>
     720:	0000004d 	udf	#77
     724:	00072914 	.inst	0x00072914 ; undefined
     728:	072e1c00 	.inst	0x072e1c00 ; undefined
     72c:	600d0000 	.inst	0x600d0000 ; undefined
     730:	1f000005 	fmadd	s5, s0, s0, s0
     734:	3b140a00 	.inst	0x3b140a00 ; undefined
     738:	1c000007 	ldr	s7, 738 <_binary_shell_bin_size-0x10108c8>
     73c:	000000b7 	udf	#183
     740:	00074514 	.inst	0x00074514 ; undefined
     744:	004f1100 	.inst	0x004f1100 ; undefined
     748:	12e10202 	.inst	0x12e10202 ; undefined
     74c:	0005371b 	.inst	0x0005371b ; undefined
     750:	00e20200 	.inst	0x00e20200 ; undefined
     754:	07f74212 	.inst	0x07f74212 ; undefined
     758:	e3020000 	.inst	0xe3020000 ; undefined
     75c:	f7431264 	.inst	0xf7431264 ; undefined
     760:	02000007 	.inst	0x02000007 ; undefined
     764:	44126ce4 	.inst	0x44126ce4 ; undefined
     768:	000007f7 	udf	#2039
     76c:	1274e502 	.inst	0x1274e502 ; undefined
     770:	0004191d 	.inst	0x0004191d ; undefined
     774:	7ce60200 	.inst	0x7ce60200 ; undefined
     778:	04194512 	mla	z18.b, p1/m, z8.b, z25.b
     77c:	e7020000 	.inst	0xe7020000 ; undefined
     780:	f7461288 	.inst	0xf7461288 ; undefined
     784:	02000007 	.inst	0x02000007 ; undefined
     788:	3a1294e8 	.inst	0x3a1294e8 ; undefined
     78c:	0000004d 	udf	#77
     790:	129ce902 	mov	w2, #0xffff18b7            	// #-59209
     794:	00053747 	.inst	0x00053747 ; undefined
     798:	9dea0200 	.inst	0x9dea0200 ; undefined
     79c:	03214817 	.inst	0x03214817 ; undefined
     7a0:	eb020000 	subs	x0, x0, x2
     7a4:	49170101 	.inst	0x49170101 ; undefined
     7a8:	00000803 	udf	#2051
     7ac:	0107ec02 	.inst	0x0107ec02 ; undefined
     7b0:	005f4a17 	.inst	0x005f4a17 ; undefined
     7b4:	ed020000 	.inst	0xed020000 ; undefined
     7b8:	4b170109 	sub	w9, w8, w23
     7bc:	0000005f 	udf	#95
     7c0:	0129ee02 	.inst	0x0129ee02 ; undefined
     7c4:	07f74c17 	.inst	0x07f74c17 ; undefined
     7c8:	ef020000 	.inst	0xef020000 ; undefined
     7cc:	4d170149 	.inst	0x4d170149 ; undefined
     7d0:	000007f7 	udf	#2039
     7d4:	0151f002 	.inst	0x0151f002 ; undefined
     7d8:	080f4e17 	stxrb	w15, w23, [x16]
     7dc:	f1020000 	subs	x0, x0, #0x80
     7e0:	30170159 	adr	x25, 2e809 <_binary_shell_bin_size-0xfe27f7>
     7e4:	00000419 	udf	#1049
     7e8:	01f4f202 	.inst	0x01f4f202 ; undefined
     7ec:	081b1c17 	stxrb	w27, w23, [x0]
     7f0:	f3020000 	.inst	0xf3020000 ; undefined
     7f4:	04000200 	add	z0.b, p0/m, z0.b, z16.b
     7f8:	0000004d 	udf	#77
     7fc:	00005105 	udf	#20741
     800:	04000800 	add	z0.b, p2/m, z0.b, z0.b
     804:	0000004d 	udf	#77
     808:	00005105 	udf	#20741
     80c:	04000200 	add	z0.b, p0/m, z0.b, z16.b
     810:	0000004d 	udf	#77
     814:	00005105 	udf	#20741
     818:	04009b00 	asr	z0.h, p6/m, z0.h, #8
     81c:	0000004d 	udf	#77
     820:	0000511d 	udf	#20765
     824:	2e0d0000 	ext	v0.8b, v0.8b, v13.8b, #0
     828:	20000007 	.inst	0x20000007 ; undefined
     82c:	41070b00 	.inst	0x41070b00 ; undefined
     830:	0000001c 	udf	#28
     834:	08796f01 	.inst	0x08796f01 ; undefined
     838:	00090000 	.inst	0x00090000 ; undefined
     83c:	00000881 	udf	#2177
     840:	0c91021e 	st4	{v30.8b-v1.8b}, [x16], x17
     844:	00000889 	udf	#2185
     848:	9152011e 	add	x30, x8, #0x480, lsl #12
     84c:	09000008 	.inst	0x09000008 ; undefined
     850:	00089901 	.inst	0x00089901 ; undefined
     854:	53011f00 	ubfx	w0, w24, #1, #7
     858:	000008a1 	udf	#2209
     85c:	a952011f 	ldp	xzr, x0, [x8, #288]
     860:	0a000008 	and	w8, w0, w0
     864:	0008b102 	.inst	0x0008b102 ; undefined
     868:	91031f00 	add	x0, x24, #0xc7
     86c:	08b99f0c 	.inst	0x08b99f0c ; undefined
     870:	030a0000 	.inst	0x030a0000 ; undefined
     874:	000008c1 	udf	#2241
     878:	00502000 	.inst	0x00502000 ; undefined
     87c:	00071015 	.inst	0x00071015 ; undefined
     880:	00512100 	.inst	0x00512100 ; undefined
     884:	00071015 	.inst	0x00071015 ; undefined
     888:	00522100 	.inst	0x00522100 ; undefined
     88c:	00004d15 	udf	#19733
     890:	00532100 	.inst	0x00532100 ; undefined
     894:	00071015 	.inst	0x00071015 ; undefined
     898:	00542100 	.inst	0x00542100 ; undefined
     89c:	00071015 	.inst	0x00071015 ; undefined
     8a0:	00552200 	.inst	0x00552200 ; undefined
     8a4:	00071019 	.inst	0x00071019 ; undefined
     8a8:	00562200 	.inst	0x00562200 ; undefined
     8ac:	00071018 	.inst	0x00071018 ; undefined
     8b0:	00572200 	.inst	0x00572200 ; undefined
     8b4:	00071017 	.inst	0x00071017 ; undefined
     8b8:	00582200 	.inst	0x00582200 ; undefined
     8bc:	00071516 	.inst	0x00071516 ; undefined
     8c0:	00592200 	.inst	0x00592200 ; undefined
     8c4:	0007101a 	.inst	0x0007101a ; undefined
     8c8:	42070000 	.inst	0x42070000 ; undefined
     8cc:	00000024 	udf	#36
     8d0:	0c566f01 	.inst	0x0c566f01 ; undefined
     8d4:	04090000 	umax	z0.b, p0/m, z0.b, z0.b
     8d8:	00000c5a 	udf	#3162
     8dc:	00087923 	.inst	0x00087923 ; undefined
     8e0:	00144300 	.inst	0x00144300 ; undefined
     8e4:	24000000 	cmphs	p0.b, p0/z, z0.b, z0.b
     8e8:	81032403 	.inst	0x81032403 ; undefined
     8ec:	1e000008 	.inst	0x1e000008 ; undefined
     8f0:	890c9102 	.inst	0x890c9102 ; undefined
     8f4:	24000008 	cmphs	p8.b, p0/z, z0.b, z0.b
     8f8:	00089101 	.inst	0x00089101 ; undefined
     8fc:	00c02400 	.inst	0x00c02400 ; undefined
     900:	00000899 	udf	#2201
     904:	a100c025 	.inst	0xa100c025 ; undefined
     908:	25000008 	cmpge	p8.b, p0/z, z0.b, #0
     90c:	0008a901 	.inst	0x0008a901 ; undefined
     910:	b1032500 	adds	x0, x8, #0xc9
     914:	1f000008 	fmadd	s8, s0, s0, s0
     918:	9f0c9103 	.inst	0x9f0c9103 ; undefined
     91c:	000008b9 	udf	#2233
     920:	44070000 	.inst	0x44070000 ; undefined
     924:	0000002c 	udf	#44
     928:	10c06f01 	adr	x1, fffffffffff81708 <__free_ram_end+0xffffffffbcd3b708>
     92c:	050a0000 	.inst	0x050a0000 ; undefined
     930:	000010c8 	udf	#4296
     934:	10d8060a 	adr	x10, fffffffffffb09f4 <__free_ram_end+0xffffffffbcd6a9f4>
     938:	d0260000 	adrp	x0, 4c002000 <__free_ram_end+0x8dbc000>
     93c:	23000010 	.inst	0x23000010 ; undefined
     940:	00000879 	udf	#2169
     944:	00001445 	udf	#5189
     948:	11320000 	add	w0, w0, #0xc80
     94c:	08810324 	stllrb	w4, [x25]
     950:	021e0000 	.inst	0x021e0000 ; undefined
     954:	08890c91 	stllrb	w17, [x4]
     958:	00240000 	.inst	0x00240000 ; NYI
     95c:	00000891 	udf	#2193
     960:	9900c024 	stlur	w4, [x1, #12]
     964:	25000008 	cmpge	p8.b, p0/z, z0.b, #0
     968:	08a100c0 	.inst	0x08a100c0 ; undefined
     96c:	00250000 	.inst	0x00250000 ; NYI
     970:	000008a9 	udf	#2217
     974:	08b10325 	.inst	0x08b10325 ; undefined
     978:	031f0000 	.inst	0x031f0000 ; undefined
     97c:	b99f0c91 	ldrsw	x17, [x4, #7948]
     980:	00000008 	udf	#8
     984:	18462700 	ldr	w0, 8ce64 <_binary_shell_bin_size-0xf8419c>
     988:	01000000 	.inst	0x01000000 ; undefined
     98c:	3b00756f 	.inst	0x3b00756f ; undefined
     990:	00604707 	.inst	0x00604707 ; undefined
     994:	6d010000 	stp	d0, d0, [x0, #16]
     998:	00001c96 	udf	#7318
     99c:	1c9a070a 	ldr	s10, fffffffffff34a7c <__free_ram_end+0xffffffffbcceea7c>
     9a0:	080a0000 	stxrb	w10, w0, [x0]
     9a4:	00001ca2 	udf	#7330
     9a8:	00098528 	.inst	0x00098528 ; undefined
     9ac:	bb294800 	.inst	0xbb294800 ; undefined
     9b0:	49000009 	.inst	0x49000009 ; undefined
     9b4:	0009bb29 	.inst	0x0009bb29 ; undefined
     9b8:	2a004a00 	orr	w0, w16, w0, lsl #18
     9bc:	2b1c015a 	adds	w26, w10, w28
     9c0:	00000715 	udf	#1813
     9c4:	5b2d002c 	.inst	0x5b2d002c ; undefined
     9c8:	07141801 	.inst	0x07141801 ; undefined
     9cc:	142b0000 	b	ac09cc <_binary_shell_bin_size-0x550634>
     9d0:	2b000007 	adds	w7, w0, w0
     9d4:	0000004d 	udf	#77
     9d8:	0005502b 	.inst	0x0005502b ; undefined
     9dc:	5c200000 	ldr	d0, 409dc <_binary_shell_bin_size-0xfd0624>
     9e0:	00af6e00 	.inst	0x00af6e00 ; undefined
     9e4:	5d210000 	.inst	0x5d210000 ; undefined
     9e8:	072e6e00 	.inst	0x072e6e00 ; undefined
     9ec:	5e220000 	.inst	0x5e220000 ; undefined
     9f0:	00af7000 	.inst	0x00af7000 ; undefined
     9f4:	2e000000 	ext	v0.8b, v0.8b, v0.8b, #0
     9f8:	0002484e 	.inst	0x0002484e ; undefined
     9fc:	766d0100 	.inst	0x766d0100 ; undefined
     a00:	0b2f7a00 	.inst	0x0b2f7a00 ; undefined
     a04:	9c7a008c 	ldr	q12, f4a14 <_binary_shell_bin_size-0xf1c5ec>
     a08:	2f000004 	.inst	0x2f000004 ; undefined
     a0c:	7a008d0c 	.inst	0x7a008d0c ; undefined
     a10:	000000b7 	udf	#183
     a14:	005e0d2f 	.inst	0x005e0d2f ; undefined
     a18:	0000af7a 	udf	#44922
     a1c:	270e2f00 	.inst	0x270e2f00 ; undefined
     a20:	00b77a00 	.inst	0x00b77a00 ; undefined
     a24:	0f300000 	.inst	0x0f300000 ; undefined
     a28:	b781008e 	tbnz	x14, #48, 2a38 <_binary_shell_bin_size-0x100e5c8>
     a2c:	30000000 	adr	x0, a2d <_binary_shell_bin_size-0x10105d3>
     a30:	82009012 	.inst	0x82009012 ; undefined
     a34:	0000049c 	udf	#1180
     a38:	00911330 	.inst	0x00911330 ; undefined
     a3c:	0000b78b 	udf	#46987
     a40:	92163000 	and	x0, x0, #0x7ffc00007ffc00
     a44:	049c8c00 	.inst	0x049c8c00 ; undefined
     a48:	17300000 	b	fffffffffcc00a48 <__free_ram_end+0xffffffffb99baa48>
     a4c:	b7950093 	tbnz	x19, #50, ffffffffffffaa5c <__free_ram_end+0xffffffffbcdb4a5c>
     a50:	30000000 	adr	x0, a51 <_binary_shell_bin_size-0x10105af>
     a54:	9600941a 	bl	fffffffff8025abc <__free_ram_end+0xffffffffb4ddfabc>
     a58:	0000049c 	udf	#1180
     a5c:	9f009522 	.inst	0x9f009522 ; undefined
     a60:	000000b7 	udf	#183
     a64:	007c4f31 	.inst	0x007c4f31 ; undefined
     a68:	11300000 	add	w0, w0, #0xc00
     a6c:	af84008f 	.inst	0xaf84008f ; undefined
     a70:	23000000 	.inst	0x23000000 ; undefined
     a74:	000009de 	udf	#2526
     a78:	0000584f 	udf	#22607
     a7c:	1d840000 	.inst	0x1d840000 ; undefined
     a80:	09e60132 	.inst	0x09e60132 ; undefined
     a84:	100a0000 	adr	x0, 14a84 <_binary_shell_bin_size-0xffc57c>
     a88:	000009ee 	udf	#2542
     a8c:	00330000 	.inst	0x00330000 ; NYI
     a90:	008f1530 	.inst	0x008f1530 ; undefined
     a94:	0000af8e 	udf	#44942
     a98:	09de3400 	.inst	0x09de3400 ; undefined
     a9c:	00010000 	.inst	0x00010000 ; undefined
     aa0:	01321d8e 	.inst	0x01321d8e ; undefined
     aa4:	000009e6 	udf	#2534
     aa8:	09ee140a 	.inst	0x09ee140a ; undefined
     aac:	00000000 	udf	#0
     ab0:	19300233 	.inst	0x19300233 ; undefined
     ab4:	af98008f 	.inst	0xaf98008f ; undefined
     ab8:	34000000 	cbz	w0, ab8 <_binary_shell_bin_size-0x1010548>
     abc:	000009de 	udf	#2526
     ac0:	1d980003 	.inst	0x1d980003 ; undefined
     ac4:	09e60132 	.inst	0x09e60132 ; undefined
     ac8:	180a0000 	ldr	w0, 14ac8 <_binary_shell_bin_size-0xffc538>
     acc:	000009ee 	udf	#2542
     ad0:	bb0b0000 	.inst	0xbb0b0000 ; undefined
     ad4:	50000009 	adr	x9, ad6 <_binary_shell_bin_size-0x101052a>
     ad8:	0253010c 	.inst	0x0253010c ; undefined
     adc:	010c0083 	.inst	0x010c0083 ; undefined
     ae0:	7c100252 	stur	h18, [x18, #-256]
     ae4:	09bb0b00 	.inst	0x09bb0b00 ; undefined
     ae8:	0c510000 	.inst	0x0c510000 ; undefined
     aec:	10025201 	adr	x1, 552c <_binary_shell_bin_size-0x100bad4>
     af0:	bb0b007e 	.inst	0xbb0b007e ; undefined
     af4:	52000009 	eor	w9, w0, #0x1
     af8:	0252010c 	.inst	0x0252010c ; undefined
     afc:	0b007410 	add	w16, w0, w0, lsl #29
     b00:	000009c6 	udf	#2502
     b04:	52010c53 	eor	w19, w2, #0x80000007
     b08:	20801003 	.inst	0x20801003 ; undefined
     b0c:	0251010c 	.inst	0x0251010c ; undefined
     b10:	010c008f 	.inst	0x010c008f ; undefined
     b14:	00840250 	.inst	0x00840250 ; undefined
     b18:	09c60b00 	.inst	0x09c60b00 ; undefined
     b1c:	0c540000 	.inst	0x0c540000 ; undefined
     b20:	10035201 	adr	x1, 7560 <_binary_shell_bin_size-0x1009aa0>
     b24:	010c2080 	.inst	0x010c2080 ; undefined
     b28:	008f0251 	.inst	0x008f0251 ; undefined
     b2c:	0250010c 	.inst	0x0250010c ; undefined
     b30:	0b000084 	add	w4, w4, w0
     b34:	000009bb 	udf	#2491
     b38:	52010c55 	eor	w21, w2, #0x80000007
     b3c:	00741002 	.inst	0x00741002 ; undefined
     b40:	0009c60b 	.inst	0x0009c60b ; undefined
     b44:	010c5600 	.inst	0x010c5600 ; undefined
     b48:	80100352 	.inst	0x80100352 ; undefined
     b4c:	51010c20 	sub	w0, w1, #0x43
     b50:	0c008f02 	.inst	0x0c008f02 ; undefined
     b54:	84025001 	ld1b	{z1.s}, p4/z, [x0, z2.s, uxtw]
     b58:	c60b0000 	.inst	0xc60b0000 ; undefined
     b5c:	57000009 	.inst	0x57000009 ; undefined
     b60:	0352010c 	.inst	0x0352010c ; undefined
     b64:	0c208010 	.inst	0x0c208010 ; undefined
     b68:	8f025101 	.inst	0x8f025101 ; undefined
     b6c:	50010c00 	adr	x0, 2cee <_binary_shell_bin_size-0x100e312>
     b70:	00008402 	udf	#33794
     b74:	0009bb0b 	.inst	0x0009bb0b ; undefined
     b78:	010c5800 	.inst	0x010c5800 ; undefined
     b7c:	74100252 	.inst	0x74100252 ; undefined
     b80:	09c60b00 	.inst	0x09c60b00 ; undefined
     b84:	0c590000 	.inst	0x0c590000 ; undefined
     b88:	10035201 	adr	x1, 75c8 <_binary_shell_bin_size-0x1009a38>
     b8c:	010c2080 	.inst	0x010c2080 ; undefined
     b90:	008f0251 	.inst	0x008f0251 ; undefined
     b94:	0250010c 	.inst	0x0250010c ; undefined
     b98:	0b000084 	add	w4, w4, w0
     b9c:	000009c6 	udf	#2502
     ba0:	52010c5a 	eor	w26, w2, #0x80000007
     ba4:	20801003 	.inst	0x20801003 ; undefined
     ba8:	0251010c 	.inst	0x0251010c ; undefined
     bac:	010c008f 	.inst	0x010c008f ; undefined
     bb0:	00840250 	.inst	0x00840250 ; undefined
     bb4:	5b270000 	.inst	0x5b270000 ; undefined
     bb8:	00000044 	udf	#68
     bbc:	00776f01 	.inst	0x00776f01 ; undefined
     bc0:	185c2ea5 	ldr	w5, b9194 <_binary_shell_bin_size-0xf57e6c>
     bc4:	01000000 	.inst	0x01000000 ; undefined
     bc8:	c700786f 	.inst	0xc700786f ; undefined
     bcc:	000c5d31 	.inst	0x000c5d31 ; undefined
     bd0:	1b300000 	.inst	0x1b300000 ; undefined
     bd4:	90c8006f 	adrp	x15, ffffffff9000c000 <__free_ram_end+0xffffffff4cdc6000>
     bd8:	00000004 	udf	#4
     bdc:	445e2e00 	cmla	z0.h, z16.h, z30.h, #270
     be0:	01000000 	.inst	0x01000000 ; undefined
     be4:	cc00796f 	.inst	0xcc00796f ; undefined
     be8:	000f1c2f 	.inst	0x000f1c2f ; undefined
     bec:	00049ccc 	.inst	0x00049ccc ; undefined
     bf0:	58013500 	ldr	x0, 3290 <_binary_shell_bin_size-0x100dd70>
     bf4:	b7cd0096 	tbnz	x22, #57, ffffffffffffac04 <__free_ram_end+0xffffffffbcdb4c04>
     bf8:	00000000 	udf	#0
     bfc:	02605f2e 	.inst	0x02605f2e ; undefined
     c00:	6f010000 	.inst	0x6f010000 ; undefined
     c04:	30f4007a 	adr	x26, fffffffffffe8c11 <__free_ram_end+0xffffffffbcda2c11>
     c08:	f6002a1f 	.inst	0xf6002a1f ; undefined
     c0c:	000004c5 	udf	#1221
     c10:	00982036 	.inst	0x00982036 ; undefined
     c14:	04c50104 	.inst	0x04c50104 ; undefined
     c18:	21360000 	.inst	0x21360000 ; undefined
     c1c:	010b0099 	.inst	0x010b0099 ; undefined
     c20:	000000b7 	udf	#183
     c24:	009a2236 	.inst	0x009a2236 ; undefined
     c28:	00b70108 	.inst	0x00b70108 ; undefined
     c2c:	9b370000 	smaddl	x0, w0, w23, x0
     c30:	b7010c00 	tbnz	x0, #32, 2db0 <_binary_shell_bin_size-0x100e250>
     c34:	33000000 	bfxil	w0, w0, #0, #1
     c38:	6f1e3004 	.inst	0x6f1e3004 ; undefined
     c3c:	0490f700 	msb	z0.s, p5/m, z16.s, z24.s
     c40:	05330000 	ext	z0.b, z0.b, z0.b, #152
     c44:	00971d30 	.inst	0x00971d30 ; undefined
     c48:	0004c5f8 	.inst	0x0004c5f8 ; undefined
     c4c:	29000000 	stp	w0, w0, [x0]
     c50:	00000bb6 	udf	#2998
     c54:	5f380060 	.inst	0x5f380060 ; undefined
     c58:	52212300 	eor	w0, w24, #0x800000ff
     c5c:	004d2300 	.inst	0x004d2300 ; undefined
     c60:	39000000 	strb	w0, [x0]
     c64:	00003c61 	udf	#15457
     c68:	7b6d0100 	.inst	0x7b6d0100 ; undefined
     c6c:	3a013100 	.inst	0x3a013100 ; undefined
     c70:	00000c56 	udf	#3158
     c74:	00001462 	udf	#5218
     c78:	01340000 	.inst	0x01340000 ; undefined
     c7c:	5a413209 	.inst	0x5a413209 ; undefined
     c80:	2300000c 	.inst	0x2300000c ; undefined
     c84:	00000879 	udf	#2169
     c88:	00001462 	udf	#5218
     c8c:	03240000 	.inst	0x03240000 ; undefined
     c90:	08810324 	stllrb	w4, [x25]
     c94:	021e0000 	.inst	0x021e0000 ; undefined
     c98:	08891c91 	stllrb	w17, [x4]
     c9c:	01240000 	.inst	0x01240000 ; undefined
     ca0:	00000891 	udf	#2193
     ca4:	9900c024 	stlur	w4, [x1, #12]
     ca8:	25000008 	cmpge	p8.b, p0/z, z0.b, #0
     cac:	08a100c0 	.inst	0x08a100c0 ; undefined
     cb0:	01250000 	.inst	0x01250000 ; undefined
     cb4:	000008a9 	udf	#2217
     cb8:	08b10325 	.inst	0x08b10325 ; undefined
     cbc:	031f0000 	.inst	0x031f0000 ; undefined
     cc0:	b99f1c91 	ldrsw	x17, [x4, #7964]
     cc4:	00000008 	udf	#8
     cc8:	09bb2800 	.inst	0x09bb2800 ; undefined
     ccc:	28630000 	ldnp	w0, w0, [x0, #-232]
     cd0:	00000bfc 	udf	#3068
     cd4:	65390064 	bfmla	z4.h, p0/m, z3.h, z25.h
     cd8:	0000003c 	udf	#60
     cdc:	007c6d01 	.inst	0x007c6d01 ; undefined
     ce0:	563a013b 	.inst	0x563a013b ; undefined
     ce4:	6600000c 	.inst	0x6600000c ; undefined
     ce8:	00000014 	udf	#20
     cec:	09013e00 	.inst	0x09013e00 ; undefined
     cf0:	0c5a4232 	.inst	0x0c5a4232 ; undefined
     cf4:	79230000 	strh	w0, [x0, #4480]
     cf8:	66000008 	.inst	0x66000008 ; undefined
     cfc:	00000014 	udf	#20
     d00:	24032400 	cmpeq	p0.b, p1/z, z0.b, z3.d
     d04:	00088103 	.inst	0x00088103 ; undefined
     d08:	91021e00 	add	x0, x16, #0x87
     d0c:	0008891c 	.inst	0x0008891c ; undefined
     d10:	91012400 	add	x0, x0, #0x49
     d14:	24000008 	cmphs	p8.b, p0/z, z0.b, z0.b
     d18:	089900c0 	stllrb	w0, [x6]
     d1c:	c0250000 	.inst	0xc0250000 ; undefined
     d20:	0008a100 	.inst	0x0008a100 ; undefined
     d24:	a9012500 	stp	x0, x9, [x8, #16]
     d28:	25000008 	cmpge	p8.b, p0/z, z0.b, #0
     d2c:	0008b103 	.inst	0x0008b103 ; undefined
     d30:	91031f00 	add	x0, x24, #0xc7
     d34:	08b99f1c 	.inst	0x08b99f1c ; undefined
     d38:	00000000 	udf	#0
     d3c:	0009bb28 	.inst	0x0009bb28 ; undefined
     d40:	fc286700 	.inst	0xfc286700 ; undefined
     d44:	6800000b 	.inst	0x6800000b ; undefined
     d48:	1c693b00 	ldr	s0, d34a8 <_binary_shell_bin_size-0xf3db58>
     d4c:	01000000 	.inst	0x01000000 ; undefined
     d50:	45007d6f 	.inst	0x45007d6f ; undefined
     d54:	8c6a3c01 	.inst	0x8c6a3c01 ; undefined
     d58:	01000003 	.inst	0x01000003 ; undefined
     d5c:	55007e6d 	.inst	0x55007e6d ; undefined
     d60:	0004c501 	.inst	0x0004c501 ; undefined
     d64:	9c233d00 	ldr	q0, 47504 <_binary_shell_bin_size-0xfc9afc>
     d68:	f1015500 	subs	x0, x8, #0x55
     d6c:	3d00000f 	str	b15, [x0]
     d70:	55009d24 	.inst	0x55009d24 ; undefined
     d74:	00082601 	.inst	0x00082601 ; undefined
     d78:	6f253600 	ursra	v0.4s, v16.4s, #27
     d7c:	90015700 	adrp	x0, 2ae0000 <_binary_shell_bin_size+0x1acf000>
     d80:	36000004 	tbz	w4, #0, d80 <_binary_shell_bin_size-0x1010280>
     d84:	56009726 	.inst	0x56009726 ; undefined
     d88:	0004c501 	.inst	0x0004c501 ; undefined
     d8c:	0d273600 	.inst	0x0d273600 ; undefined
     d90:	9c016500 	ldr	q0, 3a30 <_binary_shell_bin_size-0x100d5d0>
     d94:	36000004 	tbz	w4, #0, d94 <_binary_shell_bin_size-0x101026c>
     d98:	74000f2a 	.inst	0x74000f2a ; undefined
     d9c:	00049c01 	.inst	0x00049c01 ; undefined
     da0:	a1323600 	st1h	{z0.h, z8.h}, pn13, [x16, x18, lsl #1]
     da4:	af019300 	.inst	0xaf019300 ; undefined
     da8:	36000000 	tbz	w0, #0, da8 <_binary_shell_bin_size-0x1010258>
     dac:	9800a234 	ldrsw	x20, 21f0 <_binary_shell_bin_size-0x100ee10>
     db0:	00072e01 	.inst	0x00072e01 ; undefined
     db4:	09de3e00 	.inst	0x09de3e00 ; undefined
     db8:	00060000 	.inst	0x00060000 ; undefined
     dbc:	09290174 	.inst	0x09290174 ; undefined
     dc0:	0009e629 	.inst	0x0009e629 ; undefined
     dc4:	ee280a00 	.inst	0xee280a00 ; undefined
     dc8:	00000009 	udf	#9
     dcc:	00386b31 	.inst	0x00386b31 ; NYI
     dd0:	2b360000 	adds	w0, w0, w22, uxtb
     dd4:	017b005e 	.inst	0x017b005e ; undefined
     dd8:	000000af 	udf	#175
     ddc:	36073300 	tbz	w0, #0, fffffffffffff43c <__free_ram_end+0xffffffffbcdb943c>
     de0:	85009e2c 	.inst	0x85009e2c ; undefined
     de4:	0000b701 	udf	#46849
     de8:	36083300 	tbz	w0, #1, 1448 <_binary_shell_bin_size-0x100fbb8>
     dec:	86009f2f 	.inst	0x86009f2f ; undefined
     df0:	0000af01 	udf	#44801
     df4:	a0303600 	st1h	{z0.h-z1.h}, pn13, [x16, x16, lsl #1]
     df8:	26018b00 	.inst	0x26018b00 ; undefined
     dfc:	37000008 	tbnz	w8, #0, dfc <_binary_shell_bin_size-0x1010204>
     e00:	018a00a3 	.inst	0x018a00a3 ; undefined
     e04:	00000826 	udf	#2086
     e08:	0009de3e 	.inst	0x0009de3e ; undefined
     e0c:	86000900 	.inst	0x86000900 ; undefined
     e10:	2d091801 	stp	s1, s6, [x0, #72]
     e14:	000009e6 	udf	#2534
     e18:	09ee2e0a 	.inst	0x09ee2e0a ; undefined
     e1c:	00000000 	udf	#0
     e20:	09de3e00 	.inst	0x09de3e00 ; undefined
     e24:	000a0000 	.inst	0x000a0000 ; undefined
     e28:	321f0193 	orr	w19, w12, #0x2
     e2c:	0009e601 	.inst	0x0009e601 ; undefined
     e30:	ee310a00 	.inst	0xee310a00 ; undefined
     e34:	00000009 	udf	#9
     e38:	33360b33 	.inst	0x33360b33 ; undefined
     e3c:	0199009e 	.inst	0x0199009e ; undefined
     e40:	000000b7 	udf	#183
     e44:	37360c33 	tbnz	w19, #6, ffffffffffffcfc8 <__free_ram_end+0xffffffffbcdb6fc8>
     e48:	019a009f 	.inst	0x019a009f ; undefined
     e4c:	000000af 	udf	#175
     e50:	0009de3e 	.inst	0x0009de3e ; undefined
     e54:	9a000d00 	.inst	0x9a000d00 ; undefined
     e58:	35091801 	cbnz	w1, 13158 <_binary_shell_bin_size-0xffdea8>
     e5c:	000009e6 	udf	#2534
     e60:	09ee360a 	.inst	0x09ee360a ; undefined
     e64:	00000000 	udf	#0
     e68:	09bb0b00 	.inst	0x09bb0b00 ; undefined
     e6c:	0c6c0000 	.inst	0x0c6c0000 ; undefined
     e70:	10035201 	adr	x1, 78b0 <_binary_shell_bin_size-0x1009750>
     e74:	0b0002e1 	add	w1, w23, w0
     e78:	000009bb 	udf	#2491
     e7c:	52010c6d 	eor	w13, w3, #0x80000007
     e80:	00741002 	.inst	0x00741002 ; undefined
     e84:	0009c60b 	.inst	0x0009c60b ; undefined
     e88:	010c6e00 	.inst	0x010c6e00 ; undefined
     e8c:	80100352 	.inst	0x80100352 ; undefined
     e90:	51010c20 	sub	w0, w1, #0x43
     e94:	0c008f02 	.inst	0x0c008f02 ; undefined
     e98:	84025001 	ld1b	{z1.s}, p4/z, [x0, z2.s, uxtw]
     e9c:	bb0b0000 	.inst	0xbb0b0000 ; undefined
     ea0:	6f000009 	.inst	0x6f000009 ; undefined
     ea4:	0352010c 	.inst	0x0352010c ; undefined
     ea8:	0002f710 	.inst	0x0002f710 ; undefined
     eac:	0009f70b 	.inst	0x0009f70b ; undefined
     eb0:	010c7000 	.inst	0x010c7000 ; undefined
     eb4:	00860252 	.inst	0x00860252 ; undefined
     eb8:	0251010c 	.inst	0x0251010c ; undefined
     ebc:	010c0086 	.inst	0x010c0086 ; undefined
     ec0:	00840250 	.inst	0x00840250 ; undefined
     ec4:	09bb2800 	.inst	0x09bb2800 ; undefined
     ec8:	0b710000 	.inst	0x0b710000 ; undefined
     ecc:	000009f7 	udf	#2551
     ed0:	53010c72 	ubfx	w18, w3, #1, #3
     ed4:	08801003 	stllrb	w3, [x0]
     ed8:	0552010c 	mov	z12.h, p2/z, #8
     edc:	80808010 	fmops	za0.s, p0/m, p4/m, z0.s, z0.s
     ee0:	51010c50 	sub	w16, w2, #0x43
     ee4:	80801005 	.inst	0x80801005 ; undefined
     ee8:	010c5080 	.inst	0x010c5080 ; undefined
     eec:	00840250 	.inst	0x00840250 ; undefined
     ef0:	09bb0b00 	.inst	0x09bb0b00 ; undefined
     ef4:	0c730000 	.inst	0x0c730000 ; undefined
     ef8:	87025101 	.inst	0x87025101 ; undefined
     efc:	c60b0000 	.inst	0xc60b0000 ; undefined
     f00:	74000009 	.inst	0x74000009 ; undefined
     f04:	0352010c 	.inst	0x0352010c ; undefined
     f08:	0c208010 	.inst	0x0c208010 ; undefined
     f0c:	8f025101 	.inst	0x8f025101 ; undefined
     f10:	50010c00 	adr	x0, 3092 <_binary_shell_bin_size-0x100df6e>
     f14:	00008602 	udf	#34306
     f18:	000fd90b 	.inst	0x000fd90b ; undefined
     f1c:	010c7500 	.inst	0x010c7500 ; undefined
     f20:	00860250 	.inst	0x00860250 ; undefined
     f24:	09f70b00 	.inst	0x09f70b00 ; undefined
     f28:	0c760000 	.inst	0x0c760000 ; undefined
     f2c:	10035301 	adr	x1, 798c <_binary_shell_bin_size-0x1009674>
     f30:	010c0880 	.inst	0x010c0880 ; undefined
     f34:	00860252 	.inst	0x00860252 ; undefined
     f38:	0250010c 	.inst	0x0250010c ; undefined
     f3c:	0b000084 	add	w4, w4, w0
     f40:	000009bb 	udf	#2491
     f44:	52010c77 	eor	w23, w3, #0x80000007
     f48:	00741002 	.inst	0x00741002 ; undefined
     f4c:	0009c60b 	.inst	0x0009c60b ; undefined
     f50:	010c7800 	.inst	0x010c7800 ; undefined
     f54:	80100352 	.inst	0x80100352 ; undefined
     f58:	51010c20 	sub	w0, w1, #0x43
     f5c:	0c008f02 	.inst	0x0c008f02 ; undefined
     f60:	83025001 	.inst	0x83025001 ; undefined
     f64:	f70b0000 	.inst	0xf70b0000 ; undefined
     f68:	79000009 	strh	w9, [x0]
     f6c:	0353010c 	.inst	0x0353010c ; undefined
     f70:	0c088010 	.inst	0x0c088010 ; undefined
     f74:	83025201 	.inst	0x83025201 ; undefined
     f78:	51010c00 	sub	w0, w0, #0x43
     f7c:	80801006 	.inst	0x80801006 ; undefined
     f80:	0c04b880 	.inst	0x0c04b880 ; undefined
     f84:	84025001 	ld1b	{z1.s}, p4/z, [x0, z2.s, uxtw]
     f88:	c60b0000 	.inst	0xc60b0000 ; undefined
     f8c:	7a000009 	sbcs	w9, w0, w0
     f90:	0352010c 	.inst	0x0352010c ; undefined
     f94:	0c208010 	.inst	0x0c208010 ; undefined
     f98:	8f025101 	.inst	0x8f025101 ; undefined
     f9c:	50010c00 	adr	x0, 311e <_binary_shell_bin_size-0x100dee2>
     fa0:	00008302 	udf	#33538
     fa4:	0009f70b 	.inst	0x0009f70b ; undefined
     fa8:	010c7b00 	.inst	0x010c7b00 ; undefined
     fac:	80100353 	.inst	0x80100353 ; undefined
     fb0:	52010c08 	eor	w8, w0, #0x80000007
     fb4:	0c008302 	st2	{v2.8b-v3.8b}, [x24]
     fb8:	84025001 	ld1b	{z1.s}, p4/z, [x0, z2.s, uxtw]
     fbc:	bb0b0000 	.inst	0xbb0b0000 ; undefined
     fc0:	7c000009 	stur	h9, [x0]
     fc4:	0252010c 	.inst	0x0252010c ; undefined
     fc8:	0b007410 	add	w16, w0, w0, lsl #29
     fcc:	000009bb 	udf	#2491
     fd0:	52010c7d 	eor	w29, w3, #0x80000007
     fd4:	00741002 	.inst	0x00741002 ; undefined
     fd8:	01602d00 	.inst	0x01602d00 ; undefined
     fdc:	00071419 	.inst	0x00071419 ; undefined
     fe0:	07142b00 	.inst	0x07142b00 ; undefined
     fe4:	f12b0000 	subs	x0, x0, #0xac0
     fe8:	2b00000f 	adds	w15, w0, w0
     fec:	00000550 	udf	#1360
     ff0:	0ff61400 	.inst	0x0ff61400 ; undefined
     ff4:	3c3f0000 	.inst	0x3c3f0000 ; undefined
     ff8:	0000d07e 	udf	#53374
     ffc:	7f6d0100 	.inst	0x7f6d0100 ; undefined
    1000:	6001af00 	.inst	0x6001af00 ; undefined
    1004:	3d00001d 	str	b29, [x0]
    1008:	af00a438 	.inst	0xaf00a438 ; undefined
    100c:	00071501 	.inst	0x00071501 ; undefined
    1010:	ac7f3100 	ldnp	q0, q12, [x8, #-32]
    1014:	36000000 	tbz	w0, #0, 1014 <_binary_shell_bin_size-0x100ffec>
    1018:	b0006f3a 	adrp	x26, de6000 <_binary_shell_bin_size-0x22b000>
    101c:	00049001 	.inst	0x00049001 ; undefined
    1020:	ac7f3100 	ldnp	q0, q12, [x8, #-32]
    1024:	36000000 	tbz	w0, #0, 1024 <_binary_shell_bin_size-0x100ffdc>
    1028:	b1002139 	adds	x25, x9, #0x8
    102c:	001d6001 	.inst	0x001d6001 ; undefined
    1030:	0b000000 	add	w0, w0, w0
    1034:	000009bb 	udf	#2491
    1038:	010c0180 	.inst	0x010c0180 ; undefined
    103c:	00840252 	.inst	0x00840252 ; undefined
    1040:	0251010c 	.inst	0x0251010c ; undefined
    1044:	0b00008f 	add	w15, w4, w0
    1048:	000009bb 	udf	#2491
    104c:	010c0181 	.inst	0x010c0181 ; undefined
    1050:	00830251 	.inst	0x00830251 ; undefined
    1054:	10ad0b00 	adr	x0, fffffffffff5b1b4 <__free_ram_end+0xffffffffbcd151b4>
    1058:	01820000 	.inst	0x01820000 ; undefined
    105c:	0251010c 	.inst	0x0251010c ; undefined
    1060:	010c0083 	.inst	0x010c0083 ; undefined
    1064:	00840250 	.inst	0x00840250 ; undefined
    1068:	09bb0b00 	.inst	0x09bb0b00 ; undefined
    106c:	01830000 	.inst	0x01830000 ; undefined
    1070:	0252010c 	.inst	0x0252010c ; undefined
    1074:	010c0084 	.inst	0x010c0084 ; undefined
    1078:	00310151 	.inst	0x00310151 ; NYI
    107c:	0009bb0b 	.inst	0x0009bb0b ; undefined
    1080:	0c018400 	.inst	0x0c018400 ; undefined
    1084:	83025101 	.inst	0x83025101 ; undefined
    1088:	ad0b0000 	stp	q0, q0, [x0, #352]
    108c:	85000010 	.inst	0x85000010 ; undefined
    1090:	51010c01 	sub	w1, w0, #0x43
    1094:	0c008302 	st2	{v2.8b-v3.8b}, [x24]
    1098:	84025001 	ld1b	{z1.s}, p4/z, [x0, z2.s, uxtw]
    109c:	bb0b0000 	.inst	0xbb0b0000 ; undefined
    10a0:	86000009 	.inst	0x86000009 ; undefined
    10a4:	51010c01 	sub	w1, w0, #0x43
    10a8:	00008302 	udf	#33538
    10ac:	01612d00 	.inst	0x01612d00 ; undefined
    10b0:	0004901b 	.inst	0x0004901b ; undefined
    10b4:	07152b00 	.inst	0x07152b00 ; undefined
    10b8:	152b0000 	b	4ac10b8 <_binary_shell_bin_size+0x3ab00b8>
    10bc:	00000007 	udf	#7
    10c0:	27006240 	.inst	0x27006240 ; undefined
    10c4:	000010e1 	udf	#4321
    10c8:	2b006422 	adds	w2, w1, w0, lsl #25
    10cc:	000010e5 	udf	#4325
    10d0:	2a005222 	orr	w2, w17, w0, lsl #20
    10d4:	000010e1 	udf	#4321
    10d8:	32005922 	orr	w2, w9, #0x7fffff
    10dc:	00000710 	udf	#1808
    10e0:	06630200 	.inst	0x06630200 ; undefined
    10e4:	07100401 	.inst	0x07100401 ; undefined
    10e8:	51050000 	sub	w0, w0, #0x140
    10ec:	03000000 	.inst	0x03000000 ; undefined
    10f0:	01873900 	.inst	0x01873900 ; undefined
    10f4:	000001c4 	udf	#452
    10f8:	00806d01 	.inst	0x00806d01 ; undefined
    10fc:	3b3d01bd 	.inst	0x3b3d01bd ; undefined
    1100:	01bd00a5 	.inst	0x01bd00a5 ; undefined
    1104:	00001d65 	udf	#7525
    1108:	00c83c36 	.inst	0x00c83c36 ; undefined
    110c:	00b701c0 	.inst	0x00b701c0 ; undefined
    1110:	0e330000 	saddl	v0.8h, v0.8b, v19.8b
    1114:	00c93d36 	.inst	0x00c93d36 ; undefined
    1118:	049001cd 	mul	z13.s, p0/m, z13.s, z14.s
    111c:	52370000 	eor	w0, w0, #0x200
    1120:	e101cb00 	.inst	0xe101cb00 ; undefined
    1124:	37000010 	tbnz	w16, #0, 1124 <_binary_shell_bin_size-0x100fedc>
    1128:	01cc00cb 	.inst	0x01cc00cb ; undefined
    112c:	00000490 	udf	#1168
    1130:	0010c03a 	.inst	0x0010c03a ; undefined
    1134:	14018800 	b	63134 <_binary_shell_bin_size-0xfadecc>
    1138:	00000000 	udf	#0
    113c:	0a1601d1 	and	w17, w14, w22
    1140:	0010c83e 	.inst	0x0010c83e ; undefined
    1144:	08792300 	.inst	0x08792300 ; undefined
    1148:	01880000 	.inst	0x01880000 ; undefined
    114c:	00000014 	udf	#20
    1150:	24113200 	cmpeq	p0.b, p4/z, z16.b, z17.d
    1154:	00088103 	.inst	0x00088103 ; undefined
    1158:	91021e00 	add	x0, x16, #0x87
    115c:	0008897c 	.inst	0x0008897c ; undefined
    1160:	91002400 	add	x0, x0, #0x9
    1164:	24000008 	cmphs	p8.b, p0/z, z0.b, z0.b
    1168:	089900c0 	stllrb	w0, [x6]
    116c:	c0250000 	.inst	0xc0250000 ; undefined
    1170:	0008a100 	.inst	0x0008a100 ; undefined
    1174:	a9002500 	stp	x0, x9, [x8]
    1178:	25000008 	cmpge	p8.b, p0/z, z0.b, #0
    117c:	0008b103 	.inst	0x0008b103 ; undefined
    1180:	91031f00 	add	x0, x24, #0xc7
    1184:	08b99f7c 	.inst	0x08b99f7c ; undefined
    1188:	00000000 	udf	#0
    118c:	0c018931 	.inst	0x0c018931 ; undefined
    1190:	36000000 	tbz	w0, #0, 1190 <_binary_shell_bin_size-0x100fe70>
    1194:	d9006f3f 	.inst	0xd9006f3f ; undefined
    1198:	00049001 	.inst	0x00049001 ; undefined
    119c:	33000000 	bfxil	w0, w0, #0, #1
    11a0:	a440360f 	.inst	0xa440360f ; undefined
    11a4:	1501e200 	b	40799a4 <_binary_shell_bin_size+0x30689a4>
    11a8:	36000007 	tbz	w7, #0, 11a8 <_binary_shell_bin_size-0x100fe58>
    11ac:	e300ca41 	.inst	0xe300ca41 ; undefined
    11b0:	00071f01 	.inst	0x00071f01 ; undefined
    11b4:	26423600 	.inst	0x26423600 ; undefined
    11b8:	9001e400 	adrp	x0, 3c81000 <_binary_shell_bin_size+0x2c70000>
    11bc:	36000004 	tbz	w4, #0, 11bc <_binary_shell_bin_size-0x100fe44>
    11c0:	e5002143 	stnt1w	{z3.d}, p0, [z10.d, x0]
    11c4:	001d6001 	.inst	0x001d6001 ; undefined
    11c8:	8a310000 	bic	x0, x0, x17
    11cc:	00002c01 	udf	#11265
    11d0:	00523700 	.inst	0x00523700 ; undefined
    11d4:	004d01c3 	.inst	0x004d01c3 ; undefined
    11d8:	563a0000 	.inst	0x563a0000 ; undefined
    11dc:	8b00000c 	add	x12, x0, x0
    11e0:	00001801 	udf	#6145
    11e4:	01c50000 	.inst	0x01c50000 ; undefined
    11e8:	0879230d 	.inst	0x0879230d ; undefined
    11ec:	018b0000 	.inst	0x018b0000 ; undefined
    11f0:	00000018 	udf	#24
    11f4:	09032400 	.inst	0x09032400 ; undefined
    11f8:	0008814a 	.inst	0x0008814a ; undefined
    11fc:	894b0900 	.inst	0x894b0900 ; undefined
    1200:	09000008 	.inst	0x09000008 ; undefined
    1204:	00089149 	.inst	0x00089149 ; undefined
    1208:	99480900 	ldiapp	w0, w8, [x8], #8
    120c:	0a000008 	and	w8, w0, w0
    1210:	0008a144 	.inst	0x0008a144 ; undefined
    1214:	a9450a00 	ldp	x0, x2, [x16, #80]
    1218:	0a000008 	and	w8, w0, w0
    121c:	0008b146 	.inst	0x0008b146 ; undefined
    1220:	b9470a00 	ldr	w0, [x16, #1800]
    1224:	00000008 	udf	#8
    1228:	f70b0000 	.inst	0xf70b0000 ; undefined
    122c:	8c00000f 	.inst	0x8c00000f ; undefined
    1230:	50010c01 	adr	x1, 33b2 <_binary_shell_bin_size-0x100dc4e>
    1234:	00008802 	udf	#34818
    1238:	0009bb0b 	.inst	0x0009bb0b ; undefined
    123c:	0c018d00 	.inst	0x0c018d00 ; undefined
    1240:	84035201 	ld1b	{z1.s}, p4/z, [x16, z3.s, uxtw]
    1244:	010c00e8 	.inst	0x010c00e8 ; undefined
    1248:	04840251 	.inst	0x04840251 ; undefined
    124c:	09bb0b00 	.inst	0x09bb0b00 ; undefined
    1250:	018e0000 	.inst	0x018e0000 ; undefined
    1254:	0251010c 	.inst	0x0251010c ; undefined
    1258:	0b000085 	add	w5, w4, w0
    125c:	000009bb 	udf	#2491
    1260:	010c018f 	.inst	0x010c018f ; undefined
    1264:	00880251 	.inst	0x00880251 ; undefined
    1268:	0fd90b00 	.inst	0x0fd90b00 ; undefined
    126c:	01900000 	.inst	0x01900000 ; undefined
    1270:	0252010c 	.inst	0x0252010c ; undefined
    1274:	010c0085 	.inst	0x010c0085 ; undefined
    1278:	00870251 	.inst	0x00870251 ; undefined
    127c:	0350010c 	.inst	0x0350010c ; undefined
    1280:	0000e884 	udf	#59524
    1284:	0012e028 	.inst	0x0012e028 ; undefined
    1288:	0b019100 	.inst	0x0b019100 ; undefined
    128c:	00000fd9 	udf	#4057
    1290:	010c0192 	.inst	0x010c0192 ; undefined
    1294:	00850252 	.inst	0x00850252 ; undefined
    1298:	0250010c 	.inst	0x0250010c ; undefined
    129c:	010c0087 	.inst	0x010c0087 ; undefined
    12a0:	e8840351 	.inst	0xe8840351 ; undefined
    12a4:	bb0b0000 	.inst	0xbb0b0000 ; undefined
    12a8:	93000009 	.inst	0x93000009 ; undefined
    12ac:	52010c01 	eor	w1, w0, #0x80000007
    12b0:	00e88403 	.inst	0x00e88403 ; undefined
    12b4:	0251010c 	.inst	0x0251010c ; undefined
    12b8:	28000484 	stnp	w4, w1, [x4]
    12bc:	000009bb 	udf	#2491
    12c0:	bb0b0194 	.inst	0xbb0b0194 ; undefined
    12c4:	95000009 	bl	40012e8 <_binary_shell_bin_size+0x2ff02e8>
    12c8:	51010c01 	sub	w1, w0, #0x43
    12cc:	00008602 	udf	#34306
    12d0:	0009bb0b 	.inst	0x0009bb0b ; undefined
    12d4:	0c019600 	.inst	0x0c019600 ; undefined
    12d8:	10035201 	adr	x1, 7d18 <_binary_shell_bin_size-0x10092e8>
    12dc:	00000481 	udf	#1153
    12e0:	38019739 	strb	w25, [x25], #25
    12e4:	01000007 	.inst	0x01000007 ; undefined
    12e8:	7900816d 	strh	w13, [x11, #64]
    12ec:	9e4d3603 	.inst	0x9e4d3603 ; undefined
    12f0:	60037c00 	.inst	0x60037c00 ; undefined
    12f4:	31000005 	adds	w5, w0, #0x0
    12f8:	063c0198 	.inst	0x063c0198 ; undefined
    12fc:	4c360000 	.inst	0x4c360000 ; undefined
    1300:	037d00cc 	.inst	0x037d00cc ; undefined
    1304:	00000490 	udf	#1168
    1308:	4e361033 	saddw2	v19.8h, v1.8h, v22.16b
    130c:	038b00cd 	.inst	0x038b00cd ; undefined
    1310:	00000490 	udf	#1168
    1314:	00ce4f36 	.inst	0x00ce4f36 ; undefined
    1318:	07400382 	.inst	0x07400382 ; undefined
    131c:	51360000 	sub	w0, w0, #0xd80
    1320:	03920046 	.inst	0x03920046 ; undefined
    1324:	00000490 	udf	#1168
    1328:	00215236 	.inst	0x00215236 ; NYI
    132c:	1d60037e 	.inst	0x1d60037e ; undefined
    1330:	11330000 	add	w0, w0, #0xcc0
    1334:	006f5436 	.inst	0x006f5436 ; undefined
    1338:	05600393 	ext	z19.b, {z28.b-z29.b}, #0
    133c:	33000000 	bfxil	w0, w0, #0, #1
    1340:	6f503612 	ursra	v18.2d, v16.2d, #48
    1344:	90039600 	adrp	x0, 72c1000 <_binary_shell_bin_size+0x62b0000>
    1348:	00000004 	udf	#4
    134c:	53361333 	.inst	0x53361333 ; undefined
    1350:	038c006f 	.inst	0x038c006f ; undefined
    1354:	00000490 	udf	#1168
    1358:	31000000 	adds	w0, w0, #0x0
    135c:	00500199 	.inst	0x00500199 ; undefined
    1360:	55360000 	.inst	0x55360000 ; undefined
    1364:	03a1003c 	.inst	0x03a1003c ; undefined
    1368:	00000560 	udf	#1376
    136c:	09c60b00 	.inst	0x09c60b00 ; undefined
    1370:	019a0000 	.inst	0x019a0000 ; undefined
    1374:	0352010c 	.inst	0x0352010c ; undefined
    1378:	0c148010 	.inst	0x0c148010 ; undefined
    137c:	83025001 	.inst	0x83025001 ; undefined
    1380:	51010c00 	sub	w0, w0, #0x43
    1384:	00008f02 	udf	#36610
    1388:	000fd90b 	.inst	0x000fd90b ; undefined
    138c:	0c019b00 	.inst	0x0c019b00 ; undefined
    1390:	87035001 	.inst	0x87035001 ; undefined
    1394:	0b000480 	add	w0, w4, w0, lsl #1
    1398:	000009c6 	udf	#2502
    139c:	010c019c 	.inst	0x010c019c ; undefined
    13a0:	00870250 	.inst	0x00870250 ; undefined
    13a4:	0352010c 	.inst	0x0352010c ; undefined
    13a8:	0c048010 	.inst	0x0c048010 ; undefined
    13ac:	8f025101 	.inst	0x8f025101 ; undefined
    13b0:	800b0000 	.inst	0x800b0000 ; undefined
    13b4:	9d000014 	.inst	0x9d000014 ; undefined
    13b8:	51010c01 	sub	w1, w0, #0x43
    13bc:	0c048c02 	.inst	0x0c048c02 ; undefined
    13c0:	87025001 	.inst	0x87025001 ; undefined
    13c4:	800b0000 	.inst	0x800b0000 ; undefined
    13c8:	9e000014 	.inst	0x9e000014 ; undefined
    13cc:	50010c01 	adr	x1, 354e <_binary_shell_bin_size-0x100dab2>
    13d0:	00e48703 	.inst	0x00e48703 ; undefined
    13d4:	14800b00 	b	2003fd4 <_binary_shell_bin_size+0xff2fd4>
    13d8:	019f0000 	.inst	0x019f0000 ; undefined
    13dc:	0350010c 	.inst	0x0350010c ; undefined
    13e0:	00028187 	.inst	0x00028187 ; undefined
    13e4:	0014800b 	.inst	0x0014800b ; undefined
    13e8:	0c01a000 	.inst	0x0c01a000 ; undefined
    13ec:	87035001 	.inst	0x87035001 ; undefined
    13f0:	0b000287 	add	w7, w20, w0
    13f4:	00001493 	udf	#5267
    13f8:	010c01a1 	.inst	0x010c01a1 ; undefined
    13fc:	0c310152 	.inst	0x0c310152 ; undefined
    1400:	8f025101 	.inst	0x8f025101 ; undefined
    1404:	50010c00 	adr	x0, 3586 <_binary_shell_bin_size-0x100da7a>
    1408:	00008302 	udf	#33538
    140c:	0014930b 	.inst	0x0014930b ; undefined
    1410:	0c01a200 	.inst	0x0c01a200 ; undefined
    1414:	31015201 	adds	w1, w16, #0x54
    1418:	0151010c 	.inst	0x0151010c ; undefined
    141c:	50010c31 	adr	x17, 35a2 <_binary_shell_bin_size-0x100da5e>
    1420:	04808303 	asr	z3.d, p0/m, z3.d, #40
    1424:	14930b00 	b	24c4024 <_binary_shell_bin_size+0x14b3024>
    1428:	01a30000 	.inst	0x01a30000 ; undefined
    142c:	0152010c 	.inst	0x0152010c ; undefined
    1430:	51010c31 	sub	w17, w1, #0x43
    1434:	010c3201 	.inst	0x010c3201 ; undefined
    1438:	80830350 	fmops	za0.s, p0/m, p0/m, z26.s, z3.s
    143c:	930b0008 	.inst	0x930b0008 ; undefined
    1440:	a4000014 	ld1rqb	{z20.b}, p0/z, [x0, x0]
    1444:	52010c01 	eor	w1, w0, #0x80000007
    1448:	010c3101 	.inst	0x010c3101 ; undefined
    144c:	0c330151 	.inst	0x0c330151 ; undefined
    1450:	83035001 	.inst	0x83035001 ; undefined
    1454:	0b000c80 	add	w0, w4, w0, lsl #3
    1458:	00001493 	udf	#5267
    145c:	010c01a5 	.inst	0x010c01a5 ; undefined
    1460:	0c310152 	.inst	0x0c310152 ; undefined
    1464:	34015101 	cbz	w1, 3e84 <_binary_shell_bin_size-0x100d17c>
    1468:	0350010c 	.inst	0x0350010c ; undefined
    146c:	00108083 	.inst	0x00108083 ; undefined
    1470:	0009bb41 	.inst	0x0009bb41 ; undefined
    1474:	0c01a600 	.inst	0x0c01a600 ; undefined
    1478:	10035101 	adr	x1, 7e98 <_binary_shell_bin_size-0x1009168>
    147c:	00001480 	udf	#5248
    1480:	1a01652d 	.inst	0x1a01652d ; undefined
    1484:	0000071f 	udf	#1823
    1488:	00071f2b 	.inst	0x00071f2b ; undefined
    148c:	07152b00 	.inst	0x07152b00 ; undefined
    1490:	39000000 	strb	w0, [x0]
    1494:	02c001d6 	.inst	0x02c001d6 ; undefined
    1498:	6d010000 	stp	d0, d0, [x0, #16]
    149c:	02bc0088 	.inst	0x02bc0088 ; undefined
    14a0:	00ca663d 	.inst	0x00ca663d ; undefined
    14a4:	071402bc 	.inst	0x071402bc ; undefined
    14a8:	673d0000 	.inst	0x673d0000 ; undefined
    14ac:	02bc003c 	.inst	0x02bc003c ; undefined
    14b0:	00000560 	udf	#1376
    14b4:	00d9683d 	.inst	0x00d9683d ; undefined
    14b8:	049002bc 	mul	z28.s, p0/m, z28.s, z21.s
    14bc:	69360000 	stgp	x0, x0, [x0, #-320]
    14c0:	02bf00d6 	.inst	0x02bf00d6 ; undefined
    14c4:	00000591 	udf	#1425
    14c8:	00d86a36 	.inst	0x00d86a36 ; undefined
    14cc:	061a02c0 	.inst	0x061a02c0 ; undefined
    14d0:	6b360000 	subs	w0, w0, w22, uxtb
    14d4:	02fe00da 	.inst	0x02fe00da ; undefined
    14d8:	00000490 	udf	#1168
    14dc:	ef00db37 	.inst	0xef00db37 ; undefined
    14e0:	00061a02 	.inst	0x00061a02 ; undefined
    14e4:	17063a00 	b	fffffffffc18fce4 <__free_ram_end+0xffffffffb8f49ce4>
    14e8:	01d70000 	.inst	0x01d70000 ; undefined
    14ec:	00000004 	udf	#4
    14f0:	0502f200 	orr	z0.d, z0.d, #0x7fffc00000000
    14f4:	170b5032 	b	fffffffffc2d55bc <__free_ram_end+0xffffffffb908f5bc>
    14f8:	011e0000 	.inst	0x011e0000 ; undefined
    14fc:	00171459 	.inst	0x00171459 ; undefined
    1500:	d8310000 	prfm	pldl1keep, 63500 <_binary_shell_bin_size-0xfadb00>
    1504:	00001c01 	udf	#7169
    1508:	3d6c3600 	ldr	b0, [x16, #2829]
    150c:	2e030400 	.inst	0x2e030400 ; undefined
    1510:	3a000007 	adcs	w7, w0, w0
    1514:	000016f3 	udf	#5875
    1518:	000401d8 	.inst	0x000401d8 ; undefined
    151c:	04000000 	add	z0.b, p0/m, z0.b, z0.b
    1520:	70321f03 	adr	x3, 65903 <_binary_shell_bin_size-0xfab6fd>
    1524:	000016fc 	udf	#5884
    1528:	17063a00 	b	fffffffffc18fd28 <__free_ram_end+0xffffffffb8f49d28>
    152c:	01d90000 	.inst	0x01d90000 ; undefined
    1530:	00000004 	udf	#4
    1534:	11030800 	add	w0, w0, #0xc2
    1538:	170b5032 	b	fffffffffc2d5600 <__free_ram_end+0xffffffffb908f600>
    153c:	011e0000 	.inst	0x011e0000 ; undefined
    1540:	00171458 	.inst	0x00171458 ; undefined
    1544:	3a000000 	adcs	w0, w0, w0
    1548:	00001706 	udf	#5894
    154c:	000401da 	.inst	0x000401da ; undefined
    1550:	11000000 	add	w0, w0, #0x0
    1554:	70320903 	adr	x3, 65677 <_binary_shell_bin_size-0xfab989>
    1558:	0000170b 	udf	#5899
    155c:	17140032 	b	fffffffffc501624 <__free_ram_end+0xffffffffb92bb624>
    1560:	0b000000 	add	w0, w0, w0
    1564:	000009bb 	udf	#2491
    1568:	010c01db 	.inst	0x010c01db ; undefined
    156c:	00850252 	.inst	0x00850252 ; undefined
    1570:	0fd90b00 	.inst	0x0fd90b00 ; undefined
    1574:	01dc0000 	.inst	0x01dc0000 ; undefined
    1578:	0352010c 	.inst	0x0352010c ; undefined
    157c:	0c048010 	.inst	0x0c048010 ; undefined
    1580:	86025101 	.inst	0x86025101 ; undefined
    1584:	bb0b0000 	.inst	0xbb0b0000 ; undefined
    1588:	dd000009 	.inst	0xdd000009 ; undefined
    158c:	51010c01 	sub	w1, w0, #0x43
    1590:	00008502 	udf	#34050
    1594:	0009bb0b 	.inst	0x0009bb0b ; undefined
    1598:	0c01de00 	.inst	0x0c01de00 ; undefined
    159c:	86025001 	.inst	0x86025001 ; undefined
    15a0:	bb290000 	.inst	0xbb290000 ; undefined
    15a4:	df000009 	.inst	0xdf000009 ; undefined
    15a8:	0fd90b01 	.inst	0x0fd90b01 ; undefined
    15ac:	01e00000 	.inst	0x01e00000 ; undefined
    15b0:	0352010c 	.inst	0x0352010c ; undefined
    15b4:	0c048010 	.inst	0x0c048010 ; undefined
    15b8:	86025001 	.inst	0x86025001 ; undefined
    15bc:	bb0b0000 	.inst	0xbb0b0000 ; undefined
    15c0:	e1000009 	ldr	za[w12, 9], [x0, #9, mul vl]
    15c4:	51010c01 	sub	w1, w0, #0x43
    15c8:	00008602 	udf	#34306
    15cc:	0009bb28 	.inst	0x0009bb28 ; undefined
    15d0:	2901da00 	stp	w0, w22, [x16, #12]
    15d4:	000018c7 	udf	#6343
    15d8:	390001e2 	strb	w2, [x15]
    15dc:	00ec01a7 	.inst	0x00ec01a7 ; undefined
    15e0:	6d010000 	stp	d0, d0, [x0, #16]
    15e4:	020c0082 	.inst	0x020c0082 ; undefined
    15e8:	00a5563d 	.inst	0x00a5563d ; undefined
    15ec:	1d65020c 	.inst	0x1d65020c ; undefined
    15f0:	57360000 	.inst	0x57360000 ; undefined
    15f4:	020e00c6 	.inst	0x020e00c6 ; undefined
    15f8:	000000b7 	udf	#183
    15fc:	00cf5836 	.inst	0x00cf5836 ; undefined
    1600:	00b7020e 	.inst	0x00b7020e ; undefined
    1604:	59360000 	.inst	0x59360000 ; undefined
    1608:	021600d0 	.inst	0x021600d0 ; undefined
    160c:	000000b7 	udf	#183
    1610:	00d15a36 	.inst	0x00d15a36 ; undefined
    1614:	00b7021c 	.inst	0x00b7021c ; undefined
    1618:	5b360000 	.inst	0x5b360000 ; undefined
    161c:	020e00d2 	.inst	0x020e00d2 ; undefined
    1620:	000000b7 	udf	#183
    1624:	0e00d337 	.inst	0x0e00d337 ; undefined
    1628:	0000b702 	udf	#46850
    162c:	00d43700 	.inst	0x00d43700 ; undefined
    1630:	00b70217 	.inst	0x00b70217 ; undefined
    1634:	bb280000 	.inst	0xbb280000 ; undefined
    1638:	a8000009 	stnp	x9, x0, [x0]
    163c:	09bb0b01 	.inst	0x09bb0b01 ; undefined
    1640:	01a90000 	.inst	0x01a90000 ; undefined
    1644:	0252010c 	.inst	0x0252010c ; undefined
    1648:	010c0086 	.inst	0x010c0086 ; undefined
    164c:	00840251 	.inst	0x00840251 ; undefined
    1650:	09bb0b00 	.inst	0x09bb0b00 ; undefined
    1654:	01aa0000 	.inst	0x01aa0000 ; undefined
    1658:	0251010c 	.inst	0x0251010c ; undefined
    165c:	0b000085 	add	w5, w4, w0
    1660:	000009bb 	udf	#2491
    1664:	010c01ab 	.inst	0x010c01ab ; undefined
    1668:	00830251 	.inst	0x00830251 ; undefined
    166c:	169f2900 	b	fffffffffa7cba6c <__free_ram_end+0xffffffffb7585a6c>
    1670:	01ac0000 	.inst	0x01ac0000 ; undefined
    1674:	0010f129 	.inst	0x0010f129 ; undefined
    1678:	0b01ad00 	.inst	0x0b01ad00 ; undefined
    167c:	000009bb 	udf	#2491
    1680:	010c01ae 	.inst	0x010c01ae ; undefined
    1684:	00830253 	.inst	0x00830253 ; undefined
    1688:	0251010c 	.inst	0x0251010c ; undefined
    168c:	0b000086 	add	w6, w4, w0
    1690:	000009bb 	udf	#2491
    1694:	010c01af 	.inst	0x010c01af ; undefined
    1698:	b1100352 	adds	x18, x26, #0x400
    169c:	42000004 	.inst	0x42000004 ; undefined
    16a0:	01a80066 	.inst	0x01a80066 ; undefined
    16a4:	0000b72b 	udf	#46891
    16a8:	00b72b00 	.inst	0x00b72b00 ; undefined
    16ac:	07000000 	.inst	0x07000000 ; undefined
    16b0:	000c01b0 	.inst	0x000c01b0 ; undefined
    16b4:	6f010000 	.inst	0x6f010000 ; undefined
    16b8:	000016f3 	udf	#5875
    16bc:	16fc5c09 	b	fffffffffbf186e0 <__free_ram_end+0xffffffffb8cd26e0>
    16c0:	07000000 	.inst	0x07000000 ; undefined
    16c4:	000c01b1 	.inst	0x000c01b1 ; undefined
    16c8:	6f010000 	.inst	0x6f010000 ; undefined
    16cc:	000018b4 	udf	#6324
    16d0:	18bd5d09 	ldr	w9, fffffffffff7c270 <__free_ram_end+0xffffffffbcd36270>
    16d4:	07000000 	.inst	0x07000000 ; undefined
    16d8:	000c01b2 	.inst	0x000c01b2 ; undefined
    16dc:	6f010000 	.inst	0x6f010000 ; undefined
    16e0:	00001706 	udf	#5894
    16e4:	0b50011e 	add	w30, w8, w16, lsr #0
    16e8:	1e000017 	.inst	0x1e000017 ; undefined
    16ec:	17145101 	b	fffffffffc515af0 <__free_ram_end+0xffffffffb92cfaf0>
    16f0:	43000000 	.inst	0x43000000 ; undefined
    16f4:	02350067 	.inst	0x02350067 ; undefined
    16f8:	0000072e 	udf	#1838
    16fc:	35006844 	cbnz	w4, 2404 <_binary_shell_bin_size-0x100ebfc>
    1700:	0000b702 	udf	#46850
    1704:	69450000 	.inst	0x69450000 ; undefined
    1708:	44023d00 	sqrdcmlah	z0.b, z8.b, z2.b, #270
    170c:	023d0068 	.inst	0x023d0068 ; undefined
    1710:	000000b7 	udf	#183
    1714:	3d006a44 	str	b4, [x18, #26]
    1718:	00072e02 	.inst	0x00072e02 ; undefined
    171c:	b3390000 	.inst	0xb3390000 ; undefined
    1720:	00001401 	udf	#5121
    1724:	836f0100 	.inst	0x836f0100 ; undefined
    1728:	46024100 	.inst	0x46024100 ; undefined
    172c:	00685001 	.inst	0x00685001 ; undefined
    1730:	00b70241 	.inst	0x00b70241 ; undefined
    1734:	01460000 	.inst	0x01460000 ; undefined
    1738:	41006a51 	.inst	0x41006a51 ; undefined
    173c:	00072e02 	.inst	0x00072e02 ; undefined
    1740:	16f33a00 	b	fffffffffbccff40 <__free_ram_end+0xffffffffb8a89f40>
    1744:	01b40000 	.inst	0x01b40000 ; undefined
    1748:	00000004 	udf	#4
    174c:	20024200 	.inst	0x20024200 ; undefined
    1750:	fc50011e 	ldur	d30, [x8, #-256]
    1754:	00000016 	udf	#22
    1758:	0017063a 	.inst	0x0017063a ; undefined
    175c:	0401b500 	.inst	0x0401b500 ; undefined
    1760:	00000000 	udf	#0
    1764:	1e050242 	.inst	0x1e050242 ; undefined
    1768:	170b5001 	b	fffffffffc2d576c <__free_ram_end+0xffffffffb908f76c>
    176c:	011e0000 	.inst	0x011e0000 ; undefined
    1770:	00171459 	.inst	0x00171459 ; undefined
    1774:	3c000000 	stur	b0, [x0]
    1778:	012401b6 	.inst	0x012401b6 ; undefined
    177c:	6d010000 	stp	d0, d0, [x0, #16]
    1780:	024b0084 	.inst	0x024b0084 ; undefined
    1784:	00000591 	udf	#1425
    1788:	002d5e3d 	.inst	0x002d5e3d ; NYI
    178c:	0560024b 	ext	z11.b, {z18.b-z19.b}, #0
    1790:	5f360000 	.inst	0x5f360000 ; undefined
    1794:	025300d5 	.inst	0x025300d5 ; undefined
    1798:	0000072e 	udf	#1838
    179c:	00d66136 	.inst	0x00d66136 ; undefined
    17a0:	0591025d 	mov	z29.s, p1/z, #18
    17a4:	62360000 	.inst	0x62360000 ; undefined
    17a8:	025c00d7 	.inst	0x025c00d7 ; undefined
    17ac:	000000af 	udf	#175
    17b0:	0017063a 	.inst	0x0017063a ; undefined
    17b4:	0401b700 	.inst	0x0401b700 ; undefined
    17b8:	00000000 	udf	#0
    17bc:	3205024f 	orr	w15, w18, #0x8000000
    17c0:	00170b30 	.inst	0x00170b30 ; undefined
    17c4:	63011e00 	.inst	0x63011e00 ; undefined
    17c8:	00001714 	udf	#5908
    17cc:	16f33a00 	b	fffffffffbccffcc <__free_ram_end+0xffffffffb8a89fcc>
    17d0:	01b80000 	.inst	0x01b80000 ; undefined
    17d4:	00000004 	udf	#4
    17d8:	1f025300 	fmadd	s0, s24, s2, s20
    17dc:	16fc3432 	b	fffffffffbf0e8a4 <__free_ram_end+0xffffffffb8cc88a4>
    17e0:	3a000000 	adcs	w0, w0, w0
    17e4:	000009de 	udf	#2526
    17e8:	004c01b9 	.inst	0x004c01b9 ; undefined
    17ec:	5c000000 	ldr	d0, 17ec <_binary_shell_bin_size-0x100f814>
    17f0:	02321b02 	.inst	0x02321b02 ; undefined
    17f4:	000009e6 	udf	#2534
    17f8:	09ee600a 	.inst	0x09ee600a ; undefined
    17fc:	3a000000 	adcs	w0, w0, w0
    1800:	00001706 	udf	#5894
    1804:	000401ba 	.inst	0x000401ba ; undefined
    1808:	61000000 	.inst	0x61000000 ; undefined
    180c:	38320502 	.inst	0x38320502 ; undefined
    1810:	0000170b 	udf	#5899
    1814:	17141032 	b	fffffffffc5058dc <__free_ram_end+0xffffffffb92bf8dc>
    1818:	3a000000 	adcs	w0, w0, w0
    181c:	00001706 	udf	#5894
    1820:	000401bb 	.inst	0x000401bb ; undefined
    1824:	6e000000 	ext	v0.16b, v0.16b, v0.16b, #0
    1828:	40320502 	.inst	0x40320502 ; undefined
    182c:	0000170b 	udf	#5899
    1830:	09bb0b00 	.inst	0x09bb0b00 ; undefined
    1834:	01b70000 	.inst	0x01b70000 ; undefined
    1838:	0251010c 	.inst	0x0251010c ; undefined
    183c:	0b000083 	add	w3, w4, w0
    1840:	000009bb 	udf	#2491
    1844:	010c01bc 	.inst	0x010c01bc ; undefined
    1848:	00840251 	.inst	0x00840251 ; undefined
    184c:	09bb0b00 	.inst	0x09bb0b00 ; undefined
    1850:	01bd0000 	.inst	0x01bd0000 ; undefined
    1854:	0251010c 	.inst	0x0251010c ; undefined
    1858:	0b000084 	add	w4, w4, w0
    185c:	000009bb 	udf	#2491
    1860:	010c01be 	.inst	0x010c01be ; undefined
    1864:	74100252 	.inst	0x74100252 ; undefined
    1868:	09c60b00 	.inst	0x09c60b00 ; undefined
    186c:	01bf0000 	.inst	0x01bf0000 ; undefined
    1870:	0352010c 	.inst	0x0352010c ; undefined
    1874:	0c408010 	ld2	{v16.8b-v17.8b}, [x0]
    1878:	8f025101 	.inst	0x8f025101 ; undefined
    187c:	50010c00 	adr	x0, 39fe <_binary_shell_bin_size-0x100d602>
    1880:	00008402 	udf	#33794
    1884:	0009c60b 	.inst	0x0009c60b ; undefined
    1888:	0c01c000 	.inst	0x0c01c000 ; undefined
    188c:	10035201 	adr	x1, 82cc <_binary_shell_bin_size-0x1008d34>
    1890:	010c4080 	.inst	0x010c4080 ; undefined
    1894:	008f0251 	.inst	0x008f0251 ; undefined
    1898:	0250010c 	.inst	0x0250010c ; undefined
    189c:	0b000084 	add	w4, w4, w0
    18a0:	000009bb 	udf	#2491
    18a4:	010c01c1 	.inst	0x010c01c1 ; undefined
    18a8:	00840252 	.inst	0x00840252 ; undefined
    18ac:	0251010c 	.inst	0x0251010c ; undefined
    18b0:	00000083 	udf	#131
    18b4:	39006b43 	strb	w3, [x26, #26]
    18b8:	0000b702 	udf	#46850
    18bc:	00684400 	.inst	0x00684400 ; undefined
    18c0:	00b70239 	.inst	0x00b70239 ; undefined
    18c4:	39000000 	strb	w0, [x0]
    18c8:	017401c2 	.inst	0x017401c2 ; undefined
    18cc:	6d010000 	stp	d0, d0, [x0, #16]
    18d0:	02770085 	.inst	0x02770085 ; undefined
    18d4:	0017063a 	.inst	0x0017063a ; undefined
    18d8:	0401c300 	mad	z0.b, p0/m, z1.b, z24.b
    18dc:	00000000 	udf	#0
    18e0:	3205027b 	orr	w27, w19, #0x8000000
    18e4:	00170b70 	.inst	0x00170b70 ; undefined
    18e8:	14003200 	b	e0e8 <_binary_shell_bin_size-0x1002f18>
    18ec:	00000017 	udf	#23
    18f0:	2001c431 	.inst	0x2001c431 ; undefined
    18f4:	47000000 	.inst	0x47000000 ; undefined
    18f8:	6f7c9102 	.inst	0x6f7c9102 ; undefined
    18fc:	9b027f00 	mul	x0, x24, x2
    1900:	0000001e 	udf	#30
    1904:	0017063a 	.inst	0x0017063a ; undefined
    1908:	0401c500 	mad	z0.b, p1/m, z1.b, z8.b
    190c:	00000000 	udf	#0
    1910:	32050282 	orr	w2, w20, #0x8000000
    1914:	00170b70 	.inst	0x00170b70 ; undefined
    1918:	14013200 	b	4e118 <_binary_shell_bin_size-0xfc2ee8>
    191c:	00000017 	udf	#23
    1920:	0016f33a 	.inst	0x0016f33a ; undefined
    1924:	0401c600 	mad	z0.b, p1/m, z1.b, z16.b
    1928:	00000000 	udf	#0
    192c:	32170288 	orr	w8, w20, #0x200
    1930:	0016fc70 	.inst	0x0016fc70 ; undefined
    1934:	063a0000 	.inst	0x063a0000 ; undefined
    1938:	c7000017 	.inst	0xc7000017 ; undefined
    193c:	00000401 	udf	#1025
    1940:	02870000 	.inst	0x02870000 ; undefined
    1944:	0b703205 	.inst	0x0b703205 ; undefined
    1948:	1e000017 	.inst	0x1e000017 ; undefined
    194c:	17145801 	b	fffffffffc517950 <__free_ram_end+0xffffffffb92d1950>
    1950:	3a000000 	adcs	w0, w0, w0
    1954:	000016f3 	udf	#5875
    1958:	000401c8 	.inst	0x000401c8 ; undefined
    195c:	8e000000 	.inst	0x8e000000 ; undefined
    1960:	70321702 	adr	x2, 65c43 <_binary_shell_bin_size-0xfab3bd>
    1964:	000016fc 	udf	#5884
    1968:	17063a00 	b	fffffffffc190168 <__free_ram_end+0xffffffffb8f4a168>
    196c:	01c90000 	.inst	0x01c90000 ; undefined
    1970:	00000004 	udf	#4
    1974:	05028d00 	orr	z0.d, z0.d, #0xffff800000ffffff
    1978:	170b7032 	b	fffffffffc2dda40 <__free_ram_end+0xffffffffb9097a40>
    197c:	011e0000 	.inst	0x011e0000 ; undefined
    1980:	00171458 	.inst	0x00171458 ; undefined
    1984:	f33a0000 	.inst	0xf33a0000 ; undefined
    1988:	ca000016 	eor	x22, x0, x0
    198c:	00000401 	udf	#1025
    1990:	029a0000 	.inst	0x029a0000 ; undefined
    1994:	fc703217 	.inst	0xfc703217 ; undefined
    1998:	00000016 	udf	#22
    199c:	0017063a 	.inst	0x0017063a ; undefined
    19a0:	0401cb00 	mad	z0.b, p2/m, z1.b, z24.b
    19a4:	00000000 	udf	#0
    19a8:	32050299 	orr	w25, w20, #0x8000000
    19ac:	00170b70 	.inst	0x00170b70 ; undefined
    19b0:	58011e00 	ldr	x0, 3d70 <_binary_shell_bin_size-0x100d290>
    19b4:	00001714 	udf	#5908
    19b8:	18b43a00 	ldr	w0, fffffffffff6a0f8 <__free_ram_end+0xffffffffbcd240f8>
    19bc:	01cc0000 	.inst	0x01cc0000 ; undefined
    19c0:	00000004 	udf	#4
    19c4:	14029f00 	b	a95c4 <_binary_shell_bin_size-0xf67a3c>
    19c8:	bd028032 	str	s18, [x1, #640]
    19cc:	00000018 	udf	#24
    19d0:	0009de3e 	.inst	0x0009de3e ; undefined
    19d4:	a3001400 	.inst	0xa3001400 ; undefined
    19d8:	63091502 	.inst	0x63091502 ; undefined
    19dc:	000009e6 	udf	#2534
    19e0:	09ee640a 	.inst	0x09ee640a ; undefined
    19e4:	28000000 	stnp	w0, w0, [x0]
    19e8:	000009bb 	udf	#2491
    19ec:	770b01c3 	.inst	0x770b01c3 ; undefined
    19f0:	cd000017 	.inst	0xcd000017 ; undefined
    19f4:	50010c01 	adr	x1, 3b76 <_binary_shell_bin_size-0x100d48a>
    19f8:	00008f02 	udf	#36610
    19fc:	0009bb28 	.inst	0x0009bb28 ; undefined
    1a00:	0b01ce00 	.inst	0x0b01ce00 ; undefined
    1a04:	000009bb 	udf	#2491
    1a08:	010c01cf 	.inst	0x010c01cf ; undefined
    1a0c:	74100252 	.inst	0x74100252 ; undefined
    1a10:	09bb0b00 	.inst	0x09bb0b00 ; undefined
    1a14:	01d00000 	.inst	0x01d00000 ; undefined
    1a18:	0352010c 	.inst	0x0352010c ; undefined
    1a1c:	00059510 	.inst	0x00059510 ; undefined
    1a20:	0009c60b 	.inst	0x0009c60b ; undefined
    1a24:	0c01d100 	.inst	0x0c01d100 ; undefined
    1a28:	10035201 	adr	x1, 8468 <_binary_shell_bin_size-0x1008b98>
    1a2c:	010c2080 	.inst	0x010c2080 ; undefined
    1a30:	008f0251 	.inst	0x008f0251 ; undefined
    1a34:	0250010c 	.inst	0x0250010c ; undefined
    1a38:	0b000083 	add	w3, w4, w0
    1a3c:	000009c6 	udf	#2502
    1a40:	010c01d2 	.inst	0x010c01d2 ; undefined
    1a44:	91100352 	add	x18, x26, #0x400
    1a48:	51010c04 	sub	w4, w0, #0x43
    1a4c:	0c008f02 	.inst	0x0c008f02 ; undefined
    1a50:	83025001 	.inst	0x83025001 ; undefined
    1a54:	39000000 	strb	w0, [x0]
    1a58:	004001d3 	.inst	0x004001d3 ; undefined
    1a5c:	6f010000 	.inst	0x6f010000 ; undefined
    1a60:	02ad0086 	.inst	0x02ad0086 ; undefined
    1a64:	d6500146 	.inst	0xd6500146 ; undefined
    1a68:	9102ad00 	add	x0, x8, #0xab
    1a6c:	46000005 	.inst	0x46000005 ; undefined
    1a70:	00d85101 	.inst	0x00d85101 ; undefined
    1a74:	049002ad 	mul	z13.s, p0/m, z13.s, z21.s
    1a78:	063a0000 	.inst	0x063a0000 ; undefined
    1a7c:	d4000017 	.inst	0xd4000017 ; undefined
    1a80:	00000401 	udf	#1025
    1a84:	02b20000 	.inst	0x02b20000 ; undefined
    1a88:	0b503205 	add	w5, w16, w16, lsr #12
    1a8c:	1e000017 	.inst	0x1e000017 ; undefined
    1a90:	17145801 	b	fffffffffc517a94 <__free_ram_end+0xffffffffb92d1a94>
    1a94:	00000000 	udf	#0
    1a98:	1401d53c 	b	76f88 <_binary_shell_bin_size-0xf9a078>
    1a9c:	01000000 	.inst	0x01000000 ; undefined
    1aa0:	b700876f 	tbnz	x15, #32, 2b8c <_binary_shell_bin_size-0x100e474>
    1aa4:	00052f02 	.inst	0x00052f02 ; undefined
    1aa8:	d6653d00 	.inst	0xd6653d00 ; undefined
    1aac:	9102b700 	add	x0, x24, #0xad
    1ab0:	00000005 	udf	#5
    1ab4:	4401e307 	.inst	0x4401e307 ; undefined
    1ab8:	01000000 	.inst	0x01000000 ; undefined
    1abc:	001ae36f 	.inst	0x001ae36f ; undefined
    1ac0:	ec6d0900 	.inst	0xec6d0900 ; undefined
    1ac4:	1e00001a 	.inst	0x1e00001a ; undefined
    1ac8:	1af55101 	.inst	0x1af55101 ; undefined
    1acc:	6f0a0000 	.inst	0x6f0a0000 ; undefined
    1ad0:	00001afe 	udf	#6910
    1ad4:	3001e331 	adr	x17, 5739 <_binary_shell_bin_size-0x100b8c7>
    1ad8:	0a000000 	and	w0, w0, w0
    1adc:	001b086e 	.inst	0x001b086e ; undefined
    1ae0:	43000000 	.inst	0x43000000 ; undefined
    1ae4:	0355006c 	.inst	0x0355006c ; undefined
    1ae8:	00000490 	udf	#1168
    1aec:	55006d44 	.inst	0x55006d44 ; undefined
    1af0:	00071f03 	.inst	0x00071f03 ; undefined
    1af4:	00264400 	.inst	0x00264400 ; NYI
    1af8:	04900355 	mul	z21.s, p0/m, z21.s, z26.s
    1afc:	6e370000 	uaddl2	v0.8h, v0.16b, v23.16b
    1b00:	90035600 	adrp	x0, 6ac1000 <_binary_shell_bin_size+0x5ab0000>
    1b04:	48000004 	stxrh	w0, w4, [x0]
    1b08:	57006f37 	.inst	0x57006f37 ; undefined
    1b0c:	00049003 	.inst	0x00049003 ; undefined
    1b10:	39000000 	strb	w0, [x0]
    1b14:	027401e4 	.inst	0x027401e4 ; undefined
    1b18:	6d010000 	stp	d0, d0, [x0, #16]
    1b1c:	03600089 	.inst	0x03600089 ; undefined
    1b20:	009e7336 	.inst	0x009e7336 ; undefined
    1b24:	05600364 	ext	z4.b, {z27.b-z28.b}, #0
    1b28:	e5310000 	.inst	0xe5310000 ; undefined
    1b2c:	00008401 	udf	#33793
    1b30:	3c703600 	.inst	0x3c703600 ; undefined
    1b34:	60036100 	.inst	0x60036100 ; undefined
    1b38:	00000005 	udf	#5
    1b3c:	74361533 	.inst	0x74361533 ; undefined
    1b40:	0365006f 	.inst	0x0365006f ; undefined
    1b44:	00000490 	udf	#1168
    1b48:	75361633 	.inst	0x75361633 ; undefined
    1b4c:	036600ce 	.inst	0x036600ce ; undefined
    1b50:	00000740 	udf	#1856
    1b54:	00cd7636 	.inst	0x00cd7636 ; undefined
    1b58:	0490036d 	mul	z13.s, p0/m, z13.s, z27.s
    1b5c:	77360000 	.inst	0x77360000 ; undefined
    1b60:	036e0021 	.inst	0x036e0021 ; undefined
    1b64:	00001d60 	udf	#7520
    1b68:	001ae33a 	.inst	0x001ae33a ; undefined
    1b6c:	2001e600 	.inst	0x2001e600 ; undefined
    1b70:	00000001 	udf	#1
    1b74:	1e16036d 	.inst	0x1e16036d ; undefined
    1b78:	00fc8604 	.inst	0x00fc8604 ; undefined
    1b7c:	001aec9f 	.inst	0x001aec9f ; undefined
    1b80:	f50c2400 	.inst	0xf50c2400 ; undefined
    1b84:	0a00001a 	and	w26, w0, w0
    1b88:	001afe71 	.inst	0x001afe71 ; undefined
    1b8c:	01e63100 	.inst	0x01e63100 ; undefined
    1b90:	00000120 	udf	#288
    1b94:	1b08720a 	madd	w10, w16, w8, w28
    1b98:	00000000 	udf	#0
    1b9c:	930b0000 	.inst	0x930b0000 ; undefined
    1ba0:	e7000014 	.inst	0xe7000014 ; undefined
    1ba4:	52010c01 	eor	w1, w0, #0x80000007
    1ba8:	0c008f02 	.inst	0x0c008f02 ; undefined
    1bac:	83025001 	.inst	0x83025001 ; undefined
    1bb0:	51010c00 	sub	w0, w0, #0x43
    1bb4:	00008f02 	udf	#36610
    1bb8:	0014930b 	.inst	0x0014930b ; undefined
    1bbc:	0c01e800 	.inst	0x0c01e800 ; undefined
    1bc0:	8f025201 	.inst	0x8f025201 ; undefined
    1bc4:	51010c00 	sub	w0, w0, #0x43
    1bc8:	010c3101 	.inst	0x010c3101 ; undefined
    1bcc:	80830350 	fmops	za0.s, p0/m, p0/m, z26.s, z3.s
    1bd0:	930b0004 	.inst	0x930b0004 ; undefined
    1bd4:	e9000014 	.inst	0xe9000014 ; undefined
    1bd8:	52010c01 	eor	w1, w0, #0x80000007
    1bdc:	0c008f02 	.inst	0x0c008f02 ; undefined
    1be0:	32015101 	orr	w1, w8, #0x800fffff
    1be4:	0350010c 	.inst	0x0350010c ; undefined
    1be8:	00088083 	.inst	0x00088083 ; undefined
    1bec:	0014930b 	.inst	0x0014930b ; undefined
    1bf0:	0c01ea00 	.inst	0x0c01ea00 ; undefined
    1bf4:	8f025201 	.inst	0x8f025201 ; undefined
    1bf8:	51010c00 	sub	w0, w0, #0x43
    1bfc:	010c3301 	.inst	0x010c3301 ; undefined
    1c00:	80830350 	fmops	za0.s, p0/m, p0/m, z26.s, z3.s
    1c04:	930b000c 	.inst	0x930b000c ; undefined
    1c08:	eb000014 	subs	x20, x0, x0
    1c0c:	52010c01 	eor	w1, w0, #0x80000007
    1c10:	0c008f02 	.inst	0x0c008f02 ; undefined
    1c14:	34015101 	cbz	w1, 4634 <_binary_shell_bin_size-0x100c9cc>
    1c18:	0350010c 	.inst	0x0350010c ; undefined
    1c1c:	00108083 	.inst	0x00108083 ; undefined
    1c20:	0014800b 	.inst	0x0014800b ; undefined
    1c24:	0c01ec00 	.inst	0x0c01ec00 ; undefined
    1c28:	88025001 	stxr	w2, w1, [x0]
    1c2c:	51010c04 	sub	w4, w0, #0x43
    1c30:	00008602 	udf	#34306
    1c34:	000fd90b 	.inst	0x000fd90b ; undefined
    1c38:	0c01ed00 	.inst	0x0c01ed00 ; undefined
    1c3c:	87025201 	.inst	0x87025201 ; undefined
    1c40:	51010c00 	sub	w0, w0, #0x43
    1c44:	04808603 	asr	z3.d, p1/m, z3.d, #48
    1c48:	0350010c 	.inst	0x0350010c ; undefined
    1c4c:	0000e888 	udf	#59528
    1c50:	0009bb0b 	.inst	0x0009bb0b ; undefined
    1c54:	0c01ee00 	.inst	0x0c01ee00 ; undefined
    1c58:	87025201 	.inst	0x87025201 ; undefined
    1c5c:	50010c00 	adr	x0, 3dde <_binary_shell_bin_size-0x100d222>
    1c60:	0c008502 	st2	{v2.4h-v3.4h}, [x8]
    1c64:	88025101 	stxr	w2, w1, [x8]
    1c68:	ad0b0004 	stp	q4, q0, [x0, #352]
    1c6c:	ef000010 	.inst	0xef000010 ; undefined
    1c70:	51010c01 	sub	w1, w0, #0x43
    1c74:	0c008402 	st2	{v2.4h-v3.4h}, [x0]
    1c78:	86035001 	.inst	0x86035001 ; undefined
    1c7c:	0b000281 	add	w1, w20, w0
    1c80:	000009bb 	udf	#2491
    1c84:	010c01f0 	.inst	0x010c01f0 ; undefined
    1c88:	eb100352 	subs	x18, x26, x16
    1c8c:	53010c06 	ubfx	w6, w0, #1, #3
    1c90:	02818603 	.inst	0x02818603 ; undefined
    1c94:	70380000 	adr	x0, 71c97 <_binary_shell_bin_size-0xf9f369>
    1c98:	71224800 	subs	w0, w0, #0x892
    1c9c:	00b74900 	.inst	0x00b74900 ; undefined
    1ca0:	72220000 	ands	w0, w0, #0x40000000
    1ca4:	00b75d00 	.inst	0x00b75d00 ; undefined
    1ca8:	39000000 	strb	w0, [x0]
    1cac:	010801f1 	.inst	0x010801f1 ; undefined
    1cb0:	6d010000 	stp	d0, d0, [x0, #16]
    1cb4:	03aa008a 	.inst	0x03aa008a ; undefined
    1cb8:	001c963a 	.inst	0x001c963a ; undefined
    1cbc:	5801f200 	ldr	x0, 5afc <_binary_shell_bin_size-0x100b504>
    1cc0:	00000000 	udf	#0
    1cc4:	0a0503b8 	and	w24, w29, w5
    1cc8:	001c9a78 	.inst	0x001c9a78 ; undefined
    1ccc:	a2790a00 	.inst	0xa2790a00 ; undefined
    1cd0:	0000001c 	udf	#28
    1cd4:	0009c60b 	.inst	0x0009c60b ; undefined
    1cd8:	0c01f200 	.inst	0x0c01f200 ; undefined
    1cdc:	8f025101 	.inst	0x8f025101 ; undefined
    1ce0:	85280000 	.inst	0x85280000 ; undefined
    1ce4:	f3000009 	.inst	0xf3000009 ; undefined
    1ce8:	09bb2801 	.inst	0x09bb2801 ; undefined
    1cec:	01f40000 	.inst	0x01f40000 ; undefined
    1cf0:	0009bb28 	.inst	0x0009bb28 ; undefined
    1cf4:	0b01f500 	.inst	0x0b01f500 ; undefined
    1cf8:	00000d55 	udf	#3413
    1cfc:	010c01f6 	.inst	0x010c01f6 ; undefined
    1d00:	008f0251 	.inst	0x008f0251 ; undefined
    1d04:	0250010c 	.inst	0x0250010c ; undefined
    1d08:	2800008f 	stnp	w15, w0, [x4]
    1d0c:	000018c7 	udf	#6343
    1d10:	132801f7 	.inst	0x132801f7 ; undefined
    1d14:	f800001b 	stur	x27, [x0]
    1d18:	09bb2801 	.inst	0x09bb2801 ; undefined
    1d1c:	01f90000 	.inst	0x01f90000 ; undefined
    1d20:	000d5528 	.inst	0x000d5528 ; undefined
    1d24:	2801fa00 	stnp	w0, w30, [x16, #12]
    1d28:	000009bb 	udf	#2491
    1d2c:	bb2801fb 	.inst	0xbb2801fb ; undefined
    1d30:	fc000009 	stur	d9, [x0]
    1d34:	0bfc2801 	.inst	0x0bfc2801 ; undefined
    1d38:	01fd0000 	.inst	0x01fd0000 ; undefined
    1d3c:	0009bb28 	.inst	0x0009bb28 ; undefined
    1d40:	0b01fe00 	.inst	0x0b01fe00 ; undefined
    1d44:	000009bb 	udf	#2491
    1d48:	010c01ff 	.inst	0x010c01ff ; undefined
    1d4c:	e2100352 	.inst	0xe2100352 ; undefined
    1d50:	3b000007 	.inst	0x3b000007 ; undefined
    1d54:	00180280 	.inst	0x00180280 ; undefined
    1d58:	6f010000 	.inst	0x6f010000 ; undefined
    1d5c:	03ea008b 	.inst	0x03ea008b ; undefined
    1d60:	00050314 	.inst	0x00050314 ; undefined
    1d64:	1d6a1400 	.inst	0x1d6a1400 ; undefined
    1d68:	c7110000 	.inst	0xc7110000 ; undefined
    1d6c:	09020108 	.inst	0x09020108 ; undefined
    1d70:	00b7a612 	.inst	0x00b7a612 ; undefined
    1d74:	0a020000 	and	w0, w0, w2
    1d78:	b7a71200 	tbnz	x0, #52, ffffffffffffffb8 <__free_ram_end+0xffffffffbcdb9fb8>
    1d7c:	02000000 	.inst	0x02000000 ; undefined
    1d80:	a812080b 	stnp	x11, x2, [x0, #288]
    1d84:	000000b7 	udf	#183
    1d88:	12100c02 	and	w2, w0, #0xf0000
    1d8c:	0000b7a9 	udf	#47017
    1d90:	180d0200 	ldr	w0, 1bdd0 <_binary_shell_bin_size-0xff5230>
    1d94:	00b7aa12 	.inst	0x00b7aa12 ; undefined
    1d98:	0e020000 	tbl	v0.8b, {v0.16b}, v2.8b
    1d9c:	b7ab1220 	tbnz	x0, #53, 7fe0 <_binary_shell_bin_size-0x1009020>
    1da0:	02000000 	.inst	0x02000000 ; undefined
    1da4:	ac12280f 	stnp	q15, q10, [x0, #576]
    1da8:	000000b7 	udf	#183
    1dac:	12301002 	and	w2, w0, #0x1f0000
    1db0:	0000b7ad 	udf	#47021
    1db4:	38110200 	sturb	w0, [x16, #-240]
    1db8:	00b7ae12 	.inst	0x00b7ae12 ; undefined
    1dbc:	12020000 	and	w0, w0, #0x40000000
    1dc0:	b7af1240 	tbnz	x0, #53, 8 <_binary_shell_bin_size-0x1010ff8>
    1dc4:	02000000 	.inst	0x02000000 ; undefined
    1dc8:	b0124813 	adrp	x19, 24902000 <_binary_shell_bin_size+0x238f1000>
    1dcc:	000000b7 	udf	#183
    1dd0:	12501402 	.inst	0x12501402 ; undefined
    1dd4:	0000b7b1 	udf	#47025
    1dd8:	58150200 	ldr	x0, 2be18 <_binary_shell_bin_size-0xfe51e8>
    1ddc:	00b7b212 	.inst	0x00b7b212 ; undefined
    1de0:	16020000 	b	fffffffff8081de0 <__free_ram_end+0xffffffffb4e3bde0>
    1de4:	b7b31260 	tbnz	x0, #54, 8030 <_binary_shell_bin_size-0x1008fd0>
    1de8:	02000000 	.inst	0x02000000 ; undefined
    1dec:	b4126817 	cbz	x23, 26aec <_binary_shell_bin_size-0xfea514>
    1df0:	000000b7 	udf	#183
    1df4:	12701802 	.inst	0x12701802 ; undefined
    1df8:	0000b7b5 	udf	#47029
    1dfc:	78190200 	sturh	w0, [x16, #-112]
    1e00:	00b7b612 	.inst	0x00b7b612 ; undefined
    1e04:	1a020000 	adc	w0, w0, w2
    1e08:	b7b71280 	tbnz	x0, #54, 58 <_binary_shell_bin_size-0x1010fa8>
    1e0c:	02000000 	.inst	0x02000000 ; undefined
    1e10:	b812881b 	sttr	w27, [x0, #-216]
    1e14:	000000b7 	udf	#183
    1e18:	12901c02 	mov	w2, #0xffff7f1f            	// #-32993
    1e1c:	0000b7b9 	udf	#47033
    1e20:	981d0200 	ldrsw	x0, 3be60 <_binary_shell_bin_size-0xfd51a0>
    1e24:	00b7ba12 	.inst	0x00b7ba12 ; undefined
    1e28:	1e020000 	.inst	0x1e020000 ; undefined
    1e2c:	b7bb12a0 	tbnz	x0, #55, 8080 <_binary_shell_bin_size-0x1008f80>
    1e30:	02000000 	.inst	0x02000000 ; undefined
    1e34:	bc12a81f 	.inst	0xbc12a81f ; undefined
    1e38:	000000b7 	udf	#183
    1e3c:	12b02002 	mov	w2, #0x7effffff            	// #2130706431
    1e40:	0000b7bd 	udf	#47037
    1e44:	b8210200 	ldadd	w1, w0, [x16]
    1e48:	00b7be12 	.inst	0x00b7be12 ; undefined
    1e4c:	22020000 	.inst	0x22020000 ; undefined
    1e50:	b7bf12c0 	tbnz	x0, #55, a8 <_binary_shell_bin_size-0x1010f58>
    1e54:	02000000 	.inst	0x02000000 ; undefined
    1e58:	c012c823 	.inst	0xc012c823 ; undefined
    1e5c:	000000b7 	udf	#183
    1e60:	12d02402 	.inst	0x12d02402 ; undefined
    1e64:	0000b7c1 	udf	#47041
    1e68:	d8250200 	prfm	pldl1keep, 4bea8 <_binary_shell_bin_size-0xfc5158>
    1e6c:	00b7c212 	.inst	0x00b7c212 ; undefined
    1e70:	26020000 	.inst	0x26020000 ; undefined
    1e74:	b7c312e0 	tbnz	x0, #56, 80d0 <_binary_shell_bin_size-0x1008f30>
    1e78:	02000000 	.inst	0x02000000 ; undefined
    1e7c:	c412e827 	prfb	#7, p2, [z1.d, #18]
    1e80:	000000b7 	udf	#183
    1e84:	12f02802 	.inst	0x12f02802 ; undefined
    1e88:	0000b7c5 	udf	#47045
    1e8c:	f8290200 	ldadd	x9, x0, [x16]
    1e90:	00b7c617 	.inst	0x00b7c617 ; undefined
    1e94:	2a020000 	orr	w0, w0, w2
    1e98:	1c000100 	ldr	s0, 1eb8 <_binary_shell_bin_size-0x100f148>
    1e9c:	00000490 	udf	#1168
    1ea0:	00025600 	.inst	0x00025600 ; undefined
    1ea4:	01000500 	.inst	0x01000500 ; undefined
    1ea8:	0003bf08 	.inst	0x0003bf08 ; undefined
    1eac:	1d000100 	.inst	0x1d000100 ; undefined
    1eb0:	03800100 	.inst	0x03800100 ; undefined
    1eb4:	0e300000 	saddl	v0.8h, v0.8b, v16.8b
    1eb8:	01020000 	.inst	0x01020000 ; undefined
    1ebc:	00000404 	udf	#1028
    1ec0:	00000818 	udf	#2072
    1ec4:	000001cf 	udf	#463
    1ec8:	00000e61 	udf	#3681
    1ecc:	00003502 	udf	#13570
    1ed0:	025c0000 	.inst	0x025c0000 ; undefined
    1ed4:	410300a1 	.inst	0x410300a1 ; undefined
    1ed8:	04000000 	add	z0.b, p0/m, z0.b, z0.b
    1edc:	00000045 	udf	#69
    1ee0:	03050011 	.inst	0x03050011 ; undefined
    1ee4:	04060108 	.inst	0x04060108 ; undefined
    1ee8:	4e070708 	dup	v8.16b, v24.b[3]
    1eec:	08000000 	stxrb	w0, w0, [x0]
    1ef0:	00000056 	udf	#86
    1ef4:	05040106 	.inst	0x05040106 ; undefined
    1ef8:	07010805 	.inst	0x07010805 ; undefined
    1efc:	0000005f 	udf	#95
    1f00:	00004e09 	udf	#19977
    1f04:	00560700 	.inst	0x00560700 ; undefined
    1f08:	010a0000 	.inst	0x010a0000 ; undefined
    1f0c:	000000c8 	udf	#200
    1f10:	00086f01 	.inst	0x00086f01 ; undefined
    1f14:	0001f005 	.inst	0x0001f005 ; undefined
    1f18:	50010b00 	adr	x0, 407a <_binary_shell_bin_size-0x100cf86>
    1f1c:	f005000e 	adrp	x14, a004000 <_binary_shell_bin_size+0x8ff3000>
    1f20:	0b000001 	add	w1, w0, w0
    1f24:	000f5101 	.inst	0x000f5101 ; undefined
    1f28:	0001fa05 	.inst	0x0001fa05 ; undefined
    1f2c:	12020c00 	and	w0, w0, #0xc0000003
    1f30:	02000500 	.inst	0x02000500 ; undefined
    1f34:	000d0000 	.inst	0x000d0000 ; undefined
    1f38:	49060010 	.inst	0x49060010 ; undefined
    1f3c:	0d000000 	st1	{v0.b}[0], [x0]
    1f40:	07001101 	.inst	0x07001101 ; undefined
    1f44:	0000005a 	udf	#90
    1f48:	a0020a00 	ld1b	{z0.b-z1.b}, pn10/z, [x16, x2]
    1f4c:	01000000 	.inst	0x01000000 ; undefined
    1f50:	0d00096f 	st1	{v15.b}[2], [x11]
    1f54:	000001f0 	udf	#496
    1f58:	1650010b 	b	fffffffff9402384 <__free_ram_end+0xffffffffb61bc384>
    1f5c:	01f00d00 	.inst	0x01f00d00 ; undefined
    1f60:	010b0000 	.inst	0x010b0000 ; undefined
    1f64:	0d001751 	st1	{v17.b}[5], [x26]
    1f68:	00000041 	udf	#65
    1f6c:	0012040c 	.inst	0x0012040c ; undefined
    1f70:	0002000d 	.inst	0x0002000d ; undefined
    1f74:	18030d00 	ldr	w0, 8114 <_binary_shell_bin_size-0x1008eec>
    1f78:	00490e00 	.inst	0x00490e00 ; undefined
    1f7c:	0a000000 	and	w0, w0, w0
    1f80:	00002803 	udf	#10243
    1f84:	0a6f0100 	bic	w0, w8, w15, lsr #0
    1f88:	01f11400 	.inst	0x01f11400 ; undefined
    1f8c:	010b0000 	.inst	0x010b0000 ; undefined
    1f90:	14000e50 	b	58d0 <_binary_shell_bin_size-0x100b730>
    1f94:	000001f1 	udf	#497
    1f98:	000f050c 	.inst	0x000f050c ; undefined
    1f9c:	00021414 	.inst	0x00021414 ; undefined
    1fa0:	10060d00 	adr	x0, e140 <_binary_shell_bin_size-0x1002ec0>
    1fa4:	01f11500 	.inst	0x01f11500 ; undefined
    1fa8:	0a000000 	and	w0, w0, w0
    1fac:	00003004 	udf	#12292
    1fb0:	0b6f0100 	.inst	0x0b6f0100 ; undefined
    1fb4:	01f61c00 	.inst	0x01f61c00 ; undefined
    1fb8:	070c0000 	.inst	0x070c0000 ; undefined
    1fbc:	141c0019 	b	702020 <_binary_shell_bin_size-0x90efe0>
    1fc0:	0b000002 	add	w2, w0, w0
    1fc4:	001a5101 	.inst	0x001a5101 ; undefined
    1fc8:	0002141c 	.inst	0x0002141c ; undefined
    1fcc:	050e0000 	.inst	0x050e0000 ; undefined
    1fd0:	00000244 	udf	#580
    1fd4:	000d6d01 	.inst	0x000d6d01 ; undefined
    1fd8:	23080c27 	.inst	0x23080c27 ; undefined
    1fdc:	02142700 	.inst	0x02142700 ; undefined
    1fe0:	020f0000 	.inst	0x020f0000 ; undefined
    1fe4:	001b6091 	.inst	0x001b6091 ; undefined
    1fe8:	00021e28 	.inst	0x00021e28 ; undefined
    1fec:	002a1000 	.inst	0x002a1000 ; NYI
    1ff0:	00110c6a 	.inst	0x00110c6a ; undefined
    1ff4:	0024090d 	.inst	0x0024090d ; NYI
    1ff8:	0002103f 	.inst	0x0002103f ; undefined
    1ffc:	250a0d00 	cmpge	p0.b, p3/z, z8.b, #10
    2000:	01f63e00 	.inst	0x01f63e00 ; undefined
    2004:	0b0d0000 	add	w0, w0, w13
    2008:	10450026 	adr	x6, 8c00c <_binary_shell_bin_size-0xf84ff4>
    200c:	00000002 	udf	#2
    2010:	0e0d0111 	tbl	v17.8b, {v8.16b}, v13.8b
    2014:	f6580028 	.inst	0xf6580028 ; undefined
    2018:	0d000001 	st1	{v1.b}[0], [x0]
    201c:	5700250f 	.inst	0x5700250f ; undefined
    2020:	00000255 	udf	#597
    2024:	00240612 	.inst	0x00240612 ; NYI
    2028:	0d0d0000 	.inst	0x0d0d0000 ; undefined
    202c:	f6590027 	.inst	0xf6590027 ; undefined
    2030:	11000001 	add	w1, w0, #0x0
    2034:	002b1302 	.inst	0x002b1302 ; NYI
    2038:	0002105a 	.inst	0x0002105a ; undefined
    203c:	00000000 	udf	#0
    2040:	0c0d0311 	.inst	0x0c0d0311 ; undefined
    2044:	14360011 	b	d82088 <_binary_shell_bin_size-0x28ef78>
    2048:	00000002 	udf	#2
    204c:	01e61514 	.inst	0x01e61514 ; undefined
    2050:	16070000 	b	fffffffff81c2050 <__free_ram_end+0xffffffffb4f7c050>
    2054:	000001e6 	udf	#486
    2058:	50011708 	adr	x8, 433a <_binary_shell_bin_size-0x100ccc6>
    205c:	002d1002 	.inst	0x002d1002 ; NYI
    2060:	0001e616 	.inst	0x0001e616 ; undefined
    2064:	01170900 	.inst	0x01170900 ; undefined
    2068:	30880250 	adr	x16, fffffffffff120b1 <__free_ram_end+0xffffffffbcccc0b1>
    206c:	01e61500 	.inst	0x01e61500 ; undefined
    2070:	150a0000 	b	4282070 <_binary_shell_bin_size+0x3271070>
    2074:	000001e6 	udf	#486
    2078:	01e6160b 	.inst	0x01e6160b ; undefined
    207c:	170c0000 	b	fffffffffc30207c <__free_ram_end+0xffffffffb90bc07c>
    2080:	10025001 	adr	x1, 6a80 <_binary_shell_bin_size-0x100a580>
    2084:	18000025 	ldr	w5, 2088 <_binary_shell_bin_size-0x100ef78>
    2088:	19030007 	stlurb	w7, [x0, #48]
    208c:	00000041 	udf	#65
    2090:	41071a00 	.inst	0x41071a00 ; undefined
    2094:	05000000 	orr	z0.s, z0.s, #0x1
    2098:	0704050c 	.inst	0x0704050c ; undefined
    209c:	000001ff 	udf	#511
    20a0:	0208081b 	.inst	0x0208081b ; undefined
    20a4:	01150000 	.inst	0x01150000 ; undefined
    20a8:	02100808 	.inst	0x02100808 ; undefined
    20ac:	01140000 	.inst	0x01140000 ; undefined
    20b0:	07130506 	.inst	0x07130506 ; undefined
    20b4:	02190704 	.inst	0x02190704 ; undefined
    20b8:	41090000 	.inst	0x41090000 ; undefined
    20bc:	1c000000 	ldr	s0, 20bc <_binary_shell_bin_size-0x100ef44>
    20c0:	00000224 	udf	#548
    20c4:	20211d22 	.inst	0x20211d22 ; undefined
    20c8:	01f01c1e 	.inst	0x01f01c1e ; undefined
    20cc:	28000000 	stnp	w0, w0, [x0]
    20d0:	f01d1e00 	adrp	x0, 3a3c5000 <_binary_shell_bin_size+0x393b4000>
    20d4:	00000001 	udf	#1
    20d8:	1e1e0828 	.inst	0x1e1e0828 ; undefined
    20dc:	000001f0 	udf	#496
    20e0:	1e102800 	.inst	0x1e102800 ; undefined
    20e4:	0001f61f 	.inst	0x0001f61f ; undefined
    20e8:	18280000 	ldr	w0, 520e8 <_binary_shell_bin_size-0xfbef18>
    20ec:	01f6201e 	.inst	0x01f6201e ; undefined
    20f0:	28000000 	stnp	w0, w0, [x0]
    20f4:	2905001c 	stp	w28, w0, [x0, #40]
    20f8:	7b000807 	.inst	0x7b000807 ; undefined
    20fc:	05000001 	orr	z1.s, z1.s, #0x1
    2100:	23080100 	.inst	0x23080100 ; undefined
    2104:	01000005 	.inst	0x01000005 ; undefined
    2108:	00001038 	udf	#4152
    210c:	4020232c 	.inst	0x4020232c ; undefined
    2110:	00000000 	udf	#0
    2114:	40202418 	.inst	0x40202418 ; undefined
    2118:	00000000 	udf	#0
    211c:	74636576 	.inst	0x74636576 ; undefined
    2120:	2f00732e 	.inst	0x2f00732e ; undefined
    2124:	656d6f68 	fnmls	z8.h, p3/m, z27.h, z13.h
    2128:	686f722f 	.inst	0x686f722f ; undefined
    212c:	2f687469 	.inst	0x2f687469 ; undefined
    2130:	2f6e7566 	.inst	0x2f6e7566 ; undefined
    2134:	696e694d 	ldpsw	x13, x26, [x10, #-144]
    2138:	2d534f2d 	ldp	s13, s19, [x25, #152]
    213c:	00766564 	.inst	0x00766564 ; undefined
    2140:	6e756255 	rsubhn2	v21.8h, v18.4s, v21.4s
    2144:	63207574 	.inst	0x63207574 ; undefined
    2148:	676e616c 	.inst	0x676e616c ; undefined
    214c:	72657620 	.inst	0x72657620 ; undefined
    2150:	6e6f6973 	.inst	0x6e6f6973 ; undefined
    2154:	2e383120 	usubw	v0.8h, v9.8h, v24.8b
    2158:	20332e31 	.inst	0x20332e31 ; undefined
    215c:	62753128 	.inst	0x62753128 ; undefined
    2160:	75746e75 	.inst	0x75746e75 ; undefined
    2164:	01002931 	.inst	0x01002931 ; undefined
    2168:	79730280 	ldrh	w0, [x20, #6528]
    216c:	655f636e 	fcmeq	p14.h, p0/z, z27.h, z31.h
    2170:	685f316c 	.inst	0x685f316c ; undefined
    2174:	6c646e61 	ldnp	d1, d27, [x19, #-448]
    2178:	00007265 	udf	#29285
    217c:	02000000 	.inst	0x02000000 ; undefined
    2180:	2c000000 	stnp	s0, s0, [x0]
    2184:	00402023 	.inst	0x00402023 ; undefined
    2188:	02000000 	.inst	0x02000000 ; undefined
    218c:	5f717269 	sqdmlsl	s9, h19, v1.h[3]
    2190:	5f316c65 	.inst	0x5f316c65 ; undefined
    2194:	646e6168 	.inst	0x646e6168 ; undefined
    2198:	0072656c 	.inst	0x0072656c ; undefined
    219c:	00000000 	udf	#0
    21a0:	0000003d 	udf	#61
    21a4:	402023e0 	.inst	0x402023e0 ; undefined
    21a8:	00000000 	udf	#0
    21ac:	71696602 	subs	w2, w16, #0xa59, lsl #12
    21b0:	316c655f 	cmn	w10, #0xb19, lsl #12
    21b4:	6e61685f 	fcvtxn2	v31.4s, v2.2d
    21b8:	72656c64 	.inst	0x72656c64 ; undefined
    21bc:	00000000 	udf	#0
    21c0:	00004200 	udf	#16896
    21c4:	2023e800 	.inst	0x2023e800 ; undefined
    21c8:	00000040 	udf	#64
    21cc:	65730200 	fmla	z0.h, p0/m, z16.h, z19.h
    21d0:	726f7272 	.inst	0x726f7272 ; undefined
    21d4:	316c655f 	cmn	w10, #0xb19, lsl #12
    21d8:	6e61685f 	fcvtxn2	v31.4s, v2.2d
    21dc:	72656c64 	.inst	0x72656c64 ; undefined
    21e0:	00000000 	udf	#0
    21e4:	00004700 	udf	#18176
    21e8:	2023f000 	.inst	0x2023f000 ; undefined
    21ec:	00000040 	udf	#64
    21f0:	79730200 	ldrh	w0, [x16, #6528]
    21f4:	655f636e 	fcmeq	p14.h, p0/z, z27.h, z31.h
    21f8:	685f326c 	.inst	0x685f326c ; undefined
    21fc:	6c646e61 	ldnp	d1, d27, [x19, #-448]
    2200:	00007265 	udf	#29285
    2204:	4c000000 	st4	{v0.16b-v3.16b}, [x0]
    2208:	f8000000 	stur	x0, [x0]
    220c:	00402023 	.inst	0x00402023 ; undefined
    2210:	02000000 	.inst	0x02000000 ; undefined
    2214:	5f717269 	sqdmlsl	s9, h19, v1.h[3]
    2218:	5f326c65 	.inst	0x5f326c65 ; undefined
    221c:	646e6168 	.inst	0x646e6168 ; undefined
    2220:	0072656c 	.inst	0x0072656c ; undefined
    2224:	00000000 	udf	#0
    2228:	00000051 	udf	#81
    222c:	40202400 	.inst	0x40202400 ; undefined
    2230:	00000000 	udf	#0
    2234:	71696602 	subs	w2, w16, #0xa59, lsl #12
    2238:	326c655f 	.inst	0x326c655f ; undefined
    223c:	6e61685f 	fcvtxn2	v31.4s, v2.2d
    2240:	72656c64 	.inst	0x72656c64 ; undefined
    2244:	00000000 	udf	#0
    2248:	00005600 	udf	#22016
    224c:	20240800 	.inst	0x20240800 ; undefined
    2250:	00000040 	udf	#64
    2254:	65730200 	fmla	z0.h, p0/m, z16.h, z19.h
    2258:	726f7272 	.inst	0x726f7272 ; undefined
    225c:	326c655f 	.inst	0x326c655f ; undefined
    2260:	6e61685f 	fcvtxn2	v31.4s, v2.2d
    2264:	72656c64 	.inst	0x72656c64 ; undefined
    2268:	00000000 	udf	#0
    226c:	00005b00 	udf	#23296
    2270:	20241000 	.inst	0x20241000 ; undefined
    2274:	00000040 	udf	#64
    2278:	00910000 	.inst	0x00910000 ; undefined
    227c:	00050000 	.inst	0x00050000 ; undefined
    2280:	05440801 	.inst	0x05440801 ; undefined
    2284:	c8010000 	stxr	w1, x0, [x0]
    2288:	00000010 	udf	#16
    228c:	00402028 	.inst	0x00402028 ; undefined
    2290:	84000000 	ld1sb	{z0.s}, p0/z, [x0, z0.s, uxtw]
    2294:	0040202f 	.inst	0x0040202f ; undefined
    2298:	76000000 	.inst	0x76000000 ; undefined
    229c:	6f746365 	umlsl2	v5.4s, v27.8h, v4.h[3]
    22a0:	61745f72 	.inst	0x61745f72 ; undefined
    22a4:	2e656c62 	umin	v2.4h, v3.4h, v5.4h
    22a8:	682f0073 	.inst	0x682f0073 ; undefined
    22ac:	2f656d6f 	.inst	0x2f656d6f ; undefined
    22b0:	69686f72 	ldpsw	x18, x27, [x27, #-192]
    22b4:	662f6874 	.inst	0x662f6874 ; undefined
    22b8:	4d2f6e75 	.inst	0x4d2f6e75 ; undefined
    22bc:	2d696e69 	ldp	s9, s27, [x19, #-184]
    22c0:	642d534f 	.inst	0x642d534f ; undefined
    22c4:	55007665 	.inst	0x55007665 ; undefined
    22c8:	746e7562 	.inst	0x746e7562 ; undefined
    22cc:	6c632075 	ldnp	d21, d8, [x3, #-464]
    22d0:	20676e61 	.inst	0x20676e61 ; undefined
    22d4:	73726576 	.inst	0x73726576 ; undefined
    22d8:	206e6f69 	.inst	0x206e6f69 ; undefined
    22dc:	312e3831 	adds	w17, w1, #0xb8e
    22e0:	2820332e 	stnp	w14, w12, [x25, #-256]
    22e4:	75627531 	.inst	0x75627531 ; undefined
    22e8:	3175746e 	adds	w14, w3, #0xd5d, lsl #12
    22ec:	80010029 	.inst	0x80010029 ; undefined
    22f0:	63657602 	.inst	0x63657602 ; undefined
    22f4:	5f726f74 	.inst	0x5f726f74 ; undefined
    22f8:	6c626174 	ldnp	d20, d24, [x11, #-480]
    22fc:	00000065 	udf	#101
    2300:	00040000 	.inst	0x00040000 ; undefined
    2304:	28000000 	stnp	w0, w0, [x0]
    2308:	00004020 	udf	#16416
    230c:	c5000000 	ld1sw	{z0.d}, p0/z, [x0, z0.d, uxtw]
    2310:	05000001 	orr	z1.s, z1.s, #0x1
    2314:	65080100 	bfadd	z0.h, z8.h, z8.h
    2318:	01000005 	.inst	0x01000005 ; undefined
    231c:	01001d00 	.inst	0x01001d00 ; undefined
    2320:	00000438 	udf	#1080
    2324:	0000115a 	udf	#4442
    2328:	00b40802 	.inst	0x00b40802 ; undefined
    232c:	08880000 	stllrb	w0, [x0]
    2330:	0ffd0000 	.inst	0x0ffd0000 ; undefined
    2334:	31020000 	adds	w0, w0, #0x80
    2338:	00000000 	udf	#0
    233c:	00a1020f 	.inst	0x00a1020f ; undefined
    2340:	00003d03 	udf	#15619
    2344:	00410400 	.inst	0x00410400 ; undefined
    2348:	00170000 	.inst	0x00170000 ; undefined
    234c:	01080305 	.inst	0x01080305 ; undefined
    2350:	07080406 	.inst	0x07080406 ; undefined
    2354:	00004f02 	udf	#20226
    2358:	02100000 	.inst	0x02100000 ; undefined
    235c:	3d0301a1 	str	b1, [x13, #192]
    2360:	04000000 	add	z0.b, p0/m, z0.b, z0.b
    2364:	00000041 	udf	#65
    2368:	4f02000f 	.inst	0x4f02000f ; undefined
    236c:	00000000 	udf	#0
    2370:	02a10211 	.inst	0x02a10211 ; undefined
    2374:	00006f02 	udf	#28418
    2378:	02120000 	.inst	0x02120000 ; undefined
    237c:	3d0303a1 	str	b1, [x29, #192]
    2380:	04000000 	add	z0.b, p0/m, z0.b, z0.b
    2384:	00000041 	udf	#65
    2388:	8502000a 	.inst	0x8502000a ; undefined
    238c:	00000000 	udf	#0
    2390:	04a10213 	add	z19.s, z16.s, z1.s
    2394:	00003d03 	udf	#15619
    2398:	00410400 	.inst	0x00410400 ; undefined
    239c:	000c0000 	.inst	0x000c0000 ; undefined
    23a0:	00009b02 	udf	#39682
    23a4:	02140000 	.inst	0x02140000 ; undefined
    23a8:	3d0305a1 	str	b1, [x13, #193]
    23ac:	04000000 	add	z0.b, p0/m, z0.b, z0.b
    23b0:	00000041 	udf	#65
    23b4:	b102000b 	adds	x11, x0, #0x80
    23b8:	00000000 	udf	#0
    23bc:	06a10215 	.inst	0x06a10215 ; undefined
    23c0:	00003d03 	udf	#15619
    23c4:	00410400 	.inst	0x00410400 ; undefined
    23c8:	00240000 	.inst	0x00240000 ; NYI
    23cc:	0000c702 	udf	#50946
    23d0:	02150000 	.inst	0x02150000 ; undefined
    23d4:	3d0307a1 	str	b1, [x29, #193]
    23d8:	04000000 	add	z0.b, p0/m, z0.b, z0.b
    23dc:	00000041 	udf	#65
    23e0:	08070007 	stxrb	w7, w7, [x0]
    23e4:	00000094 	udf	#148
    23e8:	00066d01 	.inst	0x00066d01 ; undefined
    23ec:	0f000804 	.inst	0x0f000804 ; undefined
    23f0:	01bc0400 	.inst	0x01bc0400 ; undefined
    23f4:	01080000 	.inst	0x01080000 ; undefined
    23f8:	bc040012 	stur	s18, [x0, #64]
    23fc:	09000001 	.inst	0x09000001 ; undefined
    2400:	07001302 	.inst	0x07001302 ; undefined
    2404:	000001bc 	udf	#444
    2408:	0a00140a 	and	w10, w0, w0, lsl #5
    240c:	000001bc 	udf	#444
    2410:	0d00150a 	st1	{v10.b}[5], [x8]
    2414:	000001bc 	udf	#444
    2418:	00014f0b 	.inst	0x00014f0b ; undefined
    241c:	4f0c0900 	.inst	0x4f0c0900 ; undefined
    2420:	0a000001 	and	w1, w0, w0
    2424:	0251010d 	.inst	0x0251010d ; undefined
    2428:	0c000083 	st4	{v3.8b-v6.8b}, [x4]
    242c:	0000014f 	udf	#335
    2430:	51010d0b 	sub	w11, w8, #0x43
    2434:	00008502 	udf	#34050
    2438:	00014f0c 	.inst	0x00014f0c ; undefined
    243c:	010d0c00 	.inst	0x010d0c00 ; undefined
    2440:	00840251 	.inst	0x00840251 ; undefined
    2444:	014f0b00 	.inst	0x014f0b00 ; undefined
    2448:	0b0d0000 	add	w0, w0, w13
    244c:	0000014f 	udf	#335
    2450:	014f0c0e 	.inst	0x014f0c0e ; undefined
    2454:	0d0f0000 	.inst	0x0d0f0000 ; undefined
    2458:	45015201 	.inst	0x45015201 ; undefined
    245c:	050e0000 	.inst	0x050e0000 ; undefined
    2460:	5a0f1c01 	.inst	0x5a0f1c01 ; undefined
    2464:	10000001 	adr	x1, 2464 <_binary_shell_bin_size-0x100eb9c>
    2468:	015f1100 	.inst	0x015f1100 ; undefined
    246c:	3d120000 	str	b0, [x0, #1152]
    2470:	13000000 	sbfx	w0, w0, #0, #1
    2474:	00000410 	udf	#1040
    2478:	076f0100 	.inst	0x076f0100 ; undefined
    247c:	11131900 	add	w0, w8, #0x4c6
    2480:	00000004 	udf	#4
    2484:	00086f01 	.inst	0x00086f01 ; undefined
    2488:	0412131f 	smulh	z31.b, p4/m, z31.b, z24.b
    248c:	01000000 	.inst	0x01000000 ; undefined
    2490:	2500096f 	cmpge	p15.b, p2/z, z11.b, #0
    2494:	00041313 	.inst	0x00041313 ; undefined
    2498:	6f010000 	.inst	0x6f010000 ; undefined
    249c:	132b000a 	.inst	0x132b000a ; undefined
    24a0:	00000414 	udf	#1044
    24a4:	0b6f0100 	.inst	0x0b6f0100 ; undefined
    24a8:	15133200 	b	44ceca8 <_binary_shell_bin_size+0x34bdca8>
    24ac:	00000004 	udf	#4
    24b0:	000c6f01 	.inst	0x000c6f01 ; undefined
    24b4:	04161338 	.inst	0x04161338 ; undefined
    24b8:	01000000 	.inst	0x01000000 ; undefined
    24bc:	3e000d6f 	.inst	0x3e000d6f ; undefined
    24c0:	00041713 	.inst	0x00041713 ; undefined
    24c4:	6f010000 	.inst	0x6f010000 ; undefined
    24c8:	1444000e 	b	1102500 <_binary_shell_bin_size+0xf1500>
    24cc:	000001c4 	udf	#452
    24d0:	05070111 	.inst	0x05070111 ; undefined
    24d4:	00080710 	.inst	0x00080710 ; undefined

Disassembly of section .debug_rnglists:

0000000000000000 <.debug_rnglists>:
   0:	000001bf 	udf	#447
   4:	00080005 	.inst	0x00080005 ; undefined
   8:	00000018 	udf	#24
   c:	00000060 	udf	#96
  10:	0000006d 	udf	#109
  14:	0000007a 	udf	#122
  18:	00000087 	udf	#135
  1c:	00000094 	udf	#148
  20:	000000a1 	udf	#161
  24:	000000ae 	udf	#174
  28:	000000ca 	udf	#202
  2c:	000000d7 	udf	#215
  30:	000000e4 	udf	#228
  34:	000000f1 	udf	#241
  38:	000000fe 	udf	#254
  3c:	0000010b 	udf	#267
  40:	00000118 	udf	#280
  44:	00000125 	udf	#293
  48:	00000132 	udf	#306
  4c:	0000013f 	udf	#319
  50:	0000014c 	udf	#332
  54:	00000159 	udf	#345
  58:	00000175 	udf	#373
  5c:	00000182 	udf	#386
  60:	0000018f 	udf	#399
  64:	0000019c 	udf	#412
  68:	000001ae 	udf	#430
  6c:	d4044101 	svc	#0x2208
  70:	0405a004 	.inst	0x0405a004 ; undefined
  74:	05d005a8 	mov	z8.d, p0/z, #45
  78:	04410100 	sub	z0.h, p0/m, z0.h, z8.h
  7c:	05a004d4 	zip2	z20.q, z6.q, z0.q
  80:	ac05a804 	stnp	q4, q10, [x0, #176]
  84:	41010005 	.inst	0x41010005 ; undefined
  88:	b405e804 	cbz	x4, bd88 <_binary_shell_bin_size-0x1005278>
  8c:	06bc0406 	.inst	0x06bc0406 ; undefined
  90:	010006e4 	.inst	0x010006e4 ; undefined
  94:	05e80441 	.inst	0x05e80441 ; undefined
  98:	bc0406b4 	str	s20, [x21], #64
  9c:	0006c006 	.inst	0x0006c006 ; undefined
  a0:	b8044101 	stur	w1, [x8, #68]
  a4:	0408e408 	msb	z8.b, p1/m, z8.b, z0.b
  a8:	0cbc08ec 	.inst	0x0cbc08ec ; undefined
  ac:	04410100 	sub	z0.h, p0/m, z0.h, z8.h
  b0:	08e408b8 	.inst	0x08e408b8 ; undefined
  b4:	bc08ec04 	str	s4, [x0, #142]!
  b8:	4101000c 	.inst	0x4101000c ; undefined
  bc:	9c109804 	ldr	q4, 213bc <_binary_shell_bin_size-0xfefc44>
  c0:	10a00410 	adr	x16, fffffffffff40140 <__free_ram_end+0xffffffffbccfa140>
  c4:	ac0410a4 	stnp	q4, q4, [x5, #128]
  c8:	0410b410 	.inst	0x0410b410 ; undefined
  cc:	10c010b8 	adr	x24, fffffffffff802e0 <__free_ram_end+0xffffffffbcd3a2e0>
  d0:	8c10d804 	.inst	0x8c10d804 ; undefined
  d4:	41010011 	.inst	0x41010011 ; undefined
  d8:	8c129804 	.inst	0x8c129804 ; undefined
  dc:	14fc0413 	b	3f01128 <_binary_shell_bin_size+0x2ef0128>
  e0:	01001598 	.inst	0x01001598 ; undefined
  e4:	12a80441 	mov	w1, #0xbfddffff            	// #-1075970049
  e8:	fc0412fc 	stur	d28, [x23, #65]
  ec:	00159814 	.inst	0x00159814 ; undefined
  f0:	a8044101 	stnp	x1, x16, [x8, #64]
  f4:	0412cc12 	mad	z18.b, p3/m, z18.b, z0.b
  f8:	159814fc 	b	66054e8 <_binary_shell_bin_size+0x55f44e8>
  fc:	04410100 	sub	z0.h, p0/m, z0.h, z8.h
 100:	13cc138c 	.inst	0x13cc138c ; undefined
 104:	d413d004 	.inst	0xd413d004 ; undefined
 108:	41010013 	.inst	0x41010013 ; undefined
 10c:	b813f404 	str	w4, [x0], #-193
 110:	15980414 	b	6601160 <_binary_shell_bin_size+0x55f0160>
 114:	010015b4 	.inst	0x010015b4 ; undefined
 118:	13f40441 	.inst	0x13f40441 ; undefined
 11c:	980414ac 	ldrsw	x12, 83b0 <_binary_shell_bin_size-0x1008c50>
 120:	0015b415 	.inst	0x0015b415 ; undefined
 124:	f4044101 	.inst	0xf4044101 ; undefined
 128:	04149813 	asrr	z19.b, p6/m, z19.b, z0.b
 12c:	15b41598 	b	6d0578c <_binary_shell_bin_size+0x5cf478c>
 130:	04410100 	sub	z0.h, p0/m, z0.h, z8.h
 134:	188817c8 	ldr	w8, fffffffffff1042c <__free_ram_end+0xffffffffbccca42c>
 138:	c81ac004 	stlxr	w26, x4, [x0]
 13c:	4101001a 	.inst	0x4101001a ; undefined
 140:	88188804 	stlxr	w24, w4, [x0]
 144:	19b40419 	.inst	0x19b40419 ; undefined
 148:	010019f4 	.inst	0x010019f4 ; undefined
 14c:	1bc40441 	.inst	0x1bc40441 ; undefined
 150:	d80423cc 	prfm	plil3keep, 85c8 <_binary_shell_bin_size-0x1008a38>
 154:	00288023 	.inst	0x00288023 ; NYI
 158:	c4044101 	ld1b	{z1.d}, p0/z, [x8, z4.d, uxtw]
 15c:	0422f01b 	sqincb	x27, w27, pow2, mul #3
 160:	288027dc 	stp	w28, w9, [x30], #0
 164:	04410100 	sub	z0.h, p0/m, z0.h, z8.h
 168:	22f822f0 	.inst	0x22f822f0 ; undefined
 16c:	8422fc04 	ldff1b	{z4.s}, p7/z, [z0.s, #2]
 170:	23880423 	.inst	0x23880423 ; undefined
 174:	94042390 	bl	108fb4 <_binary_shell_bin_size-0xf0804c>
 178:	04239c23 	.inst	0x04239c23 ; undefined
 17c:	23b823a0 	.inst	0x23b823a0 ; undefined
 180:	04410100 	sub	z0.h, p0/m, z0.h, z8.h
 184:	24d024c0 	.inst	0x24d024c0 ; undefined
 188:	d824d404 	prfm	pldl3keep, 49c08 <_binary_shell_bin_size-0xfc73f8>
 18c:	41010027 	.inst	0x41010027 ; undefined
 190:	d82f9c04 	prfm	pldl3keep, 5f510 <_binary_shell_bin_size-0xfb1af0>
 194:	2ff4042f 	.inst	0x2ff4042f ; undefined
 198:	01003084 	.inst	0x01003084 ; undefined
 19c:	38b80441 	.inst	0x38b80441 ; undefined
 1a0:	e8043bcc 	.inst	0xe8043bcc ; undefined
 1a4:	003c883b 	.inst	0x003c883b ; NYI
 1a8:	b8044101 	stur	w1, [x8, #68]
 1ac:	04398838 	.inst	0x04398838 ; undefined
 1b0:	3bcc398c 	.inst	0x3bcc398c ; undefined
 1b4:	883be804 	stlxp	w27, w4, w26, [x0]
 1b8:	4103003c 	.inst	0x4103003c ; undefined
 1bc:	80033e90 	.inst	0x80033e90 ; undefined
 1c0:	44001802 	.inst	0x44001802 ; undefined
 1c4:	05000000 	orr	z0.s, z0.s, #0x1
 1c8:	04000800 	add	z0.b, p2/m, z0.b, z0.b
 1cc:	10000000 	adr	x0, 1cc <_binary_shell_bin_size-0x1010e34>
 1d0:	1b000000 	madd	w0, w0, w0, w0
 1d4:	26000000 	.inst	0x26000000 ; undefined
 1d8:	31000000 	adds	w0, w0, #0x0
 1dc:	04000000 	add	z0.b, p0/m, z0.b, z0.b
 1e0:	05a404f8 	zip2	z24.q, z7.q, z4.q
 1e4:	e405fc04 	st1b	{z4.b}, p7, [x0, #5, mul vl]
 1e8:	b4040006 	cbz	x6, 81e8 <_binary_shell_bin_size-0x1008e18>
 1ec:	0405d805 	mad	z5.b, p6/m, z5.b, z0.b
 1f0:	07d00790 	.inst	0x07d00790 ; undefined
 1f4:	07ac0400 	.inst	0x07ac0400 ; undefined
 1f8:	c80407bc 	stxr	w4, x28, [x29]
 1fc:	0007d007 	.inst	0x0007d007 ; undefined
 200:	fc05d804 	.inst	0xfc05d804 ; undefined
 204:	06e40405 	.inst	0x06e40405 ; undefined
 208:	Address 0x208 is out of bounds.


Disassembly of section .debug_str_offsets:

0000000000000000 <.debug_str_offsets>:
   0:	00000374 	udf	#884
   4:	00000005 	udf	#5
   8:	000002a2 	udf	#674
   c:	0000003e 	udf	#62
  10:	00000079 	udf	#121
  14:	000003f2 	udf	#1010
  18:	000005d7 	udf	#1495
  1c:	0000014b 	udf	#331
  20:	00000000 	udf	#0
  24:	0000050a 	udf	#1290
  28:	00000180 	udf	#384
  2c:	00000742 	udf	#1858
  30:	000003f7 	udf	#1015
  34:	000003fb 	udf	#1019
  38:	0000020a 	udf	#522
  3c:	0000043c 	udf	#1084
  40:	000005eb 	udf	#1515
  44:	0000047c 	udf	#1148
  48:	00000487 	udf	#1159
  4c:	000003c7 	udf	#967
  50:	00000653 	udf	#1619
  54:	00000188 	udf	#392
  58:	000007b3 	udf	#1971
  5c:	000007e2 	udf	#2018
  60:	00000347 	udf	#839
  64:	000002c9 	udf	#713
  68:	000002d3 	udf	#723
  6c:	00000354 	udf	#852
  70:	000001ba 	udf	#442
  74:	000005f3 	udf	#1523
  78:	000006dc 	udf	#1756
  7c:	00000776 	udf	#1910
  80:	00000513 	udf	#1299
  84:	0000035b 	udf	#859
  88:	000001f3 	udf	#499
  8c:	0000077b 	udf	#1915
  90:	0000048d 	udf	#1165
  94:	00000364 	udf	#868
  98:	000001bf 	udf	#447
  9c:	000000f1 	udf	#241
  a0:	00000047 	udf	#71
  a4:	0000065b 	udf	#1627
  a8:	00000013 	udf	#19
  ac:	00000096 	udf	#150
  b0:	0000059e 	udf	#1438
  b4:	000003ff 	udf	#1023
  b8:	000006e1 	udf	#1761
  bc:	000000f6 	udf	#246
  c0:	00000268 	udf	#616
  c4:	000006e7 	udf	#1767
  c8:	0000040a 	udf	#1034
  cc:	000007e9 	udf	#2025
  d0:	00000412 	udf	#1042
  d4:	00000300 	udf	#768
  d8:	000006f3 	udf	#1779
  dc:	00000520 	udf	#1312
  e0:	00000247 	udf	#583
  e4:	0000052c 	udf	#1324
  e8:	0000026d 	udf	#621
  ec:	000001c5 	udf	#453
  f0:	00000661 	udf	#1633
  f4:	00000373 	udf	#883
  f8:	00000748 	udf	#1864
  fc:	000002d9 	udf	#729
 100:	00000780 	udf	#1920
 104:	0000009f 	udf	#159
 108:	00000666 	udf	#1638
 10c:	0000004b 	udf	#75
 110:	0000078f 	udf	#1935
 114:	0000043f 	udf	#1087
 118:	000000ad 	udf	#173
 11c:	000002e0 	udf	#736
 120:	00000310 	udf	#784
 124:	00000492 	udf	#1170
 128:	000000fc 	udf	#252
 12c:	000003d5 	udf	#981
 130:	00000102 	udf	#258
 134:	000004d0 	udf	#1232
 138:	00000210 	udf	#528
 13c:	00000108 	udf	#264
 140:	00000673 	udf	#1651
 144:	0000053c 	udf	#1340
 148:	00000111 	udf	#273
 14c:	000005a3 	udf	#1443
 150:	000007ee 	udf	#2030
 154:	00000547 	udf	#1351
 158:	000004d6 	udf	#1238
 15c:	00000219 	udf	#537
 160:	00000252 	udf	#594
 164:	0000011c 	udf	#284
 168:	00000156 	udf	#342
 16c:	000002e6 	udf	#742
 170:	0000074f 	udf	#1871
 174:	00000415 	udf	#1045
 178:	000001fa 	udf	#506
 17c:	00000159 	udf	#345
 180:	0000054a 	udf	#1354
 184:	000007f1 	udf	#2033
 188:	0000021e 	udf	#542
 18c:	000005f8 	udf	#1528
 190:	000005a6 	udf	#1446
 194:	000005ff 	udf	#1535
 198:	000001cd 	udf	#461
 19c:	000002ea 	udf	#746
 1a0:	00000022 	udf	#34
 1a4:	0000067a 	udf	#1658
 1a8:	00000706 	udf	#1798
 1ac:	0000037c 	udf	#892
 1b0:	00000454 	udf	#1108
 1b4:	0000041c 	udf	#1052
 1b8:	0000070d 	udf	#1805
 1bc:	00000319 	udf	#793
 1c0:	00000550 	udf	#1360
 1c4:	00000050 	udf	#80
 1c8:	00000225 	udf	#549
 1cc:	00000121 	udf	#289
 1d0:	0000060b 	udf	#1547
 1d4:	0000015b 	udf	#347
 1d8:	000005ae 	udf	#1454
 1dc:	000003b8 	udf	#952
 1e0:	000004d9 	udf	#1241
 1e4:	0000038f 	udf	#911
 1e8:	0000045a 	udf	#1114
 1ec:	00000190 	udf	#400
 1f0:	0000068c 	udf	#1676
 1f4:	000003dd 	udf	#989
 1f8:	0000039e 	udf	#926
 1fc:	000000b1 	udf	#177
 200:	000005c1 	udf	#1473
 204:	00000611 	udf	#1553
 208:	00000554 	udf	#1364
 20c:	00000692 	udf	#1682
 210:	00000443 	udf	#1091
 214:	0000061b 	udf	#1563
 218:	0000031d 	udf	#797
 21c:	0000019b 	udf	#411
 220:	0000049b 	udf	#1179
 224:	000007f9 	udf	#2041
 228:	00000807 	udf	#2055
 22c:	000001d3 	udf	#467
 230:	00000052 	udf	#82
 234:	00000257 	udf	#599
 238:	00000235 	udf	#565
 23c:	0000069b 	udf	#1691
 240:	000006a1 	udf	#1697
 244:	000006aa 	udf	#1706
 248:	00000328 	udf	#808
 24c:	00000794 	udf	#1940
 250:	000003ab 	udf	#939
 254:	000004a6 	udf	#1190
 258:	000007ba 	udf	#1978
 25c:	00000563 	udf	#1379
 260:	000004e2 	udf	#1250
 264:	0000025c 	udf	#604
 268:	0000044f 	udf	#1103
 26c:	000007c3 	udf	#1987
 270:	00000460 	udf	#1120
 274:	00000756 	udf	#1878
 278:	000004f2 	udf	#1266
 27c:	00000635 	udf	#1589
 280:	000003b4 	udf	#948
 284:	00000331 	udf	#817
 288:	0000012c 	udf	#300
 28c:	0000027a 	udf	#634
 290:	000000bc 	udf	#188
 294:	000004af 	udf	#1199
 298:	00000336 	udf	#822
 29c:	00000468 	udf	#1128
 2a0:	00000136 	udf	#310
 2a4:	0000028a 	udf	#650
 2a8:	000001db 	udf	#475
 2ac:	0000079d 	udf	#1949
 2b0:	00000431 	udf	#1073
 2b4:	000007cd 	udf	#1997
 2b8:	0000042e 	udf	#1070
 2bc:	00000817 	udf	#2071
 2c0:	000000c9 	udf	#201
 2c4:	000007a0 	udf	#1952
 2c8:	000006b4 	udf	#1716
 2cc:	0000023e 	udf	#574
 2d0:	000004b9 	udf	#1209
 2d4:	0000005e 	udf	#94
 2d8:	0000033f 	udf	#831
 2dc:	000006b8 	udf	#1720
 2e0:	0000016e 	udf	#366
 2e4:	00000206 	udf	#518
 2e8:	00000343 	udf	#835
 2ec:	000002f1 	udf	#753
 2f0:	000001de 	udf	#478
 2f4:	000003ea 	udf	#1002
 2f8:	000000cc 	udf	#204
 2fc:	000004bd 	udf	#1213
 300:	0000028d 	udf	#653
 304:	00000062 	udf	#98
 308:	000000d0 	udf	#208
 30c:	000006fe 	udf	#1790
 310:	00000066 	udf	#102
 314:	000003ee 	udf	#1006
 318:	00000172 	udf	#370
 31c:	00000715 	udf	#1813
 320:	000000d4 	udf	#212
 324:	0000006a 	udf	#106
 328:	000004c1 	udf	#1217
 32c:	0000071a 	udf	#1818
 330:	000001e2 	udf	#482
 334:	0000081a 	udf	#2074
 338:	000000d8 	udf	#216
 33c:	00000176 	udf	#374
 340:	000004c9 	udf	#1225
 344:	00000760 	udf	#1888
 348:	00000827 	udf	#2087
 34c:	00000764 	udf	#1892
 350:	00000640 	udf	#1600
 354:	000005d0 	udf	#1488
 358:	000001e6 	udf	#486
 35c:	00000644 	udf	#1604
 360:	0000017d 	udf	#381
 364:	000006bc 	udf	#1724
 368:	000002f5 	udf	#757
 36c:	000004f8 	udf	#1272
 370:	0000056c 	udf	#1388
 374:	00000574 	udf	#1396
 378:	000000b4 	udf	#180
 37c:	00000005 	udf	#5
 380:	000002a2 	udf	#674
 384:	000001ea 	udf	#490
 388:	00000079 	udf	#121
 38c:	000003f2 	udf	#1010
 390:	000005d7 	udf	#1495
 394:	000003c7 	udf	#967
 398:	00000653 	udf	#1619
 39c:	000007f1 	udf	#2033
 3a0:	0000021e 	udf	#542
 3a4:	00000415 	udf	#1045
 3a8:	000002ea 	udf	#746
 3ac:	000005f8 	udf	#1528
 3b0:	000003fb 	udf	#1019
 3b4:	0000074f 	udf	#1871
 3b8:	00000075 	udf	#117
 3bc:	000003c3 	udf	#963
 3c0:	000006c8 	udf	#1736
 3c4:	00000261 	udf	#609
 3c8:	00000159 	udf	#345
 3cc:	00000513 	udf	#1299
 3d0:	0000035b 	udf	#859
 3d4:	000001f3 	udf	#499
 3d8:	000001e2 	udf	#482
 3dc:	00000242 	udf	#578
 3e0:	00000139 	udf	#313
 3e4:	00000244 	udf	#580
 3e8:	0000057d 	udf	#1405
 3ec:	0000082a 	udf	#2090
 3f0:	00000434 	udf	#1076
 3f4:	00000723 	udf	#1827
 3f8:	00000501 	udf	#1281
 3fc:	00000830 	udf	#2096
 400:	00000034 	udf	#52
 404:	000000df 	udf	#223
 408:	000006ca 	udf	#1738
 40c:	0000076a 	udf	#1898
 410:	00000291 	udf	#657
 414:	00000454 	udf	#1108
 418:	0000076e 	udf	#1902
 41c:	00000050 	udf	#80
 420:	000000e9 	udf	#233
 424:	00000000 	udf	#0
 428:	00000702 	udf	#1794
 42c:	0000029b 	udf	#667
 430:	0000005c 	udf	#92
 434:	00000005 	udf	#5
 438:	000002a2 	udf	#674
 43c:	0000072c 	udf	#1836
 440:	00000079 	udf	#121
 444:	000003f2 	udf	#1010
 448:	000005d7 	udf	#1495
 44c:	0000074f 	udf	#1871
 450:	00000022 	udf	#34
 454:	000007a3 	udf	#1955
 458:	00000580 	udf	#1408
 45c:	0000058f 	udf	#1423
 460:	0000046a 	udf	#1130
 464:	0000013b 	udf	#315
 468:	000001ab 	udf	#427
 46c:	00000733 	udf	#1843
 470:	000007d0 	udf	#2000
 474:	00000760 	udf	#1888
 478:	00000000 	udf	#0
 47c:	0000050a 	udf	#1290
 480:	00000640 	udf	#1600
 484:	00000827 	udf	#2087
 488:	00000263 	udf	#611
 48c:	000001e6 	udf	#486

Disassembly of section .debug_str:

0000000000000000 <.debug_str>:
   0:	69736e75 	ldpsw	x21, x27, [x19, #-104]
   4:	64656e67 	.inst	0x64656e67 ; undefined
   8:	6e6f6c20 	umin	v0.8h, v1.8h, v15.8h
   c:	6f6c2067 	umlal2	v7.4s, v3.8h, v12.h[2]
  10:	7500676e 	.inst	0x7500676e ; undefined
  14:	6769736e 	.inst	0x6769736e ; undefined
  18:	2064656e 	.inst	0x2064656e ; undefined
  1c:	726f6873 	.inst	0x726f6873 ; undefined
  20:	61680074 	.inst	0x61680074 ; undefined
  24:	656c646e 	fnmls	z14.h, p1/m, z3.h, z12.h
  28:	7461645f 	.inst	0x7461645f ; undefined
  2c:	62615f61 	.inst	0x62615f61 ; undefined
  30:	0074726f 	.inst	0x0074726f ; undefined
  34:	72765f5f 	.inst	0x72765f5f ; undefined
  38:	66666f5f 	.inst	0x66666f5f ; undefined
  3c:	656b0073 	fmla	z19.h, p0/m, z3.h, z11.h
  40:	6c656e72 	ldnp	d18, d27, [x19, #-432]
  44:	6c00632e 	stnp	d14, d24, [x25]
  48:	6c006e65 	stnp	d5, d27, [x19]
  4c:	00676e6f 	.inst	0x00676e6f ; undefined
  50:	656b0069 	fmla	z9.h, p0/m, z3.h, z11.h
  54:	6c656e72 	ldnp	d18, d27, [x19, #-432]
  58:	69616d5f 	ldpsw	xzr, x27, [x10, #-248]
  5c:	3158006e 	adds	w14, w3, #0x600, lsl #12
  60:	32580033 	.inst	0x32580033 ; undefined
  64:	32580035 	.inst	0x32580035 ; undefined
  68:	72740038 	.inst	0x72740038 ; undefined
  6c:	665f7061 	.inst	0x665f7061 ; undefined
  70:	656d6172 	fnmls	z18.h, p0/m, z11.h, z13.h
  74:	74736400 	.inst	0x74736400 ; undefined
  78:	6f682f00 	.inst	0x6f682f00 ; undefined
  7c:	722f656d 	ands	w13, w11, #0xfffe07ff
  80:	7469686f 	.inst	0x7469686f ; undefined
  84:	75662f68 	.inst	0x75662f68 ; undefined
  88:	694d2f6e 	ldpsw	x14, x11, [x27, #104]
  8c:	4f2d696e 	.inst	0x4f2d696e ; undefined
  90:	65642d53 	fmls	z19.h, p3/m, z10.h, z4.h
  94:	69750076 	ldpsw	x22, x0, [x3, #-88]
  98:	3631746e 	tbz	w14, #6, 2f24 <_binary_shell_bin_size-0x100e0dc>
  9c:	6200745f 	.inst	0x6200745f ; undefined
  a0:	725f6b6c 	.inst	0x725f6b6c ; undefined
  a4:	705f7165 	adr	x5, beed3 <_binary_shell_bin_size-0xf5212d>
  a8:	72646461 	.inst	0x72646461 ; undefined
  ac:	64696700 	.inst	0x64696700 ; undefined
  b0:	65737500 	fnmls	z0.h, p5/m, z8.h, z19.h
  b4:	6e655f72 	uqrshl	v18.8h, v27.8h, v5.8h
  b8:	00797274 	.inst	0x00797274 ; undefined
  bc:	63617473 	.inst	0x63617473 ; undefined
  c0:	6f625f6b 	.inst	0x6f625f6b ; undefined
  c4:	6d6f7474 	ldp	d20, d29, [x3, #-272]
  c8:	00385800 	.inst	0x00385800 ; NYI
  cc:	00323258 	.inst	0x00323258 ; NYI
  d0:	00363258 	.inst	0x00363258 ; NYI
  d4:	00726c65 	.inst	0x00726c65 ; undefined
  d8:	656c6966 	fnmls	z6.h, p2/m, z11.h, z12.h
  dc:	5f00695f 	.inst	0x5f00695f ; undefined
  e0:	5f61765f 	sqshl	d31, d18, #33
  e4:	7473696c 	.inst	0x7473696c ; undefined
  e8:	61747300 	.inst	0x61747300 ; undefined
  ec:	64657472 	.inst	0x64657472 ; undefined
  f0:	64646100 	.inst	0x64646100 ; undefined
  f4:	6e690072 	uaddl2	v18.4s, v3.8h, v9.8h
  f8:	00786564 	.inst	0x00786564 ; undefined
  fc:	6967616d 	ldpsw	x13, x24, [x11, #-200]
 100:	6e750063 	uaddl2	v3.4s, v3.8h, v21.8h
 104:	00656d61 	.inst	0x00656d61 ; undefined
 108:	6d766564 	ldp	d4, d25, [x11, #-160]
 10c:	726f6e69 	.inst	0x726f6e69 ; undefined
 110:	6f627500 	uqshl	v0.2d, v8.2d, #34
 114:	635f746f 	.inst	0x635f746f ; undefined
 118:	006c6c61 	.inst	0x006c6c61 ; undefined
 11c:	30785f72 	adr	x18, f0d09 <_binary_shell_bin_size-0xf202f7>
 120:	72756300 	.inst	0x72756300 ; undefined
 124:	746e6572 	.inst	0x746e6572 ; undefined
 128:	006c655f 	.inst	0x006c655f ; undefined
 12c:	79706f63 	ldrh	w3, [x27, #6198]
 130:	7a69735f 	.inst	0x7a69735f ; undefined
 134:	30580065 	adr	x5, b0141 <_binary_shell_bin_size-0xf60ebf>
 138:	68007000 	.inst	0x68007000 ; undefined
 13c:	6c646e61 	ldnp	d1, d27, [x19, #-448]
 140:	79735f65 	ldrh	w5, [x27, #6574]
 144:	655f636e 	fcmeq	p14.h, p0/z, z27.h, z31.h
 148:	6e00326c 	ext	v12.16b, v19.16b, v0.16b, #6
 14c:	5f747865 	sqdmlsl	s5, h3, v4.h[7]
 150:	64646170 	.inst	0x64646170 ; undefined
 154:	31780072 	adds	w18, w3, #0xe00, lsl #12
 158:	44006e00 	.inst	0x44006e00 ; undefined
 15c:	54415f57 	bc.vc	82d44 <_binary_shell_bin_size-0xf8e2bc>
 160:	6e755f45 	uqrshl	v5.8h, v26.8h, v21.8h
 164:	6e676973 	.inst	0x6e676973 ; undefined
 168:	315f6465 	adds	w5, w3, #0x7d9, lsl #12
 16c:	31580036 	adds	w22, w1, #0x600, lsl #12
 170:	33580036 	.inst	0x33580036 ; undefined
 174:	69660030 	ldpsw	x16, x0, [x1, #-208]
 178:	7a73656c 	.inst	0x7a73656c ; undefined
 17c:	00717600 	.inst	0x00717600 ; undefined
 180:	64646170 	.inst	0x64646170 ; undefined
 184:	00745f72 	.inst	0x00745f72 ; undefined
 188:	636f7270 	.inst	0x636f7270 ; undefined
 18c:	00737365 	.inst	0x00737365 ; undefined
 190:	5f756d6d 	.inst	0x5f756d6d ; undefined
 194:	62616e65 	.inst	0x62616e65 ; undefined
 198:	7600656c 	.inst	0x7600656c ; undefined
 19c:	69747269 	ldpsw	x9, x28, [x19, #-96]
 1a0:	6c625f6f 	ldnp	d15, d23, [x27, #-480]
 1a4:	6e695f6b 	uqrshl	v11.8h, v27.8h, v9.8h
 1a8:	68007469 	.inst	0x68007469 ; undefined
 1ac:	6c646e61 	ldnp	d1, d27, [x19, #-448]
 1b0:	72695f65 	.inst	0x72695f65 ; undefined
 1b4:	6c655f71 	ldnp	d17, d23, [x27, #-432]
 1b8:	6f620032 	mla	v18.8h, v1.8h, v2.h[2]
 1bc:	64006c6f 	.inst	0x64006c6f ; undefined
 1c0:	73637365 	.inst	0x73637365 ; undefined
 1c4:	6b6c6200 	.inst	0x6b6c6200 ; undefined
 1c8:	7165725f 	cmp	w18, #0x95c, lsl #12
 1cc:	72617000 	.inst	0x72617000 ; undefined
 1d0:	66006d61 	.inst	0x66006d61 ; undefined
 1d4:	6e695f73 	uqrshl	v19.8h, v27.8h, v9.8h
 1d8:	58007469 	ldr	x9, 1064 <_binary_shell_bin_size-0x100ff9c>
 1dc:	32580032 	.inst	0x32580032 ; undefined
 1e0:	75620030 	.inst	0x75620030 ; undefined
 1e4:	73690066 	.inst	0x73690066 ; undefined
 1e8:	6f630073 	mla	v19.8h, v3.8h, v3.h[2]
 1ec:	6e6f6d6d 	umin	v13.8h, v11.8h, v15.8h
 1f0:	7300632e 	.inst	0x7300632e ; undefined
 1f4:	5f657a69 	sqdmlsl	s9, h19, v5.h[6]
 1f8:	6c610074 	ldnp	d20, d0, [x3, #-496]
 1fc:	5f636f6c 	.inst	0x5f636f6c ; undefined
 200:	65676170 	fnmls	z16.h, p0/m, z11.h, z7.h
 204:	31580073 	adds	w19, w3, #0x600, lsl #12
 208:	74730037 	.inst	0x74730037 ; undefined
 20c:	00657461 	.inst	0x00657461 ; undefined
 210:	6d766564 	ldp	d4, d25, [x11, #-160]
 214:	726f6a61 	.inst	0x726f6a61 ; undefined
 218:	785f7200 	ldurh	w0, [x16, #-9]
 21c:	656d0037 	fmla	z23.h, p0/m, z1.h, z13.h
 220:	7970636d 	ldrh	w13, [x27, #6192]
 224:	696e6900 	ldpsw	x0, x26, [x8, #-144]
 228:	78655f74 	.inst	0x78655f74 ; undefined
 22c:	74706563 	.inst	0x74706563 ; undefined
 230:	736e6f69 	.inst	0x736e6f69 ; undefined
 234:	5f306c00 	.inst	0x5f306c00 ; undefined
 238:	6c626174 	ldnp	d20, d24, [x11, #-480]
 23c:	31580065 	adds	w5, w3, #0x600, lsl #12
 240:	00630031 	.inst	0x00630031 ; undefined
 244:	6e003173 	ext	v19.16b, v11.16b, v0.16b, #6
 248:	5f747865 	sqdmlsl	s5, h3, v4.h[7]
 24c:	69617661 	ldpsw	x1, x29, [x19, #-248]
 250:	5f72006c 	.inst	0x5f72006c ; undefined
 254:	62003278 	.inst	0x62003278 ; undefined
 258:	00746f6f 	.inst	0x00746f6f ; undefined
 25c:	636f7270 	.inst	0x636f7270 ; undefined
 260:	64007300 	.inst	0x64007300 ; undefined
 264:	00637366 	.inst	0x00637366 ; undefined
 268:	676e6972 	.inst	0x676e6972 ; undefined
 26c:	72697600 	.inst	0x72697600 ; undefined
 270:	5f6f6974 	.inst	0x5f6f6974 ; undefined
 274:	74726976 	.inst	0x74726976 ; undefined
 278:	78650071 	ldaddlh	w5, w17, [x3]
 27c:	74706563 	.inst	0x74706563 ; undefined
 280:	5f6e6f69 	.inst	0x5f6e6f69 ; undefined
 284:	63617473 	.inst	0x63617473 ; undefined
 288:	3158006b 	adds	w11, w3, #0x600, lsl #12
 28c:	34325800 	cbz	w0, 64d8c <_binary_shell_bin_size-0xfac274>
 290:	67616d00 	.inst	0x67616d00 ; undefined
 294:	7574696e 	.inst	0x7574696e ; undefined
 298:	6e006564 	.inst	0x6e006564 ; undefined
 29c:	6c626269 	ldnp	d9, d24, [x19, #-480]
 2a0:	62550065 	.inst	0x62550065 ; undefined
 2a4:	75746e75 	.inst	0x75746e75 ; undefined
 2a8:	616c6320 	.inst	0x616c6320 ; undefined
 2ac:	7620676e 	.inst	0x7620676e ; undefined
 2b0:	69737265 	ldpsw	x5, x28, [x19, #-104]
 2b4:	31206e6f 	adds	w15, w19, #0x81b
 2b8:	2e312e38 	uqsub	v24.8b, v17.8b, v17.8b
 2bc:	31282033 	adds	w19, w1, #0xa08
 2c0:	6e756275 	rsubhn2	v21.8h, v19.4s, v21.4s
 2c4:	29317574 	stp	w20, w29, [x11, #-120]
 2c8:	6c646900 	ldnp	d0, d26, [x8, #-448]
 2cc:	72705f65 	.inst	0x72705f65 ; undefined
 2d0:	6600636f 	.inst	0x6600636f ; undefined
 2d4:	73656c69 	.inst	0x73656c69 ; undefined
 2d8:	61747300 	.inst	0x61747300 ; undefined
 2dc:	00737574 	.inst	0x00737574 ; undefined
 2e0:	6d69746d 	ldp	d13, d29, [x3, #-368]
 2e4:	65720065 	fmla	z5.h, p0/m, z3.h, z18.h
 2e8:	74730074 	.inst	0x74730074 ; undefined
 2ec:	79706372 	ldrh	w18, [x27, #6192]
 2f0:	39315800 	strb	w0, [x0, #3158]
 2f4:	73656400 	.inst	0x73656400 ; undefined
 2f8:	6e695f63 	uqrshl	v3.8h, v27.8h, v9.8h
 2fc:	00786564 	.inst	0x00786564 ; undefined
 300:	74726976 	.inst	0x74726976 ; undefined
 304:	73755f71 	.inst	0x73755f71 ; undefined
 308:	655f6465 	fcmeq	p5.h, p1/z, z3.h, z31.h
 30c:	006d656c 	.inst	0x006d656c ; undefined
 310:	63656863 	.inst	0x63656863 ; undefined
 314:	6d75736b 	ldp	d11, d28, [x27, #-176]
 318:	74636f00 	.inst	0x74636f00 ; undefined
 31c:	72697600 	.inst	0x72697600 ; undefined
 320:	695f7174 	ldpsw	x20, x28, [x11, #248]
 324:	0074696e 	.inst	0x0074696e ; undefined
 328:	745f316c 	.inst	0x745f316c ; undefined
 32c:	656c6261 	fnmls	z1.h, p0/m, z19.h, z12.h
 330:	67617000 	.inst	0x67617000 ; undefined
 334:	69660065 	ldpsw	x5, x0, [x3, #-208]
 338:	616e656c 	.inst	0x616e656c ; undefined
 33c:	5800656d 	ldr	x13, fe8 <_binary_shell_bin_size-0x1010018>
 340:	58003431 	ldr	x17, 9c4 <_binary_shell_bin_size-0x101063c>
 344:	63003831 	.inst	0x63003831 ; undefined
 348:	65727275 	fnmls	z21.h, p4/m, z19.h, z18.h
 34c:	705f746e 	adr	x14, bf1db <_binary_shell_bin_size-0xf51e25>
 350:	00636f72 	.inst	0x00636f72 ; undefined
 354:	755f6e69 	.inst	0x755f6e69 ; undefined
 358:	75006573 	.inst	0x75006573 ; undefined
 35c:	33746e69 	.inst	0x33746e69 ; undefined
 360:	00745f32 	.inst	0x00745f32 ; undefined
 364:	5f6b6c62 	.inst	0x5f6b6c62 ; undefined
 368:	75716572 	.inst	0x75716572 ; undefined
 36c:	5f747365 	sqdmlsl	s5, h27, v4.h[3]
 370:	72007176 	ands	w22, w11, #0x1fffffff
 374:	72657365 	.inst	0x72657365 ; undefined
 378:	00646576 	.inst	0x00646576 ; undefined
 37c:	74726976 	.inst	0x74726976 ; undefined
 380:	725f6f69 	.inst	0x725f6f69 ; undefined
 384:	775f6765 	.inst	0x775f6765 ; undefined
 388:	65746972 	fnmls	z18.h, p2/m, z11.h, z20.h
 38c:	73003233 	.inst	0x73003233 ; undefined
 390:	63746977 	.inst	0x63746977 ; undefined
 394:	6f635f68 	.inst	0x6f635f68 ; undefined
 398:	7865746e 	.inst	0x7865746e ; undefined
 39c:	72700074 	.inst	0x72700074 ; undefined
 3a0:	625f636f 	.inst	0x625f636f ; undefined
 3a4:	746e655f 	.inst	0x746e655f ; undefined
 3a8:	6c007972 	stnp	d18, d30, [x11]
 3ac:	61745f32 	.inst	0x61745f32 ; undefined
 3b0:	00656c62 	.inst	0x00656c62 ; undefined
 3b4:	0066666f 	.inst	0x0066666f ; undefined
 3b8:	75746573 	.inst	0x75746573 ; undefined
 3bc:	65765f70 	fnmla	z16.h, p7/m, z27.h, z22.h
 3c0:	73007463 	.inst	0x73007463 ; undefined
 3c4:	75006372 	.inst	0x75006372 ; undefined
 3c8:	6769736e 	.inst	0x6769736e ; undefined
 3cc:	2064656e 	.inst	0x2064656e ; undefined
 3d0:	72616863 	.inst	0x72616863 ; undefined
 3d4:	72657600 	.inst	0x72657600 ; undefined
 3d8:	6e6f6973 	.inst	0x6e6f6973 ; undefined
 3dc:	6f727000 	fcmla	v0.8h, v0.8h, v18.h[1], #270
 3e0:	5f615f63 	.inst	0x5f615f63 ; undefined
 3e4:	72746e65 	.inst	0x72746e65 ; undefined
 3e8:	32580079 	.inst	0x32580079 ; undefined
 3ec:	32580031 	.inst	0x32580031 ; undefined
 3f0:	68630039 	.inst	0x68630039 ; undefined
 3f4:	70007261 	adr	x1, 1243 <_binary_shell_bin_size-0x100fdbd>
 3f8:	69006469 	stgp	x9, x25, [x3]
 3fc:	7600746e 	.inst	0x7600746e ; undefined
 400:	71747269 	subs	w9, w19, #0xd1c, lsl #12
 404:	7365645f 	.inst	0x7365645f ; undefined
 408:	61700063 	.inst	0x61700063 ; undefined
 40c:	6e696464 	umax	v4.8h, v3.8h, v9.8h
 410:	64690067 	fmla	z7.h, z3.h, z1.h[5]
 414:	6d656d00 	ldp	d0, d27, [x8, #-432]
 418:	00746573 	.inst	0x00746573 ; undefined
 41c:	74726976 	.inst	0x74726976 ; undefined
 420:	725f6f69 	.inst	0x725f6f69 ; undefined
 424:	725f6765 	.inst	0x725f6765 ; undefined
 428:	36646165 	tbz	w5, #12, ffffffffffff9054 <__free_ram_end+0xffffffffbcdb3054>
 42c:	36580034 	tbz	w20, #11, 430 <_binary_shell_bin_size-0x1010bd0>
 430:	00345800 	.inst	0x00345800 ; NYI
 434:	74735f5f 	.inst	0x74735f5f ; undefined
 438:	006b6361 	.inst	0x006b6361 ; undefined
 43c:	75007073 	.inst	0x75007073 ; undefined
 440:	68006469 	.inst	0x68006469 ; undefined
 444:	6c646e61 	ldnp	d1, d27, [x19, #-448]
 448:	72745f65 	.inst	0x72745f65 ; undefined
 44c:	70007061 	adr	x1, 125b <_binary_shell_bin_size-0x100fda5>
 450:	00766572 	.inst	0x00766572 ; undefined
 454:	756c6176 	.inst	0x756c6176 ; undefined
 458:	65640065 	fmla	z5.h, p0/m, z3.h, z4.h
 45c:	0079616c 	.inst	0x0079616c ; undefined
 460:	7478656e 	.inst	0x7478656e ; undefined
 464:	0070735f 	.inst	0x0070735f ; undefined
 468:	61680066 	.inst	0x61680066 ; undefined
 46c:	656c646e 	fnmls	z14.h, p1/m, z3.h, z12.h
 470:	7265735f 	.inst	0x7265735f ; undefined
 474:	5f726f72 	.inst	0x5f726f72 ; undefined
 478:	00316c65 	.inst	0x00316c65 ; NYI
 47c:	65676170 	fnmls	z16.h, p0/m, z11.h, z7.h
 480:	6261745f 	.inst	0x6261745f ; undefined
 484:	7300656c 	.inst	0x7300656c ; undefined
 488:	6b636174 	.inst	0x6b636174 ; undefined
 48c:	73696400 	.inst	0x73696400 ; undefined
 490:	696c006b 	ldpsw	x11, x0, [x3, #-160]
 494:	616e6b6e 	.inst	0x616e6b6e ; undefined
 498:	7600656d 	.inst	0x7600656d ; undefined
 49c:	71747269 	subs	w9, w19, #0xd1c, lsl #12
 4a0:	63696b5f 	.inst	0x63696b5f ; undefined
 4a4:	326c006b 	.inst	0x326c006b ; undefined
 4a8:	646e695f 	.inst	0x646e695f ; undefined
 4ac:	72007865 	ands	w5, w3, #0x7fffffff
 4b0:	69616d65 	ldpsw	x5, x27, [x11, #-248]
 4b4:	676e696e 	.inst	0x676e696e ; undefined
 4b8:	32315800 	orr	w0, w0, #0xffff803f
 4bc:	33325800 	.inst	0x33325800 ; undefined
 4c0:	73797300 	.inst	0x73797300 ; undefined
 4c4:	6c6c6163 	ldnp	d3, d24, [x11, #-320]
 4c8:	61656800 	.inst	0x61656800 ; undefined
 4cc:	00726564 	.inst	0x00726564 ; undefined
 4d0:	6d616e67 	ldp	d7, d27, [x19, #-496]
 4d4:	37780065 	tbnz	w5, #15, 4e0 <_binary_shell_bin_size-0x1010b20>
 4d8:	70616d00 	adr	x0, c327b <_binary_shell_bin_size-0xf4dd85>
 4dc:	6761705f 	.inst	0x6761705f ; undefined
 4e0:	61700065 	.inst	0x61700065 ; undefined
 4e4:	745f6567 	.inst	0x745f6567 ; undefined
 4e8:	656c6261 	fnmls	z1.h, p0/m, z19.h, z12.h
 4ec:	7968705f 	ldrh	wzr, [x2, #5176]
 4f0:	6d690073 	ldp	d19, d0, [x3, #-368]
 4f4:	00656761 	.inst	0x00656761 ; undefined
 4f8:	775f7369 	.inst	0x775f7369 ; undefined
 4fc:	65746972 	fnmls	z18.h, p2/m, z11.h, z20.h
 500:	765f5f00 	.inst	0x765f5f00 ; undefined
 504:	6f745f72 	.inst	0x6f745f72 ; undefined
 508:	69750070 	ldpsw	x16, x0, [x3, #-88]
 50c:	3436746e 	cbz	w14, 6d398 <_binary_shell_bin_size-0xfa3c68>
 510:	7500745f 	.inst	0x7500745f ; undefined
 514:	6769736e 	.inst	0x6769736e ; undefined
 518:	2064656e 	.inst	0x2064656e ; undefined
 51c:	00746e69 	.inst	0x00746e69 ; undefined
 520:	75657571 	.inst	0x75657571 ; undefined
 524:	6e695f65 	uqrshl	v5.8h, v27.8h, v9.8h
 528:	00786564 	.inst	0x00786564 ; undefined
 52c:	7473616c 	.inst	0x7473616c ; undefined
 530:	6573755f 	fnmls	z31.h, p5/m, z10.h, z19.h
 534:	6e695f64 	uqrshl	v4.8h, v27.8h, v9.8h
 538:	00786564 	.inst	0x00786564 ; undefined
 53c:	5f726174 	.inst	0x5f726174 ; undefined
 540:	64616568 	.inst	0x64616568 ; undefined
 544:	78007265 	sturh	w5, [x19, #7]
 548:	61700032 	.inst	0x61700032 ; undefined
 54c:	00726464 	.inst	0x00726464 ; undefined
 550:	00636564 	.inst	0x00636564 ; undefined
 554:	646e6168 	.inst	0x646e6168 ; undefined
 558:	735f656c 	.inst	0x735f656c ; undefined
 55c:	61637379 	.inst	0x61637379 ; undefined
 560:	6c006c6c 	stnp	d12, d27, [x3]
 564:	6e695f33 	uqrshl	v19.8h, v25.8h, v9.8h
 568:	00786564 	.inst	0x00786564 ; undefined
 56c:	656d6974 	fnmls	z20.h, p2/m, z11.h, z13.h
 570:	0074756f 	.inst	0x0074756f ; undefined
 574:	64657375 	.inst	0x64657375 ; undefined
 578:	7864695f 	ldrh	wzr, [x10, x4]
 57c:	00327300 	.inst	0x00327300 ; NYI
 580:	646e6168 	.inst	0x646e6168 ; undefined
 584:	695f656c 	ldpsw	x12, x25, [x11, #248]
 588:	655f7172 	fcmne	p2.h, p4/z, z11.h, z31.h
 58c:	6800316c 	.inst	0x6800316c ; undefined
 590:	6c646e61 	ldnp	d1, d27, [x19, #-448]
 594:	69665f65 	ldpsw	x5, x23, [x27, #-208]
 598:	6c655f71 	ldnp	d17, d23, [x27, #-432]
 59c:	656e0031 	fmla	z17.h, p0/m, z1.h, z14.h
 5a0:	78007478 	strh	w24, [x3], #7
 5a4:	65670030 	fmla	z16.h, p0/m, z1.h, z7.h
 5a8:	61686374 	.inst	0x61686374 ; undefined
 5ac:	57440072 	.inst	0x57440072 ; undefined
 5b0:	4554415f 	saddwb	z31.h, z10.h, z20.b
 5b4:	736e755f 	.inst	0x736e755f ; undefined
 5b8:	656e6769 	fnmls	z9.h, p1/m, z27.h, z14.h
 5bc:	34365f64 	cbz	w4, 6d1a8 <_binary_shell_bin_size-0xfa3e58>
 5c0:	65726300 	fnmls	z0.h, p0/m, z24.h, z18.h
 5c4:	5f657461 	sqshl	d1, d3, #37
 5c8:	636f7270 	.inst	0x636f7270 ; undefined
 5cc:	00737365 	.inst	0x00737365 ; undefined
 5d0:	655f7073 	fcmne	p3.h, p4/z, z3.h, z31.h
 5d4:	5f00306c 	.inst	0x5f00306c ; undefined
 5d8:	5252415f 	.inst	0x5252415f ; undefined
 5dc:	535f5941 	.inst	0x535f5941 ; undefined
 5e0:	5f455a49 	.inst	0x5f455a49 ; undefined
 5e4:	45505954 	usubwb	z20.h, z10.h, z16.b
 5e8:	76005f5f 	.inst	0x76005f5f ; undefined
 5ec:	72646461 	.inst	0x72646461 ; undefined
 5f0:	6e00745f 	.inst	0x6e00745f ; undefined
 5f4:	00656d61 	.inst	0x00656d61 ; undefined
 5f8:	63727473 	.inst	0x63727473 ; undefined
 5fc:	7300706d 	.inst	0x7300706d ; undefined
 600:	656e6769 	fnmls	z9.h, p1/m, z27.h, z14.h
 604:	68632064 	.inst	0x68632064 ; undefined
 608:	73007261 	.inst	0x73007261 ; undefined
 60c:	726c7463 	.inst	0x726c7463 ; undefined
 610:	5f736600 	.inst	0x5f736600 ; undefined
 614:	6b6f6f6c 	.inst	0x6b6f6f6c ; undefined
 618:	76007075 	.inst	0x76007075 ; undefined
 61c:	69747269 	ldpsw	x9, x28, [x19, #-96]
 620:	65725f6f 	fnmla	z15.h, p7/m, z27.h, z18.h
 624:	65665f67 	fnmla	z7.h, p7/m, z27.h, z6.h
 628:	5f686374 	.inst	0x5f686374 ; undefined
 62c:	5f646e61 	.inst	0x5f646e61 ; undefined
 630:	3233726f 	orr	w15, w19, #0xffffe3ff
 634:	616d6900 	.inst	0x616d6900 ; undefined
 638:	735f6567 	.inst	0x735f6567 ; undefined
 63c:	00657a69 	.inst	0x00657a69 ; undefined
 640:	00726166 	.inst	0x00726166 ; undefined
 644:	5f78616d 	.inst	0x5f78616d ; undefined
 648:	75657571 	.inst	0x75657571 ; undefined
 64c:	69735f65 	ldpsw	x5, x23, [x27, #-104]
 650:	7500657a 	.inst	0x7500657a ; undefined
 654:	38746e69 	.inst	0x38746e69 ; undefined
 658:	6600745f 	.inst	0x6600745f ; undefined
 65c:	7367616c 	.inst	0x7367616c ; undefined
 660:	70797400 	adr	x0, f34e3 <_binary_shell_bin_size-0xf1db1d>
 664:	6c620065 	ldnp	d5, d0, [x3, #-480]
 668:	61635f6b 	.inst	0x61635f6b ; undefined
 66c:	69636170 	ldpsw	x16, x24, [x11, #-232]
 670:	70007974 	adr	x20, 159f <_binary_shell_bin_size-0x100fa61>
 674:	69666572 	ldpsw	x18, x25, [x11, #-208]
 678:	69760078 	ldpsw	x24, x0, [x3, #-80]
 67c:	6f697472 	uqshl	v18.2d, v3.2d, #41
 680:	6765725f 	.inst	0x6765725f ; undefined
 684:	6165725f 	.inst	0x6165725f ; undefined
 688:	00323364 	.inst	0x00323364 ; NYI
 68c:	6c656979 	ldnp	d25, d26, [x11, #-432]
 690:	73660064 	.inst	0x73660064 ; undefined
 694:	756c665f 	.inst	0x756c665f ; undefined
 698:	76006873 	.inst	0x76006873 ; undefined
 69c:	72646461 	.inst	0x72646461 ; undefined
 6a0:	5f306c00 	.inst	0x5f306c00 ; undefined
 6a4:	65646e69 	fnmls	z9.h, p3/m, z19.h, z4.h
 6a8:	656e0078 	fmla	z24.h, p0/m, z3.h, z14.h
 6ac:	61745f77 	.inst	0x61745f77 ; undefined
 6b0:	00656c62 	.inst	0x00656c62 ; undefined
 6b4:	00303158 	.inst	0x00303158 ; NYI
 6b8:	00353158 	.inst	0x00353158 ; NYI
 6bc:	74726976 	.inst	0x74726976 ; undefined
 6c0:	61705f71 	.inst	0x61705f71 ; undefined
 6c4:	00726464 	.inst	0x00726464 ; undefined
 6c8:	5f5f0064 	.inst	0x5f5f0064 ; undefined
 6cc:	6c697562 	ldnp	d2, d29, [x11, #-368]
 6d0:	5f6e6974 	.inst	0x5f6e6974 ; undefined
 6d4:	6c5f6176 	ldnp	d22, d24, [x11, #496]
 6d8:	00747369 	.inst	0x00747369 ; undefined
 6dc:	61746164 	.inst	0x61746164 ; undefined
 6e0:	61766100 	.inst	0x61766100 ; undefined
 6e4:	76006c69 	.inst	0x76006c69 ; undefined
 6e8:	71747269 	subs	w9, w19, #0xd1c, lsl #12
 6ec:	6176615f 	.inst	0x6176615f ; undefined
 6f0:	76006c69 	.inst	0x76006c69 ; undefined
 6f4:	71747269 	subs	w9, w19, #0xd1c, lsl #12
 6f8:	6573755f 	fnmls	z31.h, p5/m, z10.h, z19.h
 6fc:	32580064 	.inst	0x32580064 ; undefined
 700:	6e650037 	uaddl2	v23.4s, v1.8h, v5.8h
 704:	666f0064 	.inst	0x666f0064 ; undefined
 708:	74657366 	.inst	0x74657366 ; undefined
 70c:	74636f00 	.inst	0x74636f00 ; undefined
 710:	746e6932 	.inst	0x746e6932 ; undefined
 714:	73707300 	.inst	0x73707300 ; undefined
 718:	74610072 	.inst	0x74610072 ; undefined
 71c:	706d6574 	adr	x20, db3cb <_binary_shell_bin_size-0xf35c35>
 720:	5f007374 	.inst	0x5f007374 ; undefined
 724:	5f72675f 	.inst	0x5f72675f ; undefined
 728:	00706f74 	.inst	0x00706f74 ; undefined
 72c:	74636576 	.inst	0x74636576 ; undefined
 730:	6800632e 	.inst	0x6800632e ; undefined
 734:	6c646e61 	ldnp	d1, d27, [x19, #-448]
 738:	69665f65 	ldpsw	x5, x23, [x27, #-208]
 73c:	6c655f71 	ldnp	d17, d23, [x27, #-432]
 740:	72700032 	.inst	0x72700032 ; undefined
 744:	0073636f 	.inst	0x0073636f ; undefined
 748:	74636573 	.inst	0x74636573 ; undefined
 74c:	7000726f 	adr	x15, 159b <_binary_shell_bin_size-0x100fa65>
 750:	746e6972 	.inst	0x746e6972 ; undefined
 754:	656e0066 	fmla	z6.h, p0/m, z3.h, z14.h
 758:	74735f77 	.inst	0x74735f77 ; undefined
 75c:	006b6361 	.inst	0x006b6361 ; undefined
 760:	00727365 	.inst	0x00727365 ; undefined
 764:	72627474 	.inst	0x72627474 ; undefined
 768:	6d660030 	ldp	d16, d0, [x1, #-416]
 76c:	69640074 	ldpsw	x20, x0, [x3, #-224]
 770:	6f736976 	umlsl2	v22.4s, v11.8h, v3.h[7]
 774:	69730072 	ldpsw	x18, x0, [x3, #-104]
 778:	6600657a 	.inst	0x6600657a ; undefined
 77c:	00656c69 	.inst	0x00656c69 ; undefined
 780:	74726976 	.inst	0x74726976 ; undefined
 784:	625f6f69 	.inst	0x625f6f69 ; undefined
 788:	725f6b6c 	.inst	0x725f6b6c ; undefined
 78c:	6d007165 	stp	d5, d28, [x11]
 790:	0065646f 	.inst	0x0065646f ; undefined
 794:	695f316c 	.inst	0x695f316c ; undefined
 798:	7865646e 	.inst	0x7865646e ; undefined
 79c:	00335800 	.inst	0x00335800 ; NYI
 7a0:	68003958 	.inst	0x68003958 ; undefined
 7a4:	6c646e61 	ldnp	d1, d27, [x19, #-448]
 7a8:	79735f65 	ldrh	w5, [x27, #6574]
 7ac:	655f636e 	fcmeq	p14.h, p0/z, z27.h, z31.h
 7b0:	7000316c 	adr	x12, ddf <_binary_shell_bin_size-0x1010221>
 7b4:	5f636f72 	.inst	0x5f636f72 ; undefined
 7b8:	336c0061 	.inst	0x336c0061 ; undefined
 7bc:	6261745f 	.inst	0x6261745f ; undefined
 7c0:	6e00656c 	.inst	0x6e00656c ; undefined
 7c4:	745f7765 	.inst	0x745f7765 ; undefined
 7c8:	30726274 	adr	x20, e5415 <_binary_shell_bin_size-0xf2bbeb>
 7cc:	00355800 	.inst	0x00355800 ; NYI
 7d0:	646e6168 	.inst	0x646e6168 ; undefined
 7d4:	735f656c 	.inst	0x735f656c ; undefined
 7d8:	6f727265 	fcmla	v5.8h, v19.8h, v18.h[1], #270
 7dc:	6c655f72 	ldnp	d18, d23, [x27, #-432]
 7e0:	72700032 	.inst	0x72700032 ; undefined
 7e4:	625f636f 	.inst	0x625f636f ; undefined
 7e8:	65737500 	fnmls	z0.h, p5/m, z8.h, z19.h
 7ec:	68630064 	.inst	0x68630064 ; undefined
 7f0:	74757000 	.inst	0x74757000 ; undefined
 7f4:	72616863 	.inst	0x72616863 ; undefined
 7f8:	72697600 	.inst	0x72697600 ; undefined
 7fc:	695f7174 	ldpsw	x20, x28, [x11, #248]
 800:	75625f73 	.inst	0x75625f73 ; undefined
 804:	72007973 	ands	w19, w11, #0x7fffffff
 808:	5f646165 	.inst	0x5f646165 ; undefined
 80c:	74697277 	.inst	0x74697277 ; undefined
 810:	69645f65 	ldpsw	x5, x23, [x27, #-224]
 814:	58006b73 	ldr	x19, 1580 <_binary_shell_bin_size-0x100fa80>
 818:	616d0037 	.inst	0x616d0037 ; undefined
 81c:	74615f78 	.inst	0x74615f78 ; undefined
 820:	706d6574 	adr	x20, db4cf <_binary_shell_bin_size-0xf35b31>
 824:	65007374 	.inst	0x65007374 ; undefined
 828:	61760063 	.inst	0x61760063 ; undefined
 82c:	00736772 	.inst	0x00736772 ; undefined
 830:	72675f5f 	.inst	0x72675f5f ; undefined
 834:	66666f5f 	.inst	0x66666f5f ; undefined
 838:	Address 0x838 is out of bounds.


Disassembly of section .debug_addr:

0000000000000000 <.debug_addr>:
   0:	0000080c 	udf	#2060
   4:	00080005 	.inst	0x00080005 ; undefined
   8:	40203281 	.inst	0x40203281 ; undefined
   c:	00000000 	udf	#0
  10:	4020321e 	.inst	0x4020321e ; undefined
  14:	00000000 	udf	#0
  18:	40203580 	.inst	0x40203580 ; undefined
  1c:	00000000 	udf	#0
  20:	4020323e 	.inst	0x4020323e ; undefined
  24:	00000000 	udf	#0
  28:	40202fb0 	.inst	0x40202fb0 ; undefined
  2c:	00000000 	udf	#0
  30:	4020325b 	.inst	0x4020325b ; undefined
  34:	00000000 	udf	#0
  38:	402030db 	.inst	0x402030db ; undefined
  3c:	00000000 	udf	#0
  40:	40203127 	.inst	0x40203127 ; undefined
  44:	00000000 	udf	#0
  48:	40203065 	.inst	0x40203065 ; undefined
  4c:	00000000 	udf	#0
  50:	402034a9 	.inst	0x402034a9 ; undefined
  54:	00000000 	udf	#0
  58:	402033fc 	.inst	0x402033fc ; undefined
  5c:	00000000 	udf	#0
  60:	402033c7 	.inst	0x402033c7 ; undefined
  64:	00000000 	udf	#0
  68:	40203508 	.inst	0x40203508 ; undefined
  6c:	00000000 	udf	#0
  70:	402032a7 	.inst	0x402032a7 ; undefined
  74:	00000000 	udf	#0
  78:	402033dc 	.inst	0x402033dc ; undefined
  7c:	00000000 	udf	#0
  80:	4020354a 	.inst	0x4020354a ; undefined
  84:	00000000 	udf	#0
  88:	402030fe 	.inst	0x402030fe ; undefined
  8c:	00000000 	udf	#0
  90:	40202fe0 	.inst	0x40202fe0 ; undefined
  94:	00000000 	udf	#0
  98:	40203209 	.inst	0x40203209 ; undefined
  9c:	00000000 	udf	#0
  a0:	4020304f 	.inst	0x4020304f ; undefined
  a4:	00000000 	udf	#0
  a8:	402032ea 	.inst	0x402032ea ; undefined
  ac:	00000000 	udf	#0
  b0:	40202ff0 	.inst	0x40202ff0 ; undefined
  b4:	00000000 	udf	#0
  b8:	40203385 	.inst	0x40203385 ; undefined
  bc:	00000000 	udf	#0
  c0:	4020315d 	.inst	0x4020315d ; undefined
  c4:	00000000 	udf	#0
  c8:	40203422 	.inst	0x40203422 ; undefined
  cc:	00000000 	udf	#0
  d0:	402033eb 	.inst	0x402033eb ; undefined
  d4:	00000000 	udf	#0
  d8:	402034ce 	.inst	0x402034ce ; undefined
  dc:	00000000 	udf	#0
  e0:	4020355f 	.inst	0x4020355f ; undefined
  e4:	00000000 	udf	#0
  e8:	40203433 	.inst	0x40203433 ; undefined
  ec:	00000000 	udf	#0
  f0:	402034f4 	.inst	0x402034f4 ; undefined
  f4:	00000000 	udf	#0
  f8:	40203463 	.inst	0x40203463 ; undefined
  fc:	00000000 	udf	#0
 100:	402032ff 	.inst	0x402032ff ; undefined
 104:	00000000 	udf	#0
 108:	40203525 	.inst	0x40203525 ; undefined
 10c:	00000000 	udf	#0
 110:	40203184 	.inst	0x40203184 ; undefined
 114:	00000000 	udf	#0
 118:	4020313b 	.inst	0x4020313b ; undefined
 11c:	00000000 	udf	#0
 120:	40203079 	.inst	0x40203079 ; undefined
 124:	00000000 	udf	#0
 128:	40203093 	.inst	0x40203093 ; undefined
 12c:	00000000 	udf	#0
 130:	402031b2 	.inst	0x402031b2 ; undefined
 134:	00000000 	udf	#0
 138:	40203099 	.inst	0x40203099 ; undefined
 13c:	00000000 	udf	#0
 140:	4020335f 	.inst	0x4020335f ; undefined
 144:	00000000 	udf	#0
 148:	40203328 	.inst	0x40203328 ; undefined
 14c:	00000000 	udf	#0
 150:	40202fb9 	.inst	0x40202fb9 ; undefined
 154:	00000000 	udf	#0
 158:	402030c2 	.inst	0x402030c2 ; undefined
 15c:	00000000 	udf	#0
 160:	4020344e 	.inst	0x4020344e ; undefined
 164:	00000000 	udf	#0
 168:	402031b7 	.inst	0x402031b7 ; undefined
 16c:	00000000 	udf	#0
 170:	40203025 	.inst	0x40203025 ; undefined
 174:	00000000 	udf	#0
 178:	4020339e 	.inst	0x4020339e ; undefined
 17c:	00000000 	udf	#0
 180:	4020327e 	.inst	0x4020327e ; undefined
 184:	00000000 	udf	#0
 188:	402032b9 	.inst	0x402032b9 ; undefined
 18c:	00000000 	udf	#0
 190:	402032d1 	.inst	0x402032d1 ; undefined
 194:	00000000 	udf	#0
 198:	4020300f 	.inst	0x4020300f ; undefined
 19c:	00000000 	udf	#0
 1a0:	40203345 	.inst	0x40203345 ; undefined
 1a4:	00000000 	udf	#0
 1a8:	4020311b 	.inst	0x4020311b ; undefined
 1ac:	00000000 	udf	#0
 1b0:	40203038 	.inst	0x40203038 ; undefined
 1b4:	00000000 	udf	#0
 1b8:	412145a0 	.inst	0x412145a0 ; undefined
 1bc:	00000000 	udf	#0
 1c0:	412259a0 	.inst	0x412259a0 ; undefined
 1c4:	00000000 	udf	#0
 1c8:	412259a8 	.inst	0x412259a8 ; undefined
 1cc:	00000000 	udf	#0
 1d0:	412246a0 	.inst	0x412246a0 ; undefined
 1d4:	00000000 	udf	#0
 1d8:	41214590 	.inst	0x41214590 ; undefined
 1dc:	00000000 	udf	#0
 1e0:	412246a8 	.inst	0x412246a8 ; undefined
 1e4:	00000000 	udf	#0
 1e8:	41224fa0 	.inst	0x41224fa0 ; undefined
 1ec:	00000000 	udf	#0
 1f0:	41224f80 	.inst	0x41224f80 ; undefined
 1f4:	00000000 	udf	#0
 1f8:	41224f98 	.inst	0x41224f98 ; undefined
 1fc:	00000000 	udf	#0
 200:	41224f90 	.inst	0x41224f90 ; undefined
 204:	00000000 	udf	#0
 208:	41224f88 	.inst	0x41224f88 ; undefined
 20c:	00000000 	udf	#0
 210:	40200018 	.inst	0x40200018 ; undefined
 214:	00000000 	udf	#0
 218:	40200034 	.inst	0x40200034 ; undefined
 21c:	00000000 	udf	#0
 220:	4020003c 	.inst	0x4020003c ; undefined
 224:	00000000 	udf	#0
 228:	40200058 	.inst	0x40200058 ; undefined
 22c:	00000000 	udf	#0
 230:	40200060 	.inst	0x40200060 ; undefined
 234:	00000000 	udf	#0
 238:	40200084 	.inst	0x40200084 ; undefined
 23c:	00000000 	udf	#0
 240:	4020009c 	.inst	0x4020009c ; undefined
 244:	00000000 	udf	#0
 248:	402000cc 	.inst	0x402000cc ; undefined
 24c:	00000000 	udf	#0
 250:	402000ec 	.inst	0x402000ec ; undefined
 254:	00000000 	udf	#0
 258:	402000f8 	.inst	0x402000f8 ; undefined
 25c:	00000000 	udf	#0
 260:	402000fc 	.inst	0x402000fc ; undefined
 264:	00000000 	udf	#0
 268:	40200144 	.inst	0x40200144 ; undefined
 26c:	00000000 	udf	#0
 270:	40200154 	.inst	0x40200154 ; undefined
 274:	00000000 	udf	#0
 278:	40200164 	.inst	0x40200164 ; undefined
 27c:	00000000 	udf	#0
 280:	402001d8 	.inst	0x402001d8 ; undefined
 284:	00000000 	udf	#0
 288:	402001a0 	.inst	0x402001a0 ; undefined
 28c:	00000000 	udf	#0
 290:	402001c8 	.inst	0x402001c8 ; undefined
 294:	00000000 	udf	#0
 298:	40200210 	.inst	0x40200210 ; undefined
 29c:	00000000 	udf	#0
 2a0:	40200230 	.inst	0x40200230 ; undefined
 2a4:	00000000 	udf	#0
 2a8:	40200240 	.inst	0x40200240 ; undefined
 2ac:	00000000 	udf	#0
 2b0:	402002a4 	.inst	0x402002a4 ; undefined
 2b4:	00000000 	udf	#0
 2b8:	402002c4 	.inst	0x402002c4 ; undefined
 2bc:	00000000 	udf	#0
 2c0:	402002d4 	.inst	0x402002d4 ; undefined
 2c4:	00000000 	udf	#0
 2c8:	40200338 	.inst	0x40200338 ; undefined
 2cc:	00000000 	udf	#0
 2d0:	40200358 	.inst	0x40200358 ; undefined
 2d4:	00000000 	udf	#0
 2d8:	40200368 	.inst	0x40200368 ; undefined
 2dc:	00000000 	udf	#0
 2e0:	402003ac 	.inst	0x402003ac ; undefined
 2e4:	00000000 	udf	#0
 2e8:	402003f0 	.inst	0x402003f0 ; undefined
 2ec:	00000000 	udf	#0
 2f0:	402003f8 	.inst	0x402003f8 ; undefined
 2f4:	00000000 	udf	#0
 2f8:	40200408 	.inst	0x40200408 ; undefined
 2fc:	00000000 	udf	#0
 300:	4020044c 	.inst	0x4020044c ; undefined
 304:	00000000 	udf	#0
 308:	402006a4 	.inst	0x402006a4 ; undefined
 30c:	00000000 	udf	#0
 310:	402006ac 	.inst	0x402006ac ; undefined
 314:	00000000 	udf	#0
 318:	402006cc 	.inst	0x402006cc ; undefined
 31c:	00000000 	udf	#0
 320:	402006c4 	.inst	0x402006c4 ; undefined
 324:	00000000 	udf	#0
 328:	402006e4 	.inst	0x402006e4 ; undefined
 32c:	00000000 	udf	#0
 330:	402006e8 	.inst	0x402006e8 ; undefined
 334:	00000000 	udf	#0
 338:	40200708 	.inst	0x40200708 ; undefined
 33c:	00000000 	udf	#0
 340:	40200700 	.inst	0x40200700 ; undefined
 344:	00000000 	udf	#0
 348:	40200720 	.inst	0x40200720 ; undefined
 34c:	00000000 	udf	#0
 350:	40200724 	.inst	0x40200724 ; undefined
 354:	00000000 	udf	#0
 358:	40200740 	.inst	0x40200740 ; undefined
 35c:	00000000 	udf	#0
 360:	402008c8 	.inst	0x402008c8 ; undefined
 364:	00000000 	udf	#0
 368:	402007e0 	.inst	0x402007e0 ; undefined
 36c:	00000000 	udf	#0
 370:	40200890 	.inst	0x40200890 ; undefined
 374:	00000000 	udf	#0
 378:	402008a4 	.inst	0x402008a4 ; undefined
 37c:	00000000 	udf	#0
 380:	402008c4 	.inst	0x402008c4 ; undefined
 384:	00000000 	udf	#0
 388:	402008f4 	.inst	0x402008f4 ; undefined
 38c:	00000000 	udf	#0
 390:	4020090c 	.inst	0x4020090c ; undefined
 394:	00000000 	udf	#0
 398:	40200920 	.inst	0x40200920 ; undefined
 39c:	00000000 	udf	#0
 3a0:	40200930 	.inst	0x40200930 ; undefined
 3a4:	00000000 	udf	#0
 3a8:	40200964 	.inst	0x40200964 ; undefined
 3ac:	00000000 	udf	#0
 3b0:	40200980 	.inst	0x40200980 ; undefined
 3b4:	00000000 	udf	#0
 3b8:	40200994 	.inst	0x40200994 ; undefined
 3bc:	00000000 	udf	#0
 3c0:	402009d0 	.inst	0x402009d0 ; undefined
 3c4:	00000000 	udf	#0
 3c8:	402009ec 	.inst	0x402009ec ; undefined
 3cc:	00000000 	udf	#0
 3d0:	40200a00 	.inst	0x40200a00 ; undefined
 3d4:	00000000 	udf	#0
 3d8:	40200a30 	.inst	0x40200a30 ; undefined
 3dc:	00000000 	udf	#0
 3e0:	40200a44 	.inst	0x40200a44 ; undefined
 3e4:	00000000 	udf	#0
 3e8:	40200aac 	.inst	0x40200aac ; undefined
 3ec:	00000000 	udf	#0
 3f0:	40200ac8 	.inst	0x40200ac8 ; undefined
 3f4:	00000000 	udf	#0
 3f8:	40200acc 	.inst	0x40200acc ; undefined
 3fc:	00000000 	udf	#0
 400:	40200adc 	.inst	0x40200adc ; undefined
 404:	00000000 	udf	#0
 408:	40200afc 	.inst	0x40200afc ; undefined
 40c:	00000000 	udf	#0
 410:	40200b0c 	.inst	0x40200b0c ; undefined
 414:	00000000 	udf	#0
 418:	40200b18 	.inst	0x40200b18 ; undefined
 41c:	00000000 	udf	#0
 420:	40200b3c 	.inst	0x40200b3c ; undefined
 424:	00000000 	udf	#0
 428:	40200b4c 	.inst	0x40200b4c ; undefined
 42c:	00000000 	udf	#0
 430:	40200b58 	.inst	0x40200b58 ; undefined
 434:	00000000 	udf	#0
 438:	40200b88 	.inst	0x40200b88 ; undefined
 43c:	00000000 	udf	#0
 440:	40200b9c 	.inst	0x40200b9c ; undefined
 444:	00000000 	udf	#0
 448:	40200be0 	.inst	0x40200be0 ; undefined
 44c:	00000000 	udf	#0
 450:	40200bfc 	.inst	0x40200bfc ; undefined
 454:	00000000 	udf	#0
 458:	40200ca0 	.inst	0x40200ca0 ; undefined
 45c:	00000000 	udf	#0
 460:	40200ca4 	.inst	0x40200ca4 ; undefined
 464:	00000000 	udf	#0
 468:	40200c30 	.inst	0x40200c30 ; undefined
 46c:	00000000 	udf	#0
 470:	40200c50 	.inst	0x40200c50 ; undefined
 474:	00000000 	udf	#0
 478:	40200c60 	.inst	0x40200c60 ; undefined
 47c:	00000000 	udf	#0
 480:	40200c84 	.inst	0x40200c84 ; undefined
 484:	00000000 	udf	#0
 488:	40200c94 	.inst	0x40200c94 ; undefined
 48c:	00000000 	udf	#0
 490:	40200c9c 	.inst	0x40200c9c ; undefined
 494:	00000000 	udf	#0
 498:	40200cdc 	.inst	0x40200cdc ; undefined
 49c:	00000000 	udf	#0
 4a0:	40200d00 	.inst	0x40200d00 ; undefined
 4a4:	00000000 	udf	#0
 4a8:	40200d0c 	.inst	0x40200d0c ; undefined
 4ac:	00000000 	udf	#0
 4b0:	40200d3c 	.inst	0x40200d3c ; undefined
 4b4:	00000000 	udf	#0
 4b8:	40200d54 	.inst	0x40200d54 ; undefined
 4bc:	00000000 	udf	#0
 4c0:	40200d60 	.inst	0x40200d60 ; undefined
 4c4:	00000000 	udf	#0
 4c8:	40200ddc 	.inst	0x40200ddc ; undefined
 4cc:	00000000 	udf	#0
 4d0:	40201418 	.inst	0x40201418 ; undefined
 4d4:	00000000 	udf	#0
 4d8:	40200d9c 	.inst	0x40200d9c ; undefined
 4dc:	00000000 	udf	#0
 4e0:	402011d4 	.inst	0x402011d4 ; undefined
 4e4:	00000000 	udf	#0
 4e8:	40201214 	.inst	0x40201214 ; undefined
 4ec:	00000000 	udf	#0
 4f0:	40201224 	.inst	0x40201224 ; undefined
 4f4:	00000000 	udf	#0
 4f8:	40201234 	.inst	0x40201234 ; undefined
 4fc:	00000000 	udf	#0
 500:	40201244 	.inst	0x40201244 ; undefined
 504:	00000000 	udf	#0
 508:	40201254 	.inst	0x40201254 ; undefined
 50c:	00000000 	udf	#0
 510:	40201428 	.inst	0x40201428 ; undefined
 514:	00000000 	udf	#0
 518:	40201438 	.inst	0x40201438 ; undefined
 51c:	00000000 	udf	#0
 520:	40201448 	.inst	0x40201448 ; undefined
 524:	00000000 	udf	#0
 528:	40201458 	.inst	0x40201458 ; undefined
 52c:	00000000 	udf	#0
 530:	40201468 	.inst	0x40201468 ; undefined
 534:	00000000 	udf	#0
 538:	40201494 	.inst	0x40201494 ; undefined
 53c:	00000000 	udf	#0
 540:	40201498 	.inst	0x40201498 ; undefined
 544:	00000000 	udf	#0
 548:	402014e8 	.inst	0x402014e8 ; undefined
 54c:	00000000 	udf	#0
 550:	40201500 	.inst	0x40201500 ; undefined
 554:	00000000 	udf	#0
 558:	40201510 	.inst	0x40201510 ; undefined
 55c:	00000000 	udf	#0
 560:	40201520 	.inst	0x40201520 ; undefined
 564:	00000000 	udf	#0
 568:	40201534 	.inst	0x40201534 ; undefined
 56c:	00000000 	udf	#0
 570:	4020154c 	.inst	0x4020154c ; undefined
 574:	00000000 	udf	#0
 578:	40201568 	.inst	0x40201568 ; undefined
 57c:	00000000 	udf	#0
 580:	40201580 	.inst	0x40201580 ; undefined
 584:	00000000 	udf	#0
 588:	40201584 	.inst	0x40201584 ; undefined
 58c:	00000000 	udf	#0
 590:	40201590 	.inst	0x40201590 ; undefined
 594:	00000000 	udf	#0
 598:	4020159c 	.inst	0x4020159c ; undefined
 59c:	00000000 	udf	#0
 5a0:	402015a8 	.inst	0x402015a8 ; undefined
 5a4:	00000000 	udf	#0
 5a8:	402015ac 	.inst	0x402015ac ; undefined
 5ac:	00000000 	udf	#0
 5b0:	402015b4 	.inst	0x402015b4 ; undefined
 5b4:	00000000 	udf	#0
 5b8:	402015bc 	.inst	0x402015bc ; undefined
 5bc:	00000000 	udf	#0
 5c0:	402015e8 	.inst	0x402015e8 ; undefined
 5c4:	00000000 	udf	#0
 5c8:	402015fc 	.inst	0x402015fc ; undefined
 5cc:	00000000 	udf	#0
 5d0:	40201628 	.inst	0x40201628 ; undefined
 5d4:	00000000 	udf	#0
 5d8:	40201690 	.inst	0x40201690 ; undefined
 5dc:	00000000 	udf	#0
 5e0:	402016bc 	.inst	0x402016bc ; undefined
 5e4:	00000000 	udf	#0
 5e8:	40201608 	.inst	0x40201608 ; undefined
 5ec:	00000000 	udf	#0
 5f0:	40201620 	.inst	0x40201620 ; undefined
 5f4:	00000000 	udf	#0
 5f8:	40201660 	.inst	0x40201660 ; undefined
 5fc:	00000000 	udf	#0
 600:	40201674 	.inst	0x40201674 ; undefined
 604:	00000000 	udf	#0
 608:	40201684 	.inst	0x40201684 ; undefined
 60c:	00000000 	udf	#0
 610:	402016cc 	.inst	0x402016cc ; undefined
 614:	00000000 	udf	#0
 618:	402016e0 	.inst	0x402016e0 ; undefined
 61c:	00000000 	udf	#0
 620:	4020170c 	.inst	0x4020170c ; undefined
 624:	00000000 	udf	#0
 628:	40201718 	.inst	0x40201718 ; undefined
 62c:	00000000 	udf	#0
 630:	40201740 	.inst	0x40201740 ; undefined
 634:	00000000 	udf	#0
 638:	4020174c 	.inst	0x4020174c ; undefined
 63c:	00000000 	udf	#0
 640:	40201754 	.inst	0x40201754 ; undefined
 644:	00000000 	udf	#0
 648:	40201760 	.inst	0x40201760 ; undefined
 64c:	00000000 	udf	#0
 650:	40201768 	.inst	0x40201768 ; undefined
 654:	00000000 	udf	#0
 658:	40201784 	.inst	0x40201784 ; undefined
 65c:	00000000 	udf	#0
 660:	40201794 	.inst	0x40201794 ; undefined
 664:	00000000 	udf	#0
 668:	402017a0 	.inst	0x402017a0 ; undefined
 66c:	00000000 	udf	#0
 670:	40201778 	.inst	0x40201778 ; undefined
 674:	00000000 	udf	#0
 678:	402017b4 	.inst	0x402017b4 ; undefined
 67c:	00000000 	udf	#0
 680:	402017ec 	.inst	0x402017ec ; undefined
 684:	00000000 	udf	#0
 688:	40201808 	.inst	0x40201808 ; undefined
 68c:	00000000 	udf	#0
 690:	4020181c 	.inst	0x4020181c ; undefined
 694:	00000000 	udf	#0
 698:	4020183c 	.inst	0x4020183c ; undefined
 69c:	00000000 	udf	#0
 6a0:	40201854 	.inst	0x40201854 ; undefined
 6a4:	00000000 	udf	#0
 6a8:	40201880 	.inst	0x40201880 ; undefined
 6ac:	00000000 	udf	#0
 6b0:	40201894 	.inst	0x40201894 ; undefined
 6b4:	00000000 	udf	#0
 6b8:	402018a8 	.inst	0x402018a8 ; undefined
 6bc:	00000000 	udf	#0
 6c0:	40201a04 	.inst	0x40201a04 ; undefined
 6c4:	00000000 	udf	#0
 6c8:	40201a68 	.inst	0x40201a68 ; undefined
 6cc:	00000000 	udf	#0
 6d0:	40201a7c 	.inst	0x40201a7c ; undefined
 6d4:	00000000 	udf	#0
 6d8:	40201b40 	.inst	0x40201b40 ; undefined
 6dc:	00000000 	udf	#0
 6e0:	40201900 	.inst	0x40201900 ; undefined
 6e4:	00000000 	udf	#0
 6e8:	4020193c 	.inst	0x4020193c ; undefined
 6ec:	00000000 	udf	#0
 6f0:	40201a14 	.inst	0x40201a14 ; undefined
 6f4:	00000000 	udf	#0
 6f8:	40201a78 	.inst	0x40201a78 ; undefined
 6fc:	00000000 	udf	#0
 700:	40201ae0 	.inst	0x40201ae0 ; undefined
 704:	00000000 	udf	#0
 708:	40201af8 	.inst	0x40201af8 ; undefined
 70c:	00000000 	udf	#0
 710:	40201b08 	.inst	0x40201b08 ; undefined
 714:	00000000 	udf	#0
 718:	40201b64 	.inst	0x40201b64 ; undefined
 71c:	00000000 	udf	#0
 720:	40201b68 	.inst	0x40201b68 ; undefined
 724:	00000000 	udf	#0
 728:	40201bac 	.inst	0x40201bac ; undefined
 72c:	00000000 	udf	#0
 730:	40201bc8 	.inst	0x40201bc8 ; undefined
 734:	00000000 	udf	#0
 738:	40201cc4 	.inst	0x40201cc4 ; undefined
 73c:	00000000 	udf	#0
 740:	40201be0 	.inst	0x40201be0 ; undefined
 744:	00000000 	udf	#0
 748:	40201bf0 	.inst	0x40201bf0 ; undefined
 74c:	00000000 	udf	#0
 750:	40201c00 	.inst	0x40201c00 ; undefined
 754:	00000000 	udf	#0
 758:	40201c10 	.inst	0x40201c10 ; undefined
 75c:	00000000 	udf	#0
 760:	40201c20 	.inst	0x40201c20 ; undefined
 764:	00000000 	udf	#0
 768:	40201c68 	.inst	0x40201c68 ; undefined
 76c:	00000000 	udf	#0
 770:	40201c78 	.inst	0x40201c78 ; undefined
 774:	00000000 	udf	#0
 778:	40201c8c 	.inst	0x40201c8c ; undefined
 77c:	00000000 	udf	#0
 780:	40201cc0 	.inst	0x40201cc0 ; undefined
 784:	00000000 	udf	#0
 788:	40201e1c 	.inst	0x40201e1c ; undefined
 78c:	00000000 	udf	#0
 790:	40201e20 	.inst	0x40201e20 ; undefined
 794:	00000000 	udf	#0
 798:	40201e44 	.inst	0x40201e44 ; undefined
 79c:	00000000 	udf	#0
 7a0:	40201e6c 	.inst	0x40201e6c ; undefined
 7a4:	00000000 	udf	#0
 7a8:	40201e8c 	.inst	0x40201e8c ; undefined
 7ac:	00000000 	udf	#0
 7b0:	40201e9c 	.inst	0x40201e9c ; undefined
 7b4:	00000000 	udf	#0
 7b8:	40201ea8 	.inst	0x40201ea8 ; undefined
 7bc:	00000000 	udf	#0
 7c0:	40201ec0 	.inst	0x40201ec0 ; undefined
 7c4:	00000000 	udf	#0
 7c8:	40201ec4 	.inst	0x40201ec4 ; undefined
 7cc:	00000000 	udf	#0
 7d0:	40201ed0 	.inst	0x40201ed0 ; undefined
 7d4:	00000000 	udf	#0
 7d8:	40201ee4 	.inst	0x40201ee4 ; undefined
 7dc:	00000000 	udf	#0
 7e0:	40201ef0 	.inst	0x40201ef0 ; undefined
 7e4:	00000000 	udf	#0
 7e8:	40201efc 	.inst	0x40201efc ; undefined
 7ec:	00000000 	udf	#0
 7f0:	40201f00 	.inst	0x40201f00 ; undefined
 7f4:	00000000 	udf	#0
 7f8:	40201f0c 	.inst	0x40201f0c ; undefined
 7fc:	00000000 	udf	#0
 800:	40201f24 	.inst	0x40201f24 ; undefined
 804:	00000000 	udf	#0
 808:	40200000 	.inst	0x40200000 ; undefined
 80c:	00000000 	udf	#0
 810:	0000006c 	udf	#108
 814:	00080005 	.inst	0x00080005 ; undefined
 818:	40203482 	.inst	0x40203482 ; undefined
 81c:	00000000 	udf	#0
 820:	40201f28 	.inst	0x40201f28 ; undefined
 824:	00000000 	udf	#0
 828:	40201ff0 	.inst	0x40201ff0 ; undefined
 82c:	00000000 	udf	#0
 830:	40202090 	.inst	0x40202090 ; undefined
 834:	00000000 	udf	#0
 838:	402020b8 	.inst	0x402020b8 ; undefined
 83c:	00000000 	udf	#0
 840:	402020e8 	.inst	0x402020e8 ; undefined
 844:	00000000 	udf	#0
 848:	402022d4 	.inst	0x402022d4 ; undefined
 84c:	00000000 	udf	#0
 850:	4020217c 	.inst	0x4020217c ; undefined
 854:	00000000 	udf	#0
 858:	40202240 	.inst	0x40202240 ; undefined
 85c:	00000000 	udf	#0
 860:	40202270 	.inst	0x40202270 ; undefined
 864:	00000000 	udf	#0
 868:	402022ac 	.inst	0x402022ac ; undefined
 86c:	00000000 	udf	#0
 870:	402022e0 	.inst	0x402022e0 ; undefined
 874:	00000000 	udf	#0
 878:	40202310 	.inst	0x40202310 ; undefined
 87c:	00000000 	udf	#0
 880:	000000c4 	udf	#196
 884:	00080005 	.inst	0x00080005 ; undefined
 888:	402033b0 	.inst	0x402033b0 ; undefined
 88c:	00000000 	udf	#0
 890:	40203454 	.inst	0x40203454 ; undefined
 894:	00000000 	udf	#0
 898:	40203493 	.inst	0x40203493 ; undefined
 89c:	00000000 	udf	#0
 8a0:	402030d1 	.inst	0x402030d1 ; undefined
 8a4:	00000000 	udf	#0
 8a8:	40203519 	.inst	0x40203519 ; undefined
 8ac:	00000000 	udf	#0
 8b0:	402033a5 	.inst	0x402033a5 ; undefined
 8b4:	00000000 	udf	#0
 8b8:	402031e5 	.inst	0x402031e5 ; undefined
 8bc:	00000000 	udf	#0
 8c0:	402034a2 	.inst	0x402034a2 ; undefined
 8c4:	00000000 	udf	#0
 8c8:	40202418 	.inst	0x40202418 ; undefined
 8cc:	00000000 	udf	#0
 8d0:	40202440 	.inst	0x40202440 ; undefined
 8d4:	00000000 	udf	#0
 8d8:	40202450 	.inst	0x40202450 ; undefined
 8dc:	00000000 	udf	#0
 8e0:	40202460 	.inst	0x40202460 ; undefined
 8e4:	00000000 	udf	#0
 8e8:	40202470 	.inst	0x40202470 ; undefined
 8ec:	00000000 	udf	#0
 8f0:	40202480 	.inst	0x40202480 ; undefined
 8f4:	00000000 	udf	#0
 8f8:	40202490 	.inst	0x40202490 ; undefined
 8fc:	00000000 	udf	#0
 900:	402024a8 	.inst	0x402024a8 ; undefined
 904:	00000000 	udf	#0
 908:	402024ac 	.inst	0x402024ac ; undefined
 90c:	00000000 	udf	#0
 910:	402024b0 	.inst	0x402024b0 ; undefined
 914:	00000000 	udf	#0
 918:	402024b4 	.inst	0x402024b4 ; undefined
 91c:	00000000 	udf	#0
 920:	402024b8 	.inst	0x402024b8 ; undefined
 924:	00000000 	udf	#0
 928:	402024bc 	.inst	0x402024bc ; undefined
 92c:	00000000 	udf	#0
 930:	402024c0 	.inst	0x402024c0 ; undefined
 934:	00000000 	udf	#0
 938:	402024c4 	.inst	0x402024c4 ; undefined
 93c:	00000000 	udf	#0
 940:	402024c8 	.inst	0x402024c8 ; undefined
 944:	00000000 	udf	#0

Disassembly of section .comment:

0000000000000000 <.comment>:
   0:	75625500 	.inst	0x75625500 ; undefined
   4:	2075746e 	.inst	0x2075746e ; undefined
   8:	6e616c63 	umin	v3.8h, v3.8h, v1.8h
   c:	65762067 	fmls	z7.h, p0/m, z3.h, z22.h
  10:	6f697372 	fcmla	v18.8h, v27.8h, v9.h[1], #270
  14:	3831206e 	ldeorb	w17, w14, [x3]
  18:	332e312e 	.inst	0x332e312e ; undefined
  1c:	75312820 	.inst	0x75312820 ; undefined
  20:	746e7562 	.inst	0x746e7562 ; undefined
  24:	00293175 	.inst	0x00293175 ; NYI
  28:	6b6e694c 	.inst	0x6b6e694c ; undefined
  2c:	203a7265 	.inst	0x203a7265 ; undefined
  30:	6e756255 	rsubhn2	v21.8h, v18.4s, v21.4s
  34:	4c207574 	.inst	0x4c207574 ; undefined
  38:	3120444c 	adds	w12, w2, #0x811
  3c:	2e312e38 	uqsub	v24.8b, v17.8b, v17.8b
  40:	Address 0x40 is out of bounds.


Disassembly of section .debug_frame:

0000000000000000 <.debug_frame>:
   0:	00000014 	udf	#20
   4:	ffffffff 	.inst	0xffffffff ; undefined
   8:	00080004 	.inst	0x00080004 ; undefined
   c:	0c1e7c01 	.inst	0x0c1e7c01 ; undefined
  10:	0000001f 	udf	#31
  14:	00000000 	udf	#0
  18:	0000001c 	udf	#28
  1c:	00000000 	udf	#0
  20:	40200018 	.inst	0x40200018 ; undefined
  24:	00000000 	udf	#0
  28:	0000001c 	udf	#28
  2c:	00000000 	udf	#0
  30:	00100e44 	.inst	0x00100e44 ; undefined
  34:	00000000 	udf	#0
  38:	0000001c 	udf	#28
  3c:	00000000 	udf	#0
  40:	40200034 	.inst	0x40200034 ; undefined
  44:	00000000 	udf	#0
  48:	00000024 	udf	#36
  4c:	00000000 	udf	#0
  50:	00100e44 	.inst	0x00100e44 ; undefined
  54:	00000000 	udf	#0
  58:	0000001c 	udf	#28
  5c:	00000000 	udf	#0
  60:	40200058 	.inst	0x40200058 ; undefined
  64:	00000000 	udf	#0
  68:	0000002c 	udf	#44
  6c:	00000000 	udf	#0
  70:	00100e44 	.inst	0x00100e44 ; undefined
  74:	00000000 	udf	#0
  78:	00000014 	udf	#20
  7c:	00000000 	udf	#0
  80:	40200084 	.inst	0x40200084 ; undefined
  84:	00000000 	udf	#0
  88:	00000018 	udf	#24
  8c:	00000000 	udf	#0
  90:	0000001c 	udf	#28
  94:	00000000 	udf	#0
  98:	4020009c 	.inst	0x4020009c ; undefined
  9c:	00000000 	udf	#0
  a0:	00000060 	udf	#96
  a4:	00000000 	udf	#0
  a8:	101d0c58 	adr	x24, 3a230 <_binary_shell_bin_size-0xfd6dd0>
  ac:	049d029e 	.inst	0x049d029e ; undefined
  b0:	00000024 	udf	#36
  b4:	00000000 	udf	#0
  b8:	402000fc 	.inst	0x402000fc ; undefined
  bc:	00000000 	udf	#0
  c0:	00000068 	udf	#104
  c4:	00000000 	udf	#0
  c8:	201d0c4c 	.inst	0x201d0c4c ; undefined
  cc:	069e0493 	.inst	0x069e0493 ; undefined
  d0:	0000089d 	udf	#2205
  d4:	00000000 	udf	#0
  d8:	0000002c 	udf	#44
  dc:	00000000 	udf	#0
  e0:	40200164 	.inst	0x40200164 ; undefined
  e4:	00000000 	udf	#0
  e8:	00000248 	udf	#584
  ec:	00000000 	udf	#0
  f0:	401d0c54 	.inst	0x401d0c54 ; undefined
  f4:	04940293 	sdiv	z19.s, p0/m, z19.s, z20.s
  f8:	08960695 	stllrb	w21, [x20]
  fc:	0c980a97 	st4	{v23.2s-v26.2s}, [x20], x24
 100:	109d0e9e 	adr	x30, fffffffffff3a2d0 <__free_ram_end+0xffffffffbccf42d0>
 104:	00000000 	udf	#0
 108:	00000014 	udf	#20
 10c:	00000000 	udf	#0
 110:	402003ac 	.inst	0x402003ac ; undefined
 114:	00000000 	udf	#0
 118:	00000044 	udf	#68
 11c:	00000000 	udf	#0
 120:	00000014 	udf	#20
 124:	00000000 	udf	#0
 128:	402003f0 	.inst	0x402003f0 ; undefined
 12c:	00000000 	udf	#0
 130:	00000018 	udf	#24
 134:	00000000 	udf	#0
 138:	00000014 	udf	#20
 13c:	00000000 	udf	#0
 140:	40200408 	.inst	0x40200408 ; undefined
 144:	00000000 	udf	#0
 148:	00000044 	udf	#68
 14c:	00000000 	udf	#0
 150:	00000014 	udf	#20
 154:	00000000 	udf	#0
 158:	4020044c 	.inst	0x4020044c ; undefined
 15c:	00000000 	udf	#0
 160:	00000260 	udf	#608
 164:	00000000 	udf	#0
 168:	00000024 	udf	#36
 16c:	00000000 	udf	#0
 170:	402006ac 	.inst	0x402006ac ; undefined
 174:	00000000 	udf	#0
 178:	0000003c 	udf	#60
 17c:	00000000 	udf	#0
 180:	201d0c4c 	.inst	0x201d0c4c ; undefined
 184:	069e0493 	.inst	0x069e0493 ; undefined
 188:	0000089d 	udf	#2205
 18c:	00000000 	udf	#0
 190:	00000024 	udf	#36
 194:	00000000 	udf	#0
 198:	402006e8 	.inst	0x402006e8 ; undefined
 19c:	00000000 	udf	#0
 1a0:	0000003c 	udf	#60
 1a4:	00000000 	udf	#0
 1a8:	201d0c4c 	.inst	0x201d0c4c ; undefined
 1ac:	069e0493 	.inst	0x069e0493 ; undefined
 1b0:	0000089d 	udf	#2205
 1b4:	00000000 	udf	#0
 1b8:	00000014 	udf	#20
 1bc:	00000000 	udf	#0
 1c0:	40200724 	.inst	0x40200724 ; undefined
 1c4:	00000000 	udf	#0
 1c8:	0000001c 	udf	#28
 1cc:	00000000 	udf	#0
 1d0:	00000034 	udf	#52
 1d4:	00000000 	udf	#0
 1d8:	40200740 	.inst	0x40200740 ; undefined
 1dc:	00000000 	udf	#0
 1e0:	0000038c 	udf	#908
 1e4:	00000000 	udf	#0
 1e8:	601d0c60 	.inst	0x601d0c60 ; undefined
 1ec:	04940293 	sdiv	z19.s, p0/m, z19.s, z20.s
 1f0:	08960695 	stllrb	w21, [x20]
 1f4:	0c980a97 	st4	{v23.2s-v26.2s}, [x20], x24
 1f8:	109a0e99 	adr	x25, fffffffffff343c8 <__free_ram_end+0xffffffffbccee3c8>
 1fc:	149c129b 	b	2704c68 <_binary_shell_bin_size+0x16f3c68>
 200:	189d169e 	ldr	w30, fffffffffff3a4d0 <__free_ram_end+0xffffffffbccf44d0>
 204:	00000000 	udf	#0
 208:	00000024 	udf	#36
 20c:	00000000 	udf	#0
 210:	40200acc 	.inst	0x40200acc ; undefined
 214:	00000000 	udf	#0
 218:	000000d0 	udf	#208
 21c:	00000000 	udf	#0
 220:	301d0c50 	adr	x16, 3a3a9 <_binary_shell_bin_size-0xfd6c57>
 224:	04940293 	sdiv	z19.s, p0/m, z19.s, z20.s
 228:	0a9e0895 	and	w21, w4, w30, asr #2
 22c:	00000c9d 	udf	#3229
 230:	0000002c 	udf	#44
 234:	00000000 	udf	#0
 238:	40200b9c 	.inst	0x40200b9c ; undefined
 23c:	00000000 	udf	#0
 240:	000001c4 	udf	#452
 244:	00000000 	udf	#0
 248:	401d0c58 	.inst	0x401d0c58 ; undefined
 24c:	04940293 	sdiv	z19.s, p0/m, z19.s, z20.s
 250:	08960695 	stllrb	w21, [x20]
 254:	0c980a97 	st4	{v23.2s-v26.2s}, [x20], x24
 258:	109d0e9e 	adr	x30, fffffffffff3a428 <__free_ram_end+0xffffffffbccf4428>
 25c:	00000000 	udf	#0
 260:	00000034 	udf	#52
 264:	00000000 	udf	#0
 268:	40200d60 	.inst	0x40200d60 ; undefined
 26c:	00000000 	udf	#0
 270:	00000738 	udf	#1848
 274:	00000000 	udf	#0
 278:	601d0c64 	.inst	0x601d0c64 ; undefined
 27c:	04940293 	sdiv	z19.s, p0/m, z19.s, z20.s
 280:	08960695 	stllrb	w21, [x20]
 284:	0c980a97 	st4	{v23.2s-v26.2s}, [x20], x24
 288:	109a0e99 	adr	x25, fffffffffff34458 <__free_ram_end+0xffffffffbccee458>
 28c:	149c129b 	b	2704cf8 <_binary_shell_bin_size+0x16f3cf8>
 290:	189d169e 	ldr	w30, fffffffffff3a560 <__free_ram_end+0xffffffffbccf4560>
 294:	001c4805 	.inst	0x001c4805 ; undefined
 298:	00000024 	udf	#36
 29c:	00000000 	udf	#0
 2a0:	40201498 	.inst	0x40201498 ; undefined
 2a4:	00000000 	udf	#0
 2a8:	000000ec 	udf	#236
 2ac:	00000000 	udf	#0
 2b0:	301d0c50 	adr	x16, 3a439 <_binary_shell_bin_size-0xfd6bc7>
 2b4:	04940293 	sdiv	z19.s, p0/m, z19.s, z20.s
 2b8:	08960695 	stllrb	w21, [x20]
 2bc:	0c9d0a9e 	st4	{v30.2s-v1.2s}, [x20], x29
 2c0:	00000014 	udf	#20
 2c4:	00000000 	udf	#0
 2c8:	40201584 	.inst	0x40201584 ; undefined
 2cc:	00000000 	udf	#0
 2d0:	0000000c 	udf	#12
 2d4:	00000000 	udf	#0
 2d8:	00000014 	udf	#20
 2dc:	00000000 	udf	#0
 2e0:	40201590 	.inst	0x40201590 ; undefined
 2e4:	00000000 	udf	#0
 2e8:	0000000c 	udf	#12
 2ec:	00000000 	udf	#0
 2f0:	00000014 	udf	#20
 2f4:	00000000 	udf	#0
 2f8:	4020159c 	.inst	0x4020159c ; undefined
 2fc:	00000000 	udf	#0
 300:	0000000c 	udf	#12
 304:	00000000 	udf	#0
 308:	00000014 	udf	#20
 30c:	00000000 	udf	#0
 310:	402015a8 	.inst	0x402015a8 ; undefined
 314:	00000000 	udf	#0
 318:	00000014 	udf	#20
 31c:	00000000 	udf	#0
 320:	00000024 	udf	#36
 324:	00000000 	udf	#0
 328:	402015bc 	.inst	0x402015bc ; undefined
 32c:	00000000 	udf	#0
 330:	00000124 	udf	#292
 334:	00000000 	udf	#0
 338:	301d0c50 	adr	x16, 3a4c1 <_binary_shell_bin_size-0xfd6b3f>
 33c:	04940293 	sdiv	z19.s, p0/m, z19.s, z20.s
 340:	0a9e0895 	and	w21, w4, w30, asr #2
 344:	00000c9d 	udf	#3229
 348:	00000024 	udf	#36
 34c:	00000000 	udf	#0
 350:	402016e0 	.inst	0x402016e0 ; undefined
 354:	00000000 	udf	#0
 358:	00000174 	udf	#372
 35c:	00000000 	udf	#0
 360:	201d0c50 	.inst	0x201d0c50 ; undefined
 364:	04940293 	sdiv	z19.s, p0/m, z19.s, z20.s
 368:	089d069e 	stllrb	w30, [x20]
 36c:	00000000 	udf	#0
 370:	00000014 	udf	#20
 374:	00000000 	udf	#0
 378:	40201854 	.inst	0x40201854 ; undefined
 37c:	00000000 	udf	#0
 380:	00000040 	udf	#64
 384:	00000000 	udf	#0
 388:	00000014 	udf	#20
 38c:	00000000 	udf	#0
 390:	40201894 	.inst	0x40201894 ; undefined
 394:	00000000 	udf	#0
 398:	00000014 	udf	#20
 39c:	00000000 	udf	#0
 3a0:	00000034 	udf	#52
 3a4:	00000000 	udf	#0
 3a8:	402018a8 	.inst	0x402018a8 ; undefined
 3ac:	00000000 	udf	#0
 3b0:	000002c0 	udf	#704
 3b4:	00000000 	udf	#0
 3b8:	601d0c60 	.inst	0x601d0c60 ; undefined
 3bc:	04940293 	sdiv	z19.s, p0/m, z19.s, z20.s
 3c0:	08960695 	stllrb	w21, [x20]
 3c4:	0c980a97 	st4	{v23.2s-v26.2s}, [x20], x24
 3c8:	109a0e99 	adr	x25, fffffffffff34598 <__free_ram_end+0xffffffffbccee598>
 3cc:	149c129b 	b	2704e38 <_binary_shell_bin_size+0x16f3e38>
 3d0:	189d169e 	ldr	w30, fffffffffff3a6a0 <__free_ram_end+0xffffffffbccf46a0>
 3d4:	00000000 	udf	#0
 3d8:	00000014 	udf	#20
 3dc:	00000000 	udf	#0
 3e0:	40201b68 	.inst	0x40201b68 ; undefined
 3e4:	00000000 	udf	#0
 3e8:	00000044 	udf	#68
 3ec:	00000000 	udf	#0
 3f0:	00000034 	udf	#52
 3f4:	00000000 	udf	#0
 3f8:	40201bac 	.inst	0x40201bac ; undefined
 3fc:	00000000 	udf	#0
 400:	00000274 	udf	#628
 404:	00000000 	udf	#0
 408:	601d0c5c 	.inst	0x601d0c5c ; undefined
 40c:	04940293 	sdiv	z19.s, p0/m, z19.s, z20.s
 410:	08960695 	stllrb	w21, [x20]
 414:	0c980a97 	st4	{v23.2s-v26.2s}, [x20], x24
 418:	109a0e99 	adr	x25, fffffffffff345e8 <__free_ram_end+0xffffffffbccee5e8>
 41c:	149c129b 	b	2704e88 <_binary_shell_bin_size+0x16f3e88>
 420:	189d169e 	ldr	w30, fffffffffff3a6f0 <__free_ram_end+0xffffffffbccf46f0>
 424:	00000000 	udf	#0
 428:	0000001c 	udf	#28
 42c:	00000000 	udf	#0
 430:	40201e20 	.inst	0x40201e20 ; undefined
 434:	00000000 	udf	#0
 438:	00000108 	udf	#264
 43c:	00000000 	udf	#0
 440:	101d0c48 	adr	x8, 3a5c8 <_binary_shell_bin_size-0xfd6a38>
 444:	049d029e 	.inst	0x049d029e ; undefined
 448:	00000014 	udf	#20
 44c:	00000000 	udf	#0
 450:	40200000 	.inst	0x40200000 ; undefined
 454:	00000000 	udf	#0
 458:	00000018 	udf	#24
 45c:	00000000 	udf	#0
 460:	00000014 	udf	#20
 464:	ffffffff 	.inst	0xffffffff ; undefined
 468:	00080004 	.inst	0x00080004 ; undefined
 46c:	0c1e7c01 	.inst	0x0c1e7c01 ; undefined
 470:	0000001f 	udf	#31
 474:	00000000 	udf	#0
 478:	00000014 	udf	#20
 47c:	00000460 	udf	#1120
 480:	40201f28 	.inst	0x40201f28 ; undefined
 484:	00000000 	udf	#0
 488:	000000c8 	udf	#200
 48c:	00000000 	udf	#0
 490:	00000014 	udf	#20
 494:	00000460 	udf	#1120
 498:	40201ff0 	.inst	0x40201ff0 ; undefined
 49c:	00000000 	udf	#0
 4a0:	000000a0 	udf	#160
 4a4:	00000000 	udf	#0
 4a8:	00000014 	udf	#20
 4ac:	00000460 	udf	#1120
 4b0:	40202090 	.inst	0x40202090 ; undefined
 4b4:	00000000 	udf	#0
 4b8:	00000028 	udf	#40
 4bc:	00000000 	udf	#0
 4c0:	00000014 	udf	#20
 4c4:	00000460 	udf	#1120
 4c8:	402020b8 	.inst	0x402020b8 ; undefined
 4cc:	00000000 	udf	#0
 4d0:	00000030 	udf	#48
 4d4:	00000000 	udf	#0
 4d8:	0000002c 	udf	#44
 4dc:	00000460 	udf	#1120
 4e0:	402020e8 	.inst	0x402020e8 ; undefined
 4e4:	00000000 	udf	#0
 4e8:	00000244 	udf	#580
 4ec:	00000000 	udf	#0
 4f0:	501d0c5c 	adr	x28, 3a67a <_binary_shell_bin_size-0xfd6986>
 4f4:	04940293 	sdiv	z19.s, p0/m, z19.s, z20.s
 4f8:	08960695 	stllrb	w21, [x20]
 4fc:	0c980a97 	st4	{v23.2s-v26.2s}, [x20], x24
 500:	129e109c 	mov	w28, #0xffff0f7b            	// #-61573
 504:	0000149d 	udf	#5277
 508:	00000014 	udf	#20
 50c:	ffffffff 	.inst	0xffffffff ; undefined
 510:	00080004 	.inst	0x00080004 ; undefined
 514:	0c1e7c01 	.inst	0x0c1e7c01 ; undefined
 518:	0000001f 	udf	#31
 51c:	00000000 	udf	#0
 520:	00000024 	udf	#36
 524:	00000508 	udf	#1288
 528:	40202418 	.inst	0x40202418 ; undefined
 52c:	00000000 	udf	#0
 530:	00000094 	udf	#148
 534:	00000000 	udf	#0
 538:	301d0c50 	adr	x16, 3a6c1 <_binary_shell_bin_size-0xfd693f>
 53c:	04940293 	sdiv	z19.s, p0/m, z19.s, z20.s
 540:	0a9e0895 	and	w21, w4, w30, asr #2
 544:	00000c9d 	udf	#3229
 548:	00000014 	udf	#20
 54c:	00000508 	udf	#1288
 550:	402024ac 	.inst	0x402024ac ; undefined
 554:	00000000 	udf	#0
 558:	00000004 	udf	#4
 55c:	00000000 	udf	#0
 560:	00000014 	udf	#20
 564:	00000508 	udf	#1288
 568:	402024b0 	.inst	0x402024b0 ; undefined
 56c:	00000000 	udf	#0
 570:	00000004 	udf	#4
 574:	00000000 	udf	#0
 578:	00000014 	udf	#20
 57c:	00000508 	udf	#1288
 580:	402024b4 	.inst	0x402024b4 ; undefined
 584:	00000000 	udf	#0
 588:	00000004 	udf	#4
 58c:	00000000 	udf	#0
 590:	00000014 	udf	#20
 594:	00000508 	udf	#1288
 598:	402024b8 	.inst	0x402024b8 ; undefined
 59c:	00000000 	udf	#0
 5a0:	00000004 	udf	#4
 5a4:	00000000 	udf	#0
 5a8:	00000014 	udf	#20
 5ac:	00000508 	udf	#1288
 5b0:	402024bc 	.inst	0x402024bc ; undefined
 5b4:	00000000 	udf	#0
 5b8:	00000004 	udf	#4
 5bc:	00000000 	udf	#0
 5c0:	00000014 	udf	#20
 5c4:	00000508 	udf	#1288
 5c8:	402024c0 	.inst	0x402024c0 ; undefined
 5cc:	00000000 	udf	#0
 5d0:	00000004 	udf	#4
 5d4:	00000000 	udf	#0
 5d8:	00000014 	udf	#20
 5dc:	00000508 	udf	#1288
 5e0:	402024c4 	.inst	0x402024c4 ; undefined
 5e4:	00000000 	udf	#0
 5e8:	00000004 	udf	#4
 5ec:	00000000 	udf	#0
 5f0:	00000014 	udf	#20
 5f4:	00000508 	udf	#1288
 5f8:	402024c8 	.inst	0x402024c8 ; undefined
 5fc:	00000000 	udf	#0
 600:	00000004 	udf	#4
 604:	00000000 	udf	#0

Disassembly of section .debug_line:

0000000000000000 <.debug_line>:
       0:	00000e2c 	udf	#3628
       4:	00080005 	.inst	0x00080005 ; undefined
       8:	00000065 	udf	#101
       c:	fb010101 	.inst	0xfb010101 ; undefined
      10:	01000d0e 	.inst	0x01000d0e ; undefined
      14:	00010101 	.inst	0x00010101 ; undefined
      18:	00010000 	.inst	0x00010000 ; undefined
      1c:	01010100 	.inst	0x01010100 ; undefined
      20:	0009021f 	.inst	0x0009021f ; undefined
      24:	00470000 	.inst	0x00470000 ; undefined
      28:	01030000 	.inst	0x01030000 ; undefined
      2c:	050f021f 	.inst	0x050f021f ; undefined
      30:	0000031e 	udf	#798
      34:	60000000 	.inst	0x60000000 ; undefined
      38:	db7cac2e 	.inst	0xdb7cac2e ; undefined
      3c:	68d43c87 	ldpsw	x7, x15, [x4], #160
      40:	bdd88cb5 	.inst	0xbdd88cb5 ; undefined
      44:	572795e1 	.inst	0x572795e1 ; undefined
      48:	01000000 	.inst	0x01000000 ; undefined
      4c:	f867de19 	ldraa	x25, [x16, #-3096]!
      50:	007e217c 	.inst	0x007e217c ; undefined
      54:	0fc8ea22 	.inst	0x0fc8ea22 ; undefined
      58:	c0918c6c 	.inst	0xc0918c6c ; undefined
      5c:	00000026 	udf	#38
      60:	ceb85001 	.inst	0xceb85001 ; undefined
      64:	86f6f985 	.inst	0x86f6f985 ; undefined
      68:	fd22db0d 	str	d13, [x24, #17840]
      6c:	10da99e6 	adr	x6, fffffffffffb53a8 <__free_ram_end+0xffffffffbcd6f3a8>
      70:	00000484 	udf	#1156
      74:	00180209 	.inst	0x00180209 ; undefined
      78:	00004020 	udf	#16416
      7c:	14030000 	b	c007c <_binary_shell_bin_size-0xf50f84>
      80:	0a050501 	and	w1, w8, w5, lsl #1
      84:	05be0b89 	uzp1	z9.q, z28.q, z30.q
      88:	05058500 	.inst	0x05058500 ; undefined
      8c:	8279030a 	.inst	0x8279030a ; undefined
      90:	030b0205 	.inst	0x030b0205 ; undefined
      94:	053c0809 	ext	z9.b, z9.b, z0.b, #226
      98:	05058400 	.inst	0x05058400 ; undefined
      9c:	8275030a 	.inst	0x8275030a ; undefined
      a0:	1a030605 	.inst	0x1a030605 ; undefined
      a4:	0b063c08 	add	w8, w0, w6, lsl #15
      a8:	06000582 	.inst	0x06000582 ; undefined
      ac:	0a050588 	and	w8, w12, w5, lsl #1
      b0:	0d030a4b 	.inst	0x0d030a4b ; undefined
      b4:	1d053c08 	.inst	0x1d053c08 ; undefined
      b8:	4c09054b 	.inst	0x4c09054b ; undefined
      bc:	79080505 	strh	w5, [x8, #1026]
      c0:	03064ec2 	.inst	0x03064ec2 ; undefined
      c4:	064a7fa2 	.inst	0x064a7fa2 ; undefined
      c8:	4a00ea03 	.inst	0x4a00ea03 ; undefined
      cc:	78030b05 	sttrh	w5, [x24, #48]
      d0:	4b050582 	sub	w2, w12, w5, lsl #1
      d4:	0905890b 	.inst	0x0905890b ; undefined
      d8:	05826403 	and	z3.d, z3.d, #0xfff00000001fffff
      dc:	ba200300 	.inst	0xba200300 ; undefined
      e0:	bc0a1505 	str	s5, [x8], #161
      e4:	4c14054b 	.inst	0x4c14054b ; undefined
      e8:	057f1505 	ext	z5.b, {z8.b-z9.b}, #253
      ec:	09054b10 	.inst	0x09054b10 ; undefined
      f0:	4810054c 	stxrh	w16, w12, [x10]
      f4:	4b4c0905 	sub	w5, w8, w12, lsr #2
      f8:	ae080505 	.inst	0xae080505 ; undefined
      fc:	4a0b06bb 	eor	w27, w21, w11, lsl #1
     100:	bd060005 	str	s5, [x0, #1536]
     104:	080a0a05 	stxrb	w10, w5, [x16]
     108:	06090575 	.inst	0x06090575 ; undefined
     10c:	054b064a 	.inst	0x054b064a ; undefined
     110:	05e5080a 	.inst	0x05e5080a ; undefined
     114:	064a0609 	.inst	0x064a0609 ; undefined
     118:	0827054b 	.inst	0x0827054b ; undefined
     11c:	4c0a05e7 	.inst	0x4c0a05e7 ; undefined
     120:	4a060905 	eor	w5, w8, w6, lsl #2
     124:	03061505 	.inst	0x03061505 ; undefined
     128:	14054a6d 	b	152adc <_binary_shell_bin_size-0xebe524>
     12c:	7f15054d 	.inst	0x7f15054d ; undefined
     130:	054b1005 	.inst	0x054b1005 ; undefined
     134:	10054c09 	adr	x9, aab4 <_binary_shell_bin_size-0x100654c>
     138:	4c090548 	.inst	0x4c090548 ; undefined
     13c:	8c03064b 	.inst	0x8c03064b ; undefined
     140:	05ac087f 	uzp1	z31.q, z3.q, z12.q
     144:	f6030605 	.inst	0xf6030605 ; undefined
     148:	09054a00 	.inst	0x09054a00 ; undefined
     14c:	74080f03 	.inst	0x74080f03 ; undefined
     150:	05f32905 	tbl	z5.d, {z8.d-z9.d}, z19.d
     154:	05ba0643 	zip2	z3.q, z18.q, z26.q
     158:	30054a1c 	adr	x28, aa99 <_binary_shell_bin_size-0x1006567>
     15c:	20054c06 	.inst	0x20054c06 ; undefined
     160:	4c0a054d 	.inst	0x4c0a054d ; undefined
     164:	ba060905 	.inst	0xba060905 ; undefined
     168:	03061505 	.inst	0x03061505 ; undefined
     16c:	14054a63 	b	152af8 <_binary_shell_bin_size-0xebe508>
     170:	7f15054d 	.inst	0x7f15054d ; undefined
     174:	054b1005 	.inst	0x054b1005 ; undefined
     178:	10054c09 	adr	x9, aaf8 <_binary_shell_bin_size-0x1006508>
     17c:	4c090548 	.inst	0x4c090548 ; undefined
     180:	0805054b 	stxrb	w5, w11, [x10]
     184:	060005ae 	.inst	0x060005ae ; undefined
     188:	f27f8a03 	ands	x3, x16, #0xffffffffe
     18c:	f6030505 	.inst	0xf6030505 ; undefined
     190:	09058200 	.inst	0x09058200 ; undefined
     194:	4a190306 	eor	w6, w24, w25
     198:	05f32905 	tbl	z5.d, {z8.d-z9.d}, z19.d
     19c:	05ba0643 	zip2	z3.q, z18.q, z26.q
     1a0:	30054a1c 	adr	x28, aae1 <_binary_shell_bin_size-0x100651f>
     1a4:	20054c06 	.inst	0x20054c06 ; undefined
     1a8:	4c0a054d 	.inst	0x4c0a054d ; undefined
     1ac:	ba060905 	.inst	0xba060905 ; undefined
     1b0:	03061505 	.inst	0x03061505 ; undefined
     1b4:	14054a59 	b	152b18 <_binary_shell_bin_size-0xebe4e8>
     1b8:	7f15054d 	.inst	0x7f15054d ; undefined
     1bc:	054b1005 	.inst	0x054b1005 ; undefined
     1c0:	10054c09 	adr	x9, ab40 <_binary_shell_bin_size-0x10064c0>
     1c4:	4c090548 	.inst	0x4c090548 ; undefined
     1c8:	0805054b 	stxrb	w5, w11, [x10]
     1cc:	060005ae 	.inst	0x060005ae ; undefined
     1d0:	f27f8a03 	ands	x3, x16, #0xffffffffe
     1d4:	f6030505 	.inst	0xf6030505 ; undefined
     1d8:	09058200 	.inst	0x09058200 ; undefined
     1dc:	4a230306 	eon	w6, w24, w3
     1e0:	05f32905 	tbl	z5.d, {z8.d-z9.d}, z19.d
     1e4:	05ba0643 	zip2	z3.q, z18.q, z26.q
     1e8:	20054a1c 	.inst	0x20054a1c ; undefined
     1ec:	30054f06 	adr	x6, abcd <_binary_shell_bin_size-0x1006433>
     1f0:	4e4e0547 	fmaxnm	v7.8h, v10.8h, v14.8h
     1f4:	850b0105 	.inst	0x850b0105 ; undefined
     1f8:	05470505 	.inst	0x05470505 ; undefined
     1fc:	4e054d01 	.inst	0x4e054d01 ; undefined
     200:	0618057f 	.inst	0x0618057f ; undefined
     204:	0601054a 	.inst	0x0601054a ; undefined
     208:	0a05054d 	and	w13, w10, w5, lsl #1
     20c:	03000586 	.inst	0x03000586 ; undefined
     210:	01440220 	.inst	0x01440220 ; undefined
     214:	830a1705 	.inst	0x830a1705 ; undefined
     218:	054b0905 	.inst	0x054b0905 ; undefined
     21c:	01054905 	.inst	0x01054905 ; undefined
     220:	4c00054c 	st4	{v12.8h-v15.8h}, [x10]
     224:	080a0505 	stxrb	w10, w5, [x8]
     228:	0301053f 	.inst	0x0301053f ; undefined
     22c:	012c021c 	.inst	0x012c021c ; undefined
     230:	09030005 	.inst	0x09030005 ; undefined
     234:	0a13054a 	and	w10, w10, w19, lsl #1
     238:	b93f054f 	str	w15, [x10, #16132]
     23c:	05f31305 	.inst	0x05f31305 ; undefined
     240:	2a05ef1c 	.inst	0x2a05ef1c ; undefined
     244:	81210585 	.inst	0x81210585 ; undefined
     248:	05bb3305 	tbl	z5.s, {z24.s}, z27.s
     24c:	054a060d 	.inst	0x054a060d ; undefined
     250:	0581063a 	and	z26.b, z26.b, #0x3
     254:	054a063f 	.inst	0x054a063f ; undefined
     258:	05f30613 	.inst	0x05f30613 ; undefined
     25c:	0582062a 	and	z10.d, z10.d, #0x3ffffffffffff
     260:	05810621 	and	z1.b, z1.b, #0x3
     264:	0d05bb33 	.inst	0x0d05bb33 ; undefined
     268:	3a054a06 	.inst	0x3a054a06 ; undefined
     26c:	3f058106 	.inst	0x3f058106 ; undefined
     270:	13054a06 	sbfx	w6, w16, #5, #14
     274:	2a05f306 	.inst	0x2a05f306 ; undefined
     278:	2105ba06 	.inst	0x2105ba06 ; undefined
     27c:	33058106 	.inst	0x33058106 ; undefined
     280:	060d05bb 	.inst	0x060d05bb ; undefined
     284:	063a054a 	.inst	0x063a054a ; undefined
     288:	063f0581 	.inst	0x063f0581 ; undefined
     28c:	0613054a 	.inst	0x0613054a ; undefined
     290:	062a05f3 	.inst	0x062a05f3 ; undefined
     294:	06210582 	.inst	0x06210582 ; undefined
     298:	bb330581 	.inst	0xbb330581 ; undefined
     29c:	4a060d05 	eor	w5, w8, w6, lsl #3
     2a0:	81063a05 	.inst	0x81063a05 ; undefined
     2a4:	4a063f05 	eor	w5, w24, w6, lsl #15
     2a8:	f3061305 	.inst	0xf3061305 ; undefined
     2ac:	ba062a05 	.inst	0xba062a05 ; undefined
     2b0:	81062105 	.inst	0x81062105 ; undefined
     2b4:	05bb3305 	tbl	z5.s, {z24.s}, z27.s
     2b8:	054a060d 	.inst	0x054a060d ; undefined
     2bc:	0581063a 	and	z26.b, z26.b, #0x3
     2c0:	054a063f 	.inst	0x054a063f ; undefined
     2c4:	05f30613 	.inst	0x05f30613 ; undefined
     2c8:	0582062a 	and	z10.d, z10.d, #0x3ffffffffffff
     2cc:	05810621 	and	z1.b, z1.b, #0x3
     2d0:	0d05bb33 	.inst	0x0d05bb33 ; undefined
     2d4:	3a054a06 	.inst	0x3a054a06 ; undefined
     2d8:	3f058106 	.inst	0x3f058106 ; undefined
     2dc:	13054a06 	sbfx	w6, w16, #5, #14
     2e0:	2a05f306 	.inst	0x2a05f306 ; undefined
     2e4:	2105ba06 	.inst	0x2105ba06 ; undefined
     2e8:	33058106 	.inst	0x33058106 ; undefined
     2ec:	060d05bb 	.inst	0x060d05bb ; undefined
     2f0:	063a054a 	.inst	0x063a054a ; undefined
     2f4:	063f0581 	.inst	0x063f0581 ; undefined
     2f8:	0613054a 	.inst	0x0613054a ; undefined
     2fc:	062a05f3 	.inst	0x062a05f3 ; undefined
     300:	06210582 	.inst	0x06210582 ; undefined
     304:	bb330581 	.inst	0xbb330581 ; undefined
     308:	4a060d05 	eor	w5, w8, w6, lsl #3
     30c:	827e8703 	.inst	0x827e8703 ; undefined
     310:	03060905 	.inst	0x03060905 ; undefined
     314:	064a0280 	.inst	0x064a0280 ; undefined
     318:	827e8003 	.inst	0x827e8003 ; undefined
     31c:	03061205 	.inst	0x03061205 ; undefined
     320:	054a0285 	.inst	0x054a0285 ; undefined
     324:	2005502b 	.inst	0x2005502b ; undefined
     328:	03050547 	.inst	0x03050547 ; undefined
     32c:	1b054a09 	madd	w9, w16, w5, w18
     330:	2c021a03 	stnp	s3, s6, [x16, #16]
     334:	06260501 	.inst	0x06260501 ; undefined
     338:	4a05054a 	eor	w10, w10, w5, lsl #1
     33c:	4e060105 	tbl	v5.16b, {v8.16b}, v6.16b
     340:	054c0005 	.inst	0x054c0005 ; undefined
     344:	06bb0a05 	.inst	0x06bb0a05 ; undefined
     348:	ba7dce03 	.inst	0xba7dce03 ; undefined
     34c:	821c0306 	.inst	0x821c0306 ; undefined
     350:	9b030305 	madd	x5, x24, x3, x0
     354:	053c0802 	ext	z2.b, z2.b, z0.b, #226
     358:	00054605 	.inst	0x00054605 ; undefined
     35c:	0a050552 	and	w18, w10, w5, lsl #1
     360:	c40306bb 	ld1sb	{z27.d}, p1/z, [x21, z3.d, uxtw]
     364:	0306ba7d 	.inst	0x0306ba7d ; undefined
     368:	0305821c 	.inst	0x0305821c ; undefined
     36c:	0802a503 	stlxrb	w2, w3, [x8]
     370:	4605053c 	.inst	0x4605053c ; undefined
     374:	05520005 	mov	z5.h, p2/z, #0
     378:	05830a05 	and	z5.d, z5.d, #0xffff80000000
     37c:	080f0300 	stxrb	w15, w0, [x24]
     380:	0a16053c 	and	w28, w9, w22, lsl #1
     384:	0306e808 	.inst	0x0306e808 ; undefined
     388:	03827da7 	.inst	0x03827da7 ; undefined
     38c:	054a02d9 	.inst	0x054a02d9 ; undefined
     390:	16054a0d 	b	fffffffff8152bc4 <__free_ram_end+0xffffffffb4f0cbc4>
     394:	820d054a 	.inst	0x820d054a ; undefined
     398:	054a1605 	.inst	0x054a1605 ; undefined
     39c:	1605820d 	b	fffffffff8160bd0 <__free_ram_end+0xffffffffb4f1abd0>
     3a0:	820d054a 	.inst	0x820d054a ; undefined
     3a4:	054a1605 	.inst	0x054a1605 ; undefined
     3a8:	1605820d 	b	fffffffff8160bdc <__free_ram_end+0xffffffffb4f1abdc>
     3ac:	820d054a 	.inst	0x820d054a ; undefined
     3b0:	054a1605 	.inst	0x054a1605 ; undefined
     3b4:	1605820d 	b	fffffffff8160be8 <__free_ram_end+0xffffffffb4f1abe8>
     3b8:	820d054a 	.inst	0x820d054a ; undefined
     3bc:	52060905 	eor	w5, w8, #0x1c000000
     3c0:	7d9f0306 	.inst	0x7d9f0306 ; undefined
     3c4:	0605ac08 	.inst	0x0605ac08 ; undefined
     3c8:	02e70306 	.inst	0x02e70306 ; undefined
     3cc:	05014002 	orr	z2.s, z2.s, #0x1000000
     3d0:	7e890315 	.inst	0x7e890315 ; undefined
     3d4:	030b05ba 	.inst	0x030b05ba ; undefined
     3d8:	054a01fa 	.inst	0x054a01fa ; undefined
     3dc:	7e860315 	.inst	0x7e860315 ; undefined
     3e0:	030b054a 	.inst	0x030b054a ; undefined
     3e4:	054a01f7 	.inst	0x054a01f7 ; undefined
     3e8:	7e8c0314 	.inst	0x7e8c0314 ; undefined
     3ec:	030b0582 	.inst	0x030b0582 ; undefined
     3f0:	058201f4 	and	z20.d, z20.d, #0xffff
     3f4:	7e8a0310 	.inst	0x7e8a0310 ; undefined
     3f8:	4c09054a 	.inst	0x4c09054a ; undefined
     3fc:	f5030b05 	.inst	0xf5030b05 ; undefined
     400:	4c4c4a01 	.inst	0x4c4c4a01 ; undefined
     404:	054c4c4c 	.inst	0x054c4c4c ; undefined
     408:	7dff0310 	.inst	0x7dff0310 ; undefined
     40c:	4c09054a 	.inst	0x4c09054a ; undefined
     410:	0805054b 	stxrb	w5, w11, [x10]
     414:	031e05ae 	.inst	0x031e05ae ; undefined
     418:	05f201ff 	.inst	0x05f201ff ; undefined
     41c:	064a0609 	.inst	0x064a0609 ; undefined
     420:	0805054c 	stxrb	w5, w12, [x10]
     424:	850306b0 	.inst	0x850306b0 ; undefined
     428:	053c087d 	ext	z29.b, z29.b, z3.b, #226
     42c:	fd030609 	str	d9, [x16, #1544]
     430:	32058202 	orr	w2, w16, #0x8000800
     434:	490505f1 	.inst	0x490505f1 ; undefined
     438:	4008bc85 	.inst	0x4008bc85 ; undefined
     43c:	fb0306f3 	.inst	0xfb0306f3 ; undefined
     440:	15054a7c 	b	4152e30 <_binary_shell_bin_size+0x3141e30>
     444:	00f00306 	.inst	0x00f00306 ; undefined
     448:	4b1005ba 	sub	w26, w13, w16, lsl #1
     44c:	054c0905 	.inst	0x054c0905 ; undefined
     450:	09054810 	.inst	0x09054810 ; undefined
     454:	4d05054c 	.inst	0x4d05054c ; undefined
     458:	95031c05 	bl	40c746c <_binary_shell_bin_size+0x30b646c>
     45c:	0905f202 	.inst	0x0905f202 ; undefined
     460:	471c0585 	.inst	0x471c0585 ; undefined
     464:	7cf50306 	.inst	0x7cf50306 ; undefined
     468:	0625054a 	.inst	0x0625054a ; undefined
     46c:	4a038e03 	.inst	0x4a038e03 ; undefined
     470:	4a060905 	eor	w5, w8, w6, lsl #2
     474:	32054b06 	orr	w6, w24, #0xf8003fff
     478:	3c087603 	str	b3, [x16], #135
     47c:	7cfb0306 	.inst	0x7cfb0306 ; undefined
     480:	0305054a 	.inst	0x0305054a ; undefined
     484:	054a0385 	.inst	0x054a0385 ; undefined
     488:	eb030615 	subs	x21, x16, x3, lsl #1
     48c:	1005827d 	adr	x29, b4d8 <_binary_shell_bin_size-0x1005b28>
     490:	4c09054b 	.inst	0x4c09054b ; undefined
     494:	05481005 	.inst	0x05481005 ; undefined
     498:	064b4c09 	.inst	0x064b4c09 ; undefined
     49c:	087f8c03 	.inst	0x087f8c03 ; undefined
     4a0:	060505ac 	.inst	0x060505ac ; undefined
     4a4:	4a00f603 	.inst	0x4a00f603 ; undefined
     4a8:	03060005 	.inst	0x03060005 ; undefined
     4ac:	05ba7f8a 	.inst	0x05ba7f8a ; undefined
     4b0:	00f60305 	.inst	0x00f60305 ; undefined
     4b4:	9e03064a 	ucvtf	s10, x18, #63
     4b8:	03064a02 	.inst	0x03064a02 ; undefined
     4bc:	3c087cec 	str	b12, [x7, #135]!
     4c0:	03061505 	.inst	0x03061505 ; undefined
     4c4:	05ba00f0 	zip1	z16.q, z7.q, z26.q
     4c8:	09054b10 	.inst	0x09054b10 ; undefined
     4cc:	4810054c 	stxrh	w16, w12, [x10]
     4d0:	054c0905 	.inst	0x054c0905 ; undefined
     4d4:	09054d05 	.inst	0x09054d05 ; undefined
     4d8:	f202a503 	ands	x3, x8, #0xc0ffc0ffc0ffc0ff
     4dc:	3a082005 	.inst	0x3a082005 ; undefined
     4e0:	4a060505 	eor	w5, w8, w6, lsl #1
     4e4:	827ce703 	.inst	0x827ce703 ; undefined
     4e8:	03060d05 	.inst	0x03060d05 ; undefined
     4ec:	058202d9 	and	z25.d, z25.d, #0x7fffff
     4f0:	cc030b05 	.inst	0xcc030b05 ; undefined
     4f4:	0d058200 	.inst	0x0d058200 ; undefined
     4f8:	4a7fb403 	.inst	0x4a7fb403 ; undefined
     4fc:	cc030505 	.inst	0xcc030505 ; undefined
     500:	13054a00 	sbfx	w0, w16, #5, #14
     504:	4f05057d 	movi	v29.4s, #0xab
     508:	057f0e05 	ext	z5.b, {z16.b-z17.b}, #251
     50c:	0f054d05 	.inst	0x0f054d05 ; undefined
     510:	4f05057d 	movi	v29.4s, #0xab
     514:	cf030905 	.inst	0xcf030905 ; undefined
     518:	0806827d 	stlxrb	w6, w29, [x19]
     51c:	060005ac 	.inst	0x060005ac ; undefined
     520:	0802bb03 	stlxrb	w2, w3, [x24]
     524:	0a0905ac 	and	w12, w13, w9, lsl #1
     528:	05e508f5 	.inst	0x05e508f5 ; undefined
     52c:	0d05f30e 	.inst	0x0d05f30e ; undefined
     530:	0905ba06 	.inst	0x0905ba06 ; undefined
     534:	e5084806 	.inst	0xe5084806 ; undefined
     538:	05f30e05 	.inst	0x05f30e05 ; undefined
     53c:	03ba060d 	.inst	0x03ba060d ; undefined
     540:	064a7ccc 	.inst	0x064a7ccc ; undefined
     544:	f203b503 	ands	x3, x8, #0xe7ffe7ffe7ffe7ff
     548:	05b61e05 	trn2	z5.q, z16.q, z22.q
     54c:	0105be0d 	.inst	0x0105be0d ; undefined
     550:	4a0b0650 	eor	w16, w18, w11, lsl #1
     554:	f4060005 	.inst	0xf4060005 ; undefined
     558:	080a1b05 	stxrb	w10, w5, [x24]
     55c:	c0030677 	.inst	0xc0030677 ; undefined
     560:	05054a7c 	.inst	0x05054a7c ; undefined
     564:	03c10306 	.inst	0x03c10306 ; undefined
     568:	bf03064a 	.inst	0xbf03064a ; undefined
     56c:	06ac087c 	.inst	0x06ac087c ; undefined
     570:	05821c03 	and	z3.d, z3.d, #0xe00000003fffffff
     574:	03b60315 	.inst	0x03b60315 ; undefined
     578:	03063c08 	.inst	0x03063c08 ; undefined
     57c:	054a7cae 	.inst	0x054a7cae ; undefined
     580:	d9030623 	.inst	0xd9030623 ; undefined
     584:	15054a03 	b	4152d90 <_binary_shell_bin_size+0x3141d90>
     588:	4911054b 	.inst	0x4911054b ; undefined
     58c:	05481905 	.inst	0x05481905 ; undefined
     590:	4a78030d 	eon	w13, w24, w24, lsr #0
     594:	7cb10306 	.inst	0x7cb10306 ; undefined
     598:	06360582 	.inst	0x06360582 ; undefined
     59c:	ba03e203 	.inst	0xba03e203 ; undefined
     5a0:	054c1a05 	.inst	0x054c1a05 ; undefined
     5a4:	53054b21 	ubfx	w1, w25, #5, #14
     5a8:	065f05bb 	.inst	0x065f05bb ; undefined
     5ac:	4a0d054a 	eor	w10, w10, w13, lsl #1
     5b0:	05823b05 	and	z5.d, z5.d, #0xfe0000000003ffff
     5b4:	0d054a47 	.inst	0x0d054a47 ; undefined
     5b8:	0550064a 	mov	z10.h, p0/z, #50
     5bc:	1d05f411 	cpyptn	[x17]!, [x5]!, x0!
     5c0:	4c110583 	.inst	0x4c110583 ; undefined
     5c4:	03470583 	.inst	0x03470583 ; undefined
     5c8:	1105f274 	add	w20, w19, #0x17c
     5cc:	054a0d03 	.inst	0x054a0d03 ; undefined
     5d0:	1105bb1c 	add	w28, w24, #0x16e
     5d4:	8b03064b 	add	x11, x18, x3, lsl #1
     5d8:	21054a7c 	.inst	0x21054a7c ; undefined
     5dc:	03c30306 	.inst	0x03c30306 ; undefined
     5e0:	0305054a 	.inst	0x0305054a ; undefined
     5e4:	054a7cd9 	.inst	0x054a7cd9 ; undefined
     5e8:	03aa0314 	.inst	0x03aa0314 ; undefined
     5ec:	47057408 	.inst	0x47057408 ; undefined
     5f0:	05f22003 	mov	z3.h, z0.h[28]
     5f4:	4a110311 	eor	w17, w24, w17
     5f8:	05bd1505 	.inst	0x05bd1505 ; undefined
     5fc:	5f054b53 	.inst	0x5f054b53 ; undefined
     600:	0d054a06 	.inst	0x0d054a06 ; undefined
     604:	063b054a 	.inst	0x063b054a ; undefined
     608:	05826b03 	and	z3.d, z3.d, #0xfff8000000000fff
     60c:	054a0647 	.inst	0x054a0647 ; undefined
     610:	14030613 	b	c1e5c <_binary_shell_bin_size-0xf4f1a4>
     614:	4b0d054a 	sub	w10, w10, w13, lsl #1
     618:	0312054b 	.inst	0x0312054b ; undefined
     61c:	0505ba0b 	.inst	0x0505ba0b ; undefined
     620:	0b010547 	add	w7, w10, w1, lsl #1
     624:	030d0550 	.inst	0x030d0550 ; undefined
     628:	f3740876 	.inst	0xf3740876 ; undefined
     62c:	03060005 	.inst	0x03060005 ; undefined
     630:	ac087bff 	stnp	q31, q30, [sp, #256]
     634:	06f90306 	.inst	0x06f90306 ; undefined
     638:	0a050582 	and	w2, w12, w5, lsl #1
     63c:	06142402 	.inst	0x06142402 ; undefined
     640:	08798503 	.inst	0x08798503 ; undefined
     644:	06320574 	.inst	0x06320574 ; undefined
     648:	02079403 	.inst	0x02079403 ; undefined
     64c:	29050140 	stp	w0, w0, [x10, #40]
     650:	32054a06 	orr	w6, w16, #0xf8003fff
     654:	4a290582 	eon	w2, w12, w9, lsl #1
     658:	05821905 	and	z5.d, z5.d, #0xe00000000000003f
     65c:	32054a29 	orr	w9, w17, #0xf8003fff
     660:	4a19054a 	eor	w10, w10, w25, lsl #1
     664:	05822905 	and	z5.d, z5.d, #0xf80000000000000f
     668:	29054a19 	stp	w25, w18, [x16, #40]
     66c:	4a160582 	eor	w2, w12, w22, lsl #1
     670:	05821905 	and	z5.d, z5.d, #0xe00000000000003f
     674:	19054a16 	.inst	0x19054a16 ; undefined
     678:	08160582 	stxrb	w22, w2, [x12]
     67c:	8219053c 	.inst	0x8219053c ; undefined
     680:	054a3205 	.inst	0x054a3205 ; undefined
     684:	29054a16 	stp	w22, w18, [x16, #40]
     688:	4a1605f2 	eor	w18, w15, w22, lsl #1
     68c:	05822905 	and	z5.d, z5.d, #0xf80000000000000f
     690:	16054a32 	b	fffffffff8152f58 <__free_ram_end+0xffffffffb4f0cf58>
     694:	0819054a 	stxrb	w25, w10, [x10]
     698:	f21605e4 	ands	x4, x15, #0xc0000000c00
     69c:	05822905 	and	z5.d, z5.d, #0xf80000000000000f
     6a0:	32058216 	orr	w22, w16, #0x8000800
     6a4:	4a16054a 	eor	w10, w10, w22, lsl #1
     6a8:	ac081905 	stnp	q5, q6, [x8, #256]
     6ac:	05f22905 	tbl	z5.d, {z8.d-z9.d}, z18.d
     6b0:	32058216 	orr	w22, w16, #0x8000800
     6b4:	4a16054a 	eor	w10, w10, w22, lsl #1
     6b8:	ac081905 	stnp	q5, q6, [x8, #256]
     6bc:	054a2905 	.inst	0x054a2905 ; undefined
     6c0:	29054a19 	stp	w25, w18, [x16, #40]
     6c4:	4a1605ba 	eor	w26, w13, w22, lsl #1
     6c8:	054a3205 	.inst	0x054a3205 ; undefined
     6cc:	19054a16 	.inst	0x19054a16 ; undefined
     6d0:	2905ac08 	stp	w8, w11, [x0, #44]
     6d4:	4a19054a 	eor	w10, w10, w25, lsl #1
     6d8:	05ba2905 	tbl	z5.s, {z8.s-z9.s}, z26.s
     6dc:	16054a32 	b	fffffffff8152fa4 <__free_ram_end+0xffffffffb4f0cfa4>
     6e0:	0819054a 	stxrb	w25, w10, [x10]
     6e4:	4a2905e4 	eon	w4, w15, w9, lsl #1
     6e8:	054a1905 	.inst	0x054a1905 ; undefined
     6ec:	1605ba29 	b	fffffffff816ef90 <__free_ram_end+0xffffffffb4f28f90>
     6f0:	4a32054a 	eon	w10, w10, w18, lsl #1
     6f4:	054a1605 	.inst	0x054a1605 ; undefined
     6f8:	05ac0819 	uzp1	z25.q, z0.q, z12.q
     6fc:	19054a29 	.inst	0x19054a29 ; undefined
     700:	ba29054a 	.inst	0xba29054a ; undefined
     704:	054a3205 	.inst	0x054a3205 ; undefined
     708:	29054a16 	stp	w22, w18, [x16, #40]
     70c:	1905e408 	cpyfprtn	[x8]!, [x5]!, x0!
     710:	f229054a 	ands	x10, x10, #0x180000001800000
     714:	054a3205 	.inst	0x054a3205 ; undefined
     718:	29054a16 	stp	w22, w18, [x16, #40]
     71c:	1905e408 	cpyfprtn	[x8]!, [x5]!, x0!
     720:	f229054a 	ands	x10, x10, #0x180000001800000
     724:	054a3205 	.inst	0x054a3205 ; undefined
     728:	29054a16 	stp	w22, w18, [x16, #40]
     72c:	1905e408 	cpyfprtn	[x8]!, [x5]!, x0!
     730:	f229054a 	ands	x10, x10, #0x180000001800000
     734:	054a3205 	.inst	0x054a3205 ; undefined
     738:	29054a16 	stp	w22, w18, [x16, #40]
     73c:	1905e408 	cpyfprtn	[x8]!, [x5]!, x0!
     740:	f229054a 	ands	x10, x10, #0x180000001800000
     744:	054a3205 	.inst	0x054a3205 ; undefined
     748:	29054a16 	stp	w22, w18, [x16, #40]
     74c:	1905e408 	cpyfprtn	[x8]!, [x5]!, x0!
     750:	f229054a 	ands	x10, x10, #0x180000001800000
     754:	054a1605 	.inst	0x054a1605 ; undefined
     758:	05e40819 	.inst	0x05e40819 ; undefined
     75c:	0905f216 	.inst	0x0905f216 ; undefined
     760:	11240206 	add	w6, w16, #0x900
     764:	28021605 	stnp	w5, w5, [x16, #16]
     768:	86240517 	.inst	0x86240517 ; undefined
     76c:	05452305 	.inst	0x05452305 ; undefined
     770:	23058718 	.inst	0x23058718 ; undefined
     774:	06000545 	.inst	0x06000545 ; undefined
     778:	8278e903 	.inst	0x8278e903 ; undefined
     77c:	03061605 	.inst	0x03061605 ; undefined
     780:	054a0798 	.inst	0x054a0798 ; undefined
     784:	24054921 	cmpge	p1.b, p2/z, z9.b, z5.d
     788:	4521054f 	.inst	0x4521054f ; undefined
     78c:	4a062305 	eor	w5, w24, w6, lsl #8
     790:	05ba2105 	mov	z5.h, z8.h[22]
     794:	05870609 	.inst	0x05870609 ; undefined
     798:	0d054b10 	.inst	0x0d054b10 ; undefined
     79c:	e303ba06 	.inst	0xe303ba06 ; undefined
     7a0:	05054a78 	.inst	0x05054a78 ; undefined
     7a4:	06fd0306 	.inst	0x06fd0306 ; undefined
     7a8:	4b1e0582 	sub	w2, w12, w30, lsl #1
     7ac:	79820306 	ldrsh	x6, [x24, #256]
     7b0:	0614054a 	.inst	0x0614054a ; undefined
     7b4:	4a06ff03 	.inst	0x4a06ff03 ; undefined
     7b8:	4a060d05 	eor	w5, w8, w6, lsl #3
     7bc:	4d063c05 	.inst	0x4d063c05 ; undefined
     7c0:	054b0905 	.inst	0x054b0905 ; undefined
     7c4:	0905f324 	.inst	0x0905f324 ; undefined
     7c8:	24054a06 	cmpge	p6.b, p2/z, z16.b, z5.d
     7cc:	4a09054a 	eor	w10, w10, w9, lsl #1
     7d0:	4b061805 	sub	w5, w0, w6, lsl #6
     7d4:	4a060905 	eor	w5, w8, w6, lsl #2
     7d8:	bb061805 	.inst	0xbb061805 ; undefined
     7dc:	4a060905 	eor	w5, w8, w6, lsl #2
     7e0:	bb061805 	.inst	0xbb061805 ; undefined
     7e4:	4a060905 	eor	w5, w8, w6, lsl #2
     7e8:	be061c05 	.inst	0xbe061c05 ; undefined
     7ec:	054d1405 	.inst	0x054d1405 ; undefined
     7f0:	f27a0316 	ands	x22, x24, #0x40
     7f4:	05501405 	mov	z5.h, p0/z, #-96
     7f8:	1130022b 	add	w11, w17, #0xc00
     7fc:	82062305 	.inst	0x82062305 ; undefined
     800:	054a2b05 	.inst	0x054a2b05 ; undefined
     804:	14054a21 	b	153088 <_binary_shell_bin_size-0xebdf78>
     808:	2b054b06 	adds	w6, w24, w5, lsl #18
     80c:	4b140549 	sub	w9, w10, w20, lsl #1
     810:	05812305 	and	z5.s, z5.s, #0xf01fffff
     814:	2b054b14 	adds	w20, w24, w5, lsl #18
     818:	05113402 	.inst	0x05113402 ; undefined
     81c:	2b05bb14 	.inst	0x2b05bb14 ; undefined
     820:	f3140549 	.inst	0xf3140549 ; undefined
     824:	05812305 	and	z5.s, z5.s, #0xf01fffff
     828:	054a062b 	.inst	0x054a062b ; undefined
     82c:	2b05ba21 	.inst	0x2b05ba21 ; undefined
     830:	0614054a 	.inst	0x0614054a ; undefined
     834:	23053d08 	.inst	0x23053d08 ; undefined
     838:	062b0549 	.inst	0x062b0549 ; undefined
     83c:	4a21054a 	eon	w10, w10, w1, lsl #1
     840:	054a2305 	.inst	0x054a2305 ; undefined
     844:	21054a2b 	.inst	0x21054a2b ; undefined
     848:	4a230582 	eon	w2, w12, w3, lsl #1
     84c:	054a2b05 	.inst	0x054a2b05 ; undefined
     850:	05bb0614 	zip2	z20.q, z16.q, z27.q
     854:	2b054921 	adds	w1, w9, w5, lsl #18
     858:	14054a06 	b	153070 <_binary_shell_bin_size-0xebdf90>
     85c:	2b058306 	.inst	0x2b058306 ; undefined
     860:	06230549 	.inst	0x06230549 ; undefined
     864:	4a2b054a 	eon	w10, w10, w11, lsl #1
     868:	05822105 	and	z5.d, z5.d, #0xf00000000000001f
     86c:	23054a2b 	.inst	0x23054a2b ; undefined
     870:	06140582 	.inst	0x06140582 ; undefined
     874:	492b054b 	.inst	0x492b054b ; undefined
     878:	82062105 	.inst	0x82062105 ; undefined
     87c:	054a2b05 	.inst	0x054a2b05 ; undefined
     880:	2b058223 	.inst	0x2b058223 ; undefined
     884:	82210582 	.inst	0x82210582 ; undefined
     888:	054a2305 	.inst	0x054a2305 ; undefined
     88c:	f3034a21 	.inst	0xf3034a21 ; undefined
     890:	0905f278 	.inst	0x0905f278 ; undefined
     894:	07930306 	.inst	0x07930306 ; undefined
     898:	83290582 	.inst	0x83290582 ; undefined
     89c:	05493e05 	.inst	0x05493e05 ; undefined
     8a0:	09054b29 	.inst	0x09054b29 ; undefined
     8a4:	4b160549 	sub	w9, w10, w22, lsl #1
     8a8:	03490905 	.inst	0x03490905 ; undefined
     8ac:	0505820f 	.inst	0x0505820f ; undefined
     8b0:	1450020b 	b	14010dc <_binary_shell_bin_size+0x3f00dc>
     8b4:	e8030005 	.inst	0xe8030005 ; undefined
     8b8:	0130027c 	.inst	0x0130027c ; undefined
     8bc:	f50a0505 	.inst	0xf50a0505 ; undefined
     8c0:	05f91f05 	.inst	0x05f91f05 ; undefined
     8c4:	064d5105 	.inst	0x064d5105 ; undefined
     8c8:	827be003 	.inst	0x827be003 ; undefined
     8cc:	03060d05 	.inst	0x03060d05 ; undefined
     8d0:	3c0804a9 	str	b9, [x5], #128
     8d4:	031805bb 	.inst	0x031805bb ; undefined
     8d8:	0d05826d 	.inst	0x0d05826d ; undefined
     8dc:	bb4a1303 	.inst	0xbb4a1303 ; undefined
     8e0:	0b06f3f3 	.inst	0x0b06f3f3 ; undefined
     8e4:	7bd30382 	.inst	0x7bd30382 ; undefined
     8e8:	030b06f2 	.inst	0x030b06f2 ; undefined
     8ec:	038204a2 	.inst	0x038204a2 ; undefined
     8f0:	1805f20e 	ldr	w14, c730 <_binary_shell_bin_size-0x10048d0>
     8f4:	05826703 	and	z3.d, z3.d, #0xfff01fffffffffff
     8f8:	4a19030d 	eor	w13, w24, w25
     8fc:	080005bb 	stxrb	w0, w27, [x13]
     900:	0a0c05b0 	and	w16, w13, w12, lsl #1
     904:	0605054b 	.inst	0x0605054b ; undefined
     908:	0600054a 	.inst	0x0600054a ; undefined
     90c:	0a0c054d 	and	w13, w10, w12, lsl #1
     910:	0605054b 	.inst	0x0605054b ; undefined
     914:	0600054a 	.inst	0x0600054a ; undefined
     918:	0a3a054d 	bic	w13, w10, w26, lsl #1
     91c:	4b01054b 	sub	w11, w10, w1, lsl #1
     920:	054c0005 	.inst	0x054c0005 ; undefined
     924:	75030a0c 	.inst	0x75030a0c ; undefined
     928:	033a054a 	.inst	0x033a054a ; undefined
     92c:	05464a0c 	.inst	0x05464a0c ; undefined
     930:	00054f01 	.inst	0x00054f01 ; undefined
     934:	0a050552 	and	w18, w10, w5, lsl #1
     938:	3a057508 	.inst	0x3a057508 ; undefined
     93c:	3c087203 	stur	b3, [x16, #135]
     940:	16030505 	b	fffffffff80c1d54 <__free_ram_end+0xffffffffb4e7bd54>
     944:	054b7e4a 	.inst	0x054b7e4a ; undefined
     948:	4a65030c 	eon	w12, w24, w5, lsr #0
     94c:	1e030505 	.inst	0x1e030505 ; undefined
     950:	841d054a 	ld1sb	{z10.s}, p1/z, [x10, z29.s, uxtw]
     954:	06830905 	.inst	0x06830905 ; undefined
     958:	f27ba903 	ands	x3, x8, #0xffffffffffe0
     95c:	03061505 	.inst	0x03061505 ; undefined
     960:	058200f0 	and	z16.d, z16.d, #0xff
     964:	15054d14 	b	4153db4 <_binary_shell_bin_size+0x3142db4>
     968:	4b10057f 	sub	wzr, w11, w16, lsl #1
     96c:	054c0905 	.inst	0x054c0905 ; undefined
     970:	09054810 	.inst	0x09054810 ; undefined
     974:	05054b4c 	.inst	0x05054b4c ; undefined
     978:	e803ae08 	.inst	0xe803ae08 ; undefined
     97c:	0306f203 	.inst	0x0306f203 ; undefined
     980:	05f27ba2 	.inst	0x05f27ba2 ; undefined
     984:	ee03063a 	.inst	0xee03063a ; undefined
     988:	50038204 	adr	x4, 79ca <_binary_shell_bin_size-0x1009636>
     98c:	0305054a 	.inst	0x0305054a ; undefined
     990:	70034a34 	adr	x20, 72d7 <_binary_shell_bin_size-0x1009d29>
     994:	15054b82 	b	415379c <_binary_shell_bin_size+0x314279c>
     998:	4b14054d 	sub	w13, w10, w20, lsl #1
     99c:	0b030505 	add	w5, w8, w3, lsl #1
     9a0:	8278034a 	.inst	0x8278034a ; undefined
     9a4:	033a054b 	.inst	0x033a054b ; undefined
     9a8:	05054a53 	.inst	0x05054a53 ; undefined
     9ac:	4b4a3103 	sub	w3, w8, w10, lsr #12
     9b0:	4c01054c 	.inst	0x4c01054c ; undefined
     9b4:	054a0b06 	.inst	0x054a0b06 ; undefined
     9b8:	05f50600 	.inst	0x05f50600 ; undefined
     9bc:	75080a05 	.inst	0x75080a05 ; undefined
     9c0:	46033a05 	.inst	0x46033a05 ; undefined
     9c4:	05053c08 	.inst	0x05053c08 ; undefined
     9c8:	4b4a3e03 	sub	w3, w16, w10, lsr #15
     9cc:	054c1605 	.inst	0x054c1605 ; undefined
     9d0:	054a061b 	.inst	0x054a061b ; undefined
     9d4:	27054a05 	.inst	0x27054a05 ; undefined
     9d8:	7b810382 	.inst	0x7b810382 ; undefined
     9dc:	061605f2 	.inst	0x061605f2 ; undefined
     9e0:	4a059303 	.inst	0x4a059303 ; undefined
     9e4:	ab033a05 	adds	x5, x16, x3, lsl #14
     9e8:	05054a7f 	.inst	0x05054a7f ; undefined
     9ec:	4a00c503 	.inst	0x4a00c503 ; undefined
     9f0:	030c054b 	.inst	0x030c054b ; undefined
     9f4:	054a7fb2 	.inst	0x054a7fb2 ; undefined
     9f8:	00d20343 	.inst	0x00d20343 ; undefined
     9fc:	033a054a 	.inst	0x033a054a ; undefined
     a00:	054a7fb6 	.inst	0x054a7fb6 ; undefined
     a04:	00cb0305 	.inst	0x00cb0305 ; undefined
     a08:	0c054b4a 	.inst	0x0c054b4a ; undefined
     a0c:	4a7fac03 	.inst	0x4a7fac03 ; undefined
     a10:	d8034305 	prfm	pldl3strm, 7270 <_binary_shell_bin_size-0x1009d90>
     a14:	3a054a00 	.inst	0x3a054a00 ; undefined
     a18:	4a7fb003 	.inst	0x4a7fb003 ; undefined
     a1c:	d1030505 	sub	x5, x8, #0xc1
     a20:	054b4a00 	.inst	0x054b4a00 ; undefined
     a24:	14054d16 	b	153e7c <_binary_shell_bin_size-0xebd184>
     a28:	09054a06 	.inst	0x09054a06 ; undefined
     a2c:	0c058306 	.inst	0x0c058306 ; undefined
     a30:	4a7fa203 	.inst	0x4a7fa203 ; undefined
     a34:	ea030505 	ands	x5, x8, x3, lsl #1
     a38:	43054a00 	.inst	0x43054a00 ; undefined
     a3c:	05827a03 	and	z3.d, z3.d, #0xfffe000000000003
     a40:	7fa4033a 	.inst	0x7fa4033a ; undefined
     a44:	0305054a 	.inst	0x0305054a ; undefined
     a48:	4b4a00dd 	sub	w29, w6, w10, lsr #0
     a4c:	9e030c05 	ucvtf	s5, x0, #61
     a50:	14054a7f 	b	15344c <_binary_shell_bin_size-0xebdbb4>
     a54:	4a00e503 	.inst	0x4a00e503 ; undefined
     a58:	4a061205 	eor	w5, w16, w6, lsl #4
     a5c:	83060505 	.inst	0x83060505 ; undefined
     a60:	d0031505 	adrp	x5, 62a2000 <_binary_shell_bin_size+0x5291000>
     a64:	14054a7b 	b	153450 <_binary_shell_bin_size-0xebdbb0>
     a68:	7f15054d 	.inst	0x7f15054d ; undefined
     a6c:	054b1005 	.inst	0x054b1005 ; undefined
     a70:	10054c09 	adr	x9, b3f0 <_binary_shell_bin_size-0x1005c10>
     a74:	4c090548 	.inst	0x4c090548 ; undefined
     a78:	04a1034b 	add	z11.s, z26.s, z1.s
     a7c:	0505ac08 	.inst	0x0505ac08 ; undefined
     a80:	087be103 	.inst	0x087be103 ; undefined
     a84:	031305ac 	.inst	0x031305ac ; undefined
     a88:	05f204ad 	.inst	0x05f204ad ; undefined
     a8c:	05054b0d 	.inst	0x05054b0d ; undefined
     a90:	b813054b 	str	w11, [x10], #-208
     a94:	054b0d05 	.inst	0x054b0d05 ; undefined
     a98:	4b4b4b05 	sub	w5, w24, w11, lsr #18
     a9c:	4b0b0105 	sub	w5, w8, w11
     aa0:	f80a1e05 	str	x5, [x16, #161]!
     aa4:	4a060505 	eor	w5, w8, w6, lsl #1
     aa8:	4b061405 	sub	w5, w0, w6, lsl #5
     aac:	05491e05 	.inst	0x05491e05 ; undefined
     ab0:	37054b14 	tbnz	w20, #0, ffffffffffffb410 <__free_ram_end+0xffffffffbcdb5410>
     ab4:	84050549 	ld1sb	{z9.s}, p1/z, [x10, z5.s, uxtw]
     ab8:	4b35054b 	sub	w11, w10, w21, uxtb #1
     abc:	8c033a05 	.inst	0x8c033a05 ; undefined
     ac0:	1805827f 	ldr	wzr, bb0c <_binary_shell_bin_size-0x10054f4>
     ac4:	4a00f503 	.inst	0x4a00f503 ; undefined
     ac8:	05bb0105 	zip1	z5.q, z8.q, z27.q
     acc:	054e0a10 	.inst	0x054e0a10 ; undefined
     ad0:	054a0627 	.inst	0x054a0627 ; undefined
     ad4:	05054a20 	.inst	0x05054a20 ; undefined
     ad8:	06000582 	.inst	0x06000582 ; undefined
     adc:	0a2a054e 	bic	w14, w10, w10, lsl #1
     ae0:	06132402 	.inst	0x06132402 ; undefined
     ae4:	087ac303 	.inst	0x087ac303 ; undefined
     ae8:	05bd0374 	zip1	z20.q, z27.q, z29.q
     aec:	4a05054a 	eor	w10, w10, w5, lsl #1
     af0:	05ba2a05 	tbl	z5.s, {z16.s-z17.s}, z26.s
     af4:	1f054a05 	fmadd	s5, s16, s5, s18
     af8:	05054c06 	.inst	0x05054c06 ; undefined
     afc:	461f054e 	.inst	0x461f054e ; undefined
     b00:	054e0505 	.inst	0x054e0505 ; undefined
     b04:	1f054c17 	fmadd	s23, s0, s5, s19
     b08:	4f150545 	sshr	v5.8h, v10.8h, #11
     b0c:	05801305 	and	z5.s, z5.s, #0xc07fffff
     b10:	09054d15 	.inst	0x09054d15 ; undefined
     b14:	4b19054c 	sub	w12, w10, w25, lsl #1
     b18:	4a060905 	eor	w5, w8, w6, lsl #2
     b1c:	ba7ab703 	.inst	0xba7ab703 ; undefined
     b20:	03060505 	.inst	0x03060505 ; undefined
     b24:	05ba05ce 	zip2	z14.q, z14.q, z26.q
     b28:	054a0622 	.inst	0x054a0622 ; undefined
     b2c:	05bd062e 	zip2	z14.q, z17.q, z29.q
     b30:	2205801f 	.inst	0x2205801f ; undefined
     b34:	84210549 	prfb	pstl1strm, p1, [x10, z1.s, uxtw]
     b38:	054b2205 	.inst	0x054b2205 ; undefined
     b3c:	4a260305 	eon	w5, w24, w6
     b40:	5a032005 	.inst	0x5a032005 ; undefined
     b44:	05057f82 	.inst	0x05057f82 ; undefined
     b48:	464a0903 	.inst	0x464a0903 ; undefined
     b4c:	4d26054b 	.inst	0x4d26054b ; undefined
     b50:	054b2305 	.inst	0x054b2305 ; undefined
     b54:	00054934 	.inst	0x00054934 ; undefined
     b58:	7aa90306 	.inst	0x7aa90306 ; undefined
     b5c:	0324054a 	.inst	0x0324054a ; undefined
     b60:	054a05d7 	.inst	0x054a05d7 ; undefined
     b64:	05500632 	mov	z18.h, p0/z, #49
     b68:	05474d26 	.inst	0x05474d26 ; undefined
     b6c:	24054d05 	cmpge	p5.b, p3/z, z8.b, z5.d
     b70:	4d340547 	.inst	0x4d340547 ; undefined
     b74:	ba062405 	.inst	0xba062405 ; undefined
     b78:	4f060505 	movi	v5.4s, #0xc8
     b7c:	bd1e054b 	str	s11, [x10, #7684]
     b80:	4a063705 	eor	w5, w24, w6, lsl #13
     b84:	4b060505 	sub	w5, w8, w6, lsl #1
     b88:	4b14054b 	sub	w11, w10, w20, lsl #1
     b8c:	05503505 	mov	z5.h, p0/z, #-22528
     b90:	14054722 	b	152818 <_binary_shell_bin_size-0xebe7e8>
     b94:	03050547 	.inst	0x03050547 ; undefined
     b98:	3a05820b 	.inst	0x3a05820b ; undefined
     b9c:	4a7ec703 	.inst	0x4a7ec703 ; undefined
     ba0:	b5030505 	cbnz	x5, 6c40 <_binary_shell_bin_size-0x100a3c0>
     ba4:	4d4b4a01 	.inst	0x4d4b4a01 ; undefined
     ba8:	05521505 	mov	z5.h, p2/z, #-88
     bac:	034a0605 	.inst	0x034a0605 ; undefined
     bb0:	05827a81 	and	z1.d, z1.d, #0xfffe00000000003f
     bb4:	80030609 	.inst	0x80030609 ; undefined
     bb8:	012c0206 	.inst	0x012c0206 ; undefined
     bbc:	05f41e05 	.inst	0x05f41e05 ; undefined
     bc0:	054a060d 	.inst	0x054a060d ; undefined
     bc4:	b403060c 	cbz	x12, 6c84 <_binary_shell_bin_size-0x100a37c>
     bc8:	1105827e 	add	w30, w19, #0x160
     bcc:	4a01cf03 	.inst	0x4a01cf03 ; undefined
     bd0:	8441054b 	ld1sb	{z11.s}, p1/z, [x10, z1.s, sxtw]
     bd4:	b6033a05 	tbz	x5, #32, 7314 <_binary_shell_bin_size-0x1009cec>
     bd8:	11054a7e 	add	w30, w19, #0x152
     bdc:	4a01cb03 	.inst	0x4a01cb03 ; undefined
     be0:	76030505 	.inst	0x76030505 ; undefined
     be4:	0600054a 	.inst	0x0600054a ; undefined
     be8:	4a0505ba 	eor	w26, w13, w5, lsl #1
     bec:	f27a8103 	ands	x3, x8, #0x7fffffffc0
     bf0:	03060905 	.inst	0x03060905 ; undefined
     bf4:	0382068e 	.inst	0x0382068e ; undefined
     bf8:	12054a0a 	and	w10, w16, #0xf8003fff
     bfc:	09054a06 	.inst	0x09054a06 ; undefined
     c00:	4b0b064a 	sub	w10, w18, w11, lsl #1
     c04:	05162802 	.inst	0x05162802 ; undefined
     c08:	09054b1e 	.inst	0x09054b1e ; undefined
     c0c:	bb064a06 	.inst	0xbb064a06 ; undefined
     c10:	05f62205 	mov	z5.h, z16.h[29]
     c14:	064b0b01 	.inst	0x064b0b01 ; undefined
     c18:	4a79dc03 	.inst	0x4a79dc03 ; undefined
     c1c:	4a06a403 	.inst	0x4a06a403 ; undefined
     c20:	49061405 	.inst	0x49061405 ; undefined
     c24:	054b0105 	.inst	0x054b0105 ; undefined
     c28:	086b0309 	.inst	0x086b0309 ; undefined
     c2c:	033a0574 	.inst	0x033a0574 ; undefined
     c30:	05ba7eaf 	.inst	0x05ba7eaf ; undefined
     c34:	01d40309 	.inst	0x01d40309 ; undefined
     c38:	054b0b4a 	.inst	0x054b0b4a ; undefined
     c3c:	c4030a05 	ld1sb	{z5.d}, p2/z, [x16, z3.d, uxtw]
     c40:	06e40800 	.inst	0x06e40800 ; undefined
     c44:	8279a903 	.inst	0x8279a903 ; undefined
     c48:	d7031705 	.inst	0xd7031705 ; undefined
     c4c:	0d054a06 	.inst	0x0d054a06 ; undefined
     c50:	1a054b06 	.inst	0x1a054b06 ; undefined
     c54:	21054a06 	.inst	0x21054a06 ; undefined
     c58:	1705bd06 	b	fffffffffc170070 <__free_ram_end+0xffffffffb8f2a070>
     c5c:	05054e46 	.inst	0x05054e46 ; undefined
     c60:	03065046 	.inst	0x03065046 ; undefined
     c64:	038279a3 	.inst	0x038279a3 ; undefined
     c68:	054a06dd 	.inst	0x054a06dd ; undefined
     c6c:	05850600 	.inst	0x05850600 ; undefined
     c70:	ae080a09 	.inst	0xae080a09 ; undefined
     c74:	799e0306 	ldrsh	x6, [x24, #3840]
     c78:	05015802 	orr	z2.s, z2.s, #0x200000
     c7c:	ee03061e 	.inst	0xee03061e ; undefined
     c80:	01300206 	.inst	0x01300206 ; undefined
     c84:	054b1605 	.inst	0x054b1605 ; undefined
     c88:	16054b09 	b	fffffffff81538ac <__free_ram_end+0xffffffffb4f0d8ac>
     c8c:	49064a06 	.inst	0x49064a06 ; undefined
     c90:	054b0905 	.inst	0x054b0905 ; undefined
     c94:	24054b16 	cmpgt	p6.b, p2/z, z24.b, z5.d
     c98:	09054a06 	.inst	0x09054a06 ; undefined
     c9c:	0616054a 	.inst	0x0616054a ; undefined
     ca0:	4d090581 	.inst	0x4d090581 ; undefined
     ca4:	05811405 	and	z5.h, z5.h, #0x4000
     ca8:	10054b09 	adr	x9, b608 <_binary_shell_bin_size-0x10059f8>
     cac:	8b03064c 	add	x12, x18, x3, lsl #1
     cb0:	f5034a79 	.inst	0xf5034a79 ; undefined
     cb4:	0d058206 	.inst	0x0d058206 ; undefined
     cb8:	0605054a 	.inst	0x0605054a ; undefined
     cbc:	054a7003 	.inst	0x054a7003 ; undefined
     cc0:	0d054b3c 	.inst	0x0d054b3c ; undefined
     cc4:	054a064b 	.inst	0x054a064b ; undefined
     cc8:	054d061c 	.inst	0x054d061c ; undefined
     ccc:	ba4a060d 	.inst	0xba4a060d ; undefined
     cd0:	4a6e0306 	eon	w6, w24, w14, lsr #0
     cd4:	4a061a05 	eor	w5, w16, w6, lsl #6
     cd8:	05ba0d05 	uzp2	z5.q, z8.q, z26.q
     cdc:	054d0621 	.inst	0x054d0621 ; undefined
     ce0:	0d05471a 	.inst	0x0d05471a ; undefined
     ce4:	2105ba06 	.inst	0x2105ba06 ; undefined
     ce8:	1a054d06 	.inst	0x1a054d06 ; undefined
     cec:	4d170547 	.inst	0x4d170547 ; undefined
     cf0:	05471a05 	.inst	0x05471a05 ; undefined
     cf4:	0582060d 	and	z13.d, z13.d, #0x1ffffffffffff
     cf8:	054d0621 	.inst	0x054d0621 ; undefined
     cfc:	1705471a 	b	fffffffffc152964 <__free_ram_end+0xffffffffb8f0c964>
     d00:	471a054d 	.inst	0x471a054d ; undefined
     d04:	82060d05 	.inst	0x82060d05 ; undefined
     d08:	4d062105 	.inst	0x4d062105 ; undefined
     d0c:	05471a05 	.inst	0x05471a05 ; undefined
     d10:	1a054d17 	.inst	0x1a054d17 ; undefined
     d14:	060d0547 	.inst	0x060d0547 ; undefined
     d18:	06210582 	.inst	0x06210582 ; undefined
     d1c:	471a054d 	.inst	0x471a054d ; undefined
     d20:	054d1705 	.inst	0x054d1705 ; undefined
     d24:	0d05471a 	.inst	0x0d05471a ; undefined
     d28:	21058206 	.inst	0x21058206 ; undefined
     d2c:	1a054d06 	.inst	0x1a054d06 ; undefined
     d30:	4d170547 	.inst	0x4d170547 ; undefined
     d34:	05471a05 	.inst	0x05471a05 ; undefined
     d38:	0582060d 	and	z13.d, z13.d, #0x1ffffffffffff
     d3c:	054d0621 	.inst	0x054d0621 ; undefined
     d40:	1705471a 	b	fffffffffc1529a8 <__free_ram_end+0xffffffffb8f0c9a8>
     d44:	471a054d 	.inst	0x471a054d ; undefined
     d48:	82060d05 	.inst	0x82060d05 ; undefined
     d4c:	4d062105 	.inst	0x4d062105 ; undefined
     d50:	05471a05 	.inst	0x05471a05 ; undefined
     d54:	1a054d17 	.inst	0x1a054d17 ; undefined
     d58:	060d0547 	.inst	0x060d0547 ; undefined
     d5c:	06210582 	.inst	0x06210582 ; undefined
     d60:	471a054d 	.inst	0x471a054d ; undefined
     d64:	054d1705 	.inst	0x054d1705 ; undefined
     d68:	0d05471a 	.inst	0x0d05471a ; undefined
     d6c:	21058206 	.inst	0x21058206 ; undefined
     d70:	1a054d06 	.inst	0x1a054d06 ; undefined
     d74:	4d170547 	.inst	0x4d170547 ; undefined
     d78:	05471a05 	.inst	0x05471a05 ; undefined
     d7c:	0582060d 	and	z13.d, z13.d, #0x1ffffffffffff
     d80:	054d0621 	.inst	0x054d0621 ; undefined
     d84:	1705471a 	b	fffffffffc1529ec <__free_ram_end+0xffffffffb8f0c9ec>
     d88:	471a054d 	.inst	0x471a054d ; undefined
     d8c:	05852105 	.inst	0x05852105 ; undefined
     d90:	034a0617 	.inst	0x034a0617 ; undefined
     d94:	054a79a5 	.inst	0x054a79a5 ; undefined
     d98:	030b0601 	.inst	0x030b0601 ; undefined
     d9c:	054a06f7 	.inst	0x054a06f7 ; undefined
     da0:	0874030d 	.inst	0x0874030d ; undefined
     da4:	f11c05ac 	subs	x12, x13, #0x701
     da8:	054b0d05 	.inst	0x054b0d05 ; undefined
     dac:	ba3f0300 	.inst	0xba3f0300 ; undefined
     db0:	830a0505 	.inst	0x830a0505 ; undefined
     db4:	08799f03 	.inst	0x08799f03 ; undefined
     db8:	4b1d05ac 	sub	w12, w13, w29, lsl #1
     dbc:	064c0905 	.inst	0x064c0905 ; undefined
     dc0:	827fb303 	.inst	0x827fb303 ; undefined
     dc4:	03060505 	.inst	0x03060505 ; undefined
     dc8:	c28200d2 	.inst	0xc28200d2 ; undefined
     dcc:	a203064e 	.inst	0xa203064e ; undefined
     dd0:	03064a7f 	.inst	0x03064a7f ; undefined
     dd4:	054a00ea 	.inst	0x054a00ea ; undefined
     dd8:	8278030b 	.inst	0x8278030b ; undefined
     ddc:	894b0505 	.inst	0x894b0505 ; undefined
     de0:	7f960306 	.inst	0x7f960306 ; undefined
     de4:	0609054a 	.inst	0x0609054a ; undefined
     de8:	4a00ce03 	.inst	0x4a00ce03 ; undefined
     dec:	fc031105 	stur	d5, [x8, #49]
     df0:	0f05ba06 	.inst	0x0f05ba06 ; undefined
     df4:	1405ba06 	b	16f60c <_binary_shell_bin_size-0xea19f4>
     df8:	0f054b06 	.inst	0x0f054b06 ; undefined
     dfc:	4c120549 	.inst	0x4c120549 ; undefined
     e00:	52850505 	mov	w5, #0x2828                	// #10280
     e04:	3d08bb4d 	str	b13, [x26, #558]
     e08:	bb0205bc 	.inst	0xbb0205bc ; undefined
     e0c:	054b0505 	.inst	0x054b0505 ; undefined
     e10:	1c02bc02 	ldr	s2, 6590 <_binary_shell_bin_size-0x100aa70>
     e14:	04010100 	sub	z0.b, p0/m, z0.b, z8.b
     e18:	0a050500 	and	w0, w8, w5, lsl #1
     e1c:	00020900 	.inst	0x00020900 ; undefined
     e20:	00402000 	.inst	0x00402000 ; undefined
     e24:	03000000 	.inst	0x03000000 ; undefined
     e28:	020107ea 	.inst	0x020107ea ; undefined
     e2c:	01010018 	.inst	0x01010018 ; undefined
     e30:	00000204 	udf	#516
     e34:	00080005 	.inst	0x00080005 ; undefined
     e38:	00000050 	udf	#80
     e3c:	fb010101 	.inst	0xfb010101 ; undefined
     e40:	01000d0e 	.inst	0x01000d0e ; undefined
     e44:	00010101 	.inst	0x00010101 ; undefined
     e48:	00010000 	.inst	0x00010000 ; undefined
     e4c:	01010100 	.inst	0x01010100 ; undefined
     e50:	0009021f 	.inst	0x0009021f ; undefined
     e54:	00470000 	.inst	0x00470000 ; undefined
     e58:	01030000 	.inst	0x01030000 ; undefined
     e5c:	050f021f 	.inst	0x050f021f ; undefined
     e60:	003e021e 	.inst	0x003e021e ; NYI
     e64:	c7000000 	.inst	0xc7000000 ; undefined
     e68:	e118f38a 	.inst	0xe118f38a ; undefined
     e6c:	c80d0ef5 	stxr	w13, x21, [x23]
     e70:	de081299 	.inst	0xde081299 ; undefined
     e74:	57c36109 	.inst	0x57c36109 ; undefined
     e78:	01000000 	.inst	0x01000000 ; undefined
     e7c:	f867de19 	ldraa	x25, [x16, #-3096]!
     e80:	007e217c 	.inst	0x007e217c ; undefined
     e84:	0fc8ea22 	.inst	0x0fc8ea22 ; undefined
     e88:	c0918c6c 	.inst	0xc0918c6c ; undefined
     e8c:	05050004 	.inst	0x05050004 ; undefined
     e90:	0209000a 	.inst	0x0209000a ; undefined
     e94:	40201f28 	.inst	0x40201f28 ; undefined
     e98:	00000000 	udf	#0
     e9c:	78030619 	strh	w25, [x16], #48
     ea0:	08012402 	stxrb	w1, w2, [x0]
     ea4:	06100544 	.inst	0x06100544 ; undefined
     ea8:	060e05f3 	.inst	0x060e05f3 ; undefined
     eac:	060505ba 	.inst	0x060505ba ; undefined
     eb0:	021005b9 	.inst	0x021005b9 ; undefined
     eb4:	0e05132c 	tbx	v12.8b, {v25.16b}, v5.8b
     eb8:	05058206 	.inst	0x05058206 ; undefined
     ebc:	03068106 	.inst	0x03068106 ; undefined
     ec0:	1005ba78 	adr	x24, c60c <_binary_shell_bin_size-0x10049f4>
     ec4:	ba090306 	adcs	x6, x24, x9
     ec8:	05490d05 	.inst	0x05490d05 ; undefined
     ecc:	05054b0e 	.inst	0x05054b0e ; undefined
     ed0:	4f0a4c49 	.inst	0x4f0a4c49 ; undefined
     ed4:	ba710306 	.inst	0xba710306 ; undefined
     ed8:	03820f03 	.inst	0x03820f03 ; undefined
     edc:	0f03ba71 	.inst	0x0f03ba71 ; undefined
     ee0:	060e0582 	.inst	0x060e0582 ; undefined
     ee4:	f10505f3 	subs	x19, x15, #0x141
     ee8:	02710306 	.inst	0x02710306 ; undefined
     eec:	0e050128 	tbl	v8.8b, {v9.16b}, v5.8b
     ef0:	4a100306 	eor	w6, w24, w16
     ef4:	06810505 	.inst	0x06810505 ; undefined
     ef8:	05ba7103 	trn1	z3.s, z8.s, z26.s
     efc:	820f030d 	.inst	0x820f030d ; undefined
     f00:	4b060e05 	sub	w5, w16, w6, lsl #3
     f04:	4c490505 	.inst	0x4c490505 ; undefined
     f08:	4f0a0c05 	.inst	0x4f0a0c05 ; undefined
     f0c:	82060505 	.inst	0x82060505 ; undefined
     f10:	bb060e05 	.inst	0xbb060e05 ; undefined
     f14:	05490c05 	.inst	0x05490c05 ; undefined
     f18:	054a0605 	.inst	0x054a0605 ; undefined
     f1c:	054c0608 	.inst	0x054c0608 ; undefined
     f20:	0c054b05 	.inst	0x0c054b05 ; undefined
     f24:	10054e0a 	adr	x10, b8e4 <_binary_shell_bin_size-0x100571c>
     f28:	05054a06 	.inst	0x05054a06 ; undefined
     f2c:	4a13054a 	eor	w10, w10, w19, lsl #1
     f30:	054a0505 	.inst	0x054a0505 ; undefined
     f34:	0b05820c 	.inst	0x0b05820c ; undefined
     f38:	10054e06 	adr	x6, b8f8 <_binary_shell_bin_size-0x1005708>
     f3c:	51230546 	sub	w6, w10, #0x8c1
     f40:	4a062105 	eor	w5, w8, w6, lsl #8
     f44:	054a0505 	.inst	0x054a0505 ; undefined
     f48:	054d0600 	.inst	0x054d0600 ; undefined
     f4c:	2c020a05 	stnp	s5, s2, [x16, #16]
     f50:	020d0514 	.inst	0x020d0514 ; undefined
     f54:	0c05174c 	.inst	0x0c05174c ; undefined
     f58:	034a3903 	.inst	0x034a3903 ; undefined
     f5c:	05054a44 	.inst	0x05054a44 ; undefined
     f60:	00054a06 	.inst	0x00054a06 ; undefined
     f64:	05ba5503 	.inst	0x05ba5503 ; undefined
     f68:	e703060c 	.inst	0xe703060c ; undefined
     f6c:	03064a00 	.inst	0x03064a00 ; undefined
     f70:	054a7f99 	.inst	0x054a7f99 ; undefined
     f74:	2e030615 	.inst	0x2e030615 ; undefined
     f78:	060d054a 	.inst	0x060d054a ; undefined
     f7c:	0621054a 	.inst	0x0621054a ; undefined
     f80:	74081003 	.inst	0x74081003 ; undefined
     f84:	02420306 	.inst	0x02420306 ; undefined
     f88:	0d050124 	.inst	0x0d050124 ; undefined
     f8c:	822e0306 	.inst	0x822e0306 ; undefined
     f90:	29032105 	stp	w5, w8, [x8, #24]
     f94:	032505f2 	.inst	0x032505f2 ; undefined
     f98:	0124025f 	.inst	0x0124025f ; undefined
     f9c:	24022105 	cmpeq	p5.b, p0/z, z8.b, z2.d
     fa0:	f419051a 	.inst	0xf419051a ; undefined
     fa4:	8325054b 	.inst	0x8325054b ; undefined
     fa8:	7fbe0306 	.inst	0x7fbe0306 ; undefined
     fac:	0615054a 	.inst	0x0615054a ; undefined
     fb0:	4a00c603 	.inst	0x4a00c603 ; undefined
     fb4:	05832105 	and	z5.d, z5.d, #0x1ff0000000
     fb8:	15058126 	b	4161450 <_binary_shell_bin_size+0x3150450>
     fbc:	31054a06 	adds	w6, w16, #0x152
     fc0:	21058606 	.inst	0x21058606 ; undefined
     fc4:	19054a06 	.inst	0x19054a06 ; undefined
     fc8:	0621054a 	.inst	0x0621054a ; undefined
     fcc:	4715054c 	.inst	0x4715054c ; undefined
     fd0:	06852105 	.inst	0x06852105 ; undefined
     fd4:	4a7fb403 	.inst	0x4a7fb403 ; undefined
     fd8:	03061505 	.inst	0x03061505 ; undefined
     fdc:	054a00c9 	.inst	0x054a00c9 ; undefined
     fe0:	826d0325 	.inst	0x826d0325 ; undefined
     fe4:	05f31c05 	.inst	0x05f31c05 ; undefined
     fe8:	054a0615 	.inst	0x054a0615 ; undefined
     fec:	05830619 	and	z25.d, z25.d, #0xffffffff0001ffff
     ff0:	1505491c 	b	4153460 <_binary_shell_bin_size+0x3142460>
     ff4:	21054a06 	.inst	0x21054a06 ; undefined
     ff8:	82200306 	.inst	0x82200306 ; undefined
     ffc:	7fa90306 	.inst	0x7fa90306 ; undefined
    1000:	061205f2 	.inst	0x061205f2 ; undefined
    1004:	ba00dc03 	.inst	0xba00dc03 ; undefined
    1008:	4a060a05 	eor	w5, w16, w6, lsl #2
    100c:	827fa403 	.inst	0x827fa403 ; undefined
    1010:	03061905 	.inst	0x03061905 ; undefined
    1014:	054a00d9 	.inst	0x054a00d9 ; undefined
    1018:	054a0606 	.inst	0x054a0606 ; undefined
    101c:	05830621 	and	z1.d, z1.d, #0xffffffff0003ffff
    1020:	03064b13 	.inst	0x03064b13 ; undefined
    1024:	054a7fa5 	.inst	0x054a7fa5 ; undefined
    1028:	30030615 	adr	x21, 70e9 <_binary_shell_bin_size-0x1009f17>
    102c:	0b0105f2 	add	w18, w15, w1, lsl #1
    1030:	02823c03 	.inst	0x02823c03 ; undefined
    1034:	0101001c 	.inst	0x0101001c ; undefined
    1038:	0000008c 	udf	#140
    103c:	00080005 	.inst	0x00080005 ; undefined
    1040:	00000037 	udf	#55
    1044:	fb010101 	.inst	0xfb010101 ; undefined
    1048:	01000d0e 	.inst	0x01000d0e ; undefined
    104c:	00010101 	.inst	0x00010101 ; undefined
    1050:	00010000 	.inst	0x00010000 ; undefined
    1054:	01010100 	.inst	0x01010100 ; undefined
    1058:	0009011f 	.inst	0x0009011f ; undefined
    105c:	01030000 	.inst	0x01030000 ; undefined
    1060:	050f021f 	.inst	0x050f021f ; undefined
    1064:	0049011e 	.inst	0x0049011e ; undefined
    1068:	bc000000 	stur	s0, [x0]
    106c:	b745be79 	tbnz	x25, #40, ffffffffffffc838 <__free_ram_end+0xffffffffbcdb6838>
    1070:	95bcd9ed 	bl	6f37824 <_binary_shell_bin_size+0x5f26824>
    1074:	48f363e0 	.inst	0x48f363e0 ; undefined
    1078:	0434bdfb 	.inst	0x0434bdfb ; undefined
    107c:	02090000 	.inst	0x02090000 ; undefined
    1080:	4020232c 	.inst	0x4020232c ; undefined
    1084:	00000000 	udf	#0
    1088:	4b4b4e16 	sub	w22, w16, w11, lsr #19
    108c:	4b4b4b4b 	sub	w11, w26, w11, lsr #18
    1090:	4b4b4b4b 	sub	w11, w26, w11, lsr #18
    1094:	4b4b4b4b 	sub	w11, w26, w11, lsr #18
    1098:	4b4b4b4b 	sub	w11, w26, w11, lsr #18
    109c:	4d4b4f4b 	.inst	0x4d4b4f4b ; undefined
    10a0:	4b4b4b4b 	sub	w11, w26, w11, lsr #18
    10a4:	4b4b4b4b 	sub	w11, w26, w11, lsr #18
    10a8:	4b4b4b4b 	sub	w11, w26, w11, lsr #18
    10ac:	4b4b4b4b 	sub	w11, w26, w11, lsr #18
    10b0:	4b4b4b4b 	sub	w11, w26, w11, lsr #18
    10b4:	4e4b4e4b 	.inst	0x4e4b4e4b ; undefined
    10b8:	4e4b4e4b 	.inst	0x4e4b4e4b ; undefined
    10bc:	4e4b4e4b 	.inst	0x4e4b4e4b ; undefined
    10c0:	024b4e4b 	.inst	0x024b4e4b ; undefined
    10c4:	01010004 	.inst	0x01010004 ; undefined
    10c8:	0000008e 	udf	#142
    10cc:	00080005 	.inst	0x00080005 ; undefined
    10d0:	00000037 	udf	#55
    10d4:	fb010101 	.inst	0xfb010101 ; undefined
    10d8:	01000d0e 	.inst	0x01000d0e ; undefined
    10dc:	00010101 	.inst	0x00010101 ; undefined
    10e0:	00010000 	.inst	0x00010000 ; undefined
    10e4:	01010100 	.inst	0x01010100 ; undefined
    10e8:	0009011f 	.inst	0x0009011f ; undefined
    10ec:	01030000 	.inst	0x01030000 ; undefined
    10f0:	050f021f 	.inst	0x050f021f ; undefined
    10f4:	002f011e 	.inst	0x002f011e ; NYI
    10f8:	80000000 	.inst	0x80000000 ; undefined
    10fc:	65af5159 	fnmla	z25.s, p4/m, z10.s, z15.s
    1100:	6aacc40b 	.inst	0x6aacc40b ; undefined
    1104:	abeaae04 	.inst	0xabeaae04 ; undefined
    1108:	044d7ab0 	mls	z16.h, p6/m, z21.h, z13.h
    110c:	02090000 	.inst	0x02090000 ; undefined
    1110:	40202800 	.inst	0x40202800 ; undefined
    1114:	00000000 	udf	#0
    1118:	01800218 	.inst	0x01800218 ; undefined
    111c:	01800214 	.inst	0x01800214 ; undefined
    1120:	01800214 	.inst	0x01800214 ; undefined
    1124:	01800214 	.inst	0x01800214 ; undefined
    1128:	01800216 	.inst	0x01800216 ; undefined
    112c:	01800214 	.inst	0x01800214 ; undefined
    1130:	01800214 	.inst	0x01800214 ; undefined
    1134:	01800214 	.inst	0x01800214 ; undefined
    1138:	01800216 	.inst	0x01800216 ; undefined
    113c:	01800214 	.inst	0x01800214 ; undefined
    1140:	01800214 	.inst	0x01800214 ; undefined
    1144:	01800214 	.inst	0x01800214 ; undefined
    1148:	01800216 	.inst	0x01800216 ; undefined
    114c:	01800214 	.inst	0x01800214 ; undefined
    1150:	01800214 	.inst	0x01800214 ; undefined
    1154:	00040214 	.inst	0x00040214 ; undefined
    1158:	009c0101 	.inst	0x009c0101 ; undefined
    115c:	00050000 	.inst	0x00050000 ; undefined
    1160:	00500008 	.inst	0x00500008 ; undefined
    1164:	01010000 	.inst	0x01010000 ; undefined
    1168:	0d0efb01 	.inst	0x0d0efb01 ; undefined
    116c:	01010100 	.inst	0x01010100 ; undefined
    1170:	00000001 	udf	#1
    1174:	01000001 	.inst	0x01000001 ; undefined
    1178:	021f0101 	.inst	0x021f0101 ; undefined
    117c:	00000009 	udf	#9
    1180:	00000047 	udf	#71
    1184:	021f0103 	.inst	0x021f0103 ; undefined
    1188:	021e050f 	.inst	0x021e050f ; undefined
    118c:	00000050 	udf	#80
    1190:	e984e100 	.inst	0xe984e100 ; undefined
    1194:	538c3de9 	.inst	0x538c3de9 ; undefined
    1198:	3201cdc1 	orr	w1, w14, #0x87878787
    119c:	5083b30e 	adr	x14, fffffffffff087fe <__free_ram_end+0xffffffffbccc27fe>
    11a0:	00005792 	udf	#22418
    11a4:	de190100 	.inst	0xde190100 ; undefined
    11a8:	217cf867 	.inst	0x217cf867 ; undefined
    11ac:	ea22007e 	bics	x30, x3, x2
    11b0:	8c6c0fc8 	.inst	0x8c6c0fc8 ; undefined
    11b4:	0004c091 	.inst	0x0004c091 ; undefined
    11b8:	18020900 	ldr	w0, 52d8 <_binary_shell_bin_size-0x100bd28>
    11bc:	00402024 	.inst	0x00402024 ; undefined
    11c0:	15000000 	b	40011c0 <_binary_shell_bin_size+0x2ff01c0>
    11c4:	080a1f05 	stxrb	w10, w5, [x24]
    11c8:	5205053f 	eor	wsp, w9, #0x18000000
    11cc:	f3f3f3f3 	.inst	0xf3f3f3f3 ; undefined
    11d0:	77031905 	.inst	0x77031905 ; undefined
    11d4:	03050582 	.inst	0x03050582 ; undefined
    11d8:	054b4a09 	.inst	0x054b4a09 ; undefined
    11dc:	82790318 	.inst	0x82790318 ; undefined
    11e0:	4b510505 	sub	w5, w8, w17, lsr #1
    11e4:	0ab1080a 	bic	w10, w0, w17, asr #2
    11e8:	0a500a50 	and	w16, w18, w16, lsr #2
    11ec:	0a510a50 	and	w16, w18, w17, lsr #2
    11f0:	0a500a50 	and	w16, w18, w16, lsr #2
    11f4:	00040250 	.inst	0x00040250 ; undefined
    11f8:	Address 0x11f8 is out of bounds.


Disassembly of section .debug_line_str:

0000000000000000 <.debug_line_str>:
   0:	6e72656b 	umax	v11.8h, v11.8h, v18.8h
   4:	632e6c65 	.inst	0x632e6c65 ; undefined
   8:	6f682f00 	.inst	0x6f682f00 ; undefined
   c:	722f656d 	ands	w13, w11, #0xfffe07ff
  10:	7469686f 	.inst	0x7469686f ; undefined
  14:	75662f68 	.inst	0x75662f68 ; undefined
  18:	694d2f6e 	ldpsw	x14, x11, [x27, #104]
  1c:	4f2d696e 	.inst	0x4f2d696e ; undefined
  20:	65642d53 	fmls	z19.h, p3/m, z10.h, z4.h
  24:	656b0076 	fmla	z22.h, p0/m, z3.h, z11.h
  28:	6c656e72 	ldnp	d18, d27, [x19, #-432]
  2c:	7600682e 	.inst	0x7600682e ; undefined
  30:	6f746365 	umlsl2	v5.4s, v27.8h, v4.h[3]
  34:	61745f72 	.inst	0x61745f72 ; undefined
  38:	2e656c62 	umin	v2.4h, v3.4h, v5.4h
  3c:	6f630073 	mla	v19.8h, v3.8h, v3.h[2]
  40:	6e6f6d6d 	umin	v13.8h, v11.8h, v15.8h
  44:	2e00632e 	.inst	0x2e00632e ; undefined
  48:	63657600 	.inst	0x63657600 ; undefined
  4c:	00732e74 	.inst	0x00732e74 ; undefined
  50:	74636576 	.inst	0x74636576 ; undefined
  54:	6300632e 	.inst	0x6300632e ; undefined
  58:	6f6d6d6f 	.inst	0x6f6d6d6f ; undefined
  5c:	00682e6e 	.inst	0x00682e6e ; undefined

Disassembly of section .debug_aranges:

0000000000000000 <.debug_aranges>:
   0:	0000002c 	udf	#44
   4:	20fb0002 	.inst	0x20fb0002 ; undefined
   8:	00080000 	.inst	0x00080000 ; undefined
   c:	00000000 	udf	#0
  10:	4020232c 	.inst	0x4020232c ; undefined
  14:	00000000 	udf	#0
  18:	000000ec 	udf	#236
	...
  30:	0000002c 	udf	#44
  34:	227a0002 	.inst	0x227a0002 ; undefined
  38:	00080000 	.inst	0x00080000 ; undefined
  3c:	00000000 	udf	#0
  40:	40202800 	.inst	0x40202800 ; undefined
  44:	00000000 	udf	#0
  48:	00000784 	udf	#1924
	...
