
kernel.elf:     file format elf64-littleaarch64


Disassembly of section .text:

0000000040200000 <boot>:
    40200000:	d503201f 	nop
    40200004:	10194868 	adr	x8, 40232910 <__stack_top>
    40200008:	d2800002 	mov	x2, #0x0                   	// #0
    4020000c:	d5184202 	msr	spsel, x2
    40200010:	9100011f 	mov	sp, x8
    40200014:	9400031a 	bl	40200c7c <kernel_main>

0000000040200018 <uboot_call>:
    40200018:	d10043ff 	sub	sp, sp, #0x10
    4020001c:	390033e1 	strb	w1, [sp, #12]
    40200020:	910033e1 	add	x1, sp, #0xc
    40200024:	aa0303e7 	mov	x7, x3
    40200028:	d45e0000 	hlt	#0xf000
    4020002c:	910043ff 	add	sp, sp, #0x10
    40200030:	d65f03c0 	ret

0000000040200034 <putchar>:
    40200034:	d10043ff 	sub	sp, sp, #0x10
    40200038:	390033e0 	strb	w0, [sp, #12]
    4020003c:	910033e1 	add	x1, sp, #0xc
    40200040:	52800060 	mov	w0, #0x3                   	// #3
    40200044:	52800022 	mov	w2, #0x1                   	// #1
    40200048:	52800807 	mov	w7, #0x40                  	// #64
    4020004c:	d45e0000 	hlt	#0xf000
    40200050:	910043ff 	add	sp, sp, #0x10
    40200054:	d65f03c0 	ret

0000000040200058 <setup_vect>:
    40200058:	1000bd40 	adr	x0, 40201800 <_vector_table>
    4020005c:	d518c000 	msr	vbar_el1, x0
    40200060:	d5033fdf 	isb
    40200064:	d65f03c0 	ret

0000000040200068 <init_exceptions>:
    40200068:	d5384248 	mrs	x8, currentel
    4020006c:	d342fd01 	lsr	x1, x8, #2
    40200070:	f100043f 	cmp	x1, #0x1
    40200074:	54000241 	b.ne	402000bc <init_exceptions+0x54>  // b.any
    40200078:	a9bf7bfd 	stp	x29, x30, [sp, #-16]!
    4020007c:	910003fd 	mov	x29, sp
    40200080:	5286a208 	mov	w8, #0x3510                	// #13584
    40200084:	52801fe9 	mov	w9, #0xff                  	// #255
    40200088:	d518a209 	msr	mair_el1, x9
    4020008c:	d5182048 	msr	tcr_el1, x8
    40200090:	d5033fdf 	isb
    40200094:	97fffff1 	bl	40200058 <setup_vect>
    40200098:	d5381008 	mrs	x8, sctlr_el1
    4020009c:	528201a9 	mov	w9, #0x100d                	// #4109
    402000a0:	d0000000 	adrp	x0, 40202000 <_vector_table+0x800>
    402000a4:	9103d400 	add	x0, x0, #0xf5
    402000a8:	aa090108 	orr	x8, x8, x9
    402000ac:	d5181008 	msr	sctlr_el1, x8
    402000b0:	d5033fdf 	isb
    402000b4:	a8c17bfd 	ldp	x29, x30, [sp], #16
    402000b8:	140003a1 	b	40200f3c <printf>
    402000bc:	d503201f 	nop
    402000c0:	300105e0 	adr	x0, 4020217d <_vector_table+0x97d>
    402000c4:	1400039e 	b	40200f3c <printf>

00000000402000c8 <alloc_pages>:
    402000c8:	a9be7bfd 	stp	x29, x30, [sp, #-32]!
    402000cc:	f9000bf3 	str	x19, [sp, #16]
    402000d0:	910003fd 	mov	x29, sp
    402000d4:	d0000008 	adrp	x8, 40202000 <_vector_table+0x800>
    402000d8:	53144c02 	lsl	w2, w0, #12
    402000dc:	f001018a 	adrp	x10, 42233000 <__free_ram_end>
    402000e0:	9100014a 	add	x10, x10, #0x0
    402000e4:	f941a913 	ldr	x19, [x8, #848]
    402000e8:	8b020269 	add	x9, x19, x2
    402000ec:	eb0a013f 	cmp	x9, x10
    402000f0:	f901a909 	str	x9, [x8, #848]
    402000f4:	54000109 	b.ls	40200114 <alloc_pages+0x4c>  // b.plast
    402000f8:	d0000000 	adrp	x0, 40202000 <_vector_table+0x800>
    402000fc:	91045400 	add	x0, x0, #0x115
    40200100:	b0000001 	adrp	x1, 40201000 <printf+0xc4>
    40200104:	913ec421 	add	x1, x1, #0xfb1
    40200108:	52800b22 	mov	w2, #0x59                  	// #89
    4020010c:	9400038c 	bl	40200f3c <printf>
    40200110:	14000000 	b	40200110 <alloc_pages+0x48>
    40200114:	aa1303e0 	mov	x0, x19
    40200118:	2a1f03e1 	mov	w1, wzr
    4020011c:	9400034a 	bl	40200e44 <memset>
    40200120:	aa1303e0 	mov	x0, x19
    40200124:	f9400bf3 	ldr	x19, [sp, #16]
    40200128:	a8c27bfd 	ldp	x29, x30, [sp], #32
    4020012c:	d65f03c0 	ret

0000000040200130 <map_page>:
    40200130:	a9bc7bfd 	stp	x29, x30, [sp, #-64]!
    40200134:	a9015ff8 	stp	x24, x23, [sp, #16]
    40200138:	a90257f6 	stp	x22, x21, [sp, #32]
    4020013c:	a9034ff4 	stp	x20, x19, [sp, #48]
    40200140:	910003fd 	mov	x29, sp
    40200144:	aa0103f3 	mov	x19, x1
    40200148:	f2402c3f 	tst	x1, #0xfff
    4020014c:	54000120 	b.eq	40200170 <map_page+0x40>  // b.none
    40200150:	d0000000 	adrp	x0, 40202000 <_vector_table+0x800>
    40200154:	9104c800 	add	x0, x0, #0x132
    40200158:	b0000001 	adrp	x1, 40201000 <printf+0xc4>
    4020015c:	913ec421 	add	x1, x1, #0xfb1
    40200160:	52800c22 	mov	w2, #0x61                  	// #97
    40200164:	aa1303e3 	mov	x3, x19
    40200168:	94000375 	bl	40200f3c <printf>
    4020016c:	14000000 	b	4020016c <map_page+0x3c>
    40200170:	f2402c5f 	tst	x2, #0xfff
    40200174:	54000120 	b.eq	40200198 <map_page+0x68>  // b.none
    40200178:	d0000000 	adrp	x0, 40202000 <_vector_table+0x800>
    4020017c:	9100e800 	add	x0, x0, #0x3a
    40200180:	b0000001 	adrp	x1, 40201000 <printf+0xc4>
    40200184:	913ec421 	add	x1, x1, #0xfb1
    40200188:	aa0203e3 	mov	x3, x2
    4020018c:	52800c62 	mov	w2, #0x63                  	// #99
    40200190:	9400036b 	bl	40200f3c <printf>
    40200194:	14000000 	b	40200194 <map_page+0x64>
    40200198:	d367be75 	ubfx	x21, x19, #39, #9
    4020019c:	f8757808 	ldr	x8, [x0, x21, lsl #3]
    402001a0:	37000408 	tbnz	w8, #0, 40200220 <map_page+0xf0>
    402001a4:	d0000008 	adrp	x8, 40202000 <_vector_table+0x800>
    402001a8:	f001018a 	adrp	x10, 42233000 <__free_ram_end>
    402001ac:	9100014a 	add	x10, x10, #0x0
    402001b0:	f941a914 	ldr	x20, [x8, #848]
    402001b4:	91400689 	add	x9, x20, #0x1, lsl #12
    402001b8:	eb0a013f 	cmp	x9, x10
    402001bc:	f901a909 	str	x9, [x8, #848]
    402001c0:	54000109 	b.ls	402001e0 <map_page+0xb0>  // b.plast
    402001c4:	d0000000 	adrp	x0, 40202000 <_vector_table+0x800>
    402001c8:	91045400 	add	x0, x0, #0x115
    402001cc:	b0000001 	adrp	x1, 40201000 <printf+0xc4>
    402001d0:	913ec421 	add	x1, x1, #0xfb1
    402001d4:	52800b22 	mov	w2, #0x59                  	// #89
    402001d8:	94000359 	bl	40200f3c <printf>
    402001dc:	14000000 	b	402001dc <map_page+0xac>
    402001e0:	aa0003f8 	mov	x24, x0
    402001e4:	aa1403e0 	mov	x0, x20
    402001e8:	2a1f03e1 	mov	w1, wzr
    402001ec:	aa0203f6 	mov	x22, x2
    402001f0:	52820002 	mov	w2, #0x1000                	// #4096
    402001f4:	aa0303f7 	mov	x23, x3
    402001f8:	94000313 	bl	40200e44 <memset>
    402001fc:	aa1403e0 	mov	x0, x20
    40200200:	2a1f03e1 	mov	w1, wzr
    40200204:	52820002 	mov	w2, #0x1000                	// #4096
    40200208:	9400030f 	bl	40200e44 <memset>
    4020020c:	9274ce88 	and	x8, x20, #0xfffffffffffff000
    40200210:	aa1703e3 	mov	x3, x23
    40200214:	aa1603e2 	mov	x2, x22
    40200218:	b2400508 	orr	x8, x8, #0x3
    4020021c:	f8357b08 	str	x8, [x24, x21, lsl #3]
    40200220:	9274cd15 	and	x21, x8, #0xfffffffffffff000
    40200224:	d35efe68 	lsr	x8, x19, #30
    40200228:	aa1503e9 	mov	x9, x21
    4020022c:	b37d2109 	bfi	x9, x8, #3, #9
    40200230:	f9400128 	ldr	x8, [x9]
    40200234:	37000408 	tbnz	w8, #0, 402002b4 <map_page+0x184>
    40200238:	d0000008 	adrp	x8, 40202000 <_vector_table+0x800>
    4020023c:	f001018a 	adrp	x10, 42233000 <__free_ram_end>
    40200240:	9100014a 	add	x10, x10, #0x0
    40200244:	f941a914 	ldr	x20, [x8, #848]
    40200248:	91400689 	add	x9, x20, #0x1, lsl #12
    4020024c:	eb0a013f 	cmp	x9, x10
    40200250:	f901a909 	str	x9, [x8, #848]
    40200254:	54000109 	b.ls	40200274 <map_page+0x144>  // b.plast
    40200258:	d0000000 	adrp	x0, 40202000 <_vector_table+0x800>
    4020025c:	91045400 	add	x0, x0, #0x115
    40200260:	b0000001 	adrp	x1, 40201000 <printf+0xc4>
    40200264:	913ec421 	add	x1, x1, #0xfb1
    40200268:	52800b22 	mov	w2, #0x59                  	// #89
    4020026c:	94000334 	bl	40200f3c <printf>
    40200270:	14000000 	b	40200270 <map_page+0x140>
    40200274:	aa1403e0 	mov	x0, x20
    40200278:	2a1f03e1 	mov	w1, wzr
    4020027c:	aa0203f6 	mov	x22, x2
    40200280:	52820002 	mov	w2, #0x1000                	// #4096
    40200284:	d35e9a78 	ubfx	x24, x19, #30, #9
    40200288:	aa0303f7 	mov	x23, x3
    4020028c:	940002ee 	bl	40200e44 <memset>
    40200290:	aa1403e0 	mov	x0, x20
    40200294:	2a1f03e1 	mov	w1, wzr
    40200298:	52820002 	mov	w2, #0x1000                	// #4096
    4020029c:	940002ea 	bl	40200e44 <memset>
    402002a0:	9274ce88 	and	x8, x20, #0xfffffffffffff000
    402002a4:	aa1703e3 	mov	x3, x23
    402002a8:	aa1603e2 	mov	x2, x22
    402002ac:	b2400508 	orr	x8, x8, #0x3
    402002b0:	f8387aa8 	str	x8, [x21, x24, lsl #3]
    402002b4:	9274cd15 	and	x21, x8, #0xfffffffffffff000
    402002b8:	d355fe68 	lsr	x8, x19, #21
    402002bc:	aa1503e9 	mov	x9, x21
    402002c0:	b37d2109 	bfi	x9, x8, #3, #9
    402002c4:	f9400128 	ldr	x8, [x9]
    402002c8:	37000408 	tbnz	w8, #0, 40200348 <map_page+0x218>
    402002cc:	d0000008 	adrp	x8, 40202000 <_vector_table+0x800>
    402002d0:	f001018a 	adrp	x10, 42233000 <__free_ram_end>
    402002d4:	9100014a 	add	x10, x10, #0x0
    402002d8:	f941a914 	ldr	x20, [x8, #848]
    402002dc:	91400689 	add	x9, x20, #0x1, lsl #12
    402002e0:	eb0a013f 	cmp	x9, x10
    402002e4:	f901a909 	str	x9, [x8, #848]
    402002e8:	54000109 	b.ls	40200308 <map_page+0x1d8>  // b.plast
    402002ec:	d0000000 	adrp	x0, 40202000 <_vector_table+0x800>
    402002f0:	91045400 	add	x0, x0, #0x115
    402002f4:	b0000001 	adrp	x1, 40201000 <printf+0xc4>
    402002f8:	913ec421 	add	x1, x1, #0xfb1
    402002fc:	52800b22 	mov	w2, #0x59                  	// #89
    40200300:	9400030f 	bl	40200f3c <printf>
    40200304:	14000000 	b	40200304 <map_page+0x1d4>
    40200308:	aa1403e0 	mov	x0, x20
    4020030c:	2a1f03e1 	mov	w1, wzr
    40200310:	aa0203f6 	mov	x22, x2
    40200314:	52820002 	mov	w2, #0x1000                	// #4096
    40200318:	d3557678 	ubfx	x24, x19, #21, #9
    4020031c:	aa0303f7 	mov	x23, x3
    40200320:	940002c9 	bl	40200e44 <memset>
    40200324:	aa1403e0 	mov	x0, x20
    40200328:	2a1f03e1 	mov	w1, wzr
    4020032c:	52820002 	mov	w2, #0x1000                	// #4096
    40200330:	940002c5 	bl	40200e44 <memset>
    40200334:	9274ce88 	and	x8, x20, #0xfffffffffffff000
    40200338:	aa1703e3 	mov	x3, x23
    4020033c:	aa1603e2 	mov	x2, x22
    40200340:	b2400508 	orr	x8, x8, #0x3
    40200344:	f8387aa8 	str	x8, [x21, x24, lsl #3]
    40200348:	d34cfe69 	lsr	x9, x19, #12
    4020034c:	9274cd08 	and	x8, x8, #0xfffffffffffff000
    40200350:	aa03004a 	orr	x10, x2, x3
    40200354:	5280806b 	mov	w11, #0x403                 	// #1027
    40200358:	a9434ff4 	ldp	x20, x19, [sp, #48]
    4020035c:	b37d2128 	bfi	x8, x9, #3, #9
    40200360:	a94257f6 	ldp	x22, x21, [sp, #32]
    40200364:	a9415ff8 	ldp	x24, x23, [sp, #16]
    40200368:	aa0b0149 	orr	x9, x10, x11
    4020036c:	f9000109 	str	x9, [x8]
    40200370:	a8c47bfd 	ldp	x29, x30, [sp], #64
    40200374:	d65f03c0 	ret

0000000040200378 <switch_context>:
    40200378:	a9ba53f3 	stp	x19, x20, [sp, #-96]!
    4020037c:	a9015bf5 	stp	x21, x22, [sp, #16]
    40200380:	a90263f7 	stp	x23, x24, [sp, #32]
    40200384:	a9036bf9 	stp	x25, x26, [sp, #48]
    40200388:	a90473fb 	stp	x27, x28, [sp, #64]
    4020038c:	a9057bfd 	stp	x29, x30, [sp, #80]
    40200390:	910003e2 	mov	x2, sp
    40200394:	f9000002 	str	x2, [x0]
    40200398:	f9400022 	ldr	x2, [x1]
    4020039c:	9100005f 	mov	sp, x2
    402003a0:	a8c153f3 	ldp	x19, x20, [sp], #16
    402003a4:	a8c15bf5 	ldp	x21, x22, [sp], #16
    402003a8:	a8c163f7 	ldp	x23, x24, [sp], #16
    402003ac:	a8c16bf9 	ldp	x25, x26, [sp], #16
    402003b0:	a8c173fb 	ldp	x27, x28, [sp], #16
    402003b4:	a8c17bfd 	ldp	x29, x30, [sp], #16
    402003b8:	d65f03c0 	ret

00000000402003bc <delay>:
    402003bc:	52987008 	mov	w8, #0xc380                	// #50048
    402003c0:	72a03928 	movk	w8, #0x1c9, lsl #16
    402003c4:	71000508 	subs	w8, w8, #0x1
    402003c8:	d503201f 	nop
    402003cc:	54ffffc1 	b.ne	402003c4 <delay+0x8>  // b.any
    402003d0:	d65f03c0 	ret

00000000402003d4 <mmu_enable>:
    402003d4:	528203ab 	mov	w11, #0x101d                	// #4125
    402003d8:	aa0003e8 	mov	x8, x0
    402003dc:	5286a209 	mov	w9, #0x3510                	// #13584
    402003e0:	52801fea 	mov	w10, #0xff                  	// #255
    402003e4:	72a0100b 	movk	w11, #0x80, lsl #16
    402003e8:	d5033b9f 	dsb	ish
    402003ec:	d5033fdf 	isb
    402003f0:	d518a20a 	msr	mair_el1, x10
    402003f4:	d5182049 	msr	tcr_el1, x9
    402003f8:	d5033fdf 	isb
    402003fc:	d5182008 	msr	ttbr0_el1, x8
    40200400:	d5033fdf 	isb
    40200404:	d5381000 	mrs	x0, sctlr_el1
    40200408:	aa0b0000 	orr	x0, x0, x11
    4020040c:	d5181000 	msr	sctlr_el1, x0
    40200410:	d5033fdf 	isb
    40200414:	d65f03c0 	ret

0000000040200418 <yield>:
    40200418:	d0000089 	adrp	x9, 40212000 <procs+0xf810>
    4020041c:	5284040e 	mov	w14, #0x2020                	// #8224
    40200420:	f9447928 	ldr	x8, [x9, #2288]
    40200424:	b940010c 	ldr	w12, [x8]
    40200428:	6b0c03ea 	negs	w10, w12
    4020042c:	1200098b 	and	w11, w12, #0x7
    40200430:	1200094a 	and	w10, w10, #0x7
    40200434:	5a8a456d 	csneg	w13, w11, w10, mi	// mi = first
    40200438:	d503201f 	nop
    4020043c:	10011dab 	adr	x11, 402027f0 <procs>
    40200440:	9b2e2daa 	smaddl	x10, w13, w14, x11
    40200444:	b940054f 	ldr	w15, [x10, #4]
    40200448:	d000000a 	adrp	x10, 40202000 <_vector_table+0x800>
    4020044c:	f943f14a 	ldr	x10, [x10, #2016]
    40200450:	710005ff 	cmp	w15, #0x1
    40200454:	540000e1 	b.ne	40200470 <yield+0x58>  // b.any
    40200458:	93407dad 	sxtw	x13, w13
    4020045c:	5284040f 	mov	w15, #0x2020                	// #8224
    40200460:	9b2f2dad 	smaddl	x13, w13, w15, x11
    40200464:	b94001af 	ldr	w15, [x13]
    40200468:	710001ff 	cmp	w15, #0x0
    4020046c:	54000dcc 	b.gt	40200624 <yield+0x20c>
    40200470:	1100058d 	add	w13, w12, #0x1
    40200474:	6b0d03ef 	negs	w15, w13
    40200478:	120009ad 	and	w13, w13, #0x7
    4020047c:	120009ef 	and	w15, w15, #0x7
    40200480:	5a8f45ad 	csneg	w13, w13, w15, mi	// mi = first
    40200484:	9b2e2dae 	smaddl	x14, w13, w14, x11
    40200488:	b94005ce 	ldr	w14, [x14, #4]
    4020048c:	710005df 	cmp	w14, #0x1
    40200490:	540000e1 	b.ne	402004ac <yield+0x94>  // b.any
    40200494:	93407dad 	sxtw	x13, w13
    40200498:	5284040e 	mov	w14, #0x2020                	// #8224
    4020049c:	9b2e2dad 	smaddl	x13, w13, w14, x11
    402004a0:	b94001ae 	ldr	w14, [x13]
    402004a4:	710001df 	cmp	w14, #0x0
    402004a8:	54000bec 	b.gt	40200624 <yield+0x20c>
    402004ac:	1100098d 	add	w13, w12, #0x2
    402004b0:	6b0d03ee 	negs	w14, w13
    402004b4:	120009ad 	and	w13, w13, #0x7
    402004b8:	120009ce 	and	w14, w14, #0x7
    402004bc:	5a8e45ad 	csneg	w13, w13, w14, mi	// mi = first
    402004c0:	5284040e 	mov	w14, #0x2020                	// #8224
    402004c4:	9b2e2daf 	smaddl	x15, w13, w14, x11
    402004c8:	b94005ef 	ldr	w15, [x15, #4]
    402004cc:	710005ff 	cmp	w15, #0x1
    402004d0:	540000e1 	b.ne	402004ec <yield+0xd4>  // b.any
    402004d4:	93407dad 	sxtw	x13, w13
    402004d8:	5284040f 	mov	w15, #0x2020                	// #8224
    402004dc:	9b2f2dad 	smaddl	x13, w13, w15, x11
    402004e0:	b94001af 	ldr	w15, [x13]
    402004e4:	710001ff 	cmp	w15, #0x0
    402004e8:	540009ec 	b.gt	40200624 <yield+0x20c>
    402004ec:	11000d8d 	add	w13, w12, #0x3
    402004f0:	6b0d03ef 	negs	w15, w13
    402004f4:	120009ad 	and	w13, w13, #0x7
    402004f8:	120009ef 	and	w15, w15, #0x7
    402004fc:	5a8f45ad 	csneg	w13, w13, w15, mi	// mi = first
    40200500:	9b2e2dae 	smaddl	x14, w13, w14, x11
    40200504:	b94005ce 	ldr	w14, [x14, #4]
    40200508:	710005df 	cmp	w14, #0x1
    4020050c:	540000e1 	b.ne	40200528 <yield+0x110>  // b.any
    40200510:	93407dad 	sxtw	x13, w13
    40200514:	5284040e 	mov	w14, #0x2020                	// #8224
    40200518:	9b2e2dad 	smaddl	x13, w13, w14, x11
    4020051c:	b94001ae 	ldr	w14, [x13]
    40200520:	710001df 	cmp	w14, #0x0
    40200524:	5400080c 	b.gt	40200624 <yield+0x20c>
    40200528:	1100118d 	add	w13, w12, #0x4
    4020052c:	6b0d03ee 	negs	w14, w13
    40200530:	120009ad 	and	w13, w13, #0x7
    40200534:	120009ce 	and	w14, w14, #0x7
    40200538:	5a8e45ad 	csneg	w13, w13, w14, mi	// mi = first
    4020053c:	5284040e 	mov	w14, #0x2020                	// #8224
    40200540:	9b2e2daf 	smaddl	x15, w13, w14, x11
    40200544:	b94005ef 	ldr	w15, [x15, #4]
    40200548:	710005ff 	cmp	w15, #0x1
    4020054c:	540000e1 	b.ne	40200568 <yield+0x150>  // b.any
    40200550:	93407dad 	sxtw	x13, w13
    40200554:	5284040f 	mov	w15, #0x2020                	// #8224
    40200558:	9b2f2dad 	smaddl	x13, w13, w15, x11
    4020055c:	b94001af 	ldr	w15, [x13]
    40200560:	710001ff 	cmp	w15, #0x0
    40200564:	5400060c 	b.gt	40200624 <yield+0x20c>
    40200568:	1100158d 	add	w13, w12, #0x5
    4020056c:	6b0d03ef 	negs	w15, w13
    40200570:	120009ad 	and	w13, w13, #0x7
    40200574:	120009ef 	and	w15, w15, #0x7
    40200578:	5a8f45ad 	csneg	w13, w13, w15, mi	// mi = first
    4020057c:	9b2e2dae 	smaddl	x14, w13, w14, x11
    40200580:	b94005ce 	ldr	w14, [x14, #4]
    40200584:	710005df 	cmp	w14, #0x1
    40200588:	540000e1 	b.ne	402005a4 <yield+0x18c>  // b.any
    4020058c:	93407dad 	sxtw	x13, w13
    40200590:	5284040e 	mov	w14, #0x2020                	// #8224
    40200594:	9b2e2dad 	smaddl	x13, w13, w14, x11
    40200598:	b94001ae 	ldr	w14, [x13]
    4020059c:	710001df 	cmp	w14, #0x0
    402005a0:	5400042c 	b.gt	40200624 <yield+0x20c>
    402005a4:	1100198d 	add	w13, w12, #0x6
    402005a8:	6b0d03ee 	negs	w14, w13
    402005ac:	120009ad 	and	w13, w13, #0x7
    402005b0:	120009ce 	and	w14, w14, #0x7
    402005b4:	5a8e45ad 	csneg	w13, w13, w14, mi	// mi = first
    402005b8:	5284040e 	mov	w14, #0x2020                	// #8224
    402005bc:	9b2e2daf 	smaddl	x15, w13, w14, x11
    402005c0:	b94005ef 	ldr	w15, [x15, #4]
    402005c4:	710005ff 	cmp	w15, #0x1
    402005c8:	540000e1 	b.ne	402005e4 <yield+0x1cc>  // b.any
    402005cc:	93407dad 	sxtw	x13, w13
    402005d0:	5284040f 	mov	w15, #0x2020                	// #8224
    402005d4:	9b2f2dad 	smaddl	x13, w13, w15, x11
    402005d8:	b94001af 	ldr	w15, [x13]
    402005dc:	710001ff 	cmp	w15, #0x0
    402005e0:	5400022c 	b.gt	40200624 <yield+0x20c>
    402005e4:	11001d8c 	add	w12, w12, #0x7
    402005e8:	6b0c03ed 	negs	w13, w12
    402005ec:	1200098c 	and	w12, w12, #0x7
    402005f0:	120009ad 	and	w13, w13, #0x7
    402005f4:	5a8d458c 	csneg	w12, w12, w13, mi	// mi = first
    402005f8:	9b2e2d8d 	smaddl	x13, w12, w14, x11
    402005fc:	b94005ad 	ldr	w13, [x13, #4]
    40200600:	710005bf 	cmp	w13, #0x1
    40200604:	540000e1 	b.ne	40200620 <yield+0x208>  // b.any
    40200608:	93407d8c 	sxtw	x12, w12
    4020060c:	5284040d 	mov	w13, #0x2020                	// #8224
    40200610:	9b2d2d8d 	smaddl	x13, w12, w13, x11
    40200614:	b94001ab 	ldr	w11, [x13]
    40200618:	7100017f 	cmp	w11, #0x0
    4020061c:	5400004c 	b.gt	40200624 <yield+0x20c>
    40200620:	aa0a03ed 	mov	x13, x10
    40200624:	eb0801bf 	cmp	x13, x8
    40200628:	54000260 	b.eq	40200674 <yield+0x25c>  // b.none
    4020062c:	5284040a 	mov	w10, #0x2020                	// #8224
    40200630:	f904792d 	str	x13, [x9, #2288]
    40200634:	f94009ab 	ldr	x11, [x13, #16]
    40200638:	8b0a01a9 	add	x9, x13, x10
    4020063c:	d5033a9f 	dsb	ishst
    40200640:	d508871f 	tlbi	vmalle1
    40200644:	d5033b9f 	dsb	ish
    40200648:	d5033fdf 	isb
    4020064c:	aa0b03e0 	mov	x0, x11
    40200650:	d5382001 	mrs	x1, ttbr0_el1
    40200654:	d5381002 	mrs	x2, sctlr_el1
    40200658:	d518200b 	msr	ttbr0_el1, x11
    4020065c:	d5382003 	mrs	x3, ttbr0_el1
    40200660:	d5033fdf 	isb
    40200664:	d518d089 	msr	tpidr_el1, x9
    40200668:	91002100 	add	x0, x8, #0x8
    4020066c:	910021a1 	add	x1, x13, #0x8
    40200670:	17ffff42 	b	40200378 <switch_context>
    40200674:	d65f03c0 	ret

0000000040200678 <proc_a_entry>:
    40200678:	a9be7bfd 	stp	x29, x30, [sp, #-32]!
    4020067c:	f9000bf3 	str	x19, [sp, #16]
    40200680:	910003fd 	mov	x29, sp
    40200684:	d0000000 	adrp	x0, 40202000 <_vector_table+0x800>
    40200688:	9101a400 	add	x0, x0, #0x69
    4020068c:	9400022c 	bl	40200f3c <printf>
    40200690:	52800833 	mov	w19, #0x41                  	// #65
    40200694:	390073b3 	strb	w19, [x29, #28]
    40200698:	910073a1 	add	x1, x29, #0x1c
    4020069c:	52800060 	mov	w0, #0x3                   	// #3
    402006a0:	52800022 	mov	w2, #0x1                   	// #1
    402006a4:	52800807 	mov	w7, #0x40                  	// #64
    402006a8:	d45e0000 	hlt	#0xf000
    402006ac:	97ffff5b 	bl	40200418 <yield>
    402006b0:	17fffff9 	b	40200694 <proc_a_entry+0x1c>

00000000402006b4 <proc_b_entry>:
    402006b4:	a9be7bfd 	stp	x29, x30, [sp, #-32]!
    402006b8:	f9000bf3 	str	x19, [sp, #16]
    402006bc:	910003fd 	mov	x29, sp
    402006c0:	d0000000 	adrp	x0, 40202000 <_vector_table+0x800>
    402006c4:	91007000 	add	x0, x0, #0x1c
    402006c8:	9400021d 	bl	40200f3c <printf>
    402006cc:	52800853 	mov	w19, #0x42                  	// #66
    402006d0:	390073b3 	strb	w19, [x29, #28]
    402006d4:	910073a1 	add	x1, x29, #0x1c
    402006d8:	52800060 	mov	w0, #0x3                   	// #3
    402006dc:	52800022 	mov	w2, #0x1                   	// #1
    402006e0:	52800807 	mov	w7, #0x40                  	// #64
    402006e4:	d45e0000 	hlt	#0xf000
    402006e8:	97ffff4c 	bl	40200418 <yield>
    402006ec:	17fffff9 	b	402006d0 <proc_b_entry+0x1c>

00000000402006f0 <user_entry>:
    402006f0:	52a8c008 	mov	w8, #0x46000000            	// #1174405120
    402006f4:	52800089 	mov	w9, #0x4                   	// #4
    402006f8:	d5184028 	msr	elr_el1, x8
    402006fc:	d5184009 	msr	spsr_el1, x9
    40200700:	d5384021 	mrs	x1, elr_el1
    40200704:	d5384002 	mrs	x2, spsr_el1
    40200708:	d69f03e0 	eret

000000004020070c <create_process>:
    4020070c:	d101c3ff 	sub	sp, sp, #0x70
    40200710:	a9017bfd 	stp	x29, x30, [sp, #16]
    40200714:	a9026ffc 	stp	x28, x27, [sp, #32]
    40200718:	a90367fa 	stp	x26, x25, [sp, #48]
    4020071c:	a9045ff8 	stp	x24, x23, [sp, #64]
    40200720:	a90557f6 	stp	x22, x21, [sp, #80]
    40200724:	a9064ff4 	stp	x20, x19, [sp, #96]
    40200728:	910043fd 	add	x29, sp, #0x10
    4020072c:	d0000008 	adrp	x8, 40202000 <_vector_table+0x800>
    40200730:	2a0103f7 	mov	w23, w1
    40200734:	f90007e0 	str	x0, [sp, #8]
    40200738:	b947f508 	ldr	w8, [x8, #2036]
    4020073c:	340003a8 	cbz	w8, 402007b0 <create_process+0xa4>
    40200740:	90000028 	adrp	x8, 40204000 <procs+0x1810>
    40200744:	b9481508 	ldr	w8, [x8, #2068]
    40200748:	34000388 	cbz	w8, 402007b8 <create_process+0xac>
    4020074c:	d0000028 	adrp	x8, 40206000 <procs+0x3810>
    40200750:	b9483508 	ldr	w8, [x8, #2100]
    40200754:	34000368 	cbz	w8, 402007c0 <create_process+0xb4>
    40200758:	90000048 	adrp	x8, 40208000 <procs+0x5810>
    4020075c:	b9485508 	ldr	w8, [x8, #2132]
    40200760:	34000348 	cbz	w8, 402007c8 <create_process+0xbc>
    40200764:	d0000048 	adrp	x8, 4020a000 <procs+0x7810>
    40200768:	b9487508 	ldr	w8, [x8, #2164]
    4020076c:	34000328 	cbz	w8, 402007d0 <create_process+0xc4>
    40200770:	90000068 	adrp	x8, 4020c000 <procs+0x9810>
    40200774:	b9489508 	ldr	w8, [x8, #2196]
    40200778:	34000308 	cbz	w8, 402007d8 <create_process+0xcc>
    4020077c:	d0000068 	adrp	x8, 4020e000 <procs+0xb810>
    40200780:	b948b508 	ldr	w8, [x8, #2228]
    40200784:	340002e8 	cbz	w8, 402007e0 <create_process+0xd4>
    40200788:	90000088 	adrp	x8, 40210000 <procs+0xd810>
    4020078c:	b948d508 	ldr	w8, [x8, #2260]
    40200790:	340002c8 	cbz	w8, 402007e8 <create_process+0xdc>
    40200794:	d0000000 	adrp	x0, 40202000 <_vector_table+0x800>
    40200798:	910af000 	add	x0, x0, #0x2bc
    4020079c:	b0000001 	adrp	x1, 40201000 <printf+0xc4>
    402007a0:	913ec421 	add	x1, x1, #0xfb1
    402007a4:	528028c2 	mov	w2, #0x146                 	// #326
    402007a8:	940001e5 	bl	40200f3c <printf>
    402007ac:	14000000 	b	402007ac <create_process+0xa0>
    402007b0:	aa1f03f3 	mov	x19, xzr
    402007b4:	1400000e 	b	402007ec <create_process+0xe0>
    402007b8:	52800033 	mov	w19, #0x1                   	// #1
    402007bc:	1400000c 	b	402007ec <create_process+0xe0>
    402007c0:	52800053 	mov	w19, #0x2                   	// #2
    402007c4:	1400000a 	b	402007ec <create_process+0xe0>
    402007c8:	52800073 	mov	w19, #0x3                   	// #3
    402007cc:	14000008 	b	402007ec <create_process+0xe0>
    402007d0:	52800093 	mov	w19, #0x4                   	// #4
    402007d4:	14000006 	b	402007ec <create_process+0xe0>
    402007d8:	528000b3 	mov	w19, #0x5                   	// #5
    402007dc:	14000004 	b	402007ec <create_process+0xe0>
    402007e0:	528000d3 	mov	w19, #0x6                   	// #6
    402007e4:	14000002 	b	402007ec <create_process+0xe0>
    402007e8:	528000f3 	mov	w19, #0x7                   	// #7
    402007ec:	52840408 	mov	w8, #0x2020                	// #8224
    402007f0:	d503201f 	nop
    402007f4:	1000ffe9 	adr	x9, 402027f0 <procs>
    402007f8:	9ba8267b 	umaddl	x27, w19, w8, x9
    402007fc:	d0000019 	adrp	x25, 40202000 <_vector_table+0x800>
    40200800:	6f00e400 	movi	v0.2d, #0x0
    40200804:	f941ab35 	ldr	x21, [x25, #848]
    40200808:	d503201f 	nop
    4020080c:	10fff728 	adr	x8, 402006f0 <user_entry>
    40200810:	f001019a 	adrp	x26, 42233000 <__free_ram_end>
    40200814:	9100035a 	add	x26, x26, #0x0
    40200818:	f9100f68 	str	x8, [x27, #8216]
    4020081c:	914006a8 	add	x8, x21, #0x1, lsl #12
    40200820:	eb1a011f 	cmp	x8, x26
    40200824:	f9100b7f 	str	xzr, [x27, #8208]
    40200828:	3d880360 	str	q0, [x27, #8192]
    4020082c:	3d87ff60 	str	q0, [x27, #8176]
    40200830:	3d87fb60 	str	q0, [x27, #8160]
    40200834:	3d87f760 	str	q0, [x27, #8144]
    40200838:	3d87f360 	str	q0, [x27, #8128]
    4020083c:	f901ab28 	str	x8, [x25, #848]
    40200840:	54000109 	b.ls	40200860 <create_process+0x154>  // b.plast
    40200844:	d0000000 	adrp	x0, 40202000 <_vector_table+0x800>
    40200848:	91045400 	add	x0, x0, #0x115
    4020084c:	b0000001 	adrp	x1, 40201000 <printf+0xc4>
    40200850:	913ec421 	add	x1, x1, #0xfb1
    40200854:	52800b22 	mov	w2, #0x59                  	// #89
    40200858:	940001b9 	bl	40200f3c <printf>
    4020085c:	14000000 	b	4020085c <create_process+0x150>
    40200860:	aa1503e0 	mov	x0, x21
    40200864:	2a1f03e1 	mov	w1, wzr
    40200868:	52820002 	mov	w2, #0x1000                	// #4096
    4020086c:	94000176 	bl	40200e44 <memset>
    40200870:	f2402ebf 	tst	x21, #0xfff
    40200874:	54000100 	b.eq	40200894 <create_process+0x188>  // b.none
    40200878:	d0000000 	adrp	x0, 40202000 <_vector_table+0x800>
    4020087c:	91093c00 	add	x0, x0, #0x24f
    40200880:	b0000001 	adrp	x1, 40201000 <printf+0xc4>
    40200884:	913ec421 	add	x1, x1, #0xfb1
    40200888:	52802b82 	mov	w2, #0x15c                 	// #348
    4020088c:	940001ac 	bl	40200f3c <printf>
    40200890:	14000000 	b	40200890 <create_process+0x184>
    40200894:	d503201f 	nop
    40200898:	10ffbb48 	adr	x8, 40200000 <boot>
    4020089c:	f90003f3 	str	x19, [sp]
    402008a0:	eb1a011f 	cmp	x8, x26
    402008a4:	54000142 	b.cs	402008cc <create_process+0x1c0>  // b.hs, b.nlast
    402008a8:	d503201f 	nop
    402008ac:	10ffbab6 	adr	x22, 40200000 <boot>
    402008b0:	aa1503e0 	mov	x0, x21
    402008b4:	aa1603e1 	mov	x1, x22
    402008b8:	aa1603e2 	mov	x2, x22
    402008bc:	97fffe1d 	bl	40200130 <map_page>
    402008c0:	914006d6 	add	x22, x22, #0x1, lsl #12
    402008c4:	eb1a02df 	cmp	x22, x26
    402008c8:	54ffff43 	b.cc	402008b0 <create_process+0x1a4>  // b.lo, b.ul, b.last
    402008cc:	d0000000 	adrp	x0, 40202000 <_vector_table+0x800>
    402008d0:	9108a400 	add	x0, x0, #0x229
    402008d4:	9400019a 	bl	40200f3c <printf>
    402008d8:	d0000000 	adrp	x0, 40202000 <_vector_table+0x800>
    402008dc:	910c1c00 	add	x0, x0, #0x307
    402008e0:	2a1703e1 	mov	w1, w23
    402008e4:	94000196 	bl	40200f3c <printf>
    402008e8:	340003b7 	cbz	w23, 4020095c <create_process+0x250>
    402008ec:	aa1f03fc 	mov	x28, xzr
    402008f0:	2a1703f8 	mov	w24, w23
    402008f4:	52a8c013 	mov	w19, #0x46000000            	// #1174405120
    402008f8:	f941ab36 	ldr	x22, [x25, #848]
    402008fc:	914006c8 	add	x8, x22, #0x1, lsl #12
    40200900:	eb1a011f 	cmp	x8, x26
    40200904:	f901ab28 	str	x8, [x25, #848]
    40200908:	54000868 	b.hi	40200a14 <create_process+0x308>  // b.pmore
    4020090c:	aa1603e0 	mov	x0, x22
    40200910:	2a1f03e1 	mov	w1, wzr
    40200914:	52820002 	mov	w2, #0x1000                	// #4096
    40200918:	9400014b 	bl	40200e44 <memset>
    4020091c:	714006f4 	subs	w20, w23, #0x1, lsl #12
    40200920:	52820008 	mov	w8, #0x1000                	// #4096
    40200924:	aa1603e0 	mov	x0, x22
    40200928:	1a8832e2 	csel	w2, w23, w8, cc	// cc = lo, ul, last
    4020092c:	f94007e8 	ldr	x8, [sp, #8]
    40200930:	8b1c0101 	add	x1, x8, x28
    40200934:	94000112 	bl	40200d7c <memcpy>
    40200938:	8b130381 	add	x1, x28, x19
    4020093c:	aa1503e0 	mov	x0, x21
    40200940:	aa1603e2 	mov	x2, x22
    40200944:	52808003 	mov	w3, #0x400                 	// #1024
    40200948:	97fffdfa 	bl	40200130 <map_page>
    4020094c:	9140079c 	add	x28, x28, #0x1, lsl #12
    40200950:	2a1403f7 	mov	w23, w20
    40200954:	eb18039f 	cmp	x28, x24
    40200958:	54fffd03 	b.cc	402008f8 <create_process+0x1ec>  // b.lo, b.ul, b.last
    4020095c:	5283f808 	mov	w8, #0x1fc0                	// #8128
    40200960:	52820017 	mov	w23, #0x1000                	// #4096
    40200964:	9281fff6 	mov	x22, #0xfffffffffffff000    	// #-4096
    40200968:	8b080374 	add	x20, x27, x8
    4020096c:	72a8dff7 	movk	w23, #0x46ff, lsl #16
    40200970:	f941ab33 	ldr	x19, [x25, #848]
    40200974:	91400668 	add	x8, x19, #0x1, lsl #12
    40200978:	eb1a011f 	cmp	x8, x26
    4020097c:	f901ab28 	str	x8, [x25, #848]
    40200980:	540003c8 	b.hi	402009f8 <create_process+0x2ec>  // b.pmore
    40200984:	aa1303e0 	mov	x0, x19
    40200988:	2a1f03e1 	mov	w1, wzr
    4020098c:	52820002 	mov	w2, #0x1000                	// #4096
    40200990:	9400012d 	bl	40200e44 <memset>
    40200994:	8b1702c1 	add	x1, x22, x23
    40200998:	aa1503e0 	mov	x0, x21
    4020099c:	aa1303e2 	mov	x2, x19
    402009a0:	52808003 	mov	w3, #0x400                 	// #1024
    402009a4:	97fffde3 	bl	40200130 <map_page>
    402009a8:	914006d6 	add	x22, x22, #0x1, lsl #12
    402009ac:	f1403edf 	cmp	x22, #0xf, lsl #12
    402009b0:	54fffe03 	b.cc	40200970 <create_process+0x264>  // b.lo, b.ul, b.last
    402009b4:	f94003e9 	ldr	x9, [sp]
    402009b8:	52840408 	mov	w8, #0x2020                	// #8224
    402009bc:	d503201f 	nop
    402009c0:	1000f18a 	adr	x10, 402027f0 <procs>
    402009c4:	a9445ff8 	ldp	x24, x23, [sp, #64]
    402009c8:	9ba82920 	umaddl	x0, w9, w8, x10
    402009cc:	a94367fa 	ldp	x26, x25, [sp, #48]
    402009d0:	a9426ffc 	ldp	x28, x27, [sp, #32]
    402009d4:	11000528 	add	w8, w9, #0x1
    402009d8:	a9417bfd 	ldp	x29, x30, [sp, #16]
    402009dc:	52800029 	mov	w9, #0x1                   	// #1
    402009e0:	a900d414 	stp	x20, x21, [x0, #8]
    402009e4:	a9464ff4 	ldp	x20, x19, [sp, #96]
    402009e8:	a94557f6 	ldp	x22, x21, [sp, #80]
    402009ec:	29002408 	stp	w8, w9, [x0]
    402009f0:	9101c3ff 	add	sp, sp, #0x70
    402009f4:	d65f03c0 	ret
    402009f8:	d0000000 	adrp	x0, 40202000 <_vector_table+0x800>
    402009fc:	91045400 	add	x0, x0, #0x115
    40200a00:	b0000001 	adrp	x1, 40201000 <printf+0xc4>
    40200a04:	913ec421 	add	x1, x1, #0xfb1
    40200a08:	52800b22 	mov	w2, #0x59                  	// #89
    40200a0c:	9400014c 	bl	40200f3c <printf>
    40200a10:	14000000 	b	40200a10 <create_process+0x304>
    40200a14:	d0000000 	adrp	x0, 40202000 <_vector_table+0x800>
    40200a18:	91045400 	add	x0, x0, #0x115
    40200a1c:	b0000001 	adrp	x1, 40201000 <printf+0xc4>
    40200a20:	913ec421 	add	x1, x1, #0xfb1
    40200a24:	52800b22 	mov	w2, #0x59                  	// #89
    40200a28:	94000145 	bl	40200f3c <printf>
    40200a2c:	14000000 	b	40200a2c <create_process+0x320>

0000000040200a30 <handle_syscall>:
    40200a30:	a9be7bfd 	stp	x29, x30, [sp, #-32]!
    40200a34:	f9000bf3 	str	x19, [sp, #16]
    40200a38:	910003fd 	mov	x29, sp
    40200a3c:	f9402001 	ldr	x1, [x0, #64]
    40200a40:	f9400002 	ldr	x2, [x0]
    40200a44:	aa0003f3 	mov	x19, x0
    40200a48:	d0000000 	adrp	x0, 40202000 <_vector_table+0x800>
    40200a4c:	9107e800 	add	x0, x0, #0x1fa
    40200a50:	9400013b 	bl	40200f3c <printf>
    40200a54:	f9402261 	ldr	x1, [x19, #64]
    40200a58:	f100043f 	cmp	x1, #0x1
    40200a5c:	54000201 	b.ne	40200a9c <handle_syscall+0x6c>  // b.any
    40200a60:	f9408268 	ldr	x8, [x19, #256]
    40200a64:	f9400269 	ldr	x9, [x19]
    40200a68:	910073a1 	add	x1, x29, #0x1c
    40200a6c:	52800060 	mov	w0, #0x3                   	// #3
    40200a70:	52800022 	mov	w2, #0x1                   	// #1
    40200a74:	52800807 	mov	w7, #0x40                  	// #64
    40200a78:	91001108 	add	x8, x8, #0x4
    40200a7c:	390073a9 	strb	w9, [x29, #28]
    40200a80:	f9008268 	str	x8, [x19, #256]
    40200a84:	d45e0000 	hlt	#0xf000
    40200a88:	f9408268 	ldr	x8, [x19, #256]
    40200a8c:	d5184028 	msr	elr_el1, x8
    40200a90:	f9400bf3 	ldr	x19, [sp, #16]
    40200a94:	a8c27bfd 	ldp	x29, x30, [sp], #32
    40200a98:	d65f03c0 	ret
    40200a9c:	d0000000 	adrp	x0, 40202000 <_vector_table+0x800>
    40200aa0:	91001800 	add	x0, x0, #0x6
    40200aa4:	94000126 	bl	40200f3c <printf>
    40200aa8:	b0000000 	adrp	x0, 40201000 <printf+0xc4>
    40200aac:	913ee800 	add	x0, x0, #0xfba
    40200ab0:	b0000001 	adrp	x1, 40201000 <printf+0xc4>
    40200ab4:	913ec421 	add	x1, x1, #0xfb1
    40200ab8:	528032a2 	mov	w2, #0x195                 	// #405
    40200abc:	94000120 	bl	40200f3c <printf>
    40200ac0:	14000000 	b	40200ac0 <handle_syscall+0x90>

0000000040200ac4 <handle_trap>:
    40200ac4:	d10103ff 	sub	sp, sp, #0x40
    40200ac8:	a9017bfd 	stp	x29, x30, [sp, #16]
    40200acc:	a90257f6 	stp	x22, x21, [sp, #32]
    40200ad0:	a9034ff4 	stp	x20, x19, [sp, #48]
    40200ad4:	910043fd 	add	x29, sp, #0x10
    40200ad8:	f90003e0 	str	x0, [sp]
    40200adc:	b0000000 	adrp	x0, 40201000 <printf+0xc4>
    40200ae0:	913e4000 	add	x0, x0, #0xf90
    40200ae4:	910003e1 	mov	x1, sp
    40200ae8:	94000115 	bl	40200f3c <printf>
    40200aec:	d5385213 	mrs	x19, esr_el1
    40200af0:	d5386015 	mrs	x21, far_el1
    40200af4:	d5384034 	mrs	x20, elr_el1
    40200af8:	d5384104 	mrs	x4, sp_el0
    40200afc:	d35a7e76 	ubfx	x22, x19, #26, #6
    40200b00:	d0000000 	adrp	x0, 40202000 <_vector_table+0x800>
    40200b04:	9101f400 	add	x0, x0, #0x7d
    40200b08:	92406262 	and	x2, x19, #0x1ffffff
    40200b0c:	aa1403e3 	mov	x3, x20
    40200b10:	aa1603e1 	mov	x1, x22
    40200b14:	9400010a 	bl	40200f3c <printf>
    40200b18:	d0000000 	adrp	x0, 40202000 <_vector_table+0x800>
    40200b1c:	9105b400 	add	x0, x0, #0x16d
    40200b20:	d5382001 	mrs	x1, ttbr0_el1
    40200b24:	94000106 	bl	40200f3c <printf>
    40200b28:	f10096df 	cmp	x22, #0x25
    40200b2c:	540007a8 	b.hi	40200c20 <handle_trap+0x15c>  // b.pmore
    40200b30:	52800028 	mov	w8, #0x1                   	// #1
    40200b34:	d2c00669 	mov	x9, #0x3300000000          	// #219043332096
    40200b38:	9ad62108 	lsl	x8, x8, x22
    40200b3c:	ea09011f 	tst	x8, x9
    40200b40:	54000340 	b.eq	40200ba8 <handle_trap+0xe4>  // b.none
    40200b44:	d0000000 	adrp	x0, 40202000 <_vector_table+0x800>
    40200b48:	91075800 	add	x0, x0, #0x1d6
    40200b4c:	940000fc 	bl	40200f3c <printf>
    40200b50:	d0000000 	adrp	x0, 40202000 <_vector_table+0x800>
    40200b54:	9102a800 	add	x0, x0, #0xaa
    40200b58:	92406263 	and	x3, x19, #0x1ffffff
    40200b5c:	aa1303e1 	mov	x1, x19
    40200b60:	aa1603e2 	mov	x2, x22
    40200b64:	940000f6 	bl	40200f3c <printf>
    40200b68:	d0000000 	adrp	x0, 40202000 <_vector_table+0x800>
    40200b6c:	9109d400 	add	x0, x0, #0x275
    40200b70:	aa1503e1 	mov	x1, x21
    40200b74:	940000f2 	bl	40200f3c <printf>
    40200b78:	d0000000 	adrp	x0, 40202000 <_vector_table+0x800>
    40200b7c:	9108f800 	add	x0, x0, #0x23e
    40200b80:	aa1403e1 	mov	x1, x20
    40200b84:	940000ee 	bl	40200f3c <printf>
    40200b88:	aa1303e0 	mov	x0, x19
    40200b8c:	aa1503e1 	mov	x1, x21
    40200b90:	940001b7 	bl	4020126c <handle_data_abort>
    40200b94:	a9434ff4 	ldp	x20, x19, [sp, #48]
    40200b98:	a94257f6 	ldp	x22, x21, [sp, #32]
    40200b9c:	a9417bfd 	ldp	x29, x30, [sp, #16]
    40200ba0:	910103ff 	add	sp, sp, #0x40
    40200ba4:	d65f03c0 	ret
    40200ba8:	f10056df 	cmp	x22, #0x15
    40200bac:	540003a1 	b.ne	40200c20 <handle_trap+0x15c>  // b.any
    40200bb0:	f94003f3 	ldr	x19, [sp]
    40200bb4:	d0000000 	adrp	x0, 40202000 <_vector_table+0x800>
    40200bb8:	9107e800 	add	x0, x0, #0x1fa
    40200bbc:	f9402261 	ldr	x1, [x19, #64]
    40200bc0:	f9400262 	ldr	x2, [x19]
    40200bc4:	940000de 	bl	40200f3c <printf>
    40200bc8:	f9402261 	ldr	x1, [x19, #64]
    40200bcc:	f100043f 	cmp	x1, #0x1
    40200bd0:	54000421 	b.ne	40200c54 <handle_trap+0x190>  // b.any
    40200bd4:	f9408268 	ldr	x8, [x19, #256]
    40200bd8:	f9400269 	ldr	x9, [x19]
    40200bdc:	d10013a1 	sub	x1, x29, #0x4
    40200be0:	52800060 	mov	w0, #0x3                   	// #3
    40200be4:	52800022 	mov	w2, #0x1                   	// #1
    40200be8:	52800807 	mov	w7, #0x40                  	// #64
    40200bec:	91001108 	add	x8, x8, #0x4
    40200bf0:	381fc3a9 	sturb	w9, [x29, #-4]
    40200bf4:	f9008268 	str	x8, [x19, #256]
    40200bf8:	d45e0000 	hlt	#0xf000
    40200bfc:	d0000000 	adrp	x0, 40202000 <_vector_table+0x800>
    40200c00:	91055400 	add	x0, x0, #0x155
    40200c04:	f9408268 	ldr	x8, [x19, #256]
    40200c08:	d5184028 	msr	elr_el1, x8
    40200c0c:	b0000001 	adrp	x1, 40201000 <printf+0xc4>
    40200c10:	913ec421 	add	x1, x1, #0xfb1
    40200c14:	528036e2 	mov	w2, #0x1b7                 	// #439
    40200c18:	940000c9 	bl	40200f3c <printf>
    40200c1c:	14000000 	b	40200c1c <handle_trap+0x158>
    40200c20:	d0000000 	adrp	x0, 40202000 <_vector_table+0x800>
    40200c24:	910b8400 	add	x0, x0, #0x2e1
    40200c28:	92406262 	and	x2, x19, #0x1ffffff
    40200c2c:	aa1603e1 	mov	x1, x22
    40200c30:	aa1403e3 	mov	x3, x20
    40200c34:	940000c2 	bl	40200f3c <printf>
    40200c38:	d0000000 	adrp	x0, 40202000 <_vector_table+0x800>
    40200c3c:	910c9000 	add	x0, x0, #0x324
    40200c40:	b0000001 	adrp	x1, 40201000 <printf+0xc4>
    40200c44:	913ec421 	add	x1, x1, #0xfb1
    40200c48:	528038a2 	mov	w2, #0x1c5                 	// #453
    40200c4c:	940000bc 	bl	40200f3c <printf>
    40200c50:	14000000 	b	40200c50 <handle_trap+0x18c>
    40200c54:	d0000000 	adrp	x0, 40202000 <_vector_table+0x800>
    40200c58:	91001800 	add	x0, x0, #0x6
    40200c5c:	940000b8 	bl	40200f3c <printf>
    40200c60:	b0000000 	adrp	x0, 40201000 <printf+0xc4>
    40200c64:	913ee800 	add	x0, x0, #0xfba
    40200c68:	b0000001 	adrp	x1, 40201000 <printf+0xc4>
    40200c6c:	913ec421 	add	x1, x1, #0xfb1
    40200c70:	528032a2 	mov	w2, #0x195                 	// #405
    40200c74:	940000b2 	bl	40200f3c <printf>
    40200c78:	14000000 	b	40200c78 <handle_trap+0x1b4>

0000000040200c7c <kernel_main>:
    40200c7c:	a9bf7bfd 	stp	x29, x30, [sp, #-16]!
    40200c80:	910003fd 	mov	x29, sp
    40200c84:	d503201f 	nop
    40200c88:	1000dac0 	adr	x0, 402027e0 <idle_proc>
    40200c8c:	d503201f 	nop
    40200c90:	1008e3c8 	adr	x8, 40212908 <__bss_end>
    40200c94:	2a1f03e1 	mov	w1, wzr
    40200c98:	4b000102 	sub	w2, w8, w0
    40200c9c:	9400006a 	bl	40200e44 <memset>
    40200ca0:	d5384248 	mrs	x8, currentel
    40200ca4:	d342fd01 	lsr	x1, x8, #2
    40200ca8:	f100043f 	cmp	x1, #0x1
    40200cac:	54000201 	b.ne	40200cec <kernel_main+0x70>  // b.any
    40200cb0:	5286a208 	mov	w8, #0x3510                	// #13584
    40200cb4:	52801fe9 	mov	w9, #0xff                  	// #255
    40200cb8:	d518a209 	msr	mair_el1, x9
    40200cbc:	d5182048 	msr	tcr_el1, x8
    40200cc0:	d5033fdf 	isb
    40200cc4:	97fffce5 	bl	40200058 <setup_vect>
    40200cc8:	d5381008 	mrs	x8, sctlr_el1
    40200ccc:	528201a9 	mov	w9, #0x100d                	// #4109
    40200cd0:	d0000000 	adrp	x0, 40202000 <_vector_table+0x800>
    40200cd4:	9103d400 	add	x0, x0, #0xf5
    40200cd8:	aa090108 	orr	x8, x8, x9
    40200cdc:	d5181008 	msr	sctlr_el1, x8
    40200ce0:	d5033fdf 	isb
    40200ce4:	94000096 	bl	40200f3c <printf>
    40200ce8:	14000004 	b	40200cf8 <kernel_main+0x7c>
    40200cec:	d503201f 	nop
    40200cf0:	3000a460 	adr	x0, 4020217d <_vector_table+0x97d>
    40200cf4:	94000092 	bl	40200f3c <printf>
    40200cf8:	aa1f03e0 	mov	x0, xzr
    40200cfc:	2a1f03e1 	mov	w1, wzr
    40200d00:	97fffe83 	bl	4020070c <create_process>
    40200d04:	d0000008 	adrp	x8, 40202000 <_vector_table+0x800>
    40200d08:	b900001f 	str	wzr, [x0]
    40200d0c:	f903f100 	str	x0, [x8, #2016]
    40200d10:	d0000088 	adrp	x8, 40212000 <procs+0xf810>
    40200d14:	f9047900 	str	x0, [x8, #2288]
    40200d18:	d0000000 	adrp	x0, 40202000 <_vector_table+0x800>
    40200d1c:	91068c00 	add	x0, x0, #0x1a3
    40200d20:	94000087 	bl	40200f3c <printf>
    40200d24:	90dff001 	adrp	x1, 0 <_binary_shell_bin_size-0x479>
    40200d28:	9111e421 	add	x1, x1, #0x479
    40200d2c:	d503201f 	nop
    40200d30:	1000b140 	adr	x0, 40202358 <_binary_shell_bin_start>
    40200d34:	97fffe76 	bl	4020070c <create_process>
    40200d38:	b0000000 	adrp	x0, 40201000 <printf+0xc4>
    40200d3c:	913f6400 	add	x0, x0, #0xfd9
    40200d40:	9400007f 	bl	40200f3c <printf>
    40200d44:	d0000000 	adrp	x0, 40202000 <_vector_table+0x800>
    40200d48:	9106f000 	add	x0, x0, #0x1bc
    40200d4c:	9400007c 	bl	40200f3c <printf>
    40200d50:	97fffdb2 	bl	40200418 <yield>
    40200d54:	d0000000 	adrp	x0, 40202000 <_vector_table+0x800>
    40200d58:	91017400 	add	x0, x0, #0x5d
    40200d5c:	94000078 	bl	40200f3c <printf>
    40200d60:	b0000000 	adrp	x0, 40201000 <printf+0xc4>
    40200d64:	913fbc00 	add	x0, x0, #0xfef
    40200d68:	b0000001 	adrp	x1, 40201000 <printf+0xc4>
    40200d6c:	913ec421 	add	x1, x1, #0xfb1
    40200d70:	52803f42 	mov	w2, #0x1fa                 	// #506
    40200d74:	94000072 	bl	40200f3c <printf>
    40200d78:	14000000 	b	40200d78 <kernel_main+0xfc>

0000000040200d7c <memcpy>:
    40200d7c:	34000622 	cbz	w2, 40200e40 <memcpy+0xc4>
    40200d80:	7100205f 	cmp	w2, #0x8
    40200d84:	54000123 	b.cc	40200da8 <memcpy+0x2c>  // b.lo, b.ul, b.last
    40200d88:	cb010008 	sub	x8, x0, x1
    40200d8c:	f100811f 	cmp	x8, #0x20
    40200d90:	540000c3 	b.cc	40200da8 <memcpy+0x2c>  // b.lo, b.ul, b.last
    40200d94:	7100805f 	cmp	w2, #0x20
    40200d98:	2a0203e8 	mov	w8, w2
    40200d9c:	540000c2 	b.cs	40200db4 <memcpy+0x38>  // b.hs, b.nlast
    40200da0:	aa1f03eb 	mov	x11, xzr
    40200da4:	14000012 	b	40200dec <memcpy+0x70>
    40200da8:	aa0103e9 	mov	x9, x1
    40200dac:	aa0003ea 	mov	x10, x0
    40200db0:	14000020 	b	40200e30 <memcpy+0xb4>
    40200db4:	927b690b 	and	x11, x8, #0xffffffe0
    40200db8:	91004009 	add	x9, x0, #0x10
    40200dbc:	9100402a 	add	x10, x1, #0x10
    40200dc0:	aa0b03ec 	mov	x12, x11
    40200dc4:	ad7f8540 	ldp	q0, q1, [x10, #-16]
    40200dc8:	f100818c 	subs	x12, x12, #0x20
    40200dcc:	9100814a 	add	x10, x10, #0x20
    40200dd0:	ad3f8520 	stp	q0, q1, [x9, #-16]
    40200dd4:	91008129 	add	x9, x9, #0x20
    40200dd8:	54ffff61 	b.ne	40200dc4 <memcpy+0x48>  // b.any
    40200ddc:	eb08017f 	cmp	x11, x8
    40200de0:	54000300 	b.eq	40200e40 <memcpy+0xc4>  // b.none
    40200de4:	f27d051f 	tst	x8, #0x18
    40200de8:	540001e0 	b.eq	40200e24 <memcpy+0xa8>  // b.none
    40200dec:	927d710c 	and	x12, x8, #0xfffffff8
    40200df0:	8b0b000d 	add	x13, x0, x11
    40200df4:	8b0b002e 	add	x14, x1, x11
    40200df8:	8b0c0029 	add	x9, x1, x12
    40200dfc:	8b0c000a 	add	x10, x0, x12
    40200e00:	4b0c0042 	sub	w2, w2, w12
    40200e04:	cb0c016b 	sub	x11, x11, x12
    40200e08:	fc4085c0 	ldr	d0, [x14], #8
    40200e0c:	b100216b 	adds	x11, x11, #0x8
    40200e10:	fc0085a0 	str	d0, [x13], #8
    40200e14:	54ffffa1 	b.ne	40200e08 <memcpy+0x8c>  // b.any
    40200e18:	eb08019f 	cmp	x12, x8
    40200e1c:	540000a1 	b.ne	40200e30 <memcpy+0xb4>  // b.any
    40200e20:	14000008 	b	40200e40 <memcpy+0xc4>
    40200e24:	4b0b0042 	sub	w2, w2, w11
    40200e28:	8b0b000a 	add	x10, x0, x11
    40200e2c:	8b0b0029 	add	x9, x1, x11
    40200e30:	38401528 	ldrb	w8, [x9], #1
    40200e34:	71000442 	subs	w2, w2, #0x1
    40200e38:	38001548 	strb	w8, [x10], #1
    40200e3c:	54ffffa1 	b.ne	40200e30 <memcpy+0xb4>  // b.any
    40200e40:	d65f03c0 	ret

0000000040200e44 <memset>:
    40200e44:	340004e2 	cbz	w2, 40200ee0 <memset+0x9c>
    40200e48:	7100205f 	cmp	w2, #0x8
    40200e4c:	54000062 	b.cs	40200e58 <memset+0x14>  // b.hs, b.nlast
    40200e50:	aa0003e9 	mov	x9, x0
    40200e54:	14000020 	b	40200ed4 <memset+0x90>
    40200e58:	7100805f 	cmp	w2, #0x20
    40200e5c:	2a0203e8 	mov	w8, w2
    40200e60:	54000062 	b.cs	40200e6c <memset+0x28>  // b.hs, b.nlast
    40200e64:	aa1f03ea 	mov	x10, xzr
    40200e68:	1400000d 	b	40200e9c <memset+0x58>
    40200e6c:	4e010c20 	dup	v0.16b, w1
    40200e70:	927b690a 	and	x10, x8, #0xffffffe0
    40200e74:	91004009 	add	x9, x0, #0x10
    40200e78:	aa0a03eb 	mov	x11, x10
    40200e7c:	ad3f8120 	stp	q0, q0, [x9, #-16]
    40200e80:	f100816b 	subs	x11, x11, #0x20
    40200e84:	91008129 	add	x9, x9, #0x20
    40200e88:	54ffffa1 	b.ne	40200e7c <memset+0x38>  // b.any
    40200e8c:	eb08015f 	cmp	x10, x8
    40200e90:	54000280 	b.eq	40200ee0 <memset+0x9c>  // b.none
    40200e94:	f27d051f 	tst	x8, #0x18
    40200e98:	540001a0 	b.eq	40200ecc <memset+0x88>  // b.none
    40200e9c:	0e010c20 	dup	v0.8b, w1
    40200ea0:	927d710b 	and	x11, x8, #0xfffffff8
    40200ea4:	8b0a000c 	add	x12, x0, x10
    40200ea8:	8b0b0009 	add	x9, x0, x11
    40200eac:	4b0b0042 	sub	w2, w2, w11
    40200eb0:	cb0b014a 	sub	x10, x10, x11
    40200eb4:	b100214a 	adds	x10, x10, #0x8
    40200eb8:	fc008580 	str	d0, [x12], #8
    40200ebc:	54ffffc1 	b.ne	40200eb4 <memset+0x70>  // b.any
    40200ec0:	eb08017f 	cmp	x11, x8
    40200ec4:	54000081 	b.ne	40200ed4 <memset+0x90>  // b.any
    40200ec8:	14000006 	b	40200ee0 <memset+0x9c>
    40200ecc:	4b0a0042 	sub	w2, w2, w10
    40200ed0:	8b0a0009 	add	x9, x0, x10
    40200ed4:	71000442 	subs	w2, w2, #0x1
    40200ed8:	38001521 	strb	w1, [x9], #1
    40200edc:	54ffffc1 	b.ne	40200ed4 <memset+0x90>  // b.any
    40200ee0:	d65f03c0 	ret

0000000040200ee4 <strcpy>:
    40200ee4:	39400028 	ldrb	w8, [x1]
    40200ee8:	aa0003e9 	mov	x9, x0
    40200eec:	340000c8 	cbz	w8, 40200f04 <strcpy+0x20>
    40200ef0:	9100042a 	add	x10, x1, #0x1
    40200ef4:	aa0003e9 	mov	x9, x0
    40200ef8:	38001528 	strb	w8, [x9], #1
    40200efc:	38401548 	ldrb	w8, [x10], #1
    40200f00:	35ffffc8 	cbnz	w8, 40200ef8 <strcpy+0x14>
    40200f04:	3900013f 	strb	wzr, [x9]
    40200f08:	d65f03c0 	ret

0000000040200f0c <strcmp>:
    40200f0c:	39400008 	ldrb	w8, [x0]
    40200f10:	34000108 	cbz	w8, 40200f30 <strcmp+0x24>
    40200f14:	91000409 	add	x9, x0, #0x1
    40200f18:	3940002a 	ldrb	w10, [x1]
    40200f1c:	6b0a011f 	cmp	w8, w10
    40200f20:	54000081 	b.ne	40200f30 <strcmp+0x24>  // b.any
    40200f24:	38401528 	ldrb	w8, [x9], #1
    40200f28:	91000421 	add	x1, x1, #0x1
    40200f2c:	35ffff68 	cbnz	w8, 40200f18 <strcmp+0xc>
    40200f30:	39400029 	ldrb	w9, [x1]
    40200f34:	4b090100 	sub	w0, w8, w9
    40200f38:	d65f03c0 	ret

0000000040200f3c <printf>:
    40200f3c:	d104c3ff 	sub	sp, sp, #0x130
    40200f40:	a90e7bfd 	stp	x29, x30, [sp, #224]
    40200f44:	f9007bfc 	str	x28, [sp, #240]
    40200f48:	a9105ff8 	stp	x24, x23, [sp, #256]
    40200f4c:	a91157f6 	stp	x22, x21, [sp, #272]
    40200f50:	a9124ff4 	stp	x20, x19, [sp, #288]
    40200f54:	910383fd 	add	x29, sp, #0xe0
    40200f58:	928006e8 	mov	x8, #0xffffffffffffffc8    	// #-56
    40200f5c:	910003e9 	mov	x9, sp
    40200f60:	d10163aa 	sub	x10, x29, #0x58
    40200f64:	f2dff008 	movk	x8, #0xff80, lsl #32
    40200f68:	91020129 	add	x9, x9, #0x80
    40200f6c:	529999b4 	mov	w20, #0xcccd                	// #52429
    40200f70:	aa0003f3 	mov	x19, x0
    40200f74:	a93f23a9 	stp	x9, x8, [x29, #-16]
    40200f78:	9100e148 	add	x8, x10, #0x38
    40200f7c:	910143a9 	add	x9, x29, #0x50
    40200f80:	72b99994 	movk	w20, #0xcccc, lsl #16
    40200f84:	d503201f 	nop
    40200f88:	30009875 	adr	x21, 40202295 <_vector_table+0xa95>
    40200f8c:	a93a8ba1 	stp	x1, x2, [x29, #-88]
    40200f90:	a93b93a3 	stp	x3, x4, [x29, #-72]
    40200f94:	a93c9ba5 	stp	x5, x6, [x29, #-56]
    40200f98:	f81d83a7 	stur	x7, [x29, #-40]
    40200f9c:	ad0007e0 	stp	q0, q1, [sp]
    40200fa0:	ad010fe2 	stp	q2, q3, [sp, #32]
    40200fa4:	ad0217e4 	stp	q4, q5, [sp, #64]
    40200fa8:	ad031fe6 	stp	q6, q7, [sp, #96]
    40200fac:	a93e23a9 	stp	x9, x8, [x29, #-32]
    40200fb0:	14000003 	b	40200fbc <printf+0x80>
    40200fb4:	34000d40 	cbz	w0, 4020115c <printf+0x220>
    40200fb8:	91000673 	add	x19, x19, #0x1
    40200fbc:	39400260 	ldrb	w0, [x19]
    40200fc0:	7100941f 	cmp	w0, #0x25
    40200fc4:	540000a0 	b.eq	40200fd8 <printf+0x9c>  // b.none
    40200fc8:	34000ce0 	cbz	w0, 40201164 <printf+0x228>
    40200fcc:	97fffc1a 	bl	40200034 <putchar>
    40200fd0:	91000673 	add	x19, x19, #0x1
    40200fd4:	17fffffa 	b	40200fbc <printf+0x80>
    40200fd8:	38401e60 	ldrb	w0, [x19, #1]!
    40200fdc:	7101c81f 	cmp	w0, #0x72
    40200fe0:	5400020c 	b.gt	40201020 <printf+0xe4>
    40200fe4:	7100941f 	cmp	w0, #0x25
    40200fe8:	54ffff20 	b.eq	40200fcc <printf+0x90>  // b.none
    40200fec:	7101901f 	cmp	w0, #0x64
    40200ff0:	54fffe21 	b.ne	40200fb4 <printf+0x78>  // b.any
    40200ff4:	b89f83a8 	ldursw	x8, [x29, #-8]
    40200ff8:	36f80408 	tbz	w8, #31, 40201078 <printf+0x13c>
    40200ffc:	11002109 	add	w9, w8, #0x8
    40201000:	3100211f 	cmn	w8, #0x8
    40201004:	b81f83a9 	stur	w9, [x29, #-8]
    40201008:	54000388 	b.hi	40201078 <printf+0x13c>  // b.pmore
    4020100c:	f85e83a9 	ldur	x9, [x29, #-24]
    40201010:	8b080128 	add	x8, x9, x8
    40201014:	b9400116 	ldr	w22, [x8]
    40201018:	36f80416 	tbz	w22, #31, 40201098 <printf+0x15c>
    4020101c:	1400001c 	b	4020108c <printf+0x150>
    40201020:	7101cc1f 	cmp	w0, #0x73
    40201024:	54000180 	b.eq	40201054 <printf+0x118>  // b.none
    40201028:	7101e01f 	cmp	w0, #0x78
    4020102c:	54fffc61 	b.ne	40200fb8 <printf+0x7c>  // b.any
    40201030:	b89f83a8 	ldursw	x8, [x29, #-8]
    40201034:	36f806c8 	tbz	w8, #31, 4020110c <printf+0x1d0>
    40201038:	11002109 	add	w9, w8, #0x8
    4020103c:	3100211f 	cmn	w8, #0x8
    40201040:	b81f83a9 	stur	w9, [x29, #-8]
    40201044:	54000648 	b.hi	4020110c <printf+0x1d0>  // b.pmore
    40201048:	f85e83a9 	ldur	x9, [x29, #-24]
    4020104c:	8b080129 	add	x9, x9, x8
    40201050:	14000032 	b	40201118 <printf+0x1dc>
    40201054:	b89f83a8 	ldursw	x8, [x29, #-8]
    40201058:	36f80448 	tbz	w8, #31, 402010e0 <printf+0x1a4>
    4020105c:	11002109 	add	w9, w8, #0x8
    40201060:	3100211f 	cmn	w8, #0x8
    40201064:	b81f83a9 	stur	w9, [x29, #-8]
    40201068:	540003c8 	b.hi	402010e0 <printf+0x1a4>  // b.pmore
    4020106c:	f85e83a9 	ldur	x9, [x29, #-24]
    40201070:	8b080128 	add	x8, x9, x8
    40201074:	1400001e 	b	402010ec <printf+0x1b0>
    40201078:	f85e03a8 	ldur	x8, [x29, #-32]
    4020107c:	91002109 	add	x9, x8, #0x8
    40201080:	f81e03a9 	stur	x9, [x29, #-32]
    40201084:	b9400116 	ldr	w22, [x8]
    40201088:	36f80096 	tbz	w22, #31, 40201098 <printf+0x15c>
    4020108c:	528005a0 	mov	w0, #0x2d                  	// #45
    40201090:	97fffbe9 	bl	40200034 <putchar>
    40201094:	4b1603f6 	neg	w22, w22
    40201098:	52800037 	mov	w23, #0x1                   	// #1
    4020109c:	71002adf 	cmp	w22, #0xa
    402010a0:	540000c3 	b.cc	402010b8 <printf+0x17c>  // b.lo, b.ul, b.last
    402010a4:	0b170ae8 	add	w8, w23, w23, lsl #2
    402010a8:	531f7917 	lsl	w23, w8, #1
    402010ac:	1ad70ac8 	udiv	w8, w22, w23
    402010b0:	7100251f 	cmp	w8, #0x9
    402010b4:	54ffff88 	b.hi	402010a4 <printf+0x168>  // b.pmore
    402010b8:	1ad70ad8 	udiv	w24, w22, w23
    402010bc:	1100c300 	add	w0, w24, #0x30
    402010c0:	97fffbdd 	bl	40200034 <putchar>
    402010c4:	9bb47ee8 	umull	x8, w23, w20
    402010c8:	71002aff 	cmp	w23, #0xa
    402010cc:	1b17db16 	msub	w22, w24, w23, w22
    402010d0:	d363fd08 	lsr	x8, x8, #35
    402010d4:	2a0803f7 	mov	w23, w8
    402010d8:	54ffff02 	b.cs	402010b8 <printf+0x17c>  // b.hs, b.nlast
    402010dc:	17ffffb7 	b	40200fb8 <printf+0x7c>
    402010e0:	f85e03a8 	ldur	x8, [x29, #-32]
    402010e4:	91002109 	add	x9, x8, #0x8
    402010e8:	f81e03a9 	stur	x9, [x29, #-32]
    402010ec:	f9400108 	ldr	x8, [x8]
    402010f0:	39400100 	ldrb	w0, [x8]
    402010f4:	34fff620 	cbz	w0, 40200fb8 <printf+0x7c>
    402010f8:	91000516 	add	x22, x8, #0x1
    402010fc:	97fffbce 	bl	40200034 <putchar>
    40201100:	384016c0 	ldrb	w0, [x22], #1
    40201104:	35ffffc0 	cbnz	w0, 402010fc <printf+0x1c0>
    40201108:	17ffffac 	b	40200fb8 <printf+0x7c>
    4020110c:	f85e03a9 	ldur	x9, [x29, #-32]
    40201110:	91002128 	add	x8, x9, #0x8
    40201114:	f81e03a8 	stur	x8, [x29, #-32]
    40201118:	f9400136 	ldr	x22, [x9]
    4020111c:	2a1f03e8 	mov	w8, wzr
    40201120:	52800797 	mov	w23, #0x3c                  	// #60
    40201124:	14000008 	b	40201144 <printf+0x208>
    40201128:	92400d28 	and	x8, x9, #0xf
    4020112c:	38686aa0 	ldrb	w0, [x21, x8]
    40201130:	97fffbc1 	bl	40200034 <putchar>
    40201134:	52800028 	mov	w8, #0x1                   	// #1
    40201138:	d10012f7 	sub	x23, x23, #0x4
    4020113c:	b10012ff 	cmn	x23, #0x4
    40201140:	54fff3c0 	b.eq	40200fb8 <printf+0x7c>  // b.none
    40201144:	9ad726c9 	lsr	x9, x22, x23
    40201148:	b4ffff17 	cbz	x23, 40201128 <printf+0x1ec>
    4020114c:	12000d2a 	and	w10, w9, #0xf
    40201150:	2a080148 	orr	w8, w10, w8
    40201154:	34ffff28 	cbz	w8, 40201138 <printf+0x1fc>
    40201158:	17fffff4 	b	40201128 <printf+0x1ec>
    4020115c:	528004a0 	mov	w0, #0x25                  	// #37
    40201160:	97fffbb5 	bl	40200034 <putchar>
    40201164:	a9524ff4 	ldp	x20, x19, [sp, #288]
    40201168:	f9407bfc 	ldr	x28, [sp, #240]
    4020116c:	a95157f6 	ldp	x22, x21, [sp, #272]
    40201170:	a9505ff8 	ldp	x24, x23, [sp, #256]
    40201174:	a94e7bfd 	ldp	x29, x30, [sp, #224]
    40201178:	9104c3ff 	add	sp, sp, #0x130
    4020117c:	d65f03c0 	ret

0000000040201180 <sync_el1_handler>:
    40201180:	d10443ff 	sub	sp, sp, #0x110
    40201184:	a90007e0 	stp	x0, x1, [sp]
    40201188:	a9010fe2 	stp	x2, x3, [sp, #16]
    4020118c:	a90217e4 	stp	x4, x5, [sp, #32]
    40201190:	a9031fe6 	stp	x6, x7, [sp, #48]
    40201194:	a90427e8 	stp	x8, x9, [sp, #64]
    40201198:	a9052fea 	stp	x10, x11, [sp, #80]
    4020119c:	a90637ec 	stp	x12, x13, [sp, #96]
    402011a0:	a9073fee 	stp	x14, x15, [sp, #112]
    402011a4:	a90847f0 	stp	x16, x17, [sp, #128]
    402011a8:	a9094ff2 	stp	x18, x19, [sp, #144]
    402011ac:	a90a57f4 	stp	x20, x21, [sp, #160]
    402011b0:	a90b5ff6 	stp	x22, x23, [sp, #176]
    402011b4:	a90c67f8 	stp	x24, x25, [sp, #192]
    402011b8:	a90d6ffa 	stp	x26, x27, [sp, #208]
    402011bc:	a90e77fc 	stp	x28, x29, [sp, #224]
    402011c0:	f9007bfe 	str	x30, [sp, #240]
    402011c4:	d5384015 	mrs	x21, spsr_el1
    402011c8:	d5384036 	mrs	x22, elr_el1
    402011cc:	f9007ff5 	str	x21, [sp, #248]
    402011d0:	f90083f6 	str	x22, [sp, #256]
    402011d4:	910003e0 	mov	x0, sp
    402011d8:	97fffe3b 	bl	40200ac4 <handle_trap>
    402011dc:	f94083f5 	ldr	x21, [sp, #256]
    402011e0:	f9407ff6 	ldr	x22, [sp, #248]
    402011e4:	d5184035 	msr	elr_el1, x21
    402011e8:	d5184016 	msr	spsr_el1, x22
    402011ec:	a94007e0 	ldp	x0, x1, [sp]
    402011f0:	a9410fe2 	ldp	x2, x3, [sp, #16]
    402011f4:	a94217e4 	ldp	x4, x5, [sp, #32]
    402011f8:	a9431fe6 	ldp	x6, x7, [sp, #48]
    402011fc:	a94427e8 	ldp	x8, x9, [sp, #64]
    40201200:	a9452fea 	ldp	x10, x11, [sp, #80]
    40201204:	a94637ec 	ldp	x12, x13, [sp, #96]
    40201208:	a9473fee 	ldp	x14, x15, [sp, #112]
    4020120c:	a94847f0 	ldp	x16, x17, [sp, #128]
    40201210:	a9494ff2 	ldp	x18, x19, [sp, #144]
    40201214:	a94a57f4 	ldp	x20, x21, [sp, #160]
    40201218:	a94b5ff6 	ldp	x22, x23, [sp, #176]
    4020121c:	a94c67f8 	ldp	x24, x25, [sp, #192]
    40201220:	a94d6ffa 	ldp	x26, x27, [sp, #208]
    40201224:	a94e77fc 	ldp	x28, x29, [sp, #224]
    40201228:	f9407bfe 	ldr	x30, [sp, #240]
    4020122c:	910443ff 	add	sp, sp, #0x110
    40201230:	d69f03e0 	eret

0000000040201234 <irq_el1_handler>:
    40201234:	94000034 	bl	40201304 <handle_irq_el1>
    40201238:	14000000 	b	40201238 <irq_el1_handler+0x4>

000000004020123c <fiq_el1_handler>:
    4020123c:	94000033 	bl	40201308 <handle_fiq_el1>
    40201240:	14000000 	b	40201240 <fiq_el1_handler+0x4>

0000000040201244 <serror_el1_handler>:
    40201244:	94000032 	bl	4020130c <handle_serror_el1>
    40201248:	14000000 	b	40201248 <serror_el1_handler+0x4>

000000004020124c <sync_el2_handler>:
    4020124c:	94000031 	bl	40201310 <handle_sync_el2>
    40201250:	14000000 	b	40201250 <sync_el2_handler+0x4>

0000000040201254 <irq_el2_handler>:
    40201254:	94000030 	bl	40201314 <handle_irq_el2>
    40201258:	14000000 	b	40201258 <irq_el2_handler+0x4>

000000004020125c <fiq_el2_handler>:
    4020125c:	9400002f 	bl	40201318 <handle_fiq_el2>
    40201260:	14000000 	b	40201260 <fiq_el2_handler+0x4>

0000000040201264 <serror_el2_handler>:
    40201264:	9400002e 	bl	4020131c <handle_serror_el2>
    40201268:	14000000 	b	40201268 <serror_el2_handler+0x4>

000000004020126c <handle_data_abort>:
    4020126c:	a9bd7bfd 	stp	x29, x30, [sp, #-48]!
    40201270:	f9000bf5 	str	x21, [sp, #16]
    40201274:	a9024ff4 	stp	x20, x19, [sp, #32]
    40201278:	910003fd 	mov	x29, sp
    4020127c:	aa0003f3 	mov	x19, x0
    40201280:	d35a7c14 	ubfx	x20, x0, #26, #6
    40201284:	d503201f 	nop
    40201288:	50007c40 	adr	x0, 40202212 <_vector_table+0xa12>
    4020128c:	aa0103f5 	mov	x21, x1
    40201290:	97ffff2b 	bl	40200f3c <printf>
    40201294:	b0000000 	adrp	x0, 40202000 <_vector_table+0x800>
    40201298:	910a1800 	add	x0, x0, #0x286
    4020129c:	aa1303e1 	mov	x1, x19
    402012a0:	97ffff27 	bl	40200f3c <printf>
    402012a4:	b0000000 	adrp	x0, 40202000 <_vector_table+0x800>
    402012a8:	910a9800 	add	x0, x0, #0x2a6
    402012ac:	aa1503e1 	mov	x1, x21
    402012b0:	97ffff23 	bl	40200f3c <printf>
    402012b4:	b0000000 	adrp	x0, 40202000 <_vector_table+0x800>
    402012b8:	9100c000 	add	x0, x0, #0x30
    402012bc:	aa1403e1 	mov	x1, x20
    402012c0:	97ffff1f 	bl	40200f3c <printf>
    402012c4:	b0000000 	adrp	x0, 40202000 <_vector_table+0x800>
    402012c8:	910c6000 	add	x0, x0, #0x318
    402012cc:	92401661 	and	x1, x19, #0x3f
    402012d0:	97ffff1b 	bl	40200f3c <printf>
    402012d4:	b0000000 	adrp	x0, 40202000 <_vector_table+0x800>
    402012d8:	9107bc00 	add	x0, x0, #0x1ef
    402012dc:	92406261 	and	x1, x19, #0x1ffffff
    402012e0:	97ffff17 	bl	40200f3c <printf>
    402012e4:	b0000000 	adrp	x0, 40202000 <_vector_table+0x800>
    402012e8:	91034400 	add	x0, x0, #0xd1
    402012ec:	b0000001 	adrp	x1, 40202000 <_vector_table+0x800>
    402012f0:	910ad421 	add	x1, x1, #0x2b5
    402012f4:	528002a2 	mov	w2, #0x15                  	// #21
    402012f8:	97ffff11 	bl	40200f3c <printf>
    402012fc:	14000000 	b	402012fc <handle_data_abort+0x90>

0000000040201300 <handle_sync_el1>:
    40201300:	14000000 	b	40201300 <handle_sync_el1>

0000000040201304 <handle_irq_el1>:
    40201304:	14000000 	b	40201304 <handle_irq_el1>

0000000040201308 <handle_fiq_el1>:
    40201308:	14000000 	b	40201308 <handle_fiq_el1>

000000004020130c <handle_serror_el1>:
    4020130c:	14000000 	b	4020130c <handle_serror_el1>

0000000040201310 <handle_sync_el2>:
    40201310:	14000000 	b	40201310 <handle_sync_el2>

0000000040201314 <handle_irq_el2>:
    40201314:	14000000 	b	40201314 <handle_irq_el2>

0000000040201318 <handle_fiq_el2>:
    40201318:	14000000 	b	40201318 <handle_fiq_el2>

000000004020131c <handle_serror_el2>:
    4020131c:	14000000 	b	4020131c <handle_serror_el2>

Disassembly of section .vectors:

0000000040201800 <_vector_table>:
    40201800:	17fffe60 	b	40201180 <sync_el1_handler>
    40201804:	d503201f 	nop
    40201808:	d503201f 	nop
    4020180c:	d503201f 	nop
    40201810:	d503201f 	nop
    40201814:	d503201f 	nop
    40201818:	d503201f 	nop
    4020181c:	d503201f 	nop
    40201820:	d503201f 	nop
    40201824:	d503201f 	nop
    40201828:	d503201f 	nop
    4020182c:	d503201f 	nop
    40201830:	d503201f 	nop
    40201834:	d503201f 	nop
    40201838:	d503201f 	nop
    4020183c:	d503201f 	nop
    40201840:	d503201f 	nop
    40201844:	d503201f 	nop
    40201848:	d503201f 	nop
    4020184c:	d503201f 	nop
    40201850:	d503201f 	nop
    40201854:	d503201f 	nop
    40201858:	d503201f 	nop
    4020185c:	d503201f 	nop
    40201860:	d503201f 	nop
    40201864:	d503201f 	nop
    40201868:	d503201f 	nop
    4020186c:	d503201f 	nop
    40201870:	d503201f 	nop
    40201874:	d503201f 	nop
    40201878:	d503201f 	nop
    4020187c:	d503201f 	nop
    40201880:	17fffe6d 	b	40201234 <irq_el1_handler>
    40201884:	d503201f 	nop
    40201888:	d503201f 	nop
    4020188c:	d503201f 	nop
    40201890:	d503201f 	nop
    40201894:	d503201f 	nop
    40201898:	d503201f 	nop
    4020189c:	d503201f 	nop
    402018a0:	d503201f 	nop
    402018a4:	d503201f 	nop
    402018a8:	d503201f 	nop
    402018ac:	d503201f 	nop
    402018b0:	d503201f 	nop
    402018b4:	d503201f 	nop
    402018b8:	d503201f 	nop
    402018bc:	d503201f 	nop
    402018c0:	d503201f 	nop
    402018c4:	d503201f 	nop
    402018c8:	d503201f 	nop
    402018cc:	d503201f 	nop
    402018d0:	d503201f 	nop
    402018d4:	d503201f 	nop
    402018d8:	d503201f 	nop
    402018dc:	d503201f 	nop
    402018e0:	d503201f 	nop
    402018e4:	d503201f 	nop
    402018e8:	d503201f 	nop
    402018ec:	d503201f 	nop
    402018f0:	d503201f 	nop
    402018f4:	d503201f 	nop
    402018f8:	d503201f 	nop
    402018fc:	d503201f 	nop
    40201900:	17fffe4f 	b	4020123c <fiq_el1_handler>
    40201904:	d503201f 	nop
    40201908:	d503201f 	nop
    4020190c:	d503201f 	nop
    40201910:	d503201f 	nop
    40201914:	d503201f 	nop
    40201918:	d503201f 	nop
    4020191c:	d503201f 	nop
    40201920:	d503201f 	nop
    40201924:	d503201f 	nop
    40201928:	d503201f 	nop
    4020192c:	d503201f 	nop
    40201930:	d503201f 	nop
    40201934:	d503201f 	nop
    40201938:	d503201f 	nop
    4020193c:	d503201f 	nop
    40201940:	d503201f 	nop
    40201944:	d503201f 	nop
    40201948:	d503201f 	nop
    4020194c:	d503201f 	nop
    40201950:	d503201f 	nop
    40201954:	d503201f 	nop
    40201958:	d503201f 	nop
    4020195c:	d503201f 	nop
    40201960:	d503201f 	nop
    40201964:	d503201f 	nop
    40201968:	d503201f 	nop
    4020196c:	d503201f 	nop
    40201970:	d503201f 	nop
    40201974:	d503201f 	nop
    40201978:	d503201f 	nop
    4020197c:	d503201f 	nop
    40201980:	17fffe31 	b	40201244 <serror_el1_handler>
    40201984:	d503201f 	nop
    40201988:	d503201f 	nop
    4020198c:	d503201f 	nop
    40201990:	d503201f 	nop
    40201994:	d503201f 	nop
    40201998:	d503201f 	nop
    4020199c:	d503201f 	nop
    402019a0:	d503201f 	nop
    402019a4:	d503201f 	nop
    402019a8:	d503201f 	nop
    402019ac:	d503201f 	nop
    402019b0:	d503201f 	nop
    402019b4:	d503201f 	nop
    402019b8:	d503201f 	nop
    402019bc:	d503201f 	nop
    402019c0:	d503201f 	nop
    402019c4:	d503201f 	nop
    402019c8:	d503201f 	nop
    402019cc:	d503201f 	nop
    402019d0:	d503201f 	nop
    402019d4:	d503201f 	nop
    402019d8:	d503201f 	nop
    402019dc:	d503201f 	nop
    402019e0:	d503201f 	nop
    402019e4:	d503201f 	nop
    402019e8:	d503201f 	nop
    402019ec:	d503201f 	nop
    402019f0:	d503201f 	nop
    402019f4:	d503201f 	nop
    402019f8:	d503201f 	nop
    402019fc:	d503201f 	nop
    40201a00:	17fffde0 	b	40201180 <sync_el1_handler>
    40201a04:	d503201f 	nop
    40201a08:	d503201f 	nop
    40201a0c:	d503201f 	nop
    40201a10:	d503201f 	nop
    40201a14:	d503201f 	nop
    40201a18:	d503201f 	nop
    40201a1c:	d503201f 	nop
    40201a20:	d503201f 	nop
    40201a24:	d503201f 	nop
    40201a28:	d503201f 	nop
    40201a2c:	d503201f 	nop
    40201a30:	d503201f 	nop
    40201a34:	d503201f 	nop
    40201a38:	d503201f 	nop
    40201a3c:	d503201f 	nop
    40201a40:	d503201f 	nop
    40201a44:	d503201f 	nop
    40201a48:	d503201f 	nop
    40201a4c:	d503201f 	nop
    40201a50:	d503201f 	nop
    40201a54:	d503201f 	nop
    40201a58:	d503201f 	nop
    40201a5c:	d503201f 	nop
    40201a60:	d503201f 	nop
    40201a64:	d503201f 	nop
    40201a68:	d503201f 	nop
    40201a6c:	d503201f 	nop
    40201a70:	d503201f 	nop
    40201a74:	d503201f 	nop
    40201a78:	d503201f 	nop
    40201a7c:	d503201f 	nop
    40201a80:	17fffded 	b	40201234 <irq_el1_handler>
    40201a84:	d503201f 	nop
    40201a88:	d503201f 	nop
    40201a8c:	d503201f 	nop
    40201a90:	d503201f 	nop
    40201a94:	d503201f 	nop
    40201a98:	d503201f 	nop
    40201a9c:	d503201f 	nop
    40201aa0:	d503201f 	nop
    40201aa4:	d503201f 	nop
    40201aa8:	d503201f 	nop
    40201aac:	d503201f 	nop
    40201ab0:	d503201f 	nop
    40201ab4:	d503201f 	nop
    40201ab8:	d503201f 	nop
    40201abc:	d503201f 	nop
    40201ac0:	d503201f 	nop
    40201ac4:	d503201f 	nop
    40201ac8:	d503201f 	nop
    40201acc:	d503201f 	nop
    40201ad0:	d503201f 	nop
    40201ad4:	d503201f 	nop
    40201ad8:	d503201f 	nop
    40201adc:	d503201f 	nop
    40201ae0:	d503201f 	nop
    40201ae4:	d503201f 	nop
    40201ae8:	d503201f 	nop
    40201aec:	d503201f 	nop
    40201af0:	d503201f 	nop
    40201af4:	d503201f 	nop
    40201af8:	d503201f 	nop
    40201afc:	d503201f 	nop
    40201b00:	17fffdcf 	b	4020123c <fiq_el1_handler>
    40201b04:	d503201f 	nop
    40201b08:	d503201f 	nop
    40201b0c:	d503201f 	nop
    40201b10:	d503201f 	nop
    40201b14:	d503201f 	nop
    40201b18:	d503201f 	nop
    40201b1c:	d503201f 	nop
    40201b20:	d503201f 	nop
    40201b24:	d503201f 	nop
    40201b28:	d503201f 	nop
    40201b2c:	d503201f 	nop
    40201b30:	d503201f 	nop
    40201b34:	d503201f 	nop
    40201b38:	d503201f 	nop
    40201b3c:	d503201f 	nop
    40201b40:	d503201f 	nop
    40201b44:	d503201f 	nop
    40201b48:	d503201f 	nop
    40201b4c:	d503201f 	nop
    40201b50:	d503201f 	nop
    40201b54:	d503201f 	nop
    40201b58:	d503201f 	nop
    40201b5c:	d503201f 	nop
    40201b60:	d503201f 	nop
    40201b64:	d503201f 	nop
    40201b68:	d503201f 	nop
    40201b6c:	d503201f 	nop
    40201b70:	d503201f 	nop
    40201b74:	d503201f 	nop
    40201b78:	d503201f 	nop
    40201b7c:	d503201f 	nop
    40201b80:	17fffdb1 	b	40201244 <serror_el1_handler>
    40201b84:	d503201f 	nop
    40201b88:	d503201f 	nop
    40201b8c:	d503201f 	nop
    40201b90:	d503201f 	nop
    40201b94:	d503201f 	nop
    40201b98:	d503201f 	nop
    40201b9c:	d503201f 	nop
    40201ba0:	d503201f 	nop
    40201ba4:	d503201f 	nop
    40201ba8:	d503201f 	nop
    40201bac:	d503201f 	nop
    40201bb0:	d503201f 	nop
    40201bb4:	d503201f 	nop
    40201bb8:	d503201f 	nop
    40201bbc:	d503201f 	nop
    40201bc0:	d503201f 	nop
    40201bc4:	d503201f 	nop
    40201bc8:	d503201f 	nop
    40201bcc:	d503201f 	nop
    40201bd0:	d503201f 	nop
    40201bd4:	d503201f 	nop
    40201bd8:	d503201f 	nop
    40201bdc:	d503201f 	nop
    40201be0:	d503201f 	nop
    40201be4:	d503201f 	nop
    40201be8:	d503201f 	nop
    40201bec:	d503201f 	nop
    40201bf0:	d503201f 	nop
    40201bf4:	d503201f 	nop
    40201bf8:	d503201f 	nop
    40201bfc:	d503201f 	nop
    40201c00:	17fffd60 	b	40201180 <sync_el1_handler>
    40201c04:	d503201f 	nop
    40201c08:	d503201f 	nop
    40201c0c:	d503201f 	nop
    40201c10:	d503201f 	nop
    40201c14:	d503201f 	nop
    40201c18:	d503201f 	nop
    40201c1c:	d503201f 	nop
    40201c20:	d503201f 	nop
    40201c24:	d503201f 	nop
    40201c28:	d503201f 	nop
    40201c2c:	d503201f 	nop
    40201c30:	d503201f 	nop
    40201c34:	d503201f 	nop
    40201c38:	d503201f 	nop
    40201c3c:	d503201f 	nop
    40201c40:	d503201f 	nop
    40201c44:	d503201f 	nop
    40201c48:	d503201f 	nop
    40201c4c:	d503201f 	nop
    40201c50:	d503201f 	nop
    40201c54:	d503201f 	nop
    40201c58:	d503201f 	nop
    40201c5c:	d503201f 	nop
    40201c60:	d503201f 	nop
    40201c64:	d503201f 	nop
    40201c68:	d503201f 	nop
    40201c6c:	d503201f 	nop
    40201c70:	d503201f 	nop
    40201c74:	d503201f 	nop
    40201c78:	d503201f 	nop
    40201c7c:	d503201f 	nop
    40201c80:	17fffd6d 	b	40201234 <irq_el1_handler>
    40201c84:	d503201f 	nop
    40201c88:	d503201f 	nop
    40201c8c:	d503201f 	nop
    40201c90:	d503201f 	nop
    40201c94:	d503201f 	nop
    40201c98:	d503201f 	nop
    40201c9c:	d503201f 	nop
    40201ca0:	d503201f 	nop
    40201ca4:	d503201f 	nop
    40201ca8:	d503201f 	nop
    40201cac:	d503201f 	nop
    40201cb0:	d503201f 	nop
    40201cb4:	d503201f 	nop
    40201cb8:	d503201f 	nop
    40201cbc:	d503201f 	nop
    40201cc0:	d503201f 	nop
    40201cc4:	d503201f 	nop
    40201cc8:	d503201f 	nop
    40201ccc:	d503201f 	nop
    40201cd0:	d503201f 	nop
    40201cd4:	d503201f 	nop
    40201cd8:	d503201f 	nop
    40201cdc:	d503201f 	nop
    40201ce0:	d503201f 	nop
    40201ce4:	d503201f 	nop
    40201ce8:	d503201f 	nop
    40201cec:	d503201f 	nop
    40201cf0:	d503201f 	nop
    40201cf4:	d503201f 	nop
    40201cf8:	d503201f 	nop
    40201cfc:	d503201f 	nop
    40201d00:	17fffd4f 	b	4020123c <fiq_el1_handler>
    40201d04:	d503201f 	nop
    40201d08:	d503201f 	nop
    40201d0c:	d503201f 	nop
    40201d10:	d503201f 	nop
    40201d14:	d503201f 	nop
    40201d18:	d503201f 	nop
    40201d1c:	d503201f 	nop
    40201d20:	d503201f 	nop
    40201d24:	d503201f 	nop
    40201d28:	d503201f 	nop
    40201d2c:	d503201f 	nop
    40201d30:	d503201f 	nop
    40201d34:	d503201f 	nop
    40201d38:	d503201f 	nop
    40201d3c:	d503201f 	nop
    40201d40:	d503201f 	nop
    40201d44:	d503201f 	nop
    40201d48:	d503201f 	nop
    40201d4c:	d503201f 	nop
    40201d50:	d503201f 	nop
    40201d54:	d503201f 	nop
    40201d58:	d503201f 	nop
    40201d5c:	d503201f 	nop
    40201d60:	d503201f 	nop
    40201d64:	d503201f 	nop
    40201d68:	d503201f 	nop
    40201d6c:	d503201f 	nop
    40201d70:	d503201f 	nop
    40201d74:	d503201f 	nop
    40201d78:	d503201f 	nop
    40201d7c:	d503201f 	nop
    40201d80:	17fffd31 	b	40201244 <serror_el1_handler>
    40201d84:	d503201f 	nop
    40201d88:	d503201f 	nop
    40201d8c:	d503201f 	nop
    40201d90:	d503201f 	nop
    40201d94:	d503201f 	nop
    40201d98:	d503201f 	nop
    40201d9c:	d503201f 	nop
    40201da0:	d503201f 	nop
    40201da4:	d503201f 	nop
    40201da8:	d503201f 	nop
    40201dac:	d503201f 	nop
    40201db0:	d503201f 	nop
    40201db4:	d503201f 	nop
    40201db8:	d503201f 	nop
    40201dbc:	d503201f 	nop
    40201dc0:	d503201f 	nop
    40201dc4:	d503201f 	nop
    40201dc8:	d503201f 	nop
    40201dcc:	d503201f 	nop
    40201dd0:	d503201f 	nop
    40201dd4:	d503201f 	nop
    40201dd8:	d503201f 	nop
    40201ddc:	d503201f 	nop
    40201de0:	d503201f 	nop
    40201de4:	d503201f 	nop
    40201de8:	d503201f 	nop
    40201dec:	d503201f 	nop
    40201df0:	d503201f 	nop
    40201df4:	d503201f 	nop
    40201df8:	d503201f 	nop
    40201dfc:	d503201f 	nop
    40201e00:	17fffce0 	b	40201180 <sync_el1_handler>
    40201e04:	d503201f 	nop
    40201e08:	d503201f 	nop
    40201e0c:	d503201f 	nop
    40201e10:	d503201f 	nop
    40201e14:	d503201f 	nop
    40201e18:	d503201f 	nop
    40201e1c:	d503201f 	nop
    40201e20:	d503201f 	nop
    40201e24:	d503201f 	nop
    40201e28:	d503201f 	nop
    40201e2c:	d503201f 	nop
    40201e30:	d503201f 	nop
    40201e34:	d503201f 	nop
    40201e38:	d503201f 	nop
    40201e3c:	d503201f 	nop
    40201e40:	d503201f 	nop
    40201e44:	d503201f 	nop
    40201e48:	d503201f 	nop
    40201e4c:	d503201f 	nop
    40201e50:	d503201f 	nop
    40201e54:	d503201f 	nop
    40201e58:	d503201f 	nop
    40201e5c:	d503201f 	nop
    40201e60:	d503201f 	nop
    40201e64:	d503201f 	nop
    40201e68:	d503201f 	nop
    40201e6c:	d503201f 	nop
    40201e70:	d503201f 	nop
    40201e74:	d503201f 	nop
    40201e78:	d503201f 	nop
    40201e7c:	d503201f 	nop
    40201e80:	17fffced 	b	40201234 <irq_el1_handler>
    40201e84:	d503201f 	nop
    40201e88:	d503201f 	nop
    40201e8c:	d503201f 	nop
    40201e90:	d503201f 	nop
    40201e94:	d503201f 	nop
    40201e98:	d503201f 	nop
    40201e9c:	d503201f 	nop
    40201ea0:	d503201f 	nop
    40201ea4:	d503201f 	nop
    40201ea8:	d503201f 	nop
    40201eac:	d503201f 	nop
    40201eb0:	d503201f 	nop
    40201eb4:	d503201f 	nop
    40201eb8:	d503201f 	nop
    40201ebc:	d503201f 	nop
    40201ec0:	d503201f 	nop
    40201ec4:	d503201f 	nop
    40201ec8:	d503201f 	nop
    40201ecc:	d503201f 	nop
    40201ed0:	d503201f 	nop
    40201ed4:	d503201f 	nop
    40201ed8:	d503201f 	nop
    40201edc:	d503201f 	nop
    40201ee0:	d503201f 	nop
    40201ee4:	d503201f 	nop
    40201ee8:	d503201f 	nop
    40201eec:	d503201f 	nop
    40201ef0:	d503201f 	nop
    40201ef4:	d503201f 	nop
    40201ef8:	d503201f 	nop
    40201efc:	d503201f 	nop
    40201f00:	17fffccf 	b	4020123c <fiq_el1_handler>
    40201f04:	d503201f 	nop
    40201f08:	d503201f 	nop
    40201f0c:	d503201f 	nop
    40201f10:	d503201f 	nop
    40201f14:	d503201f 	nop
    40201f18:	d503201f 	nop
    40201f1c:	d503201f 	nop
    40201f20:	d503201f 	nop
    40201f24:	d503201f 	nop
    40201f28:	d503201f 	nop
    40201f2c:	d503201f 	nop
    40201f30:	d503201f 	nop
    40201f34:	d503201f 	nop
    40201f38:	d503201f 	nop
    40201f3c:	d503201f 	nop
    40201f40:	d503201f 	nop
    40201f44:	d503201f 	nop
    40201f48:	d503201f 	nop
    40201f4c:	d503201f 	nop
    40201f50:	d503201f 	nop
    40201f54:	d503201f 	nop
    40201f58:	d503201f 	nop
    40201f5c:	d503201f 	nop
    40201f60:	d503201f 	nop
    40201f64:	d503201f 	nop
    40201f68:	d503201f 	nop
    40201f6c:	d503201f 	nop
    40201f70:	d503201f 	nop
    40201f74:	d503201f 	nop
    40201f78:	d503201f 	nop
    40201f7c:	d503201f 	nop
    40201f80:	17fffcb1 	b	40201244 <serror_el1_handler>

Disassembly of section .rodata:

0000000040201f90 <.rodata>:
    40201f90:	63617453 	.inst	0x63617453 ; undefined
    40201f94:	6f70206b 	umlal2	v11.4s, v3.8h, v0.h[3]
    40201f98:	65746e69 	fnmls	z9.h, p3/m, z19.h, z20.h
    40201f9c:	74612072 	.inst	0x74612072 ; undefined
    40201fa0:	61727420 	.inst	0x61727420 ; undefined
    40201fa4:	6e652070 	usubl2	v16.4s, v3.8h, v5.8h
    40201fa8:	3a797274 	.inst	0x3a797274 ; undefined
    40201fac:	0a782520 	bic	w0, w9, w24, lsr #9
    40201fb0:	72656b00 	.inst	0x72656b00 ; undefined
    40201fb4:	2e6c656e 	umax	v14.4h, v11.4h, v12.4h
    40201fb8:	41500063 	.inst	0x41500063 ; undefined
    40201fbc:	3a43494e 	ccmn	w10, #0x3, #0xe, mi	// mi = first
    40201fc0:	3a732520 	.inst	0x3a732520 ; undefined
    40201fc4:	203a6425 	.inst	0x203a6425 ; undefined
    40201fc8:	6e6b6e75 	umin	v21.8h, v19.8h, v11.8h
    40201fcc:	206e776f 	.inst	0x206e776f ; undefined
    40201fd0:	63737973 	.inst	0x63737973 ; undefined
    40201fd4:	0a6c6c61 	bic	w1, w3, w12, lsr #27
    40201fd8:	65724300 	fnmla	z0.h, p0/m, z24.h, z18.h
    40201fdc:	64657461 	.inst	0x64657461 ; undefined
    40201fe0:	6f727020 	fcmla	v0.8h, v1.8h, v18.h[1], #270
    40201fe4:	73736563 	.inst	0x73736563 ; undefined
    40201fe8:	65737520 	fnmls	z0.h, p5/m, z9.h, z19.h
    40201fec:	50000a72 	adr	x18, 4020213a <_vector_table+0x93a>
    40201ff0:	43494e41 	.inst	0x43494e41 ; undefined
    40201ff4:	7325203a 	.inst	0x7325203a ; undefined
    40201ff8:	3a64253a 	.inst	0x3a64253a ; undefined
    40201ffc:	6f6f6220 	umlsl2	v0.4s, v17.8h, v15.h[2]
    40202000:	0a646574 	bic	w20, w11, w4, lsr #25
    40202004:	6e55000a 	.inst	0x6e55000a ; undefined
    40202008:	776f6e6b 	.inst	0x776f6e6b ; undefined
    4020200c:	7973206e 	ldrh	w14, [x3, #6544]
    40202010:	6c616373 	ldnp	d19, d24, [x27, #-496]
    40202014:	25203a6c 	.inst	0x25203a6c ; undefined
    40202018:	000a646c 	.inst	0x000a646c ; undefined
    4020201c:	72617473 	.inst	0x72617473 ; undefined
    40202020:	676e6974 	.inst	0x676e6974 ; undefined
    40202024:	6f727020 	fcmla	v0.8h, v1.8h, v18.h[1], #270
    40202028:	73736563 	.inst	0x73736563 ; undefined
    4020202c:	000a4220 	.inst	0x000a4220 ; undefined
    40202030:	203a4345 	.inst	0x203a4345 ; undefined
    40202034:	78257830 	strh	w16, [x1, x5, lsl #1]
    40202038:	4150000a 	.inst	0x4150000a ; undefined
    4020203c:	3a43494e 	ccmn	w10, #0x3, #0xe, mi	// mi = first
    40202040:	3a732520 	.inst	0x3a732520 ; undefined
    40202044:	203a6425 	.inst	0x203a6425 ; undefined
    40202048:	6c616e75 	ldnp	d21, d27, [x19, #-496]
    4020204c:	656e6769 	fnmls	z9.h, p1/m, z27.h, z14.h
    40202050:	61702064 	.inst	0x61702064 ; undefined
    40202054:	20726464 	.inst	0x20726464 ; undefined
    40202058:	0a786c25 	bic	w5, w1, w24, lsr #27
    4020205c:	65697900 	fnmls	z0.h, p6/m, z8.h, z9.h
    40202060:	6420646c 	.inst	0x6420646c ; undefined
    40202064:	0a656e6f 	bic	w15, w19, w5, lsr #27
    40202068:	61747300 	.inst	0x61747300 ; undefined
    4020206c:	6e697472 	uabd	v18.8h, v3.8h, v9.8h
    40202070:	72702067 	.inst	0x72702067 ; undefined
    40202074:	7365636f 	.inst	0x7365636f ; undefined
    40202078:	0a412073 	and	w19, w3, w1, lsr #8
    4020207c:	61725400 	.inst	0x61725400 ; undefined
    40202080:	45203a70 	.inst	0x45203a70 ; undefined
    40202084:	78303d43 	.inst	0x78303d43 ; undefined
    40202088:	49207825 	.inst	0x49207825 ; undefined
    4020208c:	303d5353 	adr	x19, 4027caf5 <__free_ram+0x49af5>
    40202090:	20782578 	.inst	0x20782578 ; undefined
    40202094:	3d524c45 	ldr	b5, [x2, #1171]
    40202098:	78257830 	strh	w16, [x1, x5, lsl #1]
    4020209c:	5f505320 	.inst	0x5f505320 ; undefined
    402020a0:	3d304c45 	str	b5, [x2, #3091]
    402020a4:	78257830 	strh	w16, [x1, x5, lsl #1]
    402020a8:	2020000a 	.inst	0x2020000a ; undefined
    402020ac:	5f525345 	.inst	0x5f525345 ; undefined
    402020b0:	3a314c45 	.inst	0x3a314c45 ; undefined
    402020b4:	25783020 	whilewr	p0.h, x1, x24
    402020b8:	45282078 	sqshrnb	z24.b, z3.h, #8
    402020bc:	30203a43 	adr	x3, 40242805 <__free_ram+0xf805>
    402020c0:	2c782578 	ldnp	s24, s9, [x11, #-64]
    402020c4:	53534920 	.inst	0x53534920 ; undefined
    402020c8:	7830203a 	ldeorh	w16, w26, [x1]
    402020cc:	0a297825 	bic	w5, w1, w9, lsl #30
    402020d0:	4e415000 	.inst	0x4e415000 ; undefined
    402020d4:	203a4349 	.inst	0x203a4349 ; undefined
    402020d8:	253a7325 	.inst	0x253a7325 ; undefined
    402020dc:	44203a64 	.inst	0x44203a64 ; undefined
    402020e0:	20617461 	.inst	0x20617461 ; undefined
    402020e4:	726f6261 	.inst	0x726f6261 ; undefined
    402020e8:	78652074 	ldeorlh	w5, w20, [x3]
    402020ec:	74706563 	.inst	0x74706563 ; undefined
    402020f0:	0a6e6f69 	bic	w9, w27, w14, lsr #27
    402020f4:	63784500 	.inst	0x63784500 ; undefined
    402020f8:	69747065 	ldpsw	x5, x28, [x3, #-96]
    402020fc:	68206e6f 	.inst	0x68206e6f ; undefined
    40202100:	6c646e61 	ldnp	d1, d27, [x19, #-448]
    40202104:	20676e69 	.inst	0x20676e69 ; undefined
    40202108:	74696e69 	.inst	0x74696e69 ; undefined
    4020210c:	696c6169 	ldpsw	x9, x24, [x11, #-160]
    40202110:	0a64657a 	bic	w26, w11, w4, lsr #25
    40202114:	4e415000 	.inst	0x4e415000 ; undefined
    40202118:	203a4349 	.inst	0x203a4349 ; undefined
    4020211c:	253a7325 	.inst	0x253a7325 ; undefined
    40202120:	6f203a64 	.inst	0x6f203a64 ; undefined
    40202124:	6f207475 	uqshl	v21.4s, v3.4s, #0
    40202128:	656d2066 	fmls	z6.h, p0/m, z3.h, z13.h
    4020212c:	79726f6d 	ldrh	w13, [x27, #6454]
    40202130:	4150000a 	.inst	0x4150000a ; undefined
    40202134:	3a43494e 	ccmn	w10, #0x3, #0xe, mi	// mi = first
    40202138:	3a732520 	.inst	0x3a732520 ; undefined
    4020213c:	203a6425 	.inst	0x203a6425 ; undefined
    40202140:	6c616e75 	ldnp	d21, d27, [x19, #-496]
    40202144:	656e6769 	fnmls	z9.h, p1/m, z27.h, z14.h
    40202148:	61762064 	.inst	0x61762064 ; undefined
    4020214c:	20726464 	.inst	0x20726464 ; undefined
    40202150:	0a786c25 	bic	w5, w1, w24, lsr #27
    40202154:	4e415000 	.inst	0x4e415000 ; undefined
    40202158:	203a4349 	.inst	0x203a4349 ; undefined
    4020215c:	253a7325 	.inst	0x253a7325 ; undefined
    40202160:	53203a64 	.inst	0x53203a64 ; undefined
    40202164:	74204356 	.inst	0x74204356 ; undefined
    40202168:	0a706172 	bic	w18, w11, w16, lsr #24
    4020216c:	42545400 	.inst	0x42545400 ; undefined
    40202170:	455f3052 	sabdlb	z18.h, z2.b, z31.b
    40202174:	303d314c 	adr	x12, 4027c79d <__free_ram+0x4979d>
    40202178:	0a782578 	bic	w24, w11, w24, lsr #9
    4020217c:	72615700 	.inst	0x72615700 ; undefined
    40202180:	676e696e 	.inst	0x676e696e ; undefined
    40202184:	6f4e203a 	umlal2	v26.4s, v1.8h, v14.h[0]
    40202188:	6e692074 	usubl2	v20.4s, v3.8h, v9.8h
    4020218c:	314c4520 	adds	w0, w9, #0x311, lsl #12
    40202190:	75432820 	.inst	0x75432820 ; undefined
    40202194:	6e657272 	uabdl2	v18.4s, v19.8h, v5.8h
    40202198:	4c452074 	.inst	0x4c452074 ; undefined
    4020219c:	6425203a 	fmul	z26.h, z1.h, z5.h[0]
    402021a0:	43000a29 	.inst	0x43000a29 ; undefined
    402021a4:	74616572 	.inst	0x74616572 ; undefined
    402021a8:	20676e69 	.inst	0x20676e69 ; undefined
    402021ac:	636f7270 	.inst	0x636f7270 ; undefined
    402021b0:	20737365 	.inst	0x20737365 ; undefined
    402021b4:	7375203a 	.inst	0x7375203a ; undefined
    402021b8:	000a7265 	.inst	0x000a7265 ; undefined
    402021bc:	6c656979 	ldnp	d25, d26, [x11, #-432]
    402021c0:	676e6964 	.inst	0x676e6964 ; undefined
    402021c4:	206f7420 	.inst	0x206f7420 ; undefined
    402021c8:	72657375 	.inst	0x72657375 ; undefined
    402021cc:	6f727020 	fcmla	v0.8h, v1.8h, v18.h[1], #270
    402021d0:	73736563 	.inst	0x73736563 ; undefined
    402021d4:	6144000a 	.inst	0x6144000a ; undefined
    402021d8:	492f6174 	.inst	0x492f6174 ; undefined
    402021dc:	7274736e 	.inst	0x7274736e ; undefined
    402021e0:	69746375 	ldpsw	x21, x24, [x27, #-96]
    402021e4:	41206e6f 	.inst	0x41206e6f ; undefined
    402021e8:	74726f62 	.inst	0x74726f62 ; undefined
    402021ec:	49000a3a 	.inst	0x49000a3a ; undefined
    402021f0:	203a5353 	.inst	0x203a5353 ; undefined
    402021f4:	78257830 	strh	w16, [x1, x5, lsl #1]
    402021f8:	7953000a 	ldrh	w10, [x0, #2432]
    402021fc:	6c616373 	ldnp	d19, d24, [x27, #-496]
    40202200:	78203a6c 	.inst	0x78203a6c ; undefined
    40202204:	6c253d38 	stnp	d24, d15, [x9, #-432]
    40202208:	30782078 	adr	x24, 402f2615 <__free_ram+0xbf615>
    4020220c:	786c253d 	.inst	0x786c253d ; undefined
    40202210:	6144000a 	.inst	0x6144000a ; undefined
    40202214:	41206174 	.inst	0x41206174 ; undefined
    40202218:	74726f62 	.inst	0x74726f62 ; undefined
    4020221c:	63784520 	.inst	0x63784520 ; undefined
    40202220:	69747065 	ldpsw	x5, x28, [x3, #-96]
    40202224:	0a216e6f 	bic	w15, w19, w1, lsl #27
    40202228:	72654b00 	.inst	0x72654b00 ; undefined
    4020222c:	206c656e 	.inst	0x206c656e ; undefined
    40202230:	65676170 	fnmls	z16.h, p0/m, z11.h, z7.h
    40202234:	616d2073 	.inst	0x616d2073 ; undefined
    40202238:	64657070 	.inst	0x64657070 ; undefined
    4020223c:	2020000a 	.inst	0x2020000a ; undefined
    40202240:	5f524c45 	.inst	0x5f524c45 ; undefined
    40202244:	3a314c45 	.inst	0x3a314c45 ; undefined
    40202248:	25783020 	whilewr	p0.h, x1, x24
    4020224c:	50000a78 	adr	x24, 4020239a <_binary_shell_bin_start+0x42>
    40202250:	43494e41 	.inst	0x43494e41 ; undefined
    40202254:	7325203a 	.inst	0x7325203a ; undefined
    40202258:	3a64253a 	.inst	0x3a64253a ; undefined
    4020225c:	67615020 	.inst	0x67615020 ; undefined
    40202260:	61742065 	.inst	0x61742065 ; undefined
    40202264:	20656c62 	.inst	0x20656c62 ; undefined
    40202268:	20746f6e 	.inst	0x20746f6e ; undefined
    4020226c:	67696c61 	.inst	0x67696c61 ; undefined
    40202270:	0a64656e 	bic	w14, w11, w4, lsr #25
    40202274:	46202000 	.inst	0x46202000 ; undefined
    40202278:	455f5241 	ssubwb	z1.h, z18.h, z31.b
    4020227c:	203a314c 	.inst	0x203a314c ; undefined
    40202280:	78257830 	strh	w16, [x1, x5, lsl #1]
    40202284:	5345000a 	.inst	0x5345000a ; undefined
    40202288:	4c455f52 	.inst	0x4c455f52 ; undefined
    4020228c:	30203a31 	adr	x17, 402429d1 <__free_ram+0xf9d1>
    40202290:	0a782578 	bic	w24, w11, w24, lsr #9
    40202294:	32313000 	orr	w0, w0, #0xfff8000
    40202298:	36353433 	tbz	w19, #6, 401fc91c <_binary_shell_bin_size+0x401fc4a3>
    4020229c:	61393837 	.inst	0x61393837 ; undefined
    402022a0:	65646362 	fnmls	z2.h, p0/m, z27.h, z4.h
    402022a4:	41460066 	.inst	0x41460066 ; undefined
    402022a8:	4c455f52 	.inst	0x4c455f52 ; undefined
    402022ac:	30203a31 	adr	x17, 402429f1 <__free_ram+0xf9f1>
    402022b0:	0a782578 	bic	w24, w11, w24, lsr #9
    402022b4:	63657600 	.inst	0x63657600 ; undefined
    402022b8:	00632e74 	.inst	0x00632e74 ; undefined
    402022bc:	494e4150 	.inst	0x494e4150 ; undefined
    402022c0:	25203a43 	.inst	0x25203a43 ; undefined
    402022c4:	64253a73 	.inst	0x64253a73 ; undefined
    402022c8:	6f6e203a 	umlal2	v26.4s, v1.8h, v14.h[2]
    402022cc:	65726620 	fnmls	z0.h, p1/m, z17.h, z18.h
    402022d0:	72702065 	.inst	0x72702065 ; undefined
    402022d4:	7365636f 	.inst	0x7365636f ; undefined
    402022d8:	6c732073 	ldnp	d19, d8, [x3, #-208]
    402022dc:	0a73746f 	bic	w15, w3, w19, lsr #29
    402022e0:	656e5500 	fnmla	z0.h, p5/m, z8.h, z14.h
    402022e4:	63657078 	.inst	0x63657078 ; undefined
    402022e8:	20646574 	.inst	0x20646574 ; undefined
    402022ec:	70617274 	adr	x20, 402c513b <__free_ram+0x9213b>
    402022f0:	4345203a 	.inst	0x4345203a ; undefined
    402022f4:	2078253d 	.inst	0x2078253d ; undefined
    402022f8:	3d535349 	ldr	b9, [x26, #1236]
    402022fc:	45207825 	.inst	0x45207825 ; undefined
    40202300:	253d524c 	.inst	0x253d524c ; undefined
    40202304:	69000a78 	stgp	x24, x2, [x19]
    40202308:	6567616d 	fnmls	z13.h, p0/m, z11.h, z7.h
    4020230c:	7a69735f 	.inst	0x7a69735f ; undefined
    40202310:	203d2065 	.inst	0x203d2065 ; undefined
    40202314:	000a7825 	.inst	0x000a7825 ; undefined
    40202318:	43534644 	.inst	0x43534644 ; undefined
    4020231c:	7830203a 	ldeorh	w16, w26, [x1]
    40202320:	000a7825 	.inst	0x000a7825 ; undefined
    40202324:	494e4150 	.inst	0x494e4150 ; undefined
    40202328:	25203a43 	.inst	0x25203a43 ; undefined
    4020232c:	64253a73 	.inst	0x64253a73 ; undefined
    40202330:	6e75203a 	usubl2	v26.4s, v1.8h, v21.8h
    40202334:	65707865 	fnmls	z5.h, p6/m, z3.h, z16.h
    40202338:	64657463 	.inst	0x64657463 ; undefined
    4020233c:	61727420 	.inst	0x61727420 ; undefined
    40202340:	Address 0x40202340 is out of bounds.


Disassembly of section .data:

0000000040202350 <alloc_pages.next_paddr>:
    40202350:	40233000 	.inst	0x40233000 ; undefined
    40202354:	00000000 	udf	#0

0000000040202358 <_binary_shell_bin_start>:
    40202358:	90008008 	adrp	x8, 41202000 <__free_ram+0xfcf000>
    4020235c:	91000108 	add	x8, x8, #0x0
    40202360:	9100011f 	mov	sp, x8
    40202364:	94000002 	bl	4020236c <_binary_shell_bin_start+0x14>
    40202368:	94000006 	bl	40202380 <_binary_shell_bin_start+0x28>
    4020236c:	a9bf7bfd 	stp	x29, x30, [sp, #-16]!
    40202370:	910003fd 	mov	x29, sp
    40202374:	52800900 	mov	w0, #0x48                  	// #72
    40202378:	9400000b 	bl	402023a4 <_binary_shell_bin_start+0x4c>
    4020237c:	14000000 	b	4020237c <_binary_shell_bin_start+0x24>
    40202380:	14000000 	b	40202380 <_binary_shell_bin_start+0x28>
    40202384:	aa0103e8 	mov	x8, x1
    40202388:	aa0003e9 	mov	x9, x0
    4020238c:	aa0203e1 	mov	x1, x2
    40202390:	aa0803e0 	mov	x0, x8
    40202394:	aa0303e2 	mov	x2, x3
    40202398:	aa0903e8 	mov	x8, x9
    4020239c:	d4000001 	svc	#0x0
    402023a0:	d65f03c0 	ret
    402023a4:	aa1f03e1 	mov	x1, xzr
    402023a8:	aa1f03e2 	mov	x2, xzr
    402023ac:	52800028 	mov	w8, #0x1                   	// #1
    402023b0:	92401c00 	and	x0, x0, #0xff
    402023b4:	d4000001 	svc	#0x0
    402023b8:	d65f03c0 	ret
    402023bc:	34000622 	cbz	w2, 40202480 <_binary_shell_bin_start+0x128>
    402023c0:	7100205f 	cmp	w2, #0x8
    402023c4:	54000123 	b.cc	402023e8 <_binary_shell_bin_start+0x90>  // b.lo, b.ul, b.last
    402023c8:	cb010008 	sub	x8, x0, x1
    402023cc:	f100811f 	cmp	x8, #0x20
    402023d0:	540000c3 	b.cc	402023e8 <_binary_shell_bin_start+0x90>  // b.lo, b.ul, b.last
    402023d4:	7100805f 	cmp	w2, #0x20
    402023d8:	2a0203e8 	mov	w8, w2
    402023dc:	540000c2 	b.cs	402023f4 <_binary_shell_bin_start+0x9c>  // b.hs, b.nlast
    402023e0:	aa1f03eb 	mov	x11, xzr
    402023e4:	14000012 	b	4020242c <_binary_shell_bin_start+0xd4>
    402023e8:	aa0103e9 	mov	x9, x1
    402023ec:	aa0003ea 	mov	x10, x0
    402023f0:	14000020 	b	40202470 <_binary_shell_bin_start+0x118>
    402023f4:	927b690b 	and	x11, x8, #0xffffffe0
    402023f8:	91004009 	add	x9, x0, #0x10
    402023fc:	9100402a 	add	x10, x1, #0x10
    40202400:	aa0b03ec 	mov	x12, x11
    40202404:	ad7f8540 	ldp	q0, q1, [x10, #-16]
    40202408:	f100818c 	subs	x12, x12, #0x20
    4020240c:	9100814a 	add	x10, x10, #0x20
    40202410:	ad3f8520 	stp	q0, q1, [x9, #-16]
    40202414:	91008129 	add	x9, x9, #0x20
    40202418:	54ffff61 	b.ne	40202404 <_binary_shell_bin_start+0xac>  // b.any
    4020241c:	eb08017f 	cmp	x11, x8
    40202420:	54000300 	b.eq	40202480 <_binary_shell_bin_start+0x128>  // b.none
    40202424:	f27d051f 	tst	x8, #0x18
    40202428:	540001e0 	b.eq	40202464 <_binary_shell_bin_start+0x10c>  // b.none
    4020242c:	927d710c 	and	x12, x8, #0xfffffff8
    40202430:	8b0b000d 	add	x13, x0, x11
    40202434:	8b0b002e 	add	x14, x1, x11
    40202438:	8b0c0029 	add	x9, x1, x12
    4020243c:	8b0c000a 	add	x10, x0, x12
    40202440:	4b0c0042 	sub	w2, w2, w12
    40202444:	cb0c016b 	sub	x11, x11, x12
    40202448:	fc4085c0 	ldr	d0, [x14], #8
    4020244c:	b100216b 	adds	x11, x11, #0x8
    40202450:	fc0085a0 	str	d0, [x13], #8
    40202454:	54ffffa1 	b.ne	40202448 <_binary_shell_bin_start+0xf0>  // b.any
    40202458:	eb08019f 	cmp	x12, x8
    4020245c:	540000a1 	b.ne	40202470 <_binary_shell_bin_start+0x118>  // b.any
    40202460:	14000008 	b	40202480 <_binary_shell_bin_start+0x128>
    40202464:	4b0b0042 	sub	w2, w2, w11
    40202468:	8b0b000a 	add	x10, x0, x11
    4020246c:	8b0b0029 	add	x9, x1, x11
    40202470:	38401528 	ldrb	w8, [x9], #1
    40202474:	71000442 	subs	w2, w2, #0x1
    40202478:	38001548 	strb	w8, [x10], #1
    4020247c:	54ffffa1 	b.ne	40202470 <_binary_shell_bin_start+0x118>  // b.any
    40202480:	d65f03c0 	ret
    40202484:	340004e2 	cbz	w2, 40202520 <_binary_shell_bin_start+0x1c8>
    40202488:	7100205f 	cmp	w2, #0x8
    4020248c:	54000062 	b.cs	40202498 <_binary_shell_bin_start+0x140>  // b.hs, b.nlast
    40202490:	aa0003e9 	mov	x9, x0
    40202494:	14000020 	b	40202514 <_binary_shell_bin_start+0x1bc>
    40202498:	7100805f 	cmp	w2, #0x20
    4020249c:	2a0203e8 	mov	w8, w2
    402024a0:	54000062 	b.cs	402024ac <_binary_shell_bin_start+0x154>  // b.hs, b.nlast
    402024a4:	aa1f03ea 	mov	x10, xzr
    402024a8:	1400000d 	b	402024dc <_binary_shell_bin_start+0x184>
    402024ac:	4e010c20 	dup	v0.16b, w1
    402024b0:	927b690a 	and	x10, x8, #0xffffffe0
    402024b4:	91004009 	add	x9, x0, #0x10
    402024b8:	aa0a03eb 	mov	x11, x10
    402024bc:	ad3f8120 	stp	q0, q0, [x9, #-16]
    402024c0:	f100816b 	subs	x11, x11, #0x20
    402024c4:	91008129 	add	x9, x9, #0x20
    402024c8:	54ffffa1 	b.ne	402024bc <_binary_shell_bin_start+0x164>  // b.any
    402024cc:	eb08015f 	cmp	x10, x8
    402024d0:	54000280 	b.eq	40202520 <_binary_shell_bin_start+0x1c8>  // b.none
    402024d4:	f27d051f 	tst	x8, #0x18
    402024d8:	540001a0 	b.eq	4020250c <_binary_shell_bin_start+0x1b4>  // b.none
    402024dc:	0e010c20 	dup	v0.8b, w1
    402024e0:	927d710b 	and	x11, x8, #0xfffffff8
    402024e4:	8b0a000c 	add	x12, x0, x10
    402024e8:	8b0b0009 	add	x9, x0, x11
    402024ec:	4b0b0042 	sub	w2, w2, w11
    402024f0:	cb0b014a 	sub	x10, x10, x11
    402024f4:	b100214a 	adds	x10, x10, #0x8
    402024f8:	fc008580 	str	d0, [x12], #8
    402024fc:	54ffffc1 	b.ne	402024f4 <_binary_shell_bin_start+0x19c>  // b.any
    40202500:	eb08017f 	cmp	x11, x8
    40202504:	54000081 	b.ne	40202514 <_binary_shell_bin_start+0x1bc>  // b.any
    40202508:	14000006 	b	40202520 <_binary_shell_bin_start+0x1c8>
    4020250c:	4b0a0042 	sub	w2, w2, w10
    40202510:	8b0a0009 	add	x9, x0, x10
    40202514:	71000442 	subs	w2, w2, #0x1
    40202518:	38001521 	strb	w1, [x9], #1
    4020251c:	54ffffc1 	b.ne	40202514 <_binary_shell_bin_start+0x1bc>  // b.any
    40202520:	d65f03c0 	ret
    40202524:	39400028 	ldrb	w8, [x1]
    40202528:	aa0003e9 	mov	x9, x0
    4020252c:	340000c8 	cbz	w8, 40202544 <_binary_shell_bin_start+0x1ec>
    40202530:	9100042a 	add	x10, x1, #0x1
    40202534:	aa0003e9 	mov	x9, x0
    40202538:	38001528 	strb	w8, [x9], #1
    4020253c:	38401548 	ldrb	w8, [x10], #1
    40202540:	35ffffc8 	cbnz	w8, 40202538 <_binary_shell_bin_start+0x1e0>
    40202544:	3900013f 	strb	wzr, [x9]
    40202548:	d65f03c0 	ret
    4020254c:	39400008 	ldrb	w8, [x0]
    40202550:	34000108 	cbz	w8, 40202570 <_binary_shell_bin_start+0x218>
    40202554:	91000409 	add	x9, x0, #0x1
    40202558:	3940002a 	ldrb	w10, [x1]
    4020255c:	6b0a011f 	cmp	w8, w10
    40202560:	54000081 	b.ne	40202570 <_binary_shell_bin_start+0x218>  // b.any
    40202564:	38401528 	ldrb	w8, [x9], #1
    40202568:	91000421 	add	x1, x1, #0x1
    4020256c:	35ffff68 	cbnz	w8, 40202558 <_binary_shell_bin_start+0x200>
    40202570:	39400029 	ldrb	w9, [x1]
    40202574:	4b090100 	sub	w0, w8, w9
    40202578:	d65f03c0 	ret
    4020257c:	d104c3ff 	sub	sp, sp, #0x130
    40202580:	a90e7bfd 	stp	x29, x30, [sp, #224]
    40202584:	f9007bfc 	str	x28, [sp, #240]
    40202588:	a9105ff8 	stp	x24, x23, [sp, #256]
    4020258c:	a91157f6 	stp	x22, x21, [sp, #272]
    40202590:	a9124ff4 	stp	x20, x19, [sp, #288]
    40202594:	910383fd 	add	x29, sp, #0xe0
    40202598:	928006e8 	mov	x8, #0xffffffffffffffc8    	// #-56
    4020259c:	910003e9 	mov	x9, sp
    402025a0:	d10163aa 	sub	x10, x29, #0x58
    402025a4:	f2dff008 	movk	x8, #0xff80, lsl #32
    402025a8:	91020129 	add	x9, x9, #0x80
    402025ac:	529999b4 	mov	w20, #0xcccd                	// #52429
    402025b0:	aa0003f3 	mov	x19, x0
    402025b4:	a93f23a9 	stp	x9, x8, [x29, #-16]
    402025b8:	9100e148 	add	x8, x10, #0x38
    402025bc:	910143a9 	add	x9, x29, #0x50
    402025c0:	72b99994 	movk	w20, #0xcccc, lsl #16
    402025c4:	d503201f 	nop
    402025c8:	10000fd5 	adr	x21, 402027c0 <_binary_shell_bin_start+0x468>
    402025cc:	a93a8ba1 	stp	x1, x2, [x29, #-88]
    402025d0:	a93b93a3 	stp	x3, x4, [x29, #-72]
    402025d4:	a93c9ba5 	stp	x5, x6, [x29, #-56]
    402025d8:	f81d83a7 	stur	x7, [x29, #-40]
    402025dc:	ad0007e0 	stp	q0, q1, [sp]
    402025e0:	ad010fe2 	stp	q2, q3, [sp, #32]
    402025e4:	ad0217e4 	stp	q4, q5, [sp, #64]
    402025e8:	ad031fe6 	stp	q6, q7, [sp, #96]
    402025ec:	a93e23a9 	stp	x9, x8, [x29, #-32]
    402025f0:	14000003 	b	402025fc <_binary_shell_bin_start+0x2a4>
    402025f4:	34000d40 	cbz	w0, 4020279c <_binary_shell_bin_start+0x444>
    402025f8:	91000673 	add	x19, x19, #0x1
    402025fc:	39400260 	ldrb	w0, [x19]
    40202600:	7100941f 	cmp	w0, #0x25
    40202604:	540000a0 	b.eq	40202618 <_binary_shell_bin_start+0x2c0>  // b.none
    40202608:	34000ce0 	cbz	w0, 402027a4 <_binary_shell_bin_start+0x44c>
    4020260c:	97ffff66 	bl	402023a4 <_binary_shell_bin_start+0x4c>
    40202610:	91000673 	add	x19, x19, #0x1
    40202614:	17fffffa 	b	402025fc <_binary_shell_bin_start+0x2a4>
    40202618:	38401e60 	ldrb	w0, [x19, #1]!
    4020261c:	7101c81f 	cmp	w0, #0x72
    40202620:	5400020c 	b.gt	40202660 <_binary_shell_bin_start+0x308>
    40202624:	7100941f 	cmp	w0, #0x25
    40202628:	54ffff20 	b.eq	4020260c <_binary_shell_bin_start+0x2b4>  // b.none
    4020262c:	7101901f 	cmp	w0, #0x64
    40202630:	54fffe21 	b.ne	402025f4 <_binary_shell_bin_start+0x29c>  // b.any
    40202634:	b89f83a8 	ldursw	x8, [x29, #-8]
    40202638:	36f80408 	tbz	w8, #31, 402026b8 <_binary_shell_bin_start+0x360>
    4020263c:	11002109 	add	w9, w8, #0x8
    40202640:	3100211f 	cmn	w8, #0x8
    40202644:	b81f83a9 	stur	w9, [x29, #-8]
    40202648:	54000388 	b.hi	402026b8 <_binary_shell_bin_start+0x360>  // b.pmore
    4020264c:	f85e83a9 	ldur	x9, [x29, #-24]
    40202650:	8b080128 	add	x8, x9, x8
    40202654:	b9400116 	ldr	w22, [x8]
    40202658:	36f80416 	tbz	w22, #31, 402026d8 <_binary_shell_bin_start+0x380>
    4020265c:	1400001c 	b	402026cc <_binary_shell_bin_start+0x374>
    40202660:	7101cc1f 	cmp	w0, #0x73
    40202664:	54000180 	b.eq	40202694 <_binary_shell_bin_start+0x33c>  // b.none
    40202668:	7101e01f 	cmp	w0, #0x78
    4020266c:	54fffc61 	b.ne	402025f8 <_binary_shell_bin_start+0x2a0>  // b.any
    40202670:	b89f83a8 	ldursw	x8, [x29, #-8]
    40202674:	36f806c8 	tbz	w8, #31, 4020274c <_binary_shell_bin_start+0x3f4>
    40202678:	11002109 	add	w9, w8, #0x8
    4020267c:	3100211f 	cmn	w8, #0x8
    40202680:	b81f83a9 	stur	w9, [x29, #-8]
    40202684:	54000648 	b.hi	4020274c <_binary_shell_bin_start+0x3f4>  // b.pmore
    40202688:	f85e83a9 	ldur	x9, [x29, #-24]
    4020268c:	8b080129 	add	x9, x9, x8
    40202690:	14000032 	b	40202758 <_binary_shell_bin_start+0x400>
    40202694:	b89f83a8 	ldursw	x8, [x29, #-8]
    40202698:	36f80448 	tbz	w8, #31, 40202720 <_binary_shell_bin_start+0x3c8>
    4020269c:	11002109 	add	w9, w8, #0x8
    402026a0:	3100211f 	cmn	w8, #0x8
    402026a4:	b81f83a9 	stur	w9, [x29, #-8]
    402026a8:	540003c8 	b.hi	40202720 <_binary_shell_bin_start+0x3c8>  // b.pmore
    402026ac:	f85e83a9 	ldur	x9, [x29, #-24]
    402026b0:	8b080128 	add	x8, x9, x8
    402026b4:	1400001e 	b	4020272c <_binary_shell_bin_start+0x3d4>
    402026b8:	f85e03a8 	ldur	x8, [x29, #-32]
    402026bc:	91002109 	add	x9, x8, #0x8
    402026c0:	f81e03a9 	stur	x9, [x29, #-32]
    402026c4:	b9400116 	ldr	w22, [x8]
    402026c8:	36f80096 	tbz	w22, #31, 402026d8 <_binary_shell_bin_start+0x380>
    402026cc:	528005a0 	mov	w0, #0x2d                  	// #45
    402026d0:	97ffff35 	bl	402023a4 <_binary_shell_bin_start+0x4c>
    402026d4:	4b1603f6 	neg	w22, w22
    402026d8:	52800037 	mov	w23, #0x1                   	// #1
    402026dc:	71002adf 	cmp	w22, #0xa
    402026e0:	540000c3 	b.cc	402026f8 <_binary_shell_bin_start+0x3a0>  // b.lo, b.ul, b.last
    402026e4:	0b170ae8 	add	w8, w23, w23, lsl #2
    402026e8:	531f7917 	lsl	w23, w8, #1
    402026ec:	1ad70ac8 	udiv	w8, w22, w23
    402026f0:	7100251f 	cmp	w8, #0x9
    402026f4:	54ffff88 	b.hi	402026e4 <_binary_shell_bin_start+0x38c>  // b.pmore
    402026f8:	1ad70ad8 	udiv	w24, w22, w23
    402026fc:	1100c300 	add	w0, w24, #0x30
    40202700:	97ffff29 	bl	402023a4 <_binary_shell_bin_start+0x4c>
    40202704:	9bb47ee8 	umull	x8, w23, w20
    40202708:	71002aff 	cmp	w23, #0xa
    4020270c:	1b17db16 	msub	w22, w24, w23, w22
    40202710:	d363fd08 	lsr	x8, x8, #35
    40202714:	2a0803f7 	mov	w23, w8
    40202718:	54ffff02 	b.cs	402026f8 <_binary_shell_bin_start+0x3a0>  // b.hs, b.nlast
    4020271c:	17ffffb7 	b	402025f8 <_binary_shell_bin_start+0x2a0>
    40202720:	f85e03a8 	ldur	x8, [x29, #-32]
    40202724:	91002109 	add	x9, x8, #0x8
    40202728:	f81e03a9 	stur	x9, [x29, #-32]
    4020272c:	f9400108 	ldr	x8, [x8]
    40202730:	39400100 	ldrb	w0, [x8]
    40202734:	34fff620 	cbz	w0, 402025f8 <_binary_shell_bin_start+0x2a0>
    40202738:	91000516 	add	x22, x8, #0x1
    4020273c:	97ffff1a 	bl	402023a4 <_binary_shell_bin_start+0x4c>
    40202740:	384016c0 	ldrb	w0, [x22], #1
    40202744:	35ffffc0 	cbnz	w0, 4020273c <_binary_shell_bin_start+0x3e4>
    40202748:	17ffffac 	b	402025f8 <_binary_shell_bin_start+0x2a0>
    4020274c:	f85e03a9 	ldur	x9, [x29, #-32]
    40202750:	91002128 	add	x8, x9, #0x8
    40202754:	f81e03a8 	stur	x8, [x29, #-32]
    40202758:	f9400136 	ldr	x22, [x9]
    4020275c:	2a1f03e8 	mov	w8, wzr
    40202760:	52800797 	mov	w23, #0x3c                  	// #60
    40202764:	14000008 	b	40202784 <_binary_shell_bin_start+0x42c>
    40202768:	92400d28 	and	x8, x9, #0xf
    4020276c:	38686aa0 	ldrb	w0, [x21, x8]
    40202770:	97ffff0d 	bl	402023a4 <_binary_shell_bin_start+0x4c>
    40202774:	52800028 	mov	w8, #0x1                   	// #1
    40202778:	d10012f7 	sub	x23, x23, #0x4
    4020277c:	b10012ff 	cmn	x23, #0x4
    40202780:	54fff3c0 	b.eq	402025f8 <_binary_shell_bin_start+0x2a0>  // b.none
    40202784:	9ad726c9 	lsr	x9, x22, x23
    40202788:	b4ffff17 	cbz	x23, 40202768 <_binary_shell_bin_start+0x410>
    4020278c:	12000d2a 	and	w10, w9, #0xf
    40202790:	2a080148 	orr	w8, w10, w8
    40202794:	34ffff28 	cbz	w8, 40202778 <_binary_shell_bin_start+0x420>
    40202798:	17fffff4 	b	40202768 <_binary_shell_bin_start+0x410>
    4020279c:	528004a0 	mov	w0, #0x25                  	// #37
    402027a0:	97ffff01 	bl	402023a4 <_binary_shell_bin_start+0x4c>
    402027a4:	a9524ff4 	ldp	x20, x19, [sp, #288]
    402027a8:	f9407bfc 	ldr	x28, [sp, #240]
    402027ac:	a95157f6 	ldp	x22, x21, [sp, #272]
    402027b0:	a9505ff8 	ldp	x24, x23, [sp, #256]
    402027b4:	a94e7bfd 	ldp	x29, x30, [sp, #224]
    402027b8:	9104c3ff 	add	sp, sp, #0x130
    402027bc:	d65f03c0 	ret
    402027c0:	33323130 	.inst	0x33323130 ; undefined
    402027c4:	37363534 	tbnz	w20, #6, 401fee68 <_binary_shell_bin_size+0x401fe9ef>
    402027c8:	62613938 	.inst	0x62613938 ; undefined
    402027cc:	66656463 	.inst	0x66656463 ; undefined
	...

Disassembly of section .debug_loclists:

0000000000000000 <.debug_loclists>:
   0:	00000794 	udf	#1940
   4:	00080005 	.inst	0x00080005 ; undefined
   8:	0000004c 	udf	#76
   c:	00000130 	udf	#304
  10:	0000013d 	udf	#317
  14:	0000014d 	udf	#333
  18:	00000162 	udf	#354
  1c:	00000179 	udf	#377
  20:	0000019e 	udf	#414
  24:	000001a8 	udf	#424
  28:	000001ec 	udf	#492
  2c:	00000207 	udf	#519
  30:	0000024b 	udf	#587
  34:	0000028f 	udf	#655
  38:	00000299 	udf	#665
  3c:	000002a3 	udf	#675
  40:	000002ad 	udf	#685
  44:	000002b7 	udf	#695
  48:	000002c1 	udf	#705
  4c:	000002cb 	udf	#715
  50:	000002d5 	udf	#725
  54:	000002df 	udf	#735
  58:	000002e9 	udf	#745
  5c:	000002f3 	udf	#755
  60:	000002fd 	udf	#765
  64:	00000307 	udf	#775
  68:	00000331 	udf	#817
  6c:	00000342 	udf	#834
  70:	0000037d 	udf	#893
  74:	000003d1 	udf	#977
  78:	000003e2 	udf	#994
  7c:	000003ec 	udf	#1004
  80:	000003f6 	udf	#1014
  84:	00000400 	udf	#1024
  88:	0000041a 	udf	#1050
  8c:	00000435 	udf	#1077
  90:	000004d1 	udf	#1233
  94:	000004e3 	udf	#1251
  98:	0000051d 	udf	#1309
  9c:	00000527 	udf	#1319
  a0:	00000532 	udf	#1330
  a4:	00000543 	udf	#1347
  a8:	0000054d 	udf	#1357
  ac:	00000566 	udf	#1382
  b0:	00000579 	udf	#1401
  b4:	0000058a 	udf	#1418
  b8:	00000594 	udf	#1428
  bc:	0000059e 	udf	#1438
  c0:	000005c0 	udf	#1472
  c4:	000005d3 	udf	#1491
  c8:	000005e4 	udf	#1508
  cc:	000005ee 	udf	#1518
  d0:	00000610 	udf	#1552
  d4:	00000621 	udf	#1569
  d8:	0000062e 	udf	#1582
  dc:	0000063a 	udf	#1594
  e0:	00000646 	udf	#1606
  e4:	00000652 	udf	#1618
  e8:	0000065f 	udf	#1631
  ec:	0000066b 	udf	#1643
  f0:	00000677 	udf	#1655
  f4:	00000682 	udf	#1666
  f8:	0000068c 	udf	#1676
  fc:	0000069d 	udf	#1693
 100:	000006b5 	udf	#1717
 104:	000006c6 	udf	#1734
 108:	000006d0 	udf	#1744
 10c:	000006da 	udf	#1754
 110:	000006eb 	udf	#1771
 114:	000006fc 	udf	#1788
 118:	00000709 	udf	#1801
 11c:	00000715 	udf	#1813
 120:	00000721 	udf	#1825
 124:	0000072d 	udf	#1837
 128:	0000073a 	udf	#1850
 12c:	00000746 	udf	#1862
 130:	00000752 	udf	#1874
 134:	0000075d 	udf	#1885
 138:	00000775 	udf	#1909
 13c:	00042401 	.inst	0x00042401 ; undefined
 140:	04530110 	umulh	z16.h, p0/m, z16.h, z8.h
 144:	57011c10 	.inst	0x57011c10 ; undefined
 148:	04240100 	add	z0.b, z8.b, z4.b
 14c:	50012c1c 	adr	x28, 26ce <_binary_shell_bin_size+0x2255>
 150:	04402c04 	saddv	d4, p3, z0.h
 154:	9f5001a3 	.inst	0x9f5001a3 ; undefined
 158:	04240100 	add	z0.b, z8.b, z4.b
 15c:	58015854 	ldr	x20, 2c64 <_binary_shell_bin_size+0x27eb>
 160:	01805804 	.inst	0x01805804 ; undefined
 164:	a4045101 	ld1b	{z1.b}, p4/z, [x8, x4]
 168:	0101b001 	.inst	0x0101b001 ; undefined
 16c:	24010051 	cmphi	p1.b, p0/z, z2.b, z1.b
 170:	94018404 	bl	61180 <_binary_shell_bin_size+0x60d07>
 174:	00780701 	.inst	0x00780701 ; undefined
 178:	21208910 	.inst	0x21208910 ; undefined
 17c:	0194049f 	.inst	0x0194049f ; undefined
 180:	580101a4 	ldr	x4, 21b4 <_binary_shell_bin_size+0x1d3b>
 184:	04240100 	add	z0.b, z8.b, z4.b
 188:	01e401b0 	.inst	0x01e401b0 ; undefined
 18c:	e4045001 	st1b	{z1.b}, p4, [x0, x4]
 190:	0401fc01 	msb	z1.b, p7/m, z1.b, z0.b
 194:	9f5001a3 	.inst	0x9f5001a3 ; undefined
 198:	8001fc04 	.inst	0x8001fc04 ; undefined
 19c:	04500102 	mul	z2.h, p0/m, z2.h, z8.h
 1a0:	02980280 	.inst	0x02980280 ; undefined
 1a4:	5001a304 	adr	x4, 3606 <_binary_shell_bin_size+0x318d>
 1a8:	2401009f 	cmphi	p15.b, p0/z, z4.b, z1.b
 1ac:	9001d004 	adrp	x4, 3a00000 <_binary_shell_bin_size+0x39ffb87>
 1b0:	00630102 	.inst	0x00630102 ; undefined
 1b4:	98042401 	ldrsw	x1, 8634 <_binary_shell_bin_size+0x81bb>
 1b8:	0102bc02 	.inst	0x0102bc02 ; undefined
 1bc:	02bc0450 	.inst	0x02bc0450 ; undefined
 1c0:	a30402d8 	.inst	0xa30402d8 ; undefined
 1c4:	049f5001 	mla	z1.s, p4/m, z0.s, z31.s
 1c8:	02e402d8 	.inst	0x02e402d8 ; undefined
 1cc:	e4045001 	st1b	{z1.b}, p4, [x0, x4]
 1d0:	04038002 	.inst	0x04038002 ; undefined
 1d4:	9f5001a3 	.inst	0x9f5001a3 ; undefined
 1d8:	b0038004 	adrp	x4, 7001000 <_binary_shell_bin_size+0x7000b87>
 1dc:	04500103 	mul	z3.h, p0/m, z3.h, z8.h
 1e0:	03c803b0 	.inst	0x03c803b0 ; undefined
 1e4:	5001a304 	adr	x4, 3646 <_binary_shell_bin_size+0x31cd>
 1e8:	03c8049f 	.inst	0x03c8049f ; undefined
 1ec:	500103cc 	adr	x12, 2266 <_binary_shell_bin_size+0x1ded>
 1f0:	8803cc04 	stlxr	w3, w4, [x0]
 1f4:	00680104 	.inst	0x00680104 ; undefined
 1f8:	98042401 	ldrsw	x1, 8678 <_binary_shell_bin_size+0x81ff>
 1fc:	0102b002 	.inst	0x0102b002 ; undefined
 200:	02b00451 	.inst	0x02b00451 ; undefined
 204:	630106c4 	.inst	0x630106c4 ; undefined
 208:	e006c404 	ld1b	{za0v.b[w14, 4]}, p1/z, [x0, x6]
 20c:	01a30406 	.inst	0x01a30406 ; undefined
 210:	01009f51 	.inst	0x01009f51 ; undefined
 214:	02980424 	.inst	0x02980424 ; undefined
 218:	520102cc 	eor	w12, w22, #0x80000000
 21c:	d802cc04 	prfm	pldl3keep, 5b9c <_binary_shell_bin_size+0x5723>
 220:	01a30402 	.inst	0x01a30402 ; undefined
 224:	d8049f52 	prfm	pstl2keep, 960c <_binary_shell_bin_size+0x9193>
 228:	0102f802 	.inst	0x0102f802 ; undefined
 22c:	02f80452 	.inst	0x02f80452 ; undefined
 230:	a3040380 	.inst	0xa3040380 ; undefined
 234:	049f5201 	mla	z1.s, p4/m, z16.s, z31.s
 238:	03c00380 	.inst	0x03c00380 ; undefined
 23c:	c0045201 	.inst	0xc0045201 ; undefined
 240:	0403c803 	mad	z3.b, p2/m, z3.b, z0.b
 244:	9f5201a3 	.inst	0x9f5201a3 ; undefined
 248:	d803c804 	prfm	pldl3keep, 7b48 <_binary_shell_bin_size+0x76cf>
 24c:	04520103 	smulh	z3.h, p0/m, z3.h, z8.h
 250:	048803d8 	smax	z24.s, p0/m, z24.s, z30.s
 254:	01006601 	.inst	0x01006601 ; undefined
 258:	02980424 	.inst	0x02980424 ; undefined
 25c:	530102d0 	lsl	w16, w22, #31
 260:	d802d004 	prfm	pldl3keep, 5c60 <_binary_shell_bin_size+0x57e7>
 264:	01a30402 	.inst	0x01a30402 ; undefined
 268:	d8049f53 	prfm	pstl2strm, 9650 <_binary_shell_bin_size+0x91d7>
 26c:	0102f402 	.inst	0x0102f402 ; undefined
 270:	02f40453 	.inst	0x02f40453 ; undefined
 274:	a3040380 	.inst	0xa3040380 ; undefined
 278:	049f5301 	mla	z1.s, p4/m, z24.s, z31.s
 27c:	03c40380 	.inst	0x03c40380 ; undefined
 280:	c4045301 	ld1b	{z1.d}, p4/z, [x24, z4.d, uxtw]
 284:	0403c803 	mad	z3.b, p2/m, z3.b, z0.b
 288:	9f5301a3 	.inst	0x9f5301a3 ; undefined
 28c:	e003c804 	ld1b	{za0v.b[w14, 4]}, p2/z, [x0, x3]
 290:	04530103 	umulh	z3.h, p0/m, z3.h, z8.h
 294:	048803e0 	smax	z0.s, p0/m, z0.s, z31.s
 298:	01006701 	.inst	0x01006701 ; undefined
 29c:	03840424 	.inst	0x03840424 ; undefined
 2a0:	6501048c 	bfsub	z12.h, z4.h, z1.h
 2a4:	04240100 	add	z0.b, z8.b, z4.b
 2a8:	0488039c 	smax	z28.s, p0/m, z28.s, z28.s
 2ac:	01006401 	.inst	0x01006401 ; undefined
 2b0:	03e40424 	.inst	0x03e40424 ; undefined
 2b4:	64010488 	.inst	0x64010488 ; undefined
 2b8:	04240100 	add	z0.b, z8.b, z4.b
 2bc:	05a0048c 	zip2	z12.q, z4.q, z0.q
 2c0:	01006501 	.inst	0x01006501 ; undefined
 2c4:	04f00424 	sub	z4.d, z1.d, z16.d
 2c8:	6801059c 	.inst	0x6801059c ; undefined
 2cc:	04240100 	add	z0.b, z8.b, z4.b
 2d0:	059c04b0 	mov	z16.s, p12/z, #37
 2d4:	01006401 	.inst	0x01006401 ; undefined
 2d8:	04f80424 	sub	z4.d, z1.d, z24.d
 2dc:	6401059c 	.inst	0x6401059c ; undefined
 2e0:	04240100 	add	z0.b, z8.b, z4.b
 2e4:	06cc05a0 	.inst	0x06cc05a0 ; undefined
 2e8:	01006501 	.inst	0x01006501 ; undefined
 2ec:	06840424 	.inst	0x06840424 ; undefined
 2f0:	680106b0 	.inst	0x680106b0 ; undefined
 2f4:	04240100 	add	z0.b, z8.b, z4.b
 2f8:	06b005c4 	.inst	0x06b005c4 ; undefined
 2fc:	01006401 	.inst	0x01006401 ; undefined
 300:	068c0424 	.inst	0x068c0424 ; undefined
 304:	640106b0 	.inst	0x640106b0 ; undefined
 308:	04240100 	add	z0.b, z8.b, z4.b
 30c:	06c806b8 	.inst	0x06c806b8 ; undefined
 310:	01005801 	.inst	0x01005801 ; undefined
 314:	07ac0424 	.inst	0x07ac0424 ; undefined
 318:	780c07b0 	strh	w16, [x29], #192
 31c:	87801100 	.inst	0x87801100 ; undefined
 320:	111c0ea7 	add	w7, w21, #0x703
 324:	049f1b7f 	.inst	0x049f1b7f ; undefined
 328:	07b807b4 	.inst	0x07b807b4 ; undefined
 32c:	1100780f 	add	w15, w0, #0x1e
 330:	0ea78780 	add	v0.2s, v28.2s, v7.2s
 334:	1b7f111c 	.inst	0x1b7f111c ; undefined
 338:	9f220111 	.inst	0x9f220111 ; undefined
 33c:	04240100 	add	z0.b, z8.b, z4.b
 340:	07c407bc 	.inst	0x07c407bc ; undefined
 344:	c4045001 	ld1b	{z1.d}, p4/z, [x0, z4.d, uxtw]
 348:	01088007 	.inst	0x01088007 ; undefined
 34c:	24010058 	cmphi	p8.b, p0/z, z2.b, z1.b
 350:	d808cc04 	prfm	pldl3keep, 11cd0 <_binary_shell_bin_size+0x11857>
 354:	045d0108 	.inst	0x045d0108 ; undefined
 358:	09940988 	.inst	0x09940988 ; undefined
 35c:	c8045d01 	stxr	w4, x1, [x8]
 360:	0109d409 	.inst	0x0109d409 ; undefined
 364:	0a84045d 	and	w29, w2, w4, asr #1
 368:	5d010a90 	stlur	h16, [x20, #16]
 36c:	d00ac404 	adrp	x4, 15882000 <_binary_shell_bin_size+0x15881b87>
 370:	045d010a 	.inst	0x045d010a ; undefined
 374:	0b8c0b80 	add	w0, w28, w12, asr #2
 378:	c0045d01 	.inst	0xc0045d01 ; undefined
 37c:	010bcc0b 	.inst	0x010bcc0b ; undefined
 380:	0bfc045d 	.inst	0x0bfc045d ; undefined
 384:	5d010c88 	.inst	0x5d010c88 ; undefined
 388:	04240100 	add	z0.b, z8.b, z4.b
 38c:	08d808b8 	ldlarb	w24, [x5]
 390:	9f001103 	.inst	0x9f001103 ; undefined
 394:	9408d804 	bl	2363a4 <_binary_shell_bin_size+0x235f2b>
 398:	01110309 	.inst	0x01110309 ; undefined
 39c:	0994049f 	.inst	0x0994049f ; undefined
 3a0:	110309d4 	add	w20, w14, #0xc2
 3a4:	d4049f02 	hvc	#0x24f8
 3a8:	030a9009 	.inst	0x030a9009 ; undefined
 3ac:	049f0311 	.inst	0x049f0311 ; undefined
 3b0:	0ad00a90 	and	w16, w20, w16, ror #2
 3b4:	9f041103 	.inst	0x9f041103 ; undefined
 3b8:	8c0ad004 	.inst	0x8c0ad004 ; undefined
 3bc:	0511030b 	mov	z11.b, p1/z, #24
 3c0:	0b8c049f 	add	wzr, w4, w12, asr #1
 3c4:	11030bcc 	add	w12, w30, #0xc2
 3c8:	cc049f06 	.inst	0xcc049f06 ; undefined
 3cc:	030c880b 	.inst	0x030c880b ; undefined
 3d0:	049f0711 	.inst	0x049f0711 ; undefined
 3d4:	0c8c0c88 	.inst	0x0c8c0c88 ; undefined
 3d8:	9f081103 	.inst	0x9f081103 ; undefined
 3dc:	04240100 	add	z0.b, z8.b, z4.b
 3e0:	0c8c08b8 	st4	{v24.2s-v27.2s}, [x5], x12
 3e4:	8c045a01 	.inst	0x8c045a01 ; undefined
 3e8:	010ce00c 	.inst	0x010ce00c ; undefined
 3ec:	2401005d 	cmphi	p13.b, p0/z, z2.b, z1.b
 3f0:	dc0c9404 	.inst	0xdc0c9404 ; undefined
 3f4:	0058010c 	.inst	0x0058010c ; undefined
 3f8:	a0042401 	ldnt1h	{z0.h-z1.h}, pn9/z, [x0, x4, lsl #1]
 3fc:	010cdc0c 	.inst	0x010cdc0c ; undefined
 400:	2401005b 	cmphi	p11.b, p0/z, z2.b, z1.b
 404:	dc0ca404 	.inst	0xdc0ca404 ; undefined
 408:	0059010c 	.inst	0x0059010c ; undefined
 40c:	f4042401 	.inst	0xf4042401 ; undefined
 410:	010ea00d 	.inst	0x010ea00d ; undefined
 414:	0ea00450 	shadd	v16.2s, v2.2s, v0.2s
 418:	8f0213dc 	.inst	0x8f0213dc ; undefined
 41c:	13e00408 	.inst	0x13e00408 ; undefined
 420:	8f021498 	.inst	0x8f021498 ; undefined
 424:	24010008 	cmphs	p8.b, p0/z, z0.b, z1.b
 428:	9c0df404 	ldr	q4, 1c2a8 <_binary_shell_bin_size+0x1be2f>
 42c:	0451010e 	.inst	0x0451010e ; undefined
 430:	11e00e9c 	.inst	0x11e00e9c ; undefined
 434:	bc046701 	str	s1, [x24], #70
 438:	0412c412 	mad	z18.b, p1/m, z18.b, z0.b
 43c:	9f5101a3 	.inst	0x9f5101a3 ; undefined
 440:	04240100 	add	z0.b, z8.b, z4.b
 444:	0ea80ea0 	sqadd	v0.2s, v21.2s, v8.2s
 448:	9f001103 	.inst	0x9f001103 ; undefined
 44c:	b40ea804 	cbz	x4, 1d94c <_binary_shell_bin_size+0x1d4d3>
 450:	0111030e 	.inst	0x0111030e ; undefined
 454:	0eb4049f 	shadd	v31.2s, v4.2s, v20.2s
 458:	11030ec0 	add	w0, w22, #0xc3
 45c:	c0049f02 	.inst	0xc0049f02 ; undefined
 460:	030ecc0e 	.inst	0x030ecc0e ; undefined
 464:	049f0311 	.inst	0x049f0311 ; undefined
 468:	0ed80ecc 	fmls	v12.4h, v22.4h, v24.4h
 46c:	9f041103 	.inst	0x9f041103 ; undefined
 470:	e40ed804 	st1b	{z4.d}, p6, [x0, z14.d, sxtw]
 474:	0511030e 	mov	z14.b, p1/z, #24
 478:	0ee4049f 	.inst	0x0ee4049f ; undefined
 47c:	11030ef0 	add	w16, w23, #0xc3
 480:	f0049f06 	adrp	x6, 93e3000 <_binary_shell_bin_size+0x93e2b87>
 484:	030efc0e 	.inst	0x030efc0e ; undefined
 488:	049f0711 	.inst	0x049f0711 ; undefined
 48c:	0f980efc 	.inst	0x0f980efc ; undefined
 490:	9f081103 	.inst	0x9f081103 ; undefined
 494:	a00f9804 	ld1b	{z4.b-z7.b}, pn14/z, [x0, x15]
 498:	0011030f 	.inst	0x0011030f ; undefined
 49c:	0fa0049f 	.inst	0x0fa0049f ; undefined
 4a0:	11030fa8 	add	w8, w29, #0xc3
 4a4:	a8049f01 	stnp	x1, x7, [x24, #72]
 4a8:	030fb00f 	.inst	0x030fb00f ; undefined
 4ac:	049f0211 	.inst	0x049f0211 ; undefined
 4b0:	0fb80fb0 	.inst	0x0fb80fb0 ; undefined
 4b4:	9f031103 	.inst	0x9f031103 ; undefined
 4b8:	c00fb804 	.inst	0xc00fb804 ; undefined
 4bc:	0411030f 	.inst	0x0411030f ; undefined
 4c0:	0fc0049f 	.inst	0x0fc0049f ; undefined
 4c4:	11030fc8 	add	w8, w30, #0xc3
 4c8:	c8049f05 	stlxr	w4, x5, [x24]
 4cc:	030fd00f 	.inst	0x030fd00f ; undefined
 4d0:	049f0611 	.inst	0x049f0611 ; undefined
 4d4:	0fd40fd0 	.inst	0x0fd40fd0 ; undefined
 4d8:	9f071103 	.inst	0x9f071103 ; undefined
 4dc:	04240100 	add	z0.b, z8.b, z4.b
 4e0:	0fd40ea0 	.inst	0x0fd40ea0 ; undefined
 4e4:	049f3002 	.inst	0x049f3002 ; undefined
 4e8:	13e013b4 	.inst	0x13e013b4 ; undefined
 4ec:	01005001 	.inst	0x01005001 ; undefined
 4f0:	0fe00424 	.inst	0x0fe00424 ; undefined
 4f4:	790d0fe4 	strh	w4, [sp, #1670]
 4f8:	10008300 	adr	x0, 1558 <_binary_shell_bin_size+0x10df>
 4fc:	221e40a0 	.inst	0x221e40a0 ; undefined
 500:	9f3fc823 	.inst	0x9f3fc823 ; undefined
 504:	a00fe404 	ld1d	{z4.d-z7.d}, pn9/z, [x0, x15, lsl #3]
 508:	988b0510 	ldrsw	x16, fffffffffff165a8 <__free_ram_end+0xffffffffbdce35a8>
 50c:	049f00c0 	.inst	0x049f00c0 ; undefined
 510:	13b412d4 	.inst	0x13b412d4 ; undefined
 514:	b4046401 	cbz	x1, 9194 <_binary_shell_bin_size+0x8d1b>
 518:	0513e013 	.inst	0x0513e013 ; undefined
 51c:	00c0a070 	.inst	0x00c0a070 ; undefined
 520:	13e0049f 	.inst	0x13e0049f ; undefined
 524:	640113fc 	.inst	0x640113fc ; undefined
 528:	04240100 	add	z0.b, z8.b, z4.b
 52c:	10e00ff0 	adr	x16, fffffffffffc0728 <__free_ram_end+0xffffffffbdd8d728>
 530:	01006501 	.inst	0x01006501 ; undefined
 534:	10a40424 	adr	x4, fffffffffff485b8 <__free_ram_end+0xffffffffbdd155b8>
 538:	310210e0 	adds	w0, w7, #0x84
 53c:	2401009f 	cmphi	p15.b, p0/z, z4.b, z1.b
 540:	d410d804 	.inst	0xd410d804 ; undefined
 544:	04650113 	add	z19.h, z8.h, z5.h
 548:	149813e0 	b	26054c8 <_binary_shell_bin_size+0x260504f>
 54c:	01006501 	.inst	0x01006501 ; undefined
 550:	11980424 	.inst	0x11980424 ; undefined
 554:	660111b4 	.inst	0x660111b4 ; undefined
 558:	04240100 	add	z0.b, z8.b, z4.b
 55c:	11e011d0 	.inst	0x11e011d0 ; undefined
 560:	049f3002 	.inst	0x049f3002 ; undefined
 564:	12c411e0 	.inst	0x12c411e0 ; undefined
 568:	fc046c01 	str	d1, [x0, #70]!
 56c:	01149813 	.inst	0x01149813 ; undefined
 570:	2401006c 	cmphs	p12.b, p0/z, z3.b, z1.b
 574:	c411e004 	prfb	pldl3keep, p0, [z0.d, #17]
 578:	9f310212 	.inst	0x9f310212 ; undefined
 57c:	9813fc04 	ldrsw	x4, 284fc <_binary_shell_bin_size+0x28083>
 580:	9f310214 	.inst	0x9f310214 ; undefined
 584:	04240100 	add	z0.b, z8.b, z4.b
 588:	12c411e4 	.inst	0x12c411e4 ; undefined
 58c:	fc046601 	str	d1, [x16], #70
 590:	01149813 	.inst	0x01149813 ; undefined
 594:	24010066 	cmphs	p6.b, p0/z, z3.b, z1.b
 598:	c4128404 	ldnt1sb	{z4.d}, p1/z, [z0.d, x18]
 59c:	00660112 	.inst	0x00660112 ; undefined
 5a0:	94042401 	bl	1095a4 <_binary_shell_bin_size+0x10912b>
 5a4:	0112a012 	.inst	0x0112a012 ; undefined
 5a8:	24010052 	cmphi	p2.b, p0/z, z2.b, z1.b
 5ac:	9012d804 	adrp	x4, 25b00000 <_binary_shell_bin_size+0x25affb87>
 5b0:	80860413 	fmops	za3.s, p1/m, p0/m, z0.s, z6.s
 5b4:	90049f20 	adrp	x0, 93e4000 <_binary_shell_bin_size+0x93e3b87>
 5b8:	05139413 	.inst	0x05139413 ; undefined
 5bc:	00c08086 	.inst	0x00c08086 ; undefined
 5c0:	13e0049f 	.inst	0x13e0049f ; undefined
 5c4:	860413fc 	.inst	0x860413fc ; undefined
 5c8:	009f2080 	.inst	0x009f2080 ; undefined
 5cc:	d8042401 	prfm	pldl1strm, 8a4c <_binary_shell_bin_size+0x85d3>
 5d0:	02139c12 	.inst	0x02139c12 ; undefined
 5d4:	e0049f31 	.inst	0xe0049f31 ; undefined
 5d8:	0213fc13 	.inst	0x0213fc13 ; undefined
 5dc:	01009f31 	.inst	0x01009f31 ; undefined
 5e0:	12dc0424 	.inst	0x12dc0424 ; undefined
 5e4:	6301139c 	.inst	0x6301139c ; undefined
 5e8:	fc13e004 	stur	d4, [x0, #-194]
 5ec:	00630113 	.inst	0x00630113 ; undefined
 5f0:	fc042401 	str	d1, [x0], #66
 5f4:	01139c12 	.inst	0x01139c12 ; undefined
 5f8:	24010063 	cmphs	p3.b, p0/z, z3.b, z1.b
 5fc:	b0149804 	adrp	x4, 29301000 <_binary_shell_bin_size+0x29300b87>
 600:	04500114 	mul	z20.h, p0/m, z20.h, z8.h
 604:	14fc14b0 	b	3f058c4 <_binary_shell_bin_size+0x3f0544b>
 608:	fc046301 	stur	d1, [x24, #70]
 60c:	04158414 	lsrr	z20.b, p1/m, z20.b, z0.b
 610:	9f5001a3 	.inst	0x9f5001a3 ; undefined
 614:	ac158404 	stnp	q4, q1, [x0, #688]
 618:	00630115 	.inst	0x00630115 ; undefined
 61c:	c0042401 	mov	za0h.b[w13, 4:7], {z0.b-z3.b}
 620:	0114d414 	.inst	0x0114d414 ; undefined
 624:	15840451 	b	6101768 <_binary_shell_bin_size+0x61012ef>
 628:	51011590 	sub	w16, w12, #0x45
 62c:	04240100 	add	z0.b, z8.b, z4.b
 630:	158414e8 	b	61059d0 <_binary_shell_bin_size+0x6105557>
 634:	00c01104 	.inst	0x00c01104 ; undefined
 638:	2401009f 	cmphi	p15.b, p0/z, z4.b, z1.b
 63c:	8414e804 	prfb	pldl3keep, p2, [z0.s, #20]
 640:	01110315 	.inst	0x01110315 ; undefined
 644:	2401009f 	cmphi	p15.b, p0/z, z4.b, z1.b
 648:	8414e804 	prfb	pldl3keep, p2, [z0.s, #20]
 64c:	03110315 	.inst	0x03110315 ; undefined
 650:	2401009f 	cmphi	p15.b, p0/z, z4.b, z1.b
 654:	8414e804 	prfb	pldl3keep, p2, [z0.s, #20]
 658:	1c8d0315 	ldr	s21, fffffffffff1a6b8 <__free_ram_end+0xffffffffbdce76b8>
 65c:	2401009f 	cmphi	p15.b, p0/z, z4.b, z1.b
 660:	8414e804 	prfb	pldl3keep, p2, [z0.s, #20]
 664:	c0110415 	.inst	0xc0110415 ; undefined
 668:	01009f00 	.inst	0x01009f00 ; undefined
 66c:	14e80424 	b	3a016fc <_binary_shell_bin_size+0x3a01283>
 670:	11031584 	add	w4, w12, #0xc5
 674:	01009f01 	.inst	0x01009f01 ; undefined
 678:	14e80424 	b	3a01708 <_binary_shell_bin_size+0x3a0128f>
 67c:	11031584 	add	w4, w12, #0xc5
 680:	01009f03 	.inst	0x01009f03 ; undefined
 684:	14e80424 	b	3a01714 <_binary_shell_bin_size+0x3a0129b>
 688:	8d021584 	.inst	0x8d021584 ; undefined
 68c:	2401001c 	cmphi	p12.b, p0/z, z0.b, z1.b
 690:	8015e404 	.inst	0x8015e404 ; undefined
 694:	00540116 	.inst	0x00540116 ; undefined
 698:	e4042401 	stnt1b	{z1.d}, p1, [z0.d, x4]
 69c:	01178015 	.inst	0x01178015 ; undefined
 6a0:	17900464 	b	fffffffffe401830 <__free_ram_end+0xffffffffbc1ce830>
 6a4:	640118e4 	.inst	0x640118e4 ; undefined
 6a8:	04240100 	add	z0.b, z8.b, z4.b
 6ac:	178015e4 	b	fffffffffe005e3c <__free_ram_end+0xffffffffbbdd2e3c>
 6b0:	90046301 	adrp	x1, 8c60000 <_binary_shell_bin_size+0x8c5fb87>
 6b4:	01179c17 	.inst	0x01179c17 ; undefined
 6b8:	18880463 	ldr	w3, fffffffffff10744 <__free_ram_end+0xffffffffbdcdd744>
 6bc:	630118bc 	.inst	0x630118bc ; undefined
 6c0:	04240100 	add	z0.b, z8.b, z4.b
 6c4:	178415e8 	b	fffffffffe105e64 <__free_ram_end+0xffffffffbbed2e64>
 6c8:	90046601 	adrp	x1, 8cc0000 <_binary_shell_bin_size+0x8cbfb87>
 6cc:	0118e417 	.inst	0x0118e417 ; undefined
 6d0:	24010066 	cmphs	p6.b, p0/z, z3.b, z1.b
 6d4:	90168c04 	adrp	x4, 2d180000 <_binary_shell_bin_size+0x2d17fb87>
 6d8:	00510116 	.inst	0x00510116 ; undefined
 6dc:	ac042401 	stnp	q1, q9, [x0, #128]
 6e0:	01178416 	.inst	0x01178416 ; undefined
 6e4:	24010065 	cmphs	p5.b, p0/z, z3.b, z1.b
 6e8:	84179c04 	ldnt1sb	{z4.s}, p7/z, [z0.s, x23]
 6ec:	04630118 	add	z24.h, z8.h, z3.h
 6f0:	18e418bc 	ldr	w28, fffffffffffc8a04 <__free_ram_end+0xffffffffbdd95a04>
 6f4:	01006301 	.inst	0x01006301 ; undefined
 6f8:	17b40424 	b	fffffffffed01788 <__free_ram_end+0xffffffffbcace788>
 6fc:	510117c8 	sub	w8, w30, #0x45
 700:	c818bc04 	stlxr	w24, x4, [x0]
 704:	00510118 	.inst	0x00510118 ; undefined
 708:	dc042401 	.inst	0xdc042401 ; undefined
 70c:	04188417 	asr	z23.b, p1/m, z23.b, z0.d
 710:	9f00c011 	.inst	0x9f00c011 ; undefined
 714:	04240100 	add	z0.b, z8.b, z4.b
 718:	188417dc 	ldr	w28, fffffffffff08a10 <__free_ram_end+0xffffffffbdcd5a10>
 71c:	9f011103 	.inst	0x9f011103 ; undefined
 720:	04240100 	add	z0.b, z8.b, z4.b
 724:	188417dc 	ldr	w28, fffffffffff08a1c <__free_ram_end+0xffffffffbdcd5a1c>
 728:	9f031103 	.inst	0x9f031103 ; undefined
 72c:	04240100 	add	z0.b, z8.b, z4.b
 730:	188417dc 	ldr	w28, fffffffffff08a28 <__free_ram_end+0xffffffffbdcd5a28>
 734:	9f7c8d03 	.inst	0x9f7c8d03 ; undefined
 738:	04240100 	add	z0.b, z8.b, z4.b
 73c:	188417dc 	ldr	w28, fffffffffff08a34 <__free_ram_end+0xffffffffbdcd5a34>
 740:	00c01104 	.inst	0x00c01104 ; undefined
 744:	2401009f 	cmphi	p15.b, p0/z, z4.b, z1.b
 748:	8417dc04 	prfb	pldl3keep, p7, [x0, x23]
 74c:	01110318 	.inst	0x01110318 ; undefined
 750:	2401009f 	cmphi	p15.b, p0/z, z4.b, z1.b
 754:	8417dc04 	prfb	pldl3keep, p7, [x0, x23]
 758:	03110318 	.inst	0x03110318 ; undefined
 75c:	2401009f 	cmphi	p15.b, p0/z, z4.b, z1.b
 760:	8417dc04 	prfb	pldl3keep, p7, [x0, x23]
 764:	7c8d0218 	.inst	0x7c8d0218 ; undefined
 768:	04240100 	add	z0.b, z8.b, z4.b
 76c:	1990198c 	.inst	0x1990198c ; undefined
 770:	90045801 	adrp	x1, 8b00000 <_binary_shell_bin_size+0x8affb87>
 774:	0119b019 	.inst	0x0119b019 ; undefined
 778:	19d40451 	setp	[x17]!, x2!, x20
 77c:	510119e0 	sub	w0, w15, #0x46
 780:	04240100 	add	z0.b, z8.b, z4.b
 784:	19c419b4 	.inst	0x19c419b4 ; undefined
 788:	10007807 	adr	x7, 1688 <_binary_shell_bin_size+0x120f>
 78c:	9f212089 	.inst	0x9f212089 ; undefined
 790:	d019c404 	adrp	x4, 33882000 <_binary_shell_bin_size+0x33881b87>
 794:	00580119 	.inst	0x00580119 ; undefined
 798:	00000198 	udf	#408
 79c:	00080005 	.inst	0x00080005 ; undefined
 7a0:	00000010 	udf	#16
 7a4:	00000040 	udf	#64
 7a8:	0000004e 	udf	#78
 7ac:	0000005c 	udf	#92
 7b0:	00000075 	udf	#117
 7b4:	00000084 	udf	#132
 7b8:	0000009e 	udf	#158
 7bc:	000000ad 	udf	#173
 7c0:	000000bc 	udf	#188
 7c4:	000000d4 	udf	#212
 7c8:	000000e3 	udf	#227
 7cc:	000000f2 	udf	#242
 7d0:	00000101 	udf	#257
 7d4:	0000011f 	udf	#287
 7d8:	00000137 	udf	#311
 7dc:	00000177 	udf	#375
 7e0:	00000188 	udf	#392
 7e4:	01b40004 	.inst	0x01b40004 ; undefined
 7e8:	b4045001 	cbz	x1, 91e8 <_binary_shell_bin_size+0x8d6f>
 7ec:	0101c401 	.inst	0x0101c401 ; undefined
 7f0:	0004005a 	.inst	0x0004005a ; undefined
 7f4:	510101b4 	sub	w20, w13, #0x40
 7f8:	c401b404 	ld1q	z4.q, p5/z, [z0.d, x1]
 7fc:	00590101 	.inst	0x00590101 ; undefined
 800:	01880004 	.inst	0x01880004 ; undefined
 804:	9f7f7203 	.inst	0x9f7f7203 ; undefined
 808:	ac01a804 	stnp	q4, q10, [x0, #48]
 80c:	7f720301 	.inst	0x7f720301 ; undefined
 810:	01b4049f 	.inst	0x01b4049f ; undefined
 814:	520101c0 	eor	w0, w14, #0x80000000
 818:	01c80400 	.inst	0x01c80400 ; undefined
 81c:	500102d8 	adr	x24, 2876 <_binary_shell_bin_size+0x23fd>
 820:	e402d804 	st1b	{z4.d}, p6, [x0, z2.d, sxtw]
 824:	00590102 	.inst	0x00590102 ; undefined
 828:	b401c804 	cbz	x4, 4128 <_binary_shell_bin_size+0x3caf>
 82c:	7f720302 	.inst	0x7f720302 ; undefined
 830:	02d0049f 	.inst	0x02d0049f ; undefined
 834:	720302d4 	ands	w20, w22, #0x20000000
 838:	d8049f7f 	prfm	#0x1f, 9c24 <_binary_shell_bin_size+0x97ab>
 83c:	0102e002 	.inst	0x0102e002 ; undefined
 840:	e8040052 	.inst	0xe8040052 ; undefined
 844:	0102fc02 	.inst	0x0102fc02 ; undefined
 848:	02fc0451 	.inst	0x02fc0451 ; undefined
 84c:	5a010384 	sbc	w4, w28, w1
 850:	02e80400 	.inst	0x02e80400 ; undefined
 854:	500102fc 	adr	x28, 28b2 <_binary_shell_bin_size+0x2439>
 858:	8802fc04 	stlxr	w2, w4, [x0]
 85c:	00590103 	.inst	0x00590103 ; undefined
 860:	9c039004 	ldr	q4, 7a60 <_binary_shell_bin_size+0x75e7>
 864:	04500103 	mul	z3.h, p0/m, z3.h, z8.h
 868:	03a8039c 	.inst	0x03a8039c ; undefined
 86c:	9f7f7903 	.inst	0x9f7f7903 ; undefined
 870:	ac03a804 	stnp	q4, q10, [x0, #112]
 874:	00590103 	.inst	0x00590103 ; undefined
 878:	f803c004 	stur	x4, [x0, #60]
 87c:	04500103 	mul	z3.h, p0/m, z3.h, z8.h
 880:	07ec03f8 	.inst	0x07ec03f8 ; undefined
 884:	04006301 	mls	z1.b, p0/m, z24.b, z0.b
 888:	05a4059c 	zip2	z28.q, z12.q, z4.q
 88c:	8c046601 	.inst	0x8c046601 ; undefined
 890:	0106e406 	.inst	0x0106e406 ; undefined
 894:	9c040066 	ldr	q6, 88a0 <_binary_shell_bin_size+0x8427>
 898:	0105a405 	.inst	0x0105a405 ; undefined
 89c:	068c0466 	.inst	0x068c0466 ; undefined
 8a0:	6601069c 	.inst	0x6601069c ; undefined
 8a4:	069c0400 	.inst	0x069c0400 ; undefined
 8a8:	310206a8 	adds	w8, w21, #0x81
 8ac:	06a8049f 	.inst	0x06a8049f ; undefined
 8b0:	670106d8 	.inst	0x670106d8 ; undefined
 8b4:	dc06d804 	.inst	0xdc06d804 ; undefined
 8b8:	04580106 	orr	z6.h, p0/m, z6.h, z8.h
 8bc:	06e406dc 	.inst	0x06e406dc ; undefined
 8c0:	04006701 	mls	z1.b, p1/m, z24.b, z0.b
 8c4:	078006f4 	.inst	0x078006f4 ; undefined
 8c8:	80045801 	.inst	0x80045801 ; undefined
 8cc:	03078407 	.inst	0x03078407 ; undefined
 8d0:	049f7f86 	mls	z6.s, p7/m, z28.s, z31.s
 8d4:	07880784 	.inst	0x07880784 ; undefined
 8d8:	04006601 	mls	z1.b, p1/m, z16.b, z0.b
 8dc:	07bc07ac 	.inst	0x07bc07ac ; undefined
 8e0:	1100870f 	add	w15, w24, #0x21
 8e4:	7c111c3c 	str	h28, [x1, #-239]!
 8e8:	1e7f111b 	.inst	0x1e7f111b ; undefined
 8ec:	9f220f11 	.inst	0x9f220f11 ; undefined
 8f0:	c007bc04 	.inst	0xc007bc04 ; undefined
 8f4:	00870f07 	.inst	0x00870f07 ; undefined
 8f8:	111c3c11 	add	w17, w0, #0x70f
 8fc:	7f111b7c 	.inst	0x7f111b7c ; undefined
 900:	220e111e 	.inst	0x220e111e ; undefined
 904:	07c8049f 	.inst	0x07c8049f ; undefined
 908:	870f07d0 	.inst	0x870f07d0 ; undefined
 90c:	1c3c1100 	ldr	s0, 78b2c <_binary_shell_bin_size+0x786b3>
 910:	111b7c11 	add	w17, w0, #0x6df
 914:	0f111e7f 	.inst	0x0f111e7f ; undefined
 918:	04009f22 	asr	z2.h, p7/m, z2.h, #7
 91c:	07ac07a0 	.inst	0x07ac07a0 ; undefined
 920:	9f001103 	.inst	0x9f001103 ; undefined
 924:	d007bc04 	adrp	x4, f782000 <_binary_shell_bin_size+0xf781b87>
 928:	00580107 	.inst	0x00580107 ; undefined
 92c:	d007a004 	adrp	x4, f402000 <_binary_shell_bin_size+0xf401b87>
 930:	00660107 	.inst	0x00660107 ; undefined
 934:	00000037 	udf	#55
 938:	00080005 	.inst	0x00080005 ; undefined
 93c:	00000003 	udf	#3
 940:	0000000c 	udf	#12
 944:	00000018 	udf	#24
 948:	00000028 	udf	#40
 94c:	01140004 	.inst	0x01140004 ; undefined
 950:	94140450 	bl	501a90 <_binary_shell_bin_size+0x501617>
 954:	00630101 	.inst	0x00630101 ; undefined
 958:	01240004 	.inst	0x01240004 ; undefined
 95c:	44240451 	.inst	0x44240451 ; undefined
 960:	44046501 	.inst	0x44046501 ; undefined
 964:	00510148 	.inst	0x00510148 ; undefined
 968:	01941804 	.inst	0x01941804 ; undefined
 96c:	Address 0x96c is out of bounds.


Disassembly of section .debug_abbrev:

0000000000000000 <.debug_abbrev>:
   0:	25011101 	cmpge	p1.b, p4/z, z8.b, #1
   4:	03051325 	.inst	0x03051325 ; undefined
   8:	10177225 	adr	x5, 2ee4c <_binary_shell_bin_size+0x2e9d3>
   c:	11251b17 	add	w23, w24, #0x946
  10:	73235501 	.inst	0x73235501 ; undefined
  14:	8c177417 	.inst	0x8c177417 ; undefined
  18:	00001701 	udf	#5889
  1c:	49003402 	.inst	0x49003402 ; undefined
  20:	3b0b3a13 	.inst	0x3b0b3a13 ; undefined
  24:	0018020b 	.inst	0x0018020b ; undefined
  28:	01010300 	.inst	0x01010300 ; undefined
  2c:	00001349 	udf	#4937
  30:	49002104 	.inst	0x49002104 ; undefined
  34:	000b3713 	.inst	0x000b3713 ; undefined
  38:	00240500 	.inst	0x00240500 ; NYI
  3c:	0b3e2503 	add	w3, w8, w30, uxth #1
  40:	00000b0b 	udf	#2827
  44:	03002406 	.inst	0x03002406 ; undefined
  48:	3e0b0b25 	.inst	0x3e0b0b25 ; undefined
  4c:	0700000b 	.inst	0x0700000b ; undefined
  50:	1b11012e 	madd	w14, w9, w17, w0
  54:	18400612 	ldr	w18, 80114 <_binary_shell_bin_size+0x7fc9b>
  58:	1331197a 	.inst	0x1331197a ; undefined
  5c:	34080000 	cbz	w0, 1005c <_binary_shell_bin_size+0xfbe3>
  60:	49250300 	.inst	0x49250300 ; undefined
  64:	3b0b3a13 	.inst	0x3b0b3a13 ; undefined
  68:	0018020b 	.inst	0x0018020b ; undefined
  6c:	00050900 	.inst	0x00050900 ; undefined
  70:	13312202 	.inst	0x13312202 ; undefined
  74:	340a0000 	cbz	w0, 14074 <_binary_shell_bin_size+0x13bfb>
  78:	31220200 	adds	w0, w16, #0x880
  7c:	0b000013 	add	w19, w0, w0
  80:	137f0148 	.inst	0x137f0148 ; undefined
  84:	00001b7d 	udf	#7037
  88:	0200490c 	.inst	0x0200490c ; undefined
  8c:	00187e18 	.inst	0x00187e18 ; undefined
  90:	00160d00 	.inst	0x00160d00 ; undefined
  94:	25031349 	cmpge	p9.b, p4/z, z26.b, #3
  98:	0b3b0b3a 	add	w26, w25, w27, uxtb #2
  9c:	340e0000 	cbz	w0, 1c09c <_binary_shell_bin_size+0x1bc23>
  a0:	3a134900 	.inst	0x3a134900 ; undefined
  a4:	02053b0b 	.inst	0x02053b0b ; undefined
  a8:	0f000018 	.inst	0x0f000018 ; undefined
  ac:	13490034 	.inst	0x13490034 ; undefined
  b0:	053b0b3a 	ext	z26.b, z26.b, z25.b, #218
  b4:	34100000 	cbz	w0, 200b4 <_binary_shell_bin_size+0x1fc3b>
  b8:	49250300 	.inst	0x49250300 ; undefined
  bc:	3a193f13 	.inst	0x3a193f13 ; undefined
  c0:	020b3b0b 	.inst	0x020b3b0b ; undefined
  c4:	11000018 	add	w24, w0, #0x0
  c8:	25030113 	cmpgt	p3.b, p0/z, z8.b, #3
  cc:	0b3a050b 	add	w11, w8, w26, uxtb #1
  d0:	00000b3b 	udf	#2875
  d4:	03000d12 	.inst	0x03000d12 ; undefined
  d8:	3a134925 	.inst	0x3a134925 ; undefined
  dc:	380b3b0b 	sttrb	w11, [x24, #179]
  e0:	1300000b 	sbfx	w11, w0, #0, #1
  e4:	2503000d 	cmpge	p13.b, p0/z, z0.b, #3
  e8:	0b3a1349 	add	w9, w26, w26, uxtb #4
  ec:	01880b3b 	.inst	0x01880b3b ; undefined
  f0:	000b380f 	.inst	0x000b380f ; undefined
  f4:	000f1400 	.inst	0x000f1400 ; undefined
  f8:	00001349 	udf	#4937
  fc:	49002115 	.inst	0x49002115 ; undefined
 100:	00053713 	.inst	0x00053713 ; undefined
 104:	000f1600 	.inst	0x000f1600 ; undefined
 108:	05170000 	mov	z0.b, p7/z, #0
 10c:	31180200 	adds	w0, w16, #0x600
 110:	18000013 	ldr	w19, 110 <_binary_shell_bin_size-0x369>
 114:	18020034 	ldr	w20, 4118 <_binary_shell_bin_size+0x3c9f>
 118:	00001331 	udf	#4913
 11c:	03012e19 	.inst	0x03012e19 ; undefined
 120:	3b0b3a25 	.inst	0x3b0b3a25 ; undefined
 124:	3f19270b 	.inst	0x3f19270b ; undefined
 128:	01212019 	.inst	0x01212019 ; undefined
 12c:	051a0000 	mov	z0.b, p10/z, #0
 130:	3a250300 	.inst	0x3a250300 ; undefined
 134:	490b3b0b 	.inst	0x490b3b0b ; undefined
 138:	1b000013 	madd	w19, w0, w0, w0
 13c:	25030034 	cmpgt	p4.b, p0/z, z1.b, #3
 140:	0b3b0b3a 	add	w26, w25, w27, uxtb #2
 144:	00001349 	udf	#4937
 148:	4900261c 	.inst	0x4900261c ; undefined
 14c:	1d000013 	.inst	0x1d000013 ; undefined
 150:	1331011d 	.inst	0x1331011d ; undefined
 154:	06121b11 	.inst	0x06121b11 ; undefined
 158:	0b590b58 	add	w24, w26, w25, lsr #2
 15c:	00000b57 	udf	#2903
 160:	1c00051e 	ldr	s30, 200 <_binary_shell_bin_size-0x279>
 164:	0013310d 	.inst	0x0013310d ; undefined
 168:	00341f00 	.inst	0x00341f00 ; NYI
 16c:	13310d1c 	.inst	0x13310d1c ; undefined
 170:	2e200000 	uaddl	v0.8h, v0.8b, v0.8b
 174:	121b1100 	and	w0, w8, #0x3e0
 178:	7a184006 	.inst	0x7a184006 ; undefined
 17c:	3a250319 	.inst	0x3a250319 ; undefined
 180:	270b3b0b 	.inst	0x270b3b0b ; undefined
 184:	00193f19 	.inst	0x00193f19 ; undefined
 188:	00482100 	.inst	0x00482100 ; undefined
 18c:	1b7d137f 	.inst	0x1b7d137f ; undefined
 190:	48220000 	.inst	0x48220000 ; undefined
 194:	82137f00 	.inst	0x82137f00 ; undefined
 198:	01811901 	.inst	0x01811901 ; undefined
 19c:	2300001b 	.inst	0x2300001b ; undefined
 1a0:	2503012e 	cmpge	p14.b, p0/z, z9.b, #3
 1a4:	0b3b0b3a 	add	w26, w25, w27, uxtb #2
 1a8:	193c1927 	.inst	0x193c1927 ; undefined
 1ac:	0000193f 	udf	#6463
 1b0:	49000524 	.inst	0x49000524 ; undefined
 1b4:	25000013 	cmpgt	p3.b, p0/z, z0.b, #0
 1b8:	00000018 	udf	#24
 1bc:	03012e26 	.inst	0x03012e26 ; undefined
 1c0:	3b0b3a25 	.inst	0x3b0b3a25 ; undefined
 1c4:	4919270b 	.inst	0x4919270b ; undefined
 1c8:	3f193c13 	.inst	0x3f193c13 ; undefined
 1cc:	27000019 	.inst	0x27000019 ; undefined
 1d0:	2503012e 	cmpge	p14.b, p0/z, z9.b, #3
 1d4:	0b3b0b3a 	add	w26, w25, w27, uxtb #2
 1d8:	13491927 	.inst	0x13491927 ; undefined
 1dc:	2120193f 	.inst	0x2120193f ; undefined
 1e0:	28000001 	stnp	w1, w0, [x0]
 1e4:	1b11012e 	madd	w14, w9, w17, w0
 1e8:	18400612 	ldr	w18, 802a8 <_binary_shell_bin_size+0x7fe2f>
 1ec:	2503197a 	cmpgt	p10.b, p6/z, z11.b, #3
 1f0:	0b3b0b3a 	add	w26, w25, w27, uxtb #2
 1f4:	193f1927 	.inst	0x193f1927 ; undefined
 1f8:	05290000 	ext	z0.b, z0.b, z0.b, #72
 1fc:	03220200 	.inst	0x03220200 ; undefined
 200:	3b0b3a25 	.inst	0x3b0b3a25 ; undefined
 204:	0013490b 	.inst	0x0013490b ; undefined
 208:	00342a00 	.inst	0x00342a00 ; NYI
 20c:	25032202 	cmplt	p2.b, p0/z, z16.b, #3
 210:	0b3b0b3a 	add	w26, w25, w27, uxtb #2
 214:	00001349 	udf	#4937
 218:	11010b2b 	add	w11, w25, #0x42
 21c:	0006121b 	.inst	0x0006121b ; undefined
 220:	00052c00 	.inst	0x00052c00 ; undefined
 224:	13310f1c 	.inst	0x13310f1c ; undefined
 228:	0b2d0000 	add	w0, w0, w13, uxtb
 22c:	00235501 	.inst	0x00235501 ; NYI
 230:	011d2e00 	.inst	0x011d2e00 ; undefined
 234:	23551331 	.inst	0x23551331 ; undefined
 238:	0b590b58 	add	w24, w26, w25, lsr #2
 23c:	00000b57 	udf	#2903
 240:	0200342f 	.inst	0x0200342f ; undefined
 244:	3a250318 	.inst	0x3a250318 ; undefined
 248:	490b3b0b 	.inst	0x490b3b0b ; undefined
 24c:	30000013 	adr	x19, 24d <_binary_shell_bin_size-0x22c>
 250:	1b11012e 	madd	w14, w9, w17, w0
 254:	18400612 	ldr	w18, 80314 <_binary_shell_bin_size+0x7fe9b>
 258:	2503197a 	cmpgt	p10.b, p6/z, z11.b, #3
 25c:	053b0b3a 	ext	z26.b, z26.b, z25.b, #218
 260:	193f1927 	.inst	0x193f1927 ; undefined
 264:	1d310000 	.inst	0x1d310000 ; undefined
 268:	11133101 	add	w1, w8, #0x4cc
 26c:	5806121b 	ldr	x27, c4ac <_binary_shell_bin_size+0xc033>
 270:	5705590b 	.inst	0x5705590b ; undefined
 274:	3200000b 	orr	w11, w0, #0x1
 278:	1b11002e 	madd	w14, w1, w17, w0
 27c:	18400612 	ldr	w18, 8033c <_binary_shell_bin_size+0x7fec3>
 280:	2503197a 	cmpgt	p10.b, p6/z, z11.b, #3
 284:	053b0b3a 	ext	z26.b, z26.b, z25.b, #218
 288:	193f1927 	.inst	0x193f1927 ; undefined
 28c:	2e330000 	uaddl	v0.8h, v0.8b, v19.8b
 290:	121b1101 	and	w1, w8, #0x3e0
 294:	7a184006 	.inst	0x7a184006 ; undefined
 298:	3a250319 	.inst	0x3a250319 ; undefined
 29c:	27053b0b 	.inst	0x27053b0b ; undefined
 2a0:	3f134919 	.inst	0x3f134919 ; undefined
 2a4:	34000019 	cbz	w25, 2a4 <_binary_shell_bin_size-0x1d5>
 2a8:	22020005 	.inst	0x22020005 ; undefined
 2ac:	0b3a2503 	add	w3, w8, w26, uxth #1
 2b0:	1349053b 	.inst	0x1349053b ; undefined
 2b4:	34350000 	cbz	w0, 6a2b4 <_binary_shell_bin_size+0x69e3b>
 2b8:	03220200 	.inst	0x03220200 ; undefined
 2bc:	3b0b3a25 	.inst	0x3b0b3a25 ; undefined
 2c0:	00134905 	.inst	0x00134905 ; undefined
 2c4:	00343600 	.inst	0x00343600 ; NYI
 2c8:	0b3a2503 	add	w3, w8, w26, uxth #1
 2cc:	1349053b 	.inst	0x1349053b ; undefined
 2d0:	1d370000 	.inst	0x1d370000 ; undefined
 2d4:	55133101 	.inst	0x55133101 ; undefined
 2d8:	590b5823 	.inst	0x590b5823 ; undefined
 2dc:	000b5705 	.inst	0x000b5705 ; undefined
 2e0:	00263800 	.inst	0x00263800 ; NYI
 2e4:	34390000 	cbz	w0, 722e4 <_binary_shell_bin_size+0x71e6b>
 2e8:	00133100 	.inst	0x00133100 ; undefined
 2ec:	012e3a00 	.inst	0x012e3a00 ; undefined
 2f0:	0b3a2503 	add	w3, w8, w26, uxth #1
 2f4:	1927053b 	.inst	0x1927053b ; undefined
 2f8:	2120193f 	.inst	0x2120193f ; undefined
 2fc:	3b000001 	.inst	0x3b000001 ; undefined
 300:	25030005 	cmpge	p5.b, p0/z, z0.b, #3
 304:	053b0b3a 	ext	z26.b, z26.b, z25.b, #218
 308:	00001349 	udf	#4937
 30c:	00010b3c 	.inst	0x00010b3c ; undefined
 310:	000d3d00 	.inst	0x000d3d00 ; undefined
 314:	13492503 	.inst	0x13492503 ; undefined
 318:	0b3b0b3a 	add	w26, w25, w27, uxtb #2
 31c:	00000538 	udf	#1336
 320:	0200053e 	.inst	0x0200053e ; undefined
 324:	3a250318 	.inst	0x3a250318 ; undefined
 328:	49053b0b 	.inst	0x49053b0b ; undefined
 32c:	3f000013 	.inst	0x3f000013 ; undefined
 330:	2503012e 	cmpge	p14.b, p0/z, z9.b, #3
 334:	053b0b3a 	ext	z26.b, z26.b, z25.b, #218
 338:	193c1927 	.inst	0x193c1927 ; undefined
 33c:	0000193f 	udf	#6463
 340:	01110100 	.inst	0x01110100 ; undefined
 344:	05132525 	.inst	0x05132525 ; undefined
 348:	17722503 	b	fffffffffdc89754 <__free_ram_end+0xffffffffbba56754>
 34c:	251b1710 	cmpgt	p0.b, p5/z, z24.b, #-5
 350:	06121b11 	.inst	0x06121b11 ; undefined
 354:	17741773 	b	fffffffffdd06120 <__free_ram_end+0xffffffffbbad3120>
 358:	0017018c 	.inst	0x0017018c ; undefined
 35c:	00340200 	.inst	0x00340200 ; NYI
 360:	0b3a1349 	add	w9, w26, w26, uxtb #4
 364:	18020b3b 	ldr	w27, 44c8 <_binary_shell_bin_size+0x404f>
 368:	01030000 	.inst	0x01030000 ; undefined
 36c:	00134901 	.inst	0x00134901 ; undefined
 370:	00210400 	.inst	0x00210400 ; NYI
 374:	0b371349 	add	w9, w26, w23, uxtb #4
 378:	24050000 	cmphs	p0.b, p0/z, z0.b, z5.b
 37c:	3e250300 	.inst	0x3e250300 ; undefined
 380:	000b0b0b 	.inst	0x000b0b0b ; undefined
 384:	00240600 	.inst	0x00240600 ; NYI
 388:	0b0b2503 	add	w3, w8, w11, lsl #9
 38c:	00000b3e 	udf	#2878
 390:	49000f07 	.inst	0x49000f07 ; undefined
 394:	08000013 	stxrb	w0, w19, [x0]
 398:	13490016 	.inst	0x13490016 ; undefined
 39c:	0b3a2503 	add	w3, w8, w26, uxth #1
 3a0:	00000b3b 	udf	#2875
 3a4:	49002609 	.inst	0x49002609 ; undefined
 3a8:	0a000013 	and	w19, w0, w0
 3ac:	1b11012e 	madd	w14, w9, w17, w0
 3b0:	18400612 	ldr	w18, 80470 <_binary_shell_bin_size+0x7fff7>
 3b4:	2503197a 	cmpgt	p10.b, p6/z, z11.b, #3
 3b8:	0b3b0b3a 	add	w26, w25, w27, uxtb #2
 3bc:	13491927 	.inst	0x13491927 ; undefined
 3c0:	0000193f 	udf	#6463
 3c4:	0200050b 	.inst	0x0200050b ; undefined
 3c8:	3a250318 	.inst	0x3a250318 ; undefined
 3cc:	490b3b0b 	.inst	0x490b3b0b ; undefined
 3d0:	0c000013 	st4	{v19.8b-v22.8b}, [x0]
 3d4:	22020005 	.inst	0x22020005 ; undefined
 3d8:	0b3a2503 	add	w3, w8, w26, uxth #1
 3dc:	13490b3b 	.inst	0x13490b3b ; undefined
 3e0:	340d0000 	cbz	w0, 1a3e0 <_binary_shell_bin_size+0x19f67>
 3e4:	03220200 	.inst	0x03220200 ; undefined
 3e8:	3b0b3a25 	.inst	0x3b0b3a25 ; undefined
 3ec:	0013490b 	.inst	0x0013490b ; undefined
 3f0:	012e0e00 	.inst	0x012e0e00 ; undefined
 3f4:	06121b11 	.inst	0x06121b11 ; undefined
 3f8:	197a1840 	.inst	0x197a1840 ; undefined
 3fc:	0b3a2503 	add	w3, w8, w26, uxth #1
 400:	19270b3b 	rcwcas	x7, x27, [x25]
 404:	0000193f 	udf	#6463
 408:	0200340f 	.inst	0x0200340f ; undefined
 40c:	3a250318 	.inst	0x3a250318 ; undefined
 410:	490b3b0b 	.inst	0x490b3b0b ; undefined
 414:	10000013 	adr	x19, 414 <_binary_shell_bin_size-0x65>
 418:	2503000a 	cmpge	p10.b, p0/z, z0.b, #3
 41c:	0b3b0b3a 	add	w26, w25, w27, uxtb #2
 420:	00001b11 	udf	#6929
 424:	55010b11 	.inst	0x55010b11 ; undefined
 428:	12000023 	and	w3, w1, #0x1
 42c:	1b11010b 	madd	w11, w8, w17, w0
 430:	00000612 	udf	#1554
 434:	03003413 	.inst	0x03003413 ; undefined
 438:	3b0b3a25 	.inst	0x3b0b3a25 ; undefined
 43c:	0013490b 	.inst	0x0013490b ; undefined
 440:	00181400 	.inst	0x00181400 ; undefined
 444:	48150000 	stxrh	w21, w0, [x0]
 448:	7d137f00 	str	h0, [x24, #2494]
 44c:	1600001b 	b	fffffffff80004b8 <__free_ram_end+0xffffffffb5dcd4b8>
 450:	137f0148 	.inst	0x137f0148 ; undefined
 454:	00001b7d 	udf	#7037
 458:	02004917 	.inst	0x02004917 ; undefined
 45c:	00187e18 	.inst	0x00187e18 ; undefined
 460:	012e1800 	.inst	0x012e1800 ; undefined
 464:	0b3a2503 	add	w3, w8, w26, uxth #1
 468:	19270b3b 	rcwcas	x7, x27, [x25]
 46c:	193f193c 	.inst	0x193f193c ; undefined
 470:	05190000 	mov	z0.b, p9/z, #0
 474:	00134900 	.inst	0x00134900 ; undefined
 478:	000f1a00 	.inst	0x000f1a00 ; undefined
 47c:	261b0000 	.inst	0x261b0000 ; undefined
 480:	1c000000 	ldr	s0, 480 <_binary_shell_bin_size+0x7>
 484:	13490016 	.inst	0x13490016 ; undefined
 488:	00002503 	udf	#9475
 48c:	0301131d 	.inst	0x0301131d ; undefined
 490:	000b0b25 	.inst	0x000b0b25 ; undefined
 494:	000d1e00 	.inst	0x000d1e00 ; undefined
 498:	13492503 	.inst	0x13492503 ; undefined
 49c:	0b3b0b3a 	add	w26, w25, w27, uxtb #2
 4a0:	00000b38 	udf	#2872
 4a4:	01110100 	.inst	0x01110100 ; undefined
 4a8:	01111710 	.inst	0x01111710 ; undefined
 4ac:	08030112 	stxrb	w3, w18, [x8]
 4b0:	0825081b 	.inst	0x0825081b ; undefined
 4b4:	00000513 	udf	#1299
 4b8:	03000a02 	.inst	0x03000a02 ; undefined
 4bc:	3b063a08 	.inst	0x3b063a08 ; undefined
 4c0:	00011106 	.inst	0x00011106 ; undefined
 4c4:	11010000 	add	w0, w0, #0x40
 4c8:	11171001 	add	w1, w0, #0x5c4
 4cc:	03011201 	.inst	0x03011201 ; undefined
 4d0:	25081b08 	cmpge	p8.b, p6/z, z24.b, #8
 4d4:	00051308 	.inst	0x00051308 ; undefined
 4d8:	000a0200 	.inst	0x000a0200 ; undefined
 4dc:	063a0803 	.inst	0x063a0803 ; undefined
 4e0:	0111063b 	.inst	0x0111063b ; undefined
 4e4:	01000000 	.inst	0x01000000 ; undefined
 4e8:	25250111 	whilegt	p1.b, w8, w5
 4ec:	25030513 	cmpgt	p3.b, p1/z, z8.b, #3
 4f0:	17101772 	b	fffffffffc4062b8 <__free_ram_end+0xffffffffba1d32b8>
 4f4:	1b11251b 	madd	w27, w8, w17, w9
 4f8:	17730612 	b	fffffffffdcc1d40 <__free_ram_end+0xffffffffbba8ed40>
 4fc:	0017018c 	.inst	0x0017018c ; undefined
 500:	00340200 	.inst	0x00340200 ; NYI
 504:	0b3a1349 	add	w9, w26, w26, uxtb #4
 508:	18020b3b 	ldr	w27, 466c <_binary_shell_bin_size+0x41f3>
 50c:	01030000 	.inst	0x01030000 ; undefined
 510:	00134901 	.inst	0x00134901 ; undefined
 514:	00210400 	.inst	0x00210400 ; NYI
 518:	0b371349 	add	w9, w26, w23, uxtb #4
 51c:	24050000 	cmphs	p0.b, p0/z, z0.b, z5.b
 520:	3e250300 	.inst	0x3e250300 ; undefined
 524:	000b0b0b 	.inst	0x000b0b0b ; undefined
 528:	00240600 	.inst	0x00240600 ; NYI
 52c:	0b0b2503 	add	w3, w8, w11, lsl #9
 530:	00000b3e 	udf	#2878
 534:	11012e07 	add	w7, w16, #0x4b
 538:	4006121b 	.inst	0x4006121b ; undefined
 53c:	03197a18 	.inst	0x03197a18 ; undefined
 540:	3b0b3a25 	.inst	0x3b0b3a25 ; undefined
 544:	3f19270b 	.inst	0x3f19270b ; undefined
 548:	08000019 	stxrb	w0, w25, [x0]
 54c:	22020005 	.inst	0x22020005 ; undefined
 550:	0b3a2503 	add	w3, w8, w26, uxth #1
 554:	13490b3b 	.inst	0x13490b3b ; undefined
 558:	34090000 	cbz	w0, 12558 <_binary_shell_bin_size+0x120df>
 55c:	03220200 	.inst	0x03220200 ; undefined
 560:	3b0b3a25 	.inst	0x3b0b3a25 ; undefined
 564:	0013490b 	.inst	0x0013490b ; undefined
 568:	00340a00 	.inst	0x00340a00 ; NYI
 56c:	0b3a2503 	add	w3, w8, w26, uxth #1
 570:	13490b3b 	.inst	0x13490b3b ; undefined
 574:	480b0000 	stxrh	w11, w0, [x0]
 578:	7d137f00 	str	h0, [x24, #2494]
 57c:	0c00001b 	st4	{v27.8b-v30.8b}, [x0]
 580:	137f0148 	.inst	0x137f0148 ; undefined
 584:	00001b7d 	udf	#7037
 588:	0200490d 	.inst	0x0200490d ; undefined
 58c:	00187e18 	.inst	0x00187e18 ; undefined
 590:	012e0e00 	.inst	0x012e0e00 ; undefined
 594:	0b3a2503 	add	w3, w8, w26, uxth #1
 598:	19270b3b 	rcwcas	x7, x27, [x25]
 59c:	193f193c 	.inst	0x193f193c ; undefined
 5a0:	050f0000 	.inst	0x050f0000 ; undefined
 5a4:	00134900 	.inst	0x00134900 ; undefined
 5a8:	00181000 	.inst	0x00181000 ; undefined
 5ac:	0f110000 	.inst	0x0f110000 ; undefined
 5b0:	00134900 	.inst	0x00134900 ; undefined
 5b4:	00261200 	.inst	0x00261200 ; NYI
 5b8:	00001349 	udf	#4937
 5bc:	11002e13 	add	w19, w16, #0xb
 5c0:	4006121b 	.inst	0x4006121b ; undefined
 5c4:	03197a18 	.inst	0x03197a18 ; undefined
 5c8:	3b0b3a25 	.inst	0x3b0b3a25 ; undefined
 5cc:	3f19270b 	.inst	0x3f19270b ; undefined
 5d0:	14000019 	b	634 <_binary_shell_bin_size+0x1bb>
 5d4:	13490016 	.inst	0x13490016 ; undefined
 5d8:	0b3a2503 	add	w3, w8, w26, uxth #1
 5dc:	00000b3b 	udf	#2875
	...

Disassembly of section .debug_info:

0000000000000000 <.debug_info>:
       0:	00000e76 	udf	#3702
       4:	08010005 	stxrb	w1, w5, [x0]
       8:	00000000 	udf	#0
       c:	001d0001 	.inst	0x001d0001 ; undefined
      10:	00000801 	udf	#2049
      14:	00000000 	udf	#0
      18:	00000200 	udf	#512
      1c:	00000000 	udf	#0
      20:	08120000 	stxrb	w18, w0, [x0]
      24:	0c000000 	st4	{v0.8b-v3.8b}, [x0]
      28:	0c000000 	st4	{v0.8b-v3.8b}, [x0]
      2c:	02000000 	.inst	0x02000000 ; undefined
      30:	00000039 	udf	#57
      34:	a1023300 	ld1h	{z0.h, z8.h}, pn12/z, [x24, x2, lsl #1]
      38:	00450300 	.inst	0x00450300 ; undefined
      3c:	49040000 	.inst	0x49040000 ; undefined
      40:	26000000 	.inst	0x26000000 ; undefined
      44:	08030500 	stxrb	w3, w0, [x8]
      48:	08040601 	stxrb	w4, w1, [x16]
      4c:	00570207 	.inst	0x00570207 ; undefined
      50:	4f000000 	.inst	0x4f000000 ; undefined
      54:	0301a102 	.inst	0x0301a102 ; undefined
      58:	00000045 	udf	#69
      5c:	00004904 	udf	#18692
      60:	07002000 	.inst	0x07002000 ; undefined
      64:	0000682c 	udf	#26668
      68:	ee6d0100 	.inst	0xee6d0100 ; undefined
      6c:	08000004 	stxrb	w0, w4, [x0]
      70:	0000a705 	udf	#42757
      74:	02540000 	.inst	0x02540000 ; undefined
      78:	040902a1 	umax	z1.b, p0/m, z1.b, z21.b
      7c:	000004f6 	udf	#1270
      80:	04fe050a 	sub	z10.d, z8.d, z30.d
      84:	bb0b0000 	.inst	0xbb0b0000 ; undefined
      88:	2d000004 	stp	s4, s0, [x0]
      8c:	0252010c 	.inst	0x0252010c ; undefined
      90:	0b005910 	add	w16, w8, w0, lsl #22
      94:	000004c6 	udf	#1222
      98:	51010c2e 	sub	w14, w1, #0x43
      9c:	0c008f02 	.inst	0x0c008f02 ; undefined
      a0:	83025001 	.inst	0x83025001 ; undefined
      a4:	0d000000 	st1	{v0.b}[0], [x0]
      a8:	000000af 	udf	#175
      ac:	0d090108 	.inst	0x0d090108 ; undefined
      b0:	000000b7 	udf	#183
      b4:	05070107 	.inst	0x05070107 ; undefined
      b8:	02080706 	.inst	0x02080706 ; undefined
      bc:	000000c5 	udf	#197
      c0:	a1025900 	ld1w	{z0.s, z8.s}, pn14/z, [x8, x2, lsl #2]
      c4:	00450303 	.inst	0x00450303 ; undefined
      c8:	49040000 	.inst	0x49040000 ; undefined
      cc:	1d000000 	.inst	0x1d000000 ; undefined
      d0:	00db0200 	.inst	0x00db0200 ; undefined
      d4:	59000000 	stlurh	w0, [x0]
      d8:	0304a102 	.inst	0x0304a102 ; undefined
      dc:	00000045 	udf	#69
      e0:	00004904 	udf	#18692
      e4:	02000900 	.inst	0x02000900 ; undefined
      e8:	000000f1 	udf	#241
      ec:	a1026100 	ld1d	{z0.d, z8.d}, pn8/z, [x8, x2, lsl #3]
      f0:	00450305 	.inst	0x00450305 ; undefined
      f4:	49040000 	.inst	0x49040000 ; undefined
      f8:	23000000 	.inst	0x23000000 ; undefined
      fc:	00f10200 	.inst	0x00f10200 ; undefined
     100:	63000000 	.inst	0x63000000 ; undefined
     104:	0e06a102 	.inst	0x0e06a102 ; undefined
     108:	00000112 	udf	#274
     10c:	02011700 	.inst	0x02011700 ; undefined
     110:	450307a1 	.inst	0x450307a1 ; undefined
     114:	04000000 	add	z0.b, p0/m, z0.b, z0.b
     118:	00000049 	udf	#73
     11c:	120e0014 	and	w20, w0, #0x40000
     120:	00000001 	udf	#1
     124:	a1020121 	ld1b	{z1.b, z9.b}, pn8/z, [x9, x2]
     128:	01340e08 	.inst	0x01340e08 ; undefined
     12c:	46000000 	.inst	0x46000000 ; undefined
     130:	09a10201 	.inst	0x09a10201 ; undefined
     134:	00004503 	udf	#17667
     138:	00490400 	.inst	0x00490400 ; undefined
     13c:	00250000 	.inst	0x00250000 ; NYI
     140:	0000390e 	udf	#14606
     144:	015c0000 	.inst	0x015c0000 ; undefined
     148:	0e0aa102 	.inst	0x0e0aa102 ; undefined
     14c:	00000156 	udf	#342
     150:	02016300 	.inst	0x02016300 ; undefined
     154:	45030ba1 	.inst	0x45030ba1 ; undefined
     158:	04000000 	add	z0.b, p0/m, z0.b, z0.b
     15c:	00000049 	udf	#73
     160:	6d0e0015 	stp	d21, d0, [x0, #224]
     164:	00000001 	udf	#1
     168:	a1020167 	ld1b	{z7.b, z15.b}, pn8/z, [x11, x2]
     16c:	0045030c 	.inst	0x0045030c ; undefined
     170:	49040000 	.inst	0x49040000 ; undefined
     174:	11000000 	add	w0, w0, #0x0
     178:	01840e00 	.inst	0x01840e00 ; undefined
     17c:	8a000000 	and	x0, x0, x0
     180:	0da10201 	st2	{v1.b-v2.b}[0], [x16], x1
     184:	00004503 	udf	#17667
     188:	00490400 	.inst	0x00490400 ; undefined
     18c:	00180000 	.inst	0x00180000 ; undefined
     190:	00019b0e 	.inst	0x00019b0e ; undefined
     194:	01940000 	.inst	0x01940000 ; undefined
     198:	030ea102 	.inst	0x030ea102 ; undefined
     19c:	00000045 	udf	#69
     1a0:	00004904 	udf	#18692
     1a4:	0e001600 	.inst	0x0e001600 ; undefined
     1a8:	000001b2 	udf	#434
     1ac:	02019500 	.inst	0x02019500 ; undefined
     1b0:	45030fa1 	.inst	0x45030fa1 ; undefined
     1b4:	04000000 	add	z0.b, p0/m, z0.b, z0.b
     1b8:	00000049 	udf	#73
     1bc:	c90e001f 	.inst	0xc90e001f ; undefined
     1c0:	00000001 	udf	#1
     1c4:	a10201a1 	ld1b	{z1.b, z9.b}, pn8/z, [x13, x2]
     1c8:	00450310 	.inst	0x00450310 ; undefined
     1cc:	49040000 	.inst	0x49040000 ; undefined
     1d0:	21000000 	.inst	0x21000000 ; undefined
     1d4:	01e00e00 	.inst	0x01e00e00 ; undefined
     1d8:	ad000000 	stp	q0, q0, [x0]
     1dc:	11a10201 	.inst	0x11a10201 ; undefined
     1e0:	00004503 	udf	#17667
     1e4:	00490400 	.inst	0x00490400 ; undefined
     1e8:	002d0000 	.inst	0x002d0000 ; NYI
     1ec:	0001f70e 	.inst	0x0001f70e ; undefined
     1f0:	01b20000 	.inst	0x01b20000 ; undefined
     1f4:	0312a102 	.inst	0x0312a102 ; undefined
     1f8:	00000045 	udf	#69
     1fc:	00004904 	udf	#18692
     200:	0e001000 	tbx	v0.8b, {v0.16b}, v0.8b
     204:	00000184 	udf	#388
     208:	0201b700 	.inst	0x0201b700 ; undefined
     20c:	190e13a1 	stlurb	w1, [x29, #225]
     210:	00000002 	udf	#2
     214:	a10201bd 	ldnt1b	{z21.b, z29.b}, pn8/z, [x13, x2]
     218:	00450314 	.inst	0x00450314 ; undefined
     21c:	49040000 	.inst	0x49040000 ; undefined
     220:	19000000 	stlurb	w0, [x0]
     224:	02300e00 	.inst	0x02300e00 ; undefined
     228:	be000000 	.inst	0xbe000000 ; undefined
     22c:	15a10201 	b	6840a30 <_binary_shell_bin_size+0x68405b7>
     230:	00004503 	udf	#17667
     234:	00490400 	.inst	0x00490400 ; undefined
     238:	00270000 	.inst	0x00270000 ; NYI
     23c:	00016d0e 	.inst	0x00016d0e ; undefined
     240:	01bf0000 	.inst	0x01bf0000 ; undefined
     244:	0e16a102 	.inst	0x0e16a102 ; undefined
     248:	0000016d 	udf	#365
     24c:	0201c000 	.inst	0x0201c000 ; undefined
     250:	390e17a1 	strb	w1, [x29, #901]
     254:	00000000 	udf	#0
     258:	a10201c4 	ld1b	{z4.b, z12.b}, pn8/z, [x14, x2]
     25c:	01b20e18 	.inst	0x01b20e18 ; undefined
     260:	c5000000 	ld1sw	{z0.d}, p0/z, [x0, z0.d, uxtw]
     264:	19a10201 	.inst	0x19a10201 ; undefined
     268:	0002190e 	.inst	0x0002190e ; undefined
     26c:	01f10000 	.inst	0x01f10000 ; undefined
     270:	0e1aa102 	.inst	0x0e1aa102 ; undefined
     274:	0000019b 	udf	#411
     278:	0201f300 	.inst	0x0201f300 ; undefined
     27c:	890e1ba1 	.inst	0x890e1ba1 ; undefined
     280:	00000002 	udf	#2
     284:	a10201f5 	ld1b	{z21.b, z29.b}, pn8/z, [x15, x2]
     288:	0045031c 	.inst	0x0045031c ; undefined
     28c:	49040000 	.inst	0x49040000 ; undefined
     290:	1a000000 	adc	w0, w0, w0
     294:	02a00e00 	.inst	0x02a00e00 ; undefined
     298:	f7000000 	.inst	0xf7000000 ; undefined
     29c:	1da10201 	.inst	0x1da10201 ; undefined
     2a0:	00004503 	udf	#17667
     2a4:	00490400 	.inst	0x00490400 ; undefined
     2a8:	000c0000 	.inst	0x000c0000 ; undefined
     2ac:	0002b70e 	.inst	0x0002b70e ; undefined
     2b0:	01fa0000 	.inst	0x01fa0000 ; undefined
     2b4:	031ea102 	.inst	0x031ea102 ; undefined
     2b8:	00000045 	udf	#69
     2bc:	00004904 	udf	#18692
     2c0:	0f001700 	orr	v0.2s, #0x18
     2c4:	000002cb 	udf	#715
     2c8:	0301fb00 	.inst	0x0301fb00 ; undefined
     2cc:	00000045 	udf	#69
     2d0:	00004904 	udf	#18692
     2d4:	10001200 	adr	x0, 514 <_binary_shell_bin_size+0x9b>
     2d8:	0002e209 	.inst	0x0002e209 ; undefined
     2dc:	02aa0000 	.inst	0x02aa0000 ; undefined
     2e0:	ee031fa1 	.inst	0xee031fa1 ; undefined
     2e4:	04000002 	add	z2.b, p0/m, z2.b, z0.b
     2e8:	00000049 	udf	#73
     2ec:	13110008 	sbfiz	w8, w0, #15, #1
     2f0:	7c022020 	stur	h0, [x1, #34]
     2f4:	03230a12 	.inst	0x03230a12 ; undefined
     2f8:	7d020000 	str	h0, [x0, #256]
     2fc:	230c1200 	.inst	0x230c1200 ; undefined
     300:	02000003 	.inst	0x02000003 ; undefined
     304:	0d12047e 	.inst	0x0d12047e ; undefined
     308:	00000327 	udf	#807
     30c:	12087f02 	.inst	0x12087f02 ; undefined
     310:	00032f0f 	.inst	0x00032f0f ; undefined
     314:	10800200 	adr	x0, fffffffffff00354 <__free_ram_end+0xffffffffbdccd354>
     318:	03341013 	.inst	0x03341013 ; undefined
     31c:	81020000 	.inst	0x81020000 ; undefined
     320:	05002010 	orr	z16.s, z16.s, #0x10000000
     324:	0d04050b 	.inst	0x0d04050b ; undefined
     328:	000000af 	udf	#175
     32c:	140a010e 	b	280764 <_binary_shell_bin_size+0x2802eb>
     330:	000000af 	udf	#175
     334:	00034103 	.inst	0x00034103 ; undefined
     338:	00491500 	.inst	0x00491500 ; undefined
     33c:	20000000 	.inst	0x20000000 ; undefined
     340:	03490d00 	.inst	0x03490d00 ; undefined
     344:	01120000 	.inst	0x01120000 ; undefined
     348:	08110504 	stxrb	w17, w4, [x8]
     34c:	58141001 	ldr	x1, 2854c <_binary_shell_bin_size+0x280d3>
     350:	00000003 	udf	#3
     354:	20a102d3 	.inst	0x20a102d3 ; undefined
     358:	0002ee14 	.inst	0x0002ee14 ; undefined
     35c:	58151000 	ldr	x0, 2a55c <_binary_shell_bin_size+0x2a0e3>
     360:	00000003 	udf	#3
     364:	21a102d4 	.inst	0x21a102d4 ; undefined
     368:	03581610 	.inst	0x03581610 ; undefined
     36c:	d6000000 	.inst	0xd6000000 ; undefined
     370:	1022a102 	adr	x2, 45790 <_binary_shell_bin_size+0x45317>
     374:	00035817 	.inst	0x00035817 ; undefined
     378:	02d70000 	.inst	0x02d70000 ; undefined
     37c:	0d1623a1 	.inst	0x0d1623a1 ; undefined
     380:	00000387 	udf	#903
     384:	0d07001a 	.inst	0x0d07001a ; undefined
     388:	0000038f 	udf	#911
     38c:	05060019 	.inst	0x05060019 ; undefined
     390:	07040718 	.inst	0x07040718 ; undefined
     394:	00001c24 	udf	#7204
     398:	da6f0100 	.inst	0xda6f0100 ; undefined
     39c:	17000003 	b	fffffffffc0003a8 <__free_ram_end+0xffffffffb9dcd3a8>
     3a0:	03de5001 	.inst	0x03de5001 ; undefined
     3a4:	02170000 	.inst	0x02170000 ; undefined
     3a8:	03e60c91 	.inst	0x03e60c91 ; undefined
     3ac:	01170000 	.inst	0x01170000 ; undefined
     3b0:	0003ee52 	.inst	0x0003ee52 ; undefined
     3b4:	f6000900 	.inst	0xf6000900 ; undefined
     3b8:	18000003 	ldr	w3, 3b8 <_binary_shell_bin_size-0xc1>
     3bc:	03fe5301 	.inst	0x03fe5301 ; undefined
     3c0:	01180000 	.inst	0x01180000 ; undefined
     3c4:	00040652 	.inst	0x00040652 ; undefined
     3c8:	50011800 	adr	x0, 26ca <_binary_shell_bin_size+0x2251>
     3cc:	0000040e 	udf	#1038
     3d0:	0c910318 	st4	{v24.8b-v27.8b}, [x24], x17
     3d4:	0004169f 	.inst	0x0004169f ; undefined
     3d8:	1b190000 	madd	w0, w0, w25, w0
     3dc:	1c1a1100 	ldr	s0, 345fc <_binary_shell_bin_size+0x34183>
     3e0:	041f1100 	.inst	0x041f1100 ; undefined
     3e4:	1e1a0000 	.inst	0x1e1a0000 ; undefined
     3e8:	00451100 	.inst	0x00451100 ; undefined
     3ec:	1f1a0000 	fmadd	s0, s0, s26, s0
     3f0:	041f1100 	.inst	0x041f1100 ; undefined
     3f4:	201a0000 	.inst	0x201a0000 ; undefined
     3f8:	041f1100 	.inst	0x041f1100 ; undefined
     3fc:	211b0000 	.inst	0x211b0000 ; undefined
     400:	041f1500 	.inst	0x041f1500 ; undefined
     404:	221b0000 	.inst	0x221b0000 ; undefined
     408:	041f1400 	.inst	0x041f1400 ; undefined
     40c:	231b0000 	.inst	0x231b0000 ; undefined
     410:	041f1300 	.inst	0x041f1300 ; undefined
     414:	241b0000 	cmphs	p0.b, p0/z, z0.b, z27.b
     418:	04231200 	sqadd	z0.b, z16.b, z3.b
     41c:	05000000 	orr	z0.s, z0.s, #0x1
     420:	1408051d 	b	201894 <_binary_shell_bin_size+0x20141b>
     424:	00000428 	udf	#1064
     428:	0000451c 	udf	#17692
     42c:	24250700 	cmphs	p0.b, p1/z, z24.b, #20
     430:	01000000 	.inst	0x01000000 ; undefined
     434:	0007626f 	.inst	0x0007626f ; undefined
     438:	66010900 	.inst	0x66010900 ; undefined
     43c:	1d000007 	.inst	0x1d000007 ; undefined
     440:	000003da 	udf	#986
     444:	00001426 	udf	#5158
     448:	021e0000 	.inst	0x021e0000 ; undefined
     44c:	03de031e 	.inst	0x03de031e ; undefined
     450:	02170000 	.inst	0x02170000 ; undefined
     454:	03e60c91 	.inst	0x03e60c91 ; undefined
     458:	011e0000 	.inst	0x011e0000 ; undefined
     45c:	000003ee 	udf	#1006
     460:	f600c01e 	.inst	0xf600c01e ; undefined
     464:	1f000003 	fmadd	s3, s0, s0, s0
     468:	03fe00c0 	.inst	0x03fe00c0 ; undefined
     46c:	011f0000 	.inst	0x011f0000 ; undefined
     470:	00000406 	udf	#1030
     474:	040e031f 	.inst	0x040e031f ; undefined
     478:	03180000 	.inst	0x03180000 ; undefined
     47c:	169f0c91 	b	fffffffffa7c36c0 <__free_ram_end+0xffffffffb85906c0>
     480:	00000004 	udf	#4
     484:	10272000 	adr	x0, 4e884 <_binary_shell_bin_size+0x4e40b>
     488:	01000000 	.inst	0x01000000 ; undefined
     48c:	2100556f 	.inst	0x2100556f ; undefined
     490:	00602807 	.inst	0x00602807 ; undefined
     494:	6d010000 	stp	d0, d0, [x0, #16]
     498:	00000dcc 	udf	#3532
     49c:	0dd0020a 	ld1	{v10.b}[0], [x16], x16
     4a0:	030a0000 	.inst	0x030a0000 ; undefined
     4a4:	00000dd8 	udf	#3544
     4a8:	00048521 	.inst	0x00048521 ; undefined
     4ac:	bb222900 	.inst	0xbb222900 ; undefined
     4b0:	2a000004 	orr	w4, w0, w0
     4b4:	0004bb22 	.inst	0x0004bb22 ; undefined
     4b8:	23002b00 	.inst	0x23002b00 ; undefined
     4bc:	241c0125 	cmphs	p5.b, p0/z, z9.b, z28.b
     4c0:	00000423 	udf	#1059
     4c4:	26260025 	.inst	0x26260025 ; undefined
     4c8:	037e1801 	.inst	0x037e1801 ; undefined
     4cc:	7e240000 	.inst	0x7e240000 ; undefined
     4d0:	24000003 	cmphs	p3.b, p0/z, z0.b, z0.b
     4d4:	00000045 	udf	#69
     4d8:	0004de24 	.inst	0x0004de24 ; undefined
     4dc:	e60d0000 	.inst	0xe60d0000 ; undefined
     4e0:	1a000004 	adc	w4, w0, w0
     4e4:	8f0d0801 	.inst	0x8f0d0801 ; undefined
     4e8:	19000003 	stlurb	w3, [x0]
     4ec:	27270601 	.inst	0x27270601 ; undefined
     4f0:	00a75300 	.inst	0x00a75300 ; undefined
     4f4:	281a0000 	stnp	w0, w0, [x0, #208]
     4f8:	03875300 	.inst	0x03875300 ; undefined
     4fc:	291b0000 	stp	w0, w0, [x0, #216]
     500:	00a75500 	.inst	0x00a75500 ; undefined
     504:	28000000 	stnp	w0, w0, [x0]
     508:	0002482f 	.inst	0x0002482f ; undefined
     50c:	566d0100 	.inst	0x566d0100 ; undefined
     510:	06295f00 	.inst	0x06295f00 ; undefined
     514:	2f5f0062 	mla	v2.4h, v3.4h, v15.h[1]
     518:	29000003 	stp	w3, w0, [x0]
     51c:	5f006307 	.inst	0x5f006307 ; undefined
     520:	000000af 	udf	#175
     524:	00290829 	.inst	0x00290829 ; NYI
     528:	0000a75f 	udf	#42847
     52c:	64092900 	.inst	0x64092900 ; undefined
     530:	00af5f00 	.inst	0x00af5f00 ; undefined
     534:	0a2a0000 	bic	w0, w0, w10
     538:	af660065 	.inst	0xaf660065 ; undefined
     53c:	2a000000 	orr	w0, w0, w0
     540:	6700670d 	.inst	0x6700670d ; undefined
     544:	0000032f 	udf	#815
     548:	00680e2a 	.inst	0x00680e2a ; undefined
     54c:	0000af70 	udf	#44912
     550:	69112a00 	stgp	x0, x10, [x16, #544]
     554:	032f7100 	.inst	0x032f7100 ; undefined
     558:	122a0000 	and	w0, w0, #0x400000
     55c:	af7a006a 	.inst	0xaf7a006a ; undefined
     560:	2a000000 	orr	w0, w0, w0
     564:	7b006b15 	.inst	0x7b006b15 ; undefined
     568:	0000032f 	udf	#815
     56c:	84006c1b 	ldff1b	{z27.s}, p3/z, [x0, z0.s, uxtw]
     570:	000000af 	udf	#175
     574:	007c302b 	.inst	0x007c302b ; undefined
     578:	0c2a0000 	.inst	0x0c2a0000 ; undefined
     57c:	a7690066 	.inst	0xa7690066 ; undefined
     580:	1d000000 	.inst	0x1d000000 ; undefined
     584:	000004ee 	udf	#1262
     588:	00005830 	udf	#22576
     58c:	1d690000 	.inst	0x1d690000 ; undefined
     590:	04f6012c 	add	z12.d, z9.d, z22.d
     594:	0b0a0000 	add	w0, w0, w10
     598:	000004fe 	udf	#1278
     59c:	002d0000 	.inst	0x002d0000 ; NYI
     5a0:	0066102a 	.inst	0x0066102a ; undefined
     5a4:	0000a773 	udf	#42867
     5a8:	04ee2e00 	.inst	0x04ee2e00 ; undefined
     5ac:	00010000 	.inst	0x00010000 ; undefined
     5b0:	012c1d73 	.inst	0x012c1d73 ; undefined
     5b4:	000004f6 	udf	#1270
     5b8:	04fe0f0a 	.inst	0x04fe0f0a ; undefined
     5bc:	00000000 	udf	#0
     5c0:	142a022d 	b	a80e74 <_binary_shell_bin_size+0xa809fb>
     5c4:	a77d0066 	.inst	0xa77d0066 ; undefined
     5c8:	2e000000 	ext	v0.8b, v0.8b, v0.8b, #0
     5cc:	000004ee 	udf	#1262
     5d0:	1d7d0003 	.inst	0x1d7d0003 ; undefined
     5d4:	04f6012c 	add	z12.d, z9.d, z22.d
     5d8:	130a0000 	sbfiz	w0, w0, #22, #1
     5dc:	000004fe 	udf	#1278
     5e0:	bb0b0000 	.inst	0xbb0b0000 ; undefined
     5e4:	31000004 	adds	w4, w0, #0x0
     5e8:	0253010c 	.inst	0x0253010c ; undefined
     5ec:	010c0083 	.inst	0x010c0083 ; undefined
     5f0:	61100252 	.inst	0x61100252 ; undefined
     5f4:	04bb0b00 	.inst	0x04bb0b00 ; undefined
     5f8:	0c320000 	.inst	0x0c320000 ; undefined
     5fc:	10025201 	adr	x1, 503c <_binary_shell_bin_size+0x4bc3>
     600:	bb0b0063 	.inst	0xbb0b0063 ; undefined
     604:	33000004 	bfxil	w4, w0, #0, #1
     608:	0252010c 	.inst	0x0252010c ; undefined
     60c:	0b005910 	add	w16, w8, w0, lsl #22
     610:	000004c6 	udf	#1222
     614:	52010c34 	eor	w20, w1, #0x80000007
     618:	20801003 	.inst	0x20801003 ; undefined
     61c:	0251010c 	.inst	0x0251010c ; undefined
     620:	010c008f 	.inst	0x010c008f ; undefined
     624:	00840250 	.inst	0x00840250 ; undefined
     628:	04c60b00 	.inst	0x04c60b00 ; undefined
     62c:	0c350000 	.inst	0x0c350000 ; undefined
     630:	10035201 	adr	x1, 7070 <_binary_shell_bin_size+0x6bf7>
     634:	010c2080 	.inst	0x010c2080 ; undefined
     638:	008f0251 	.inst	0x008f0251 ; undefined
     63c:	0250010c 	.inst	0x0250010c ; undefined
     640:	0b000084 	add	w4, w4, w0
     644:	000004bb 	udf	#1211
     648:	52010c36 	eor	w22, w1, #0x80000007
     64c:	00591002 	.inst	0x00591002 ; undefined
     650:	0004c60b 	.inst	0x0004c60b ; undefined
     654:	010c3700 	.inst	0x010c3700 ; undefined
     658:	80100352 	.inst	0x80100352 ; undefined
     65c:	51010c20 	sub	w0, w1, #0x43
     660:	0c008f02 	.inst	0x0c008f02 ; undefined
     664:	84025001 	ld1b	{z1.s}, p4/z, [x0, z2.s, uxtw]
     668:	c60b0000 	.inst	0xc60b0000 ; undefined
     66c:	38000004 	sturb	w4, [x0]
     670:	0352010c 	.inst	0x0352010c ; undefined
     674:	0c208010 	.inst	0x0c208010 ; undefined
     678:	8f025101 	.inst	0x8f025101 ; undefined
     67c:	50010c00 	adr	x0, 27fe <_binary_shell_bin_size+0x2385>
     680:	00008402 	udf	#33794
     684:	0004bb0b 	.inst	0x0004bb0b ; undefined
     688:	010c3900 	.inst	0x010c3900 ; undefined
     68c:	59100252 	stlurh	w18, [x18, #-256]
     690:	04c60b00 	.inst	0x04c60b00 ; undefined
     694:	0c3a0000 	.inst	0x0c3a0000 ; undefined
     698:	10035201 	adr	x1, 70d8 <_binary_shell_bin_size+0x6c5f>
     69c:	010c2080 	.inst	0x010c2080 ; undefined
     6a0:	008f0251 	.inst	0x008f0251 ; undefined
     6a4:	0250010c 	.inst	0x0250010c ; undefined
     6a8:	0b000084 	add	w4, w4, w0
     6ac:	000004c6 	udf	#1222
     6b0:	52010c3b 	eor	w27, w1, #0x80000007
     6b4:	20801003 	.inst	0x20801003 ; undefined
     6b8:	0251010c 	.inst	0x0251010c ; undefined
     6bc:	010c008f 	.inst	0x010c008f ; undefined
     6c0:	00840250 	.inst	0x00840250 ; undefined
     6c4:	3c200000 	.inst	0x3c200000 ; undefined
     6c8:	00000044 	udf	#68
     6cc:	00576f01 	.inst	0x00576f01 ; undefined
     6d0:	183d288a 	ldr	w10, 7abe0 <_binary_shell_bin_size+0x7a767>
     6d4:	01000000 	.inst	0x01000000 ; undefined
     6d8:	ac00586f 	stnp	q15, q22, [x3]
     6dc:	000c3e2b 	.inst	0x000c3e2b ; undefined
     6e0:	162a0000 	b	fffffffff8a806e0 <__free_ram_end+0xffffffffb684d6e0>
     6e4:	23ad006d 	.inst	0x23ad006d ; undefined
     6e8:	00000003 	udf	#3
     6ec:	443f2800 	.inst	0x443f2800 ; undefined
     6f0:	01000000 	.inst	0x01000000 ; undefined
     6f4:	b100596f 	adds	x15, x11, #0x16
     6f8:	000f1729 	.inst	0x000f1729 ; undefined
     6fc:	00032fb1 	.inst	0x00032fb1 ; undefined
     700:	58012f00 	ldr	x0, 2ce0 <_binary_shell_bin_size+0x2867>
     704:	afb2006e 	.inst	0xafb2006e ; undefined
     708:	00000000 	udf	#0
     70c:	02604028 	.inst	0x02604028 ; undefined
     710:	6f010000 	.inst	0x6f010000 ; undefined
     714:	2ad9005a 	orr	w26, w2, w25, ror #0
     718:	db00701a 	.inst	0xdb00701a ; undefined
     71c:	00000358 	udf	#856
     720:	00711b2a 	.inst	0x00711b2a ; undefined
     724:	000358e9 	.inst	0x000358e9 ; undefined
     728:	721c2a00 	ands	w0, w16, #0x7ff0
     72c:	00aff000 	.inst	0x00aff000 ; undefined
     730:	1d2a0000 	.inst	0x1d2a0000 ; undefined
     734:	afed0073 	.inst	0xafed0073 ; undefined
     738:	1b000000 	madd	w0, w0, w0, w0
     73c:	aff10074 	.inst	0xaff10074 ; undefined
     740:	2d000000 	stp	s0, s0, [x0]
     744:	6d192a04 	stp	d4, d10, [x16, #400]
     748:	0323dc00 	.inst	0x0323dc00 ; undefined
     74c:	052d0000 	ext	z0.b, z0.b, z0.b, #104
     750:	006f182a 	.inst	0x006f182a ; undefined
     754:	000358dd 	.inst	0x000358dd ; undefined
     758:	22000000 	.inst	0x22000000 ; undefined
     75c:	000006c6 	udf	#1734
     760:	2a190041 	orr	w1, w2, w25
     764:	1e1a1d00 	.inst	0x1e1a1d00 ; undefined
     768:	00451d00 	.inst	0x00451d00 ; undefined
     76c:	30000000 	adr	x0, 76d <_binary_shell_bin_size+0x2f4>
     770:	00003c42 	udf	#15426
     774:	5b6d0100 	.inst	0x5b6d0100 ; undefined
     778:	31011600 	adds	w0, w16, #0x45
     77c:	00000762 	udf	#1890
     780:	00001443 	udf	#5187
     784:	01190000 	.inst	0x01190000 ; undefined
     788:	66412c09 	.inst	0x66412c09 ; undefined
     78c:	1d000007 	.inst	0x1d000007 ; undefined
     790:	000003da 	udf	#986
     794:	00001443 	udf	#5187
     798:	021e0000 	.inst	0x021e0000 ; undefined
     79c:	03de031e 	.inst	0x03de031e ; undefined
     7a0:	02170000 	.inst	0x02170000 ; undefined
     7a4:	03e61c91 	.inst	0x03e61c91 ; undefined
     7a8:	011e0000 	.inst	0x011e0000 ; undefined
     7ac:	000003ee 	udf	#1006
     7b0:	f600c01e 	.inst	0xf600c01e ; undefined
     7b4:	1f000003 	fmadd	s3, s0, s0, s0
     7b8:	03fe00c0 	.inst	0x03fe00c0 ; undefined
     7bc:	011f0000 	.inst	0x011f0000 ; undefined
     7c0:	00000406 	udf	#1030
     7c4:	040e031f 	.inst	0x040e031f ; undefined
     7c8:	03180000 	.inst	0x03180000 ; undefined
     7cc:	169f1c91 	b	fffffffffa7c7a10 <__free_ram_end+0xffffffffb8594a10>
     7d0:	00000004 	udf	#4
     7d4:	04bb2100 	.inst	0x04bb2100 ; undefined
     7d8:	21440000 	.inst	0x21440000 ; undefined
     7dc:	0000070c 	udf	#1804
     7e0:	46300045 	.inst	0x46300045 ; undefined
     7e4:	0000003c 	udf	#60
     7e8:	005c6d01 	.inst	0x005c6d01 ; undefined
     7ec:	62310120 	.inst	0x62310120 ; undefined
     7f0:	47000007 	.inst	0x47000007 ; undefined
     7f4:	00000014 	udf	#20
     7f8:	09012300 	.inst	0x09012300 ; undefined
     7fc:	0766422c 	.inst	0x0766422c ; undefined
     800:	da1d0000 	sbc	x0, x0, x29
     804:	47000003 	.inst	0x47000003 ; undefined
     808:	00000014 	udf	#20
     80c:	1e021e00 	.inst	0x1e021e00 ; undefined
     810:	0003de03 	.inst	0x0003de03 ; undefined
     814:	91021700 	add	x0, x24, #0x85
     818:	0003e61c 	.inst	0x0003e61c ; undefined
     81c:	ee011e00 	.inst	0xee011e00 ; undefined
     820:	1e000003 	.inst	0x1e000003 ; undefined
     824:	03f600c0 	.inst	0x03f600c0 ; undefined
     828:	c01f0000 	.inst	0xc01f0000 ; undefined
     82c:	0003fe00 	.inst	0x0003fe00 ; undefined
     830:	06011f00 	.inst	0x06011f00 ; undefined
     834:	1f000004 	fmadd	s4, s0, s0, s0
     838:	00040e03 	.inst	0x00040e03 ; undefined
     83c:	91031800 	add	x0, x0, #0xc6
     840:	04169f1c 	.inst	0x04169f1c ; undefined
     844:	00000000 	udf	#0
     848:	0004bb21 	.inst	0x0004bb21 ; undefined
     84c:	0c214800 	.inst	0x0c214800 ; undefined
     850:	49000007 	.inst	0x49000007 ; undefined
     854:	1c4a3200 	ldr	s0, 94e94 <_binary_shell_bin_size+0x94a1b>
     858:	01000000 	.inst	0x01000000 ; undefined
     85c:	2a005d6f 	orr	w15, w11, w0, lsl #23
     860:	244b3301 	cmpeq	p1.h, p4/z, z24.h, z11.d
     864:	01000003 	.inst	0x01000003 ; undefined
     868:	3a005e6d 	.inst	0x3a005e6d ; undefined
     86c:	00035801 	.inst	0x00035801 ; undefined
     870:	751e3400 	.inst	0x751e3400 ; undefined
     874:	6a013a00 	ands	w0, w16, w1, lsl #14
     878:	3400000a 	cbz	w10, 878 <_binary_shell_bin_size+0x3ff>
     87c:	3a00761f 	.inst	0x3a00761f ; undefined
     880:	00037f01 	.inst	0x00037f01 ; undefined
     884:	6d203500 	stp	d0, d13, [x8, #-512]
     888:	23013c00 	.inst	0x23013c00 ; undefined
     88c:	35000003 	cbnz	w3, 88c <_binary_shell_bin_size+0x413>
     890:	3b006f21 	.inst	0x3b006f21 ; undefined
     894:	00035801 	.inst	0x00035801 ; undefined
     898:	0d223500 	.inst	0x0d223500 ; undefined
     89c:	2f014a00 	.inst	0x2f014a00 ; undefined
     8a0:	35000003 	cbnz	w3, 8a0 <_binary_shell_bin_size+0x427>
     8a4:	59000f25 	.inst	0x59000f25 ; undefined
     8a8:	00032f01 	.inst	0x00032f01 ; undefined
     8ac:	007b3600 	.inst	0x007b3600 ; undefined
     8b0:	03870177 	.inst	0x03870177 ; undefined
     8b4:	ee370000 	.inst	0xee370000 ; undefined
     8b8:	06000004 	.inst	0x06000004 ; undefined
     8bc:	29015900 	stp	w0, w22, [x8, #8]
     8c0:	04f62409 	.inst	0x04f62409 ; undefined
     8c4:	230a0000 	.inst	0x230a0000 ; undefined
     8c8:	000004fe 	udf	#1278
     8cc:	384c2b00 	ldtrb	w0, [x24, #194]
     8d0:	35000000 	cbnz	w0, 8d0 <_binary_shell_bin_size+0x457>
     8d4:	60002926 	.inst	0x60002926 ; undefined
     8d8:	0000a701 	udf	#42753
     8dc:	072d0000 	.inst	0x072d0000 ; undefined
     8e0:	00772735 	.inst	0x00772735 ; undefined
     8e4:	00af0168 	.inst	0x00af0168 ; undefined
     8e8:	082d0000 	.inst	0x082d0000 ; undefined
     8ec:	00782a35 	.inst	0x00782a35 ; undefined
     8f0:	00a70169 	.inst	0x00a70169 ; undefined
     8f4:	2b350000 	adds	w0, w0, w21, uxtb
     8f8:	016e0079 	.inst	0x016e0079 ; undefined
     8fc:	0000037f 	udf	#895
     900:	6d007a36 	stp	d22, d30, [x17]
     904:	00037f01 	.inst	0x00037f01 ; undefined
     908:	04ee3700 	xar	z0.d, z0.d, z24.d, #18
     90c:	00090000 	.inst	0x00090000 ; undefined
     910:	09180169 	.inst	0x09180169 ; undefined
     914:	0004f628 	.inst	0x0004f628 ; undefined
     918:	fe290a00 	.inst	0xfe290a00 ; undefined
     91c:	00000004 	udf	#4
     920:	0a2d0000 	bic	w0, w0, w13
     924:	00772c35 	.inst	0x00772c35 ; undefined
     928:	00af0178 	.inst	0x00af0178 ; undefined
     92c:	0b2d0000 	add	w0, w0, w13, uxtb
     930:	00782f35 	.inst	0x00782f35 ; undefined
     934:	00a70179 	.inst	0x00a70179 ; undefined
     938:	ee370000 	.inst	0xee370000 ; undefined
     93c:	0c000004 	st4	{v4.8b-v7.8b}, [x0]
     940:	18017900 	ldr	w0, 3860 <_binary_shell_bin_size+0x33e7>
     944:	04f62d09 	.inst	0x04f62d09 ; undefined
     948:	2e0a0000 	ext	v0.8b, v0.8b, v10.8b, #0
     94c:	000004fe 	udf	#1278
     950:	0b000000 	add	w0, w0, w0
     954:	000004bb 	udf	#1211
     958:	52010c4d 	eor	w13, w2, #0x80000007
     95c:	02c61003 	.inst	0x02c61003 ; undefined
     960:	04bb0b00 	.inst	0x04bb0b00 ; undefined
     964:	0c4e0000 	.inst	0x0c4e0000 ; undefined
     968:	10025201 	adr	x1, 53a8 <_binary_shell_bin_size+0x4f2f>
     96c:	c60b0059 	.inst	0xc60b0059 ; undefined
     970:	4f000004 	.inst	0x4f000004 ; undefined
     974:	0352010c 	.inst	0x0352010c ; undefined
     978:	0c208010 	.inst	0x0c208010 ; undefined
     97c:	8f025101 	.inst	0x8f025101 ; undefined
     980:	50010c00 	adr	x0, 2b02 <_binary_shell_bin_size+0x2689>
     984:	00008502 	udf	#34050
     988:	0004bb0b 	.inst	0x0004bb0b ; undefined
     98c:	010c5000 	.inst	0x010c5000 ; undefined
     990:	dc100352 	.inst	0xdc100352 ; undefined
     994:	070b0002 	.inst	0x070b0002 ; undefined
     998:	51000005 	sub	w5, w0, #0x0
     99c:	0252010c 	.inst	0x0252010c ; undefined
     9a0:	010c0086 	.inst	0x010c0086 ; undefined
     9a4:	00860251 	.inst	0x00860251 ; undefined
     9a8:	0250010c 	.inst	0x0250010c ; undefined
     9ac:	21000085 	.inst	0x21000085 ; undefined
     9b0:	000004bb 	udf	#1211
     9b4:	04bb0b52 	.inst	0x04bb0b52 ; undefined
     9b8:	0c530000 	.inst	0x0c530000 ; undefined
     9bc:	87025101 	.inst	0x87025101 ; undefined
     9c0:	c60b0000 	.inst	0xc60b0000 ; undefined
     9c4:	54000004 	b.mi	9c4 <_binary_shell_bin_size+0x54b>  // b.first
     9c8:	0352010c 	.inst	0x0352010c ; undefined
     9cc:	0c208010 	.inst	0x0c208010 ; undefined
     9d0:	8f025101 	.inst	0x8f025101 ; undefined
     9d4:	50010c00 	adr	x0, 2b56 <_binary_shell_bin_size+0x26dd>
     9d8:	00008602 	udf	#34306
     9dc:	000a520b 	.inst	0x000a520b ; undefined
     9e0:	010c5500 	.inst	0x010c5500 ; undefined
     9e4:	00860250 	.inst	0x00860250 ; undefined
     9e8:	05070b00 	.inst	0x05070b00 ; undefined
     9ec:	0c560000 	.inst	0x0c560000 ; undefined
     9f0:	10035301 	adr	x1, 7450 <_binary_shell_bin_size+0x6fd7>
     9f4:	010c0880 	.inst	0x010c0880 ; undefined
     9f8:	00860252 	.inst	0x00860252 ; undefined
     9fc:	0250010c 	.inst	0x0250010c ; undefined
     a00:	0b000085 	add	w5, w4, w0
     a04:	000004c6 	udf	#1222
     a08:	52010c57 	eor	w23, w2, #0x80000007
     a0c:	20801003 	.inst	0x20801003 ; undefined
     a10:	0251010c 	.inst	0x0251010c ; undefined
     a14:	010c008f 	.inst	0x010c008f ; undefined
     a18:	00830250 	.inst	0x00830250 ; undefined
     a1c:	05070b00 	.inst	0x05070b00 ; undefined
     a20:	0c580000 	.inst	0x0c580000 ; undefined
     a24:	10035301 	adr	x1, 7484 <_binary_shell_bin_size+0x700b>
     a28:	010c0880 	.inst	0x010c0880 ; undefined
     a2c:	00830252 	.inst	0x00830252 ; undefined
     a30:	0250010c 	.inst	0x0250010c ; undefined
     a34:	0b000085 	add	w5, w4, w0
     a38:	000004bb 	udf	#1211
     a3c:	52010c59 	eor	w25, w2, #0x80000007
     a40:	00591002 	.inst	0x00591002 ; undefined
     a44:	0004bb0b 	.inst	0x0004bb0b ; undefined
     a48:	010c5a00 	.inst	0x010c5a00 ; undefined
     a4c:	59100252 	stlurh	w18, [x18, #-256]
     a50:	2b260000 	adds	w0, w0, w6, uxtb
     a54:	037e1901 	.inst	0x037e1901 ; undefined
     a58:	7e240000 	.inst	0x7e240000 ; undefined
     a5c:	24000003 	cmphs	p3.b, p0/z, z0.b, z0.b
     a60:	00000a6a 	udf	#2666
     a64:	0004de24 	.inst	0x0004de24 ; undefined
     a68:	6f140000 	.inst	0x6f140000 ; undefined
     a6c:	3800000a 	sturb	w10, [x0]
     a70:	00945b07 	.inst	0x00945b07 ; undefined
     a74:	6d010000 	stp	d0, d0, [x0, #16]
     a78:	00000af4 	udf	#2804
     a7c:	0af93009 	bic	w9, w0, w25, ror #12
     a80:	310a0000 	adds	w0, w0, #0x280
     a84:	00000b02 	udf	#2818
     a88:	00285c2b 	.inst	0x00285c2b ; NYI
     a8c:	0c390000 	.inst	0x0c390000 ; undefined
     a90:	3700000b 	tbnz	w11, #0, a90 <_binary_shell_bin_size+0x617>
     a94:	00000762 	udf	#1890
     a98:	0190000d 	.inst	0x0190000d ; undefined
     a9c:	03da2e0d 	.inst	0x03da2e0d ; undefined
     aa0:	000e0000 	.inst	0x000e0000 ; undefined
     aa4:	3809021e 	sturb	w30, [x16, #144]
     aa8:	000003de 	udf	#990
     aac:	03e63909 	.inst	0x03e63909 ; undefined
     ab0:	37090000 	tbnz	w0, #1, 2ab0 <_binary_shell_bin_size+0x2637>
     ab4:	000003ee 	udf	#1006
     ab8:	03f63609 	.inst	0x03f63609 ; undefined
     abc:	320a0000 	orr	w0, w0, #0x400000
     ac0:	000003fe 	udf	#1022
     ac4:	0406330a 	.inst	0x0406330a ; undefined
     ac8:	340a0000 	cbz	w0, 14ac8 <_binary_shell_bin_size+0x1464f>
     acc:	0000040e 	udf	#1038
     ad0:	0416350a 	.inst	0x0416350a ; undefined
     ad4:	00000000 	udf	#0
     ad8:	04bb2100 	.inst	0x04bb2100 ; undefined
     adc:	215d0000 	.inst	0x215d0000 ; undefined
     ae0:	000004bb 	udf	#1211
     ae4:	04bb0b5e 	.inst	0x04bb0b5e ; undefined
     ae8:	0c5f0000 	.inst	0x0c5f0000 ; undefined
     aec:	10035201 	adr	x1, 752c <_binary_shell_bin_size+0x70b3>
     af0:	00000395 	udf	#917
     af4:	88002c3a 	stxr	w0, w26, [x1]
     af8:	002d3b01 	.inst	0x002d3b01 ; NYI
     afc:	0b170188 	add	w8, w12, w23
     b00:	50360000 	adr	x0, 6cb02 <_binary_shell_bin_size+0x6c689>
     b04:	af018b00 	.inst	0xaf018b00 ; undefined
     b08:	3c000000 	stur	b0, [x0]
     b0c:	8e001e36 	.inst	0x8e001e36 ; undefined
     b10:	00004501 	udf	#17665
     b14:	14000000 	b	b14 <_binary_shell_bin_size+0x69b>
     b18:	00000b1c 	udf	#2844
     b1c:	01084f11 	.inst	0x01084f11 ; undefined
     b20:	2e120902 	ext	v2.8b, v8.8b, v18.8b, #1
     b24:	000000af 	udf	#175
     b28:	12000a02 	and	w2, w16, #0x7
     b2c:	0000af2f 	udf	#44847
     b30:	080b0200 	stxrb	w11, w0, [x16]
     b34:	00af3012 	.inst	0x00af3012 ; undefined
     b38:	0c020000 	.inst	0x0c020000 ; undefined
     b3c:	af311210 	.inst	0xaf311210 ; undefined
     b40:	02000000 	.inst	0x02000000 ; undefined
     b44:	3212180d 	orr	w13, w0, #0x1fc000
     b48:	000000af 	udf	#175
     b4c:	12200e02 	and	w2, w16, #0xf
     b50:	0000af33 	udf	#44851
     b54:	280f0200 	stnp	w0, w0, [x16, #120]
     b58:	00af3412 	.inst	0x00af3412 ; undefined
     b5c:	10020000 	adr	x0, 4b5c <_binary_shell_bin_size+0x46e3>
     b60:	af351230 	.inst	0xaf351230 ; undefined
     b64:	02000000 	.inst	0x02000000 ; undefined
     b68:	36123811 	tbz	w17, #2, 5268 <_binary_shell_bin_size+0x4def>
     b6c:	000000af 	udf	#175
     b70:	12401202 	.inst	0x12401202 ; undefined
     b74:	0000af37 	udf	#44855
     b78:	48130200 	stxrh	w19, w0, [x16]
     b7c:	00af3812 	.inst	0x00af3812 ; undefined
     b80:	14020000 	b	80b80 <_binary_shell_bin_size+0x80707>
     b84:	af391250 	.inst	0xaf391250 ; undefined
     b88:	02000000 	.inst	0x02000000 ; undefined
     b8c:	3a125815 	.inst	0x3a125815 ; undefined
     b90:	000000af 	udf	#175
     b94:	12601602 	.inst	0x12601602 ; undefined
     b98:	0000af3b 	udf	#44859
     b9c:	68170200 	.inst	0x68170200 ; undefined
     ba0:	00af3c12 	.inst	0x00af3c12 ; undefined
     ba4:	18020000 	ldr	w0, 4ba4 <_binary_shell_bin_size+0x472b>
     ba8:	af3d1270 	.inst	0xaf3d1270 ; undefined
     bac:	02000000 	.inst	0x02000000 ; undefined
     bb0:	3e127819 	.inst	0x3e127819 ; undefined
     bb4:	000000af 	udf	#175
     bb8:	12801a02 	mov	w2, #0xffffff2f            	// #-209
     bbc:	0000af3f 	udf	#44863
     bc0:	881b0200 	stxr	w27, w0, [x16]
     bc4:	00af4012 	.inst	0x00af4012 ; undefined
     bc8:	1c020000 	ldr	s0, 4bc8 <_binary_shell_bin_size+0x474f>
     bcc:	af411290 	.inst	0xaf411290 ; undefined
     bd0:	02000000 	.inst	0x02000000 ; undefined
     bd4:	4212981d 	.inst	0x4212981d ; undefined
     bd8:	000000af 	udf	#175
     bdc:	12a01e02 	mov	w2, #0xff0fffff            	// #-15728641
     be0:	0000af43 	udf	#44867
     be4:	a81f0200 	stnp	x0, x0, [x16, #496]
     be8:	00af4412 	.inst	0x00af4412 ; undefined
     bec:	20020000 	.inst	0x20020000 ; undefined
     bf0:	af4512b0 	.inst	0xaf4512b0 ; undefined
     bf4:	02000000 	.inst	0x02000000 ; undefined
     bf8:	4612b821 	.inst	0x4612b821 ; undefined
     bfc:	000000af 	udf	#175
     c00:	12c02202 	.inst	0x12c02202 ; undefined
     c04:	0000af47 	udf	#44871
     c08:	c8230200 	stxp	w3, x0, x0, [x16]
     c0c:	00af4812 	.inst	0x00af4812 ; undefined
     c10:	24020000 	cmphs	p0.b, p0/z, z0.b, z2.b
     c14:	af4912d0 	.inst	0xaf4912d0 ; undefined
     c18:	02000000 	.inst	0x02000000 ; undefined
     c1c:	4a12d825 	.inst	0x4a12d825 ; undefined
     c20:	000000af 	udf	#175
     c24:	12e02602 	.inst	0x12e02602 ; undefined
     c28:	0000af4b 	udf	#44875
     c2c:	e8270200 	.inst	0xe8270200 ; undefined
     c30:	00af4c12 	.inst	0x00af4c12 ; undefined
     c34:	28020000 	stnp	w0, w0, [x0, #16]
     c38:	af4d12f0 	.inst	0xaf4d12f0 ; undefined
     c3c:	02000000 	.inst	0x02000000 ; undefined
     c40:	4e3df829 	.inst	0x4e3df829 ; undefined
     c44:	000000af 	udf	#175
     c48:	01002a02 	.inst	0x01002a02 ; undefined
     c4c:	b8603000 	ldsetl	w0, w0, [x0]
     c50:	01000001 	.inst	0x01000001 ; undefined
     c54:	a0005f6d 	ldnt1w	{z12.s-z13.s}, pn15/z, [x27, x0, lsl #2]
     c58:	8f023e01 	.inst	0x8f023e01 ; undefined
     c5c:	a0002d00 	ld1h	{z0.h-z1.h}, pn11/z, [x8, x0, lsl #1]
     c60:	000b1701 	.inst	0x000b1701 ; undefined
     c64:	7c3a3500 	.inst	0x7c3a3500 ; undefined
     c68:	af01a200 	.inst	0xaf01a200 ; undefined
     c6c:	35000000 	cbnz	w0, c6c <_binary_shell_bin_size+0x7f3>
     c70:	a2004e3b 	.inst	0xa2004e3b ; undefined
     c74:	0000af01 	udf	#44801
     c78:	7d3c3500 	str	h0, [x8, #7706]
     c7c:	af01a200 	.inst	0xaf01a200 ; undefined
     c80:	35000000 	cbnz	w0, c80 <_binary_shell_bin_size+0x807>
     c84:	aa007e3d 	orr	x29, x17, x0, lsl #31
     c88:	0000af01 	udf	#44801
     c8c:	7f3e3500 	.inst	0x7f3e3500 ; undefined
     c90:	af01b000 	.inst	0xaf01b000 ; undefined
     c94:	35000000 	cbnz	w0, c94 <_binary_shell_bin_size+0x81b>
     c98:	a200803f 	.inst	0xa200803f ; undefined
     c9c:	0000af01 	udf	#44801
     ca0:	00813600 	.inst	0x00813600 ; undefined
     ca4:	00af01ab 	.inst	0x00af01ab ; undefined
     ca8:	f4370000 	.inst	0xf4370000 ; undefined
     cac:	0f00000a 	.inst	0x0f00000a ; undefined
     cb0:	0d01b600 	.inst	0x0d01b600 ; undefined
     cb4:	0af94009 	bic	w9, w0, w25, ror #16
     cb8:	410a0000 	.inst	0x410a0000 ; undefined
     cbc:	00000b02 	udf	#2818
     cc0:	00076237 	.inst	0x00076237 ; undefined
     cc4:	90001000 	adrp	x0, 200000 <_binary_shell_bin_size+0x1ffb87>
     cc8:	da2e0d01 	.inst	0xda2e0d01 ; undefined
     ccc:	11000003 	add	w3, w0, #0x0
     cd0:	09021e00 	.inst	0x09021e00 ; undefined
     cd4:	0003de48 	.inst	0x0003de48 ; undefined
     cd8:	e6490900 	.inst	0xe6490900 ; undefined
     cdc:	09000003 	.inst	0x09000003 ; undefined
     ce0:	0003ee47 	.inst	0x0003ee47 ; undefined
     ce4:	f6460900 	.inst	0xf6460900 ; undefined
     ce8:	0a000003 	and	w3, w0, w0
     cec:	0003fe42 	.inst	0x0003fe42 ; undefined
     cf0:	06430a00 	.inst	0x06430a00 ; undefined
     cf4:	0a000004 	and	w4, w0, w0
     cf8:	00040e44 	.inst	0x00040e44 ; undefined
     cfc:	16450a00 	b	fffffffff91434fc <__free_ram_end+0xffffffffb6f104fc>
     d00:	00000004 	udf	#4
     d04:	bb0b0000 	.inst	0xbb0b0000 ; undefined
     d08:	61000004 	.inst	0x61000004 ; undefined
     d0c:	0251010c 	.inst	0x0251010c ; undefined
     d10:	0b00008f 	add	w15, w4, w0
     d14:	000004bb 	udf	#1211
     d18:	51010c62 	sub	w2, w3, #0x43
     d1c:	0c008602 	st2	{v2.4h-v3.4h}, [x16]
     d20:	84025301 	ld1b	{z1.s}, p4/z, [x24, z2.s, uxtw]
     d24:	bb210000 	.inst	0xbb210000 ; undefined
     d28:	63000004 	.inst	0x63000004 ; undefined
     d2c:	0004bb21 	.inst	0x0004bb21 ; undefined
     d30:	bb0b6400 	.inst	0xbb0b6400 ; undefined
     d34:	65000004 	bfadd	z4.h, z0.h, z0.h
     d38:	0252010c 	.inst	0x0252010c ; undefined
     d3c:	010c0086 	.inst	0x010c0086 ; undefined
     d40:	00830251 	.inst	0x00830251 ; undefined
     d44:	04bb0b00 	.inst	0x04bb0b00 ; undefined
     d48:	0c660000 	.inst	0x0c660000 ; undefined
     d4c:	85025101 	ld1w	{z1.s}, p4/z, [x8, z2.s, uxtw]
     d50:	bb0b0000 	.inst	0xbb0b0000 ; undefined
     d54:	67000004 	.inst	0x67000004 ; undefined
     d58:	0251010c 	.inst	0x0251010c ; undefined
     d5c:	0b000084 	add	w4, w4, w0
     d60:	00000dbc 	udf	#3516
     d64:	51010c68 	sub	w8, w3, #0x43
     d68:	0c008502 	st2	{v2.4h-v3.4h}, [x8]
     d6c:	83025001 	.inst	0x83025001 ; undefined
     d70:	bb210000 	.inst	0xbb210000 ; undefined
     d74:	69000004 	stgp	x4, x0, [x0]
     d78:	0004bb0b 	.inst	0x0004bb0b ; undefined
     d7c:	010c6a00 	.inst	0x010c6a00 ; undefined
     d80:	b7100352 	tbnz	x18, #34, de8 <_binary_shell_bin_size+0x96f>
     d84:	bb0b0003 	.inst	0xbb0b0003 ; undefined
     d88:	6b000004 	subs	w4, w0, w0
     d8c:	0253010c 	.inst	0x0253010c ; undefined
     d90:	010c0084 	.inst	0x010c0084 ; undefined
     d94:	00860251 	.inst	0x00860251 ; undefined
     d98:	04bb0b00 	.inst	0x04bb0b00 ; undefined
     d9c:	0c6c0000 	.inst	0x0c6c0000 ; undefined
     da0:	10035201 	adr	x1, 77e0 <_binary_shell_bin_size+0x7367>
     da4:	210003c5 	.inst	0x210003c5 ; undefined
     da8:	000004bb 	udf	#1211
     dac:	04bb0b6d 	.inst	0x04bb0b6d ; undefined
     db0:	0c6e0000 	.inst	0x0c6e0000 ; undefined
     db4:	10035201 	adr	x1, 77f4 <_binary_shell_bin_size+0x737b>
     db8:	00000395 	udf	#917
     dbc:	8500513f 	ld1w	{z31.s}, p4/z, [x9, z0.s, uxtw]
     dc0:	00af2401 	.inst	0x00af2401 ; undefined
     dc4:	af240000 	.inst	0xaf240000 ; undefined
     dc8:	00000000 	udf	#0
     dcc:	2d005219 	stp	s25, s20, [x16]
     dd0:	2e00531b 	.inst	0x2e00531b ; undefined
     dd4:	000000af 	udf	#175
     dd8:	4200541b 	.inst	0x4200541b ; undefined
     ddc:	000000af 	udf	#175
     de0:	006f3000 	.inst	0x006f3000 ; undefined
     de4:	01000001 	.inst	0x01000001 ; undefined
     de8:	cc00606d 	.inst	0xcc00606d ; undefined
     dec:	0dcc3101 	ld3	{v1.b-v3.b}[4], [x8], x12
     df0:	58700000 	ldr	x0, e0df0 <_binary_shell_bin_size+0xe0977>
     df4:	00000000 	udf	#0
     df8:	0a0501da 	and	w26, w14, w5
     dfc:	000dd04a 	.inst	0x000dd04a ; undefined
     e00:	d84b0a00 	prfm	pldl1keep, 96f40 <_binary_shell_bin_size+0x96ac7>
     e04:	0000000d 	udf	#13
     e08:	0004c60b 	.inst	0x0004c60b ; undefined
     e0c:	010c7000 	.inst	0x010c7000 ; undefined
     e10:	008f0251 	.inst	0x008f0251 ; undefined
     e14:	04852100 	addqv	v0.4s, p0, z8.s
     e18:	21710000 	.inst	0x21710000 ; undefined
     e1c:	000004bb 	udf	#1211
     e20:	04bb2172 	.inst	0x04bb2172 ; undefined
     e24:	0b730000 	.inst	0x0b730000 ; undefined
     e28:	00000861 	udf	#2145
     e2c:	51010c74 	sub	w20, w3, #0x43
     e30:	0c008f02 	.inst	0x0c008f02 ; undefined
     e34:	8f025001 	.inst	0x8f025001 ; undefined
     e38:	bb210000 	.inst	0xbb210000 ; undefined
     e3c:	75000004 	.inst	0x75000004 ; undefined
     e40:	00086121 	.inst	0x00086121 ; undefined
     e44:	bb217600 	.inst	0xbb217600 ; undefined
     e48:	77000004 	.inst	0x77000004 ; undefined
     e4c:	0004bb21 	.inst	0x0004bb21 ; undefined
     e50:	0c217800 	.inst	0x0c217800 ; undefined
     e54:	79000007 	strh	w7, [x0]
     e58:	0004bb21 	.inst	0x0004bb21 ; undefined
     e5c:	bb0b7a00 	.inst	0xbb0b7a00 ; undefined
     e60:	7b000004 	.inst	0x7b000004 ; undefined
     e64:	0352010c 	.inst	0x0352010c ; undefined
     e68:	0003fa10 	.inst	0x0003fa10 ; undefined
     e6c:	187c3200 	ldr	w0, f94ac <_binary_shell_bin_size+0xf9033>
     e70:	01000000 	.inst	0x01000000 ; undefined
     e74:	0200616f 	.inst	0x0200616f ; undefined
     e78:	02560002 	.inst	0x02560002 ; undefined
     e7c:	00050000 	.inst	0x00050000 ; undefined
     e80:	03410801 	.inst	0x03410801 ; undefined
     e84:	00010000 	.inst	0x00010000 ; undefined
     e88:	1801001d 	ldr	w29, 2e88 <_binary_shell_bin_size+0x2a0f>
     e8c:	33000002 	bfxil	w2, w0, #0, #1
     e90:	02000006 	.inst	0x02000006 ; undefined
     e94:	00040401 	.inst	0x00040401 ; undefined
     e98:	0003f800 	.inst	0x0003f800 ; undefined
     e9c:	00016a00 	.inst	0x00016a00 ; undefined
     ea0:	0007a400 	.inst	0x0007a400 ; undefined
     ea4:	00350200 	.inst	0x00350200 ; NYI
     ea8:	5c000000 	ldr	d0, ea8 <_binary_shell_bin_size+0xa2f>
     eac:	0300a102 	.inst	0x0300a102 ; undefined
     eb0:	00000041 	udf	#65
     eb4:	00004504 	udf	#17668
     eb8:	05001100 	orr	z0.s, z0.s, #0xc000007f
     ebc:	06010803 	.inst	0x06010803 ; undefined
     ec0:	07070804 	.inst	0x07070804 ; undefined
     ec4:	0000004e 	udf	#78
     ec8:	00005608 	udf	#22024
     ecc:	04010600 	sub	z0.b, p1/m, z0.b, z16.b
     ed0:	01080505 	.inst	0x01080505 ; undefined
     ed4:	00005f07 	udf	#24327
     ed8:	004e0900 	.inst	0x004e0900 ; undefined
     edc:	56070000 	.inst	0x56070000 ; undefined
     ee0:	0a000000 	and	w0, w0, w0
     ee4:	0000c801 	udf	#51201
     ee8:	086f0100 	.inst	0x086f0100 ; undefined
     eec:	01f00500 	.inst	0x01f00500 ; undefined
     ef0:	010b0000 	.inst	0x010b0000 ; undefined
     ef4:	05000e50 	orr	z16.b, z16.b, #0x83
     ef8:	000001f0 	udf	#496
     efc:	0f51010b 	.inst	0x0f51010b ; undefined
     f00:	01fa0500 	.inst	0x01fa0500 ; undefined
     f04:	020c0000 	.inst	0x020c0000 ; undefined
     f08:	00050012 	.inst	0x00050012 ; undefined
     f0c:	0d000002 	st1	{v2.b}[0], [x0]
     f10:	06001000 	.inst	0x06001000 ; undefined
     f14:	00000049 	udf	#73
     f18:	0011010d 	.inst	0x0011010d ; undefined
     f1c:	00005a07 	udf	#23047
     f20:	020a0000 	.inst	0x020a0000 ; undefined
     f24:	000000a0 	udf	#160
     f28:	00096f01 	.inst	0x00096f01 ; undefined
     f2c:	0001f00d 	.inst	0x0001f00d ; undefined
     f30:	50010b00 	adr	x0, 3092 <_binary_shell_bin_size+0x2c19>
     f34:	f00d0016 	adrp	x22, 1a003000 <_binary_shell_bin_size+0x1a002b87>
     f38:	0b000001 	add	w1, w0, w0
     f3c:	00175101 	.inst	0x00175101 ; undefined
     f40:	0000410d 	udf	#16653
     f44:	12040c00 	and	w0, w0, #0xf0000000
     f48:	02000d00 	.inst	0x02000d00 ; undefined
     f4c:	030d0000 	.inst	0x030d0000 ; undefined
     f50:	490e0018 	.inst	0x490e0018 ; undefined
     f54:	00000000 	udf	#0
     f58:	0028030a 	.inst	0x0028030a ; NYI
     f5c:	6f010000 	.inst	0x6f010000 ; undefined
     f60:	f114000a 	subs	x10, x0, #0x500
     f64:	0b000001 	add	w1, w0, w0
     f68:	000e5001 	.inst	0x000e5001 ; undefined
     f6c:	0001f114 	.inst	0x0001f114 ; undefined
     f70:	0f050c00 	.inst	0x0f050c00 ; undefined
     f74:	02141400 	.inst	0x02141400 ; undefined
     f78:	060d0000 	.inst	0x060d0000 ; undefined
     f7c:	f1150010 	subs	x16, x0, #0x540
     f80:	00000001 	udf	#1
     f84:	0030040a 	.inst	0x0030040a ; NYI
     f88:	6f010000 	.inst	0x6f010000 ; undefined
     f8c:	f61c000b 	.inst	0xf61c000b ; undefined
     f90:	0c000001 	st4	{v1.8b-v4.8b}, [x0]
     f94:	1c001907 	ldr	s7, 12b4 <_binary_shell_bin_size+0xe3b>
     f98:	00000214 	udf	#532
     f9c:	1a51010b 	.inst	0x1a51010b ; undefined
     fa0:	02141c00 	.inst	0x02141c00 ; undefined
     fa4:	0e000000 	tbl	v0.8b, {v0.16b}, v0.8b
     fa8:	00024405 	.inst	0x00024405 ; undefined
     fac:	0d6d0100 	.inst	0x0d6d0100 ; undefined
     fb0:	080c2700 	stxrb	w12, w0, [x24]
     fb4:	14270023 	b	9c1040 <_binary_shell_bin_size+0x9c0bc7>
     fb8:	0f000002 	.inst	0x0f000002 ; undefined
     fbc:	1b609102 	.inst	0x1b609102 ; undefined
     fc0:	021e2800 	.inst	0x021e2800 ; undefined
     fc4:	2a100000 	orr	w0, w0, w16
     fc8:	110c6a00 	add	w0, w16, #0x31a
     fcc:	24090d00 	cmphs	p0.b, p3/z, z8.b, z9.b
     fd0:	02103f00 	.inst	0x02103f00 ; undefined
     fd4:	0a0d0000 	and	w0, w0, w13
     fd8:	f63e0025 	.inst	0xf63e0025 ; undefined
     fdc:	0d000001 	st1	{v1.b}[0], [x0]
     fe0:	4500260b 	.inst	0x4500260b ; undefined
     fe4:	00000210 	udf	#528
     fe8:	0d011100 	.inst	0x0d011100 ; undefined
     fec:	5800280e 	ldr	x14, 14ec <_binary_shell_bin_size+0x1073>
     ff0:	000001f6 	udf	#502
     ff4:	00250f0d 	.inst	0x00250f0d ; NYI
     ff8:	00025557 	.inst	0x00025557 ; undefined
     ffc:	24061200 	cmphs	p0.b, p4/z, z16.b, z6.b
    1000:	0d000000 	st1	{v0.b}[0], [x0]
    1004:	5900270d 	.inst	0x5900270d ; undefined
    1008:	000001f6 	udf	#502
    100c:	2b130211 	adds	w17, w16, w19
    1010:	02105a00 	.inst	0x02105a00 ; undefined
    1014:	00000000 	udf	#0
    1018:	0d031100 	.inst	0x0d031100 ; undefined
    101c:	3600110c 	tbz	w12, #0, 123c <_binary_shell_bin_size+0xdc3>
    1020:	00000214 	udf	#532
    1024:	e6151400 	.inst	0xe6151400 ; undefined
    1028:	07000001 	.inst	0x07000001 ; undefined
    102c:	0001e616 	.inst	0x0001e616 ; undefined
    1030:	01170800 	.inst	0x01170800 ; undefined
    1034:	2d100250 	stp	s16, s0, [x18, #128]
    1038:	01e61600 	.inst	0x01e61600 ; undefined
    103c:	17090000 	b	fffffffffc24103c <__free_ram_end+0xffffffffba00e03c>
    1040:	88025001 	stxr	w2, w1, [x0]
    1044:	e6150030 	.inst	0xe6150030 ; undefined
    1048:	0a000001 	and	w1, w0, w0
    104c:	0001e615 	.inst	0x0001e615 ; undefined
    1050:	e6160b00 	.inst	0xe6160b00 ; undefined
    1054:	0c000001 	st4	{v1.8b-v4.8b}, [x0]
    1058:	02500117 	.inst	0x02500117 ; undefined
    105c:	00002510 	udf	#9488
    1060:	03000718 	.inst	0x03000718 ; undefined
    1064:	00004119 	udf	#16665
    1068:	071a0000 	.inst	0x071a0000 ; undefined
    106c:	00000041 	udf	#65
    1070:	04050c05 	.inst	0x04050c05 ; undefined
    1074:	0001ff07 	.inst	0x0001ff07 ; undefined
    1078:	08081b00 	stxrb	w8, w0, [x24]
    107c:	15000002 	b	4001084 <_binary_shell_bin_size+0x4000c0b>
    1080:	10080801 	adr	x1, 11180 <_binary_shell_bin_size+0x10d07>
    1084:	14000002 	b	108c <_binary_shell_bin_size+0xc13>
    1088:	13050601 	sbfiz	w1, w16, #27, #2
    108c:	19070407 	.inst	0x19070407 ; undefined
    1090:	09000002 	.inst	0x09000002 ; undefined
    1094:	00000041 	udf	#65
    1098:	0002241c 	.inst	0x0002241c ; undefined
    109c:	211d2200 	.inst	0x211d2200 ; undefined
    10a0:	f01c1e20 	adrp	x0, 383c8000 <_binary_shell_bin_size+0x383c7b87>
    10a4:	00000001 	udf	#1
    10a8:	1d1e0028 	.inst	0x1d1e0028 ; undefined
    10ac:	000001f0 	udf	#496
    10b0:	1e082800 	.inst	0x1e082800 ; undefined
    10b4:	0001f01e 	.inst	0x0001f01e ; undefined
    10b8:	10280000 	adr	x0, 510b8 <_binary_shell_bin_size+0x50c3f>
    10bc:	01f61f1e 	.inst	0x01f61f1e ; undefined
    10c0:	28000000 	stnp	w0, w0, [x0]
    10c4:	f6201e18 	.inst	0xf6201e18 ; undefined
    10c8:	00000001 	udf	#1
    10cc:	05001c28 	orr	z8.h, z8.h, #0x6000
    10d0:	00080729 	.inst	0x00080729 ; undefined
    10d4:	0000017b 	udf	#379
    10d8:	08010005 	stxrb	w1, w5, [x0]
    10dc:	000004a5 	udf	#1189
    10e0:	00083b01 	.inst	0x00083b01 ; undefined
    10e4:	20118000 	.inst	0x20118000 ; undefined
    10e8:	00000040 	udf	#64
    10ec:	20126c00 	.inst	0x20126c00 ; undefined
    10f0:	00000040 	udf	#64
    10f4:	63657600 	.inst	0x63657600 ; undefined
    10f8:	00732e74 	.inst	0x00732e74 ; undefined
    10fc:	6d6f682f 	ldp	d15, d26, [x1, #-272]
    1100:	6f722f65 	.inst	0x6f722f65 ; undefined
    1104:	68746968 	.inst	0x68746968 ; undefined
    1108:	6e75662f 	umax	v15.8h, v17.8h, v21.8h
    110c:	6e694d2f 	uqshl	v15.8h, v9.8h, v9.8h
    1110:	534f2d69 	.inst	0x534f2d69 ; undefined
    1114:	7665642d 	.inst	0x7665642d ; undefined
    1118:	75625500 	.inst	0x75625500 ; undefined
    111c:	2075746e 	.inst	0x2075746e ; undefined
    1120:	6e616c63 	umin	v3.8h, v3.8h, v1.8h
    1124:	65762067 	fmls	z7.h, p0/m, z3.h, z22.h
    1128:	6f697372 	fcmla	v18.8h, v27.8h, v9.h[1], #270
    112c:	3831206e 	ldeorb	w17, w14, [x3]
    1130:	332e312e 	.inst	0x332e312e ; undefined
    1134:	75312820 	.inst	0x75312820 ; undefined
    1138:	746e7562 	.inst	0x746e7562 ; undefined
    113c:	00293175 	.inst	0x00293175 ; NYI
    1140:	73028001 	.inst	0x73028001 ; undefined
    1144:	5f636e79 	.inst	0x5f636e79 ; undefined
    1148:	5f316c65 	.inst	0x5f316c65 ; undefined
    114c:	646e6168 	.inst	0x646e6168 ; undefined
    1150:	0072656c 	.inst	0x0072656c ; undefined
    1154:	00000000 	udf	#0
    1158:	00000002 	udf	#2
    115c:	40201180 	.inst	0x40201180 ; undefined
    1160:	00000000 	udf	#0
    1164:	71726902 	subs	w2, w8, #0xc9a, lsl #12
    1168:	316c655f 	cmn	w10, #0xb19, lsl #12
    116c:	6e61685f 	fcvtxn2	v31.4s, v2.2d
    1170:	72656c64 	.inst	0x72656c64 ; undefined
    1174:	00000000 	udf	#0
    1178:	00003d00 	udf	#15616
    117c:	20123400 	.inst	0x20123400 ; undefined
    1180:	00000040 	udf	#64
    1184:	69660200 	.inst	0x69660200 ; undefined
    1188:	6c655f71 	ldnp	d17, d23, [x27, #-432]
    118c:	61685f31 	.inst	0x61685f31 ; undefined
    1190:	656c646e 	fnmls	z14.h, p1/m, z3.h, z12.h
    1194:	00000072 	udf	#114
    1198:	00420000 	.inst	0x00420000 ; undefined
    119c:	123c0000 	and	w0, w0, #0x10
    11a0:	00004020 	udf	#16416
    11a4:	73020000 	.inst	0x73020000 ; undefined
    11a8:	6f727265 	fcmla	v5.8h, v19.8h, v18.h[1], #270
    11ac:	6c655f72 	ldnp	d18, d23, [x27, #-432]
    11b0:	61685f31 	.inst	0x61685f31 ; undefined
    11b4:	656c646e 	fnmls	z14.h, p1/m, z3.h, z12.h
    11b8:	00000072 	udf	#114
    11bc:	00470000 	.inst	0x00470000 ; undefined
    11c0:	12440000 	.inst	0x12440000 ; undefined
    11c4:	00004020 	udf	#16416
    11c8:	73020000 	.inst	0x73020000 ; undefined
    11cc:	5f636e79 	.inst	0x5f636e79 ; undefined
    11d0:	5f326c65 	.inst	0x5f326c65 ; undefined
    11d4:	646e6168 	.inst	0x646e6168 ; undefined
    11d8:	0072656c 	.inst	0x0072656c ; undefined
    11dc:	00000000 	udf	#0
    11e0:	0000004c 	udf	#76
    11e4:	4020124c 	.inst	0x4020124c ; undefined
    11e8:	00000000 	udf	#0
    11ec:	71726902 	subs	w2, w8, #0xc9a, lsl #12
    11f0:	326c655f 	.inst	0x326c655f ; undefined
    11f4:	6e61685f 	fcvtxn2	v31.4s, v2.2d
    11f8:	72656c64 	.inst	0x72656c64 ; undefined
    11fc:	00000000 	udf	#0
    1200:	00005100 	udf	#20736
    1204:	20125400 	.inst	0x20125400 ; undefined
    1208:	00000040 	udf	#64
    120c:	69660200 	.inst	0x69660200 ; undefined
    1210:	6c655f71 	ldnp	d17, d23, [x27, #-432]
    1214:	61685f32 	.inst	0x61685f32 ; undefined
    1218:	656c646e 	fnmls	z14.h, p1/m, z3.h, z12.h
    121c:	00000072 	udf	#114
    1220:	00560000 	.inst	0x00560000 ; undefined
    1224:	125c0000 	.inst	0x125c0000 ; undefined
    1228:	00004020 	udf	#16416
    122c:	73020000 	.inst	0x73020000 ; undefined
    1230:	6f727265 	fcmla	v5.8h, v19.8h, v18.h[1], #270
    1234:	6c655f72 	ldnp	d18, d23, [x27, #-432]
    1238:	61685f32 	.inst	0x61685f32 ; undefined
    123c:	656c646e 	fnmls	z14.h, p1/m, z3.h, z12.h
    1240:	00000072 	udf	#114
    1244:	005b0000 	.inst	0x005b0000 ; undefined
    1248:	12640000 	.inst	0x12640000 ; undefined
    124c:	00004020 	udf	#16416
    1250:	91000000 	add	x0, x0, #0x0
    1254:	05000000 	orr	z0.s, z0.s, #0x1
    1258:	c6080100 	.inst	0xc6080100 ; undefined
    125c:	01000004 	.inst	0x01000004 ; undefined
    1260:	000008cb 	udf	#2251
    1264:	40201800 	.inst	0x40201800 ; undefined
    1268:	00000000 	udf	#0
    126c:	40201f84 	.inst	0x40201f84 ; undefined
    1270:	00000000 	udf	#0
    1274:	74636576 	.inst	0x74636576 ; undefined
    1278:	745f726f 	.inst	0x745f726f ; undefined
    127c:	656c6261 	fnmls	z1.h, p0/m, z19.h, z12.h
    1280:	2f00732e 	.inst	0x2f00732e ; undefined
    1284:	656d6f68 	fnmls	z8.h, p3/m, z27.h, z13.h
    1288:	686f722f 	.inst	0x686f722f ; undefined
    128c:	2f687469 	.inst	0x2f687469 ; undefined
    1290:	2f6e7566 	.inst	0x2f6e7566 ; undefined
    1294:	696e694d 	ldpsw	x13, x26, [x10, #-144]
    1298:	2d534f2d 	ldp	s13, s19, [x25, #152]
    129c:	00766564 	.inst	0x00766564 ; undefined
    12a0:	6e756255 	rsubhn2	v21.8h, v18.4s, v21.4s
    12a4:	63207574 	.inst	0x63207574 ; undefined
    12a8:	676e616c 	.inst	0x676e616c ; undefined
    12ac:	72657620 	.inst	0x72657620 ; undefined
    12b0:	6e6f6973 	.inst	0x6e6f6973 ; undefined
    12b4:	2e383120 	usubw	v0.8h, v9.8h, v24.8b
    12b8:	20332e31 	.inst	0x20332e31 ; undefined
    12bc:	62753128 	.inst	0x62753128 ; undefined
    12c0:	75746e75 	.inst	0x75746e75 ; undefined
    12c4:	01002931 	.inst	0x01002931 ; undefined
    12c8:	65760280 	fmla	z0.h, p0/m, z20.h, z22.h
    12cc:	726f7463 	.inst	0x726f7463 ; undefined
    12d0:	6261745f 	.inst	0x6261745f ; undefined
    12d4:	0000656c 	udf	#25964
    12d8:	04000000 	add	z0.b, p0/m, z0.b, z0.b
    12dc:	00000000 	udf	#0
    12e0:	00402018 	.inst	0x00402018 ; undefined
    12e4:	00000000 	udf	#0
    12e8:	000001c5 	udf	#453
    12ec:	08010005 	stxrb	w1, w5, [x0]
    12f0:	000004e7 	udf	#1255
    12f4:	001d0001 	.inst	0x001d0001 ; undefined
    12f8:	0002d001 	.inst	0x0002d001 ; undefined
    12fc:	00095d00 	.inst	0x00095d00 ; undefined
    1300:	b4080200 	cbz	x0, 11340 <_binary_shell_bin_size+0x10ec7>
    1304:	68000000 	.inst	0x68000000 ; undefined
    1308:	40000004 	.inst	0x40000004 ; undefined
    130c:	02000009 	.inst	0x02000009 ; undefined
    1310:	00000031 	udf	#49
    1314:	a1020f00 	ld1b	{z0.b, z8.b}, pn11/z, [x24, x2]
    1318:	003d0300 	.inst	0x003d0300 ; NYI
    131c:	41040000 	.inst	0x41040000 ; undefined
    1320:	17000000 	b	fffffffffc001320 <__free_ram_end+0xffffffffb9dce320>
    1324:	08030500 	stxrb	w3, w0, [x8]
    1328:	08040601 	stxrb	w4, w1, [x16]
    132c:	004f0207 	.inst	0x004f0207 ; undefined
    1330:	10000000 	adr	x0, 1330 <_binary_shell_bin_size+0xeb7>
    1334:	0301a102 	.inst	0x0301a102 ; undefined
    1338:	0000003d 	udf	#61
    133c:	00004104 	udf	#16644
    1340:	02000f00 	.inst	0x02000f00 ; undefined
    1344:	0000004f 	udf	#79
    1348:	a1021100 	ld1b	{z0.b, z8.b}, pn12/z, [x8, x2]
    134c:	006f0202 	.inst	0x006f0202 ; undefined
    1350:	12000000 	and	w0, w0, #0x1
    1354:	0303a102 	.inst	0x0303a102 ; undefined
    1358:	0000003d 	udf	#61
    135c:	00004104 	udf	#16644
    1360:	02000a00 	.inst	0x02000a00 ; undefined
    1364:	00000085 	udf	#133
    1368:	a1021300 	ld1b	{z0.b, z8.b}, pn12/z, [x24, x2]
    136c:	003d0304 	.inst	0x003d0304 ; NYI
    1370:	41040000 	.inst	0x41040000 ; undefined
    1374:	0c000000 	st4	{v0.8b-v3.8b}, [x0]
    1378:	009b0200 	.inst	0x009b0200 ; undefined
    137c:	14000000 	b	137c <_binary_shell_bin_size+0xf03>
    1380:	0305a102 	.inst	0x0305a102 ; undefined
    1384:	0000003d 	udf	#61
    1388:	00004104 	udf	#16644
    138c:	02000b00 	.inst	0x02000b00 ; undefined
    1390:	000000b1 	udf	#177
    1394:	a1021500 	ld1b	{z0.b, z8.b}, pn13/z, [x8, x2]
    1398:	003d0306 	.inst	0x003d0306 ; NYI
    139c:	41040000 	.inst	0x41040000 ; undefined
    13a0:	24000000 	cmphs	p0.b, p0/z, z0.b, z0.b
    13a4:	00c70200 	.inst	0x00c70200 ; undefined
    13a8:	15000000 	b	40013a8 <_binary_shell_bin_size+0x4000f2f>
    13ac:	0307a102 	.inst	0x0307a102 ; undefined
    13b0:	0000003d 	udf	#61
    13b4:	00004104 	udf	#16644
    13b8:	07000700 	.inst	0x07000700 ; undefined
    13bc:	00009408 	udf	#37896
    13c0:	066d0100 	.inst	0x066d0100 ; undefined
    13c4:	00080400 	.inst	0x00080400 ; undefined
    13c8:	bc04000f 	stur	s15, [x0, #64]
    13cc:	08000001 	stxrb	w0, w1, [x0]
    13d0:	04001201 	add	z1.b, p4/m, z1.b, z16.b
    13d4:	000001bc 	udf	#444
    13d8:	00130209 	.inst	0x00130209 ; undefined
    13dc:	0001bc07 	.inst	0x0001bc07 ; undefined
    13e0:	00140a00 	.inst	0x00140a00 ; undefined
    13e4:	0001bc0a 	.inst	0x0001bc0a ; undefined
    13e8:	00150a00 	.inst	0x00150a00 ; undefined
    13ec:	0001bc0d 	.inst	0x0001bc0d ; undefined
    13f0:	014f0b00 	.inst	0x014f0b00 ; undefined
    13f4:	0c090000 	.inst	0x0c090000 ; undefined
    13f8:	0000014f 	udf	#335
    13fc:	51010d0a 	sub	w10, w8, #0x43
    1400:	00008302 	udf	#33538
    1404:	00014f0c 	.inst	0x00014f0c ; undefined
    1408:	010d0b00 	.inst	0x010d0b00 ; undefined
    140c:	00850251 	.inst	0x00850251 ; undefined
    1410:	014f0c00 	.inst	0x014f0c00 ; undefined
    1414:	0d0c0000 	.inst	0x0d0c0000 ; undefined
    1418:	84025101 	ld1b	{z1.s}, p4/z, [x8, z2.s, uxtw]
    141c:	4f0b0000 	.inst	0x4f0b0000 ; undefined
    1420:	0d000001 	st1	{v1.b}[0], [x0]
    1424:	00014f0b 	.inst	0x00014f0b ; undefined
    1428:	4f0c0e00 	.inst	0x4f0c0e00 ; undefined
    142c:	0f000001 	.inst	0x0f000001 ; undefined
    1430:	0152010d 	.inst	0x0152010d ; undefined
    1434:	0e000045 	tbl	v5.8b, {v2.16b}, v0.8b
    1438:	0f1c0105 	.inst	0x0f1c0105 ; undefined
    143c:	0000015a 	udf	#346
    1440:	5f110010 	.inst	0x5f110010 ; undefined
    1444:	12000001 	and	w1, w0, #0x1
    1448:	0000003d 	udf	#61
    144c:	00041013 	.inst	0x00041013 ; undefined
    1450:	6f010000 	.inst	0x6f010000 ; undefined
    1454:	13190007 	sbfiz	w7, w0, #7, #1
    1458:	00000411 	udf	#1041
    145c:	086f0100 	.inst	0x086f0100 ; undefined
    1460:	12131f00 	and	w0, w24, #0x1fe000
    1464:	00000004 	udf	#4
    1468:	00096f01 	.inst	0x00096f01 ; undefined
    146c:	04131325 	umulh	z5.b, p4/m, z5.b, z25.b
    1470:	01000000 	.inst	0x01000000 ; undefined
    1474:	2b000a6f 	adds	w15, w19, w0, lsl #2
    1478:	00041413 	.inst	0x00041413 ; undefined
    147c:	6f010000 	.inst	0x6f010000 ; undefined
    1480:	1332000b 	.inst	0x1332000b ; undefined
    1484:	00000415 	udf	#1045
    1488:	0c6f0100 	.inst	0x0c6f0100 ; undefined
    148c:	16133800 	b	fffffffff84cf48c <__free_ram_end+0xffffffffb629c48c>
    1490:	00000004 	udf	#4
    1494:	000d6f01 	.inst	0x000d6f01 ; undefined
    1498:	0417133e 	.inst	0x0417133e ; undefined
    149c:	01000000 	.inst	0x01000000 ; undefined
    14a0:	44000e6f 	.inst	0x44000e6f ; undefined
    14a4:	0001c414 	.inst	0x0001c414 ; undefined
    14a8:	07011100 	.inst	0x07011100 ; undefined
    14ac:	08071005 	stxrb	w7, w5, [x0]
	...

Disassembly of section .debug_rnglists:

0000000000000000 <.debug_rnglists>:
   0:	0000015a 	udf	#346
   4:	00080005 	.inst	0x00080005 ; undefined
   8:	00000013 	udf	#19
   c:	0000004c 	udf	#76
  10:	00000059 	udf	#89
  14:	00000066 	udf	#102
  18:	00000073 	udf	#115
  1c:	00000080 	udf	#128
  20:	0000008d 	udf	#141
  24:	0000009a 	udf	#154
  28:	000000b6 	udf	#182
  2c:	000000c3 	udf	#195
  30:	000000d0 	udf	#208
  34:	000000dd 	udf	#221
  38:	000000ea 	udf	#234
  3c:	000000f7 	udf	#247
  40:	00000104 	udf	#260
  44:	00000111 	udf	#273
  48:	0000011e 	udf	#286
  4c:	00000130 	udf	#304
  50:	0000013d 	udf	#317
  54:	0000014a 	udf	#330
  58:	a0042401 	ldnt1h	{z0.h-z1.h}, pn9/z, [x0, x4, lsl #1]
  5c:	0404ec04 	msb	z4.b, p3/m, z4.b, z0.b
  60:	059c04f4 	mov	z20.s, p12/z, #39
  64:	04240100 	add	z0.b, z8.b, z4.b
  68:	04ec04a0 	sub	z0.d, z5.d, z12.d
  6c:	f804f404 	str	x4, [x0], #79
  70:	24010004 	cmphs	p4.b, p0/z, z0.b, z1.b
  74:	8005b404 	.inst	0x8005b404 ; undefined
  78:	06880406 	.inst	0x06880406 ; undefined
  7c:	010006b0 	.inst	0x010006b0 ; undefined
  80:	05b40424 	zip2	z4.q, z1.q, z20.q
  84:	88040680 	stxr	w4, w0, [x20]
  88:	00068c06 	.inst	0x00068c06 ; undefined
  8c:	84042401 	ldff1sb	{z1.s}, p1/z, [x0, z4.s, uxtw]
  90:	0408b008 	.inst	0x0408b008 ; undefined
  94:	0c8808b8 	st4	{v24.2s-v27.2s}, [x5], x8
  98:	04240100 	add	z0.b, z8.b, z4.b
  9c:	08b00884 	.inst	0x08b00884 ; undefined
  a0:	8808b804 	stlxr	w8, w4, [x0]
  a4:	2401000c 	cmphs	p12.b, p0/z, z0.b, z1.b
  a8:	e80fe404 	.inst	0xe80fe404 ; undefined
  ac:	0fec040f 	.inst	0x0fec040f ; undefined
  b0:	f8040ff0 	str	x16, [sp, #64]!
  b4:	0410800f 	asr	z15.b, p0/m, z15.b, z0.b
  b8:	108c1084 	adr	x4, fffffffffff182c8 <__free_ram_end+0xffffffffbdce52c8>
  bc:	d810a404 	prfm	pldl3keep, 2153c <_binary_shell_bin_size+0x210c3>
  c0:	24010010 	cmphi	p0.b, p0/z, z0.b, z1.b
  c4:	c411d004 	ldnt1b	{z4.d}, p4/z, [z0.d, x17]
  c8:	13fc0412 	.inst	0x13fc0412 ; undefined
  cc:	01001498 	.inst	0x01001498 ; undefined
  d0:	11e00424 	.inst	0x11e00424 ; undefined
  d4:	fc0412b4 	stur	d20, [x21, #65]
  d8:	00149813 	.inst	0x00149813 ; undefined
  dc:	e0042401 	ld1b	{za0h.b[w13, 1]}, p1/z, [x0, x4]
  e0:	04128411 	.inst	0x04128411 ; undefined
  e4:	149813fc 	b	26050d4 <_binary_shell_bin_size+0x2604c5b>
  e8:	04240100 	add	z0.b, z8.b, z4.b
  ec:	139c12d8 	extr	w24, w22, w28, #4
  f0:	fc13e004 	stur	d4, [x0, #-194]
  f4:	24010013 	cmphi	p3.b, p0/z, z0.b, z1.b
  f8:	9012d804 	adrp	x4, 25b00000 <_binary_shell_bin_size+0x25affb87>
  fc:	13e00413 	.inst	0x13e00413 ; undefined
 100:	010013fc 	.inst	0x010013fc ; undefined
 104:	12d80424 	.inst	0x12d80424 ; undefined
 108:	e00412fc 	.inst	0xe00412fc ; undefined
 10c:	0013fc13 	.inst	0x0013fc13 ; undefined
 110:	d0042401 	adrp	x1, 8482000 <_binary_shell_bin_size+0x8481b87>
 114:	0414e014 	msb	z20.b, p0/m, z20.b, z0.b
 118:	14f014ec 	b	3c054c8 <_binary_shell_bin_size+0x3c0504f>
 11c:	04240100 	add	z0.b, z8.b, z4.b
 120:	14e014d0 	b	3805460 <_binary_shell_bin_size+0x3804fe7>
 124:	f014ec04 	adrp	x4, 29d83000 <_binary_shell_bin_size+0x29d82b87>
 128:	24010014 	cmphi	p4.b, p0/z, z0.b, z1.b
 12c:	e4179c04 	st1b	{z4.d}, p7, [x0, z23.d, uxtw]
 130:	17ec0417 	b	ffffffffffb0118c <__free_ram_end+0xffffffffbd8ce18c>
 134:	bc0417f4 	str	s20, [sp], #65
 138:	0018e418 	.inst	0x0018e418 ; undefined
 13c:	c4042401 	ldff1sb	{z1.d}, p1/z, [x0, z4.d, uxtw]
 140:	0417d417 	mad	z23.b, p5/m, z23.b, z0.b
 144:	17e417e0 	b	ffffffffff9060c4 <__free_ram_end+0xffffffffbd6d30c4>
 148:	04240100 	add	z0.b, z8.b, z4.b
 14c:	17d417c4 	b	ffffffffff50605c <__free_ram_end+0xffffffffbd2d305c>
 150:	e417e004 	stnt1b	{z4.b}, p0, [x0, #7, mul vl]
 154:	24030017 	cmphi	p7.b, p0/z, z0.b, z3.b
 158:	7c031ae4 	.inst	0x7c031ae4 ; undefined
 15c:	00440018 	.inst	0x00440018 ; undefined
 160:	00050000 	.inst	0x00050000 ; undefined
 164:	00040008 	.inst	0x00040008 ; undefined
 168:	00100000 	.inst	0x00100000 ; undefined
 16c:	001b0000 	.inst	0x001b0000 ; undefined
 170:	00260000 	.inst	0x00260000 ; NYI
 174:	00310000 	.inst	0x00310000 ; NYI
 178:	f8040000 	stur	x0, [x0, #64]
 17c:	0405a404 	.inst	0x0405a404 ; undefined
 180:	06e405fc 	.inst	0x06e405fc ; undefined
 184:	05b40400 	zip2	z0.q, z0.q, z20.q
 188:	900405d8 	adrp	x24, 80b8000 <_binary_shell_bin_size+0x80b7b87>
 18c:	0007d007 	.inst	0x0007d007 ; undefined
 190:	bc07ac04 	str	s4, [x0, #122]!
 194:	07c80407 	.inst	0x07c80407 ; undefined
 198:	040007d0 	add	z16.b, p1/m, z16.b, z30.b
 19c:	05fc05d8 	.inst	0x05fc05d8 ; undefined
 1a0:	9006e404 	adrp	x4, dc80000 <_binary_shell_bin_size+0xdc7fb87>
 1a4:	Address 0x1a4 is out of bounds.


Disassembly of section .debug_str_offsets:

0000000000000000 <.debug_str_offsets>:
   0:	0000020c 	udf	#524
   4:	00000005 	udf	#5
   8:	000001c9 	udf	#457
   c:	0000002f 	udf	#47
  10:	00000066 	udf	#102
  14:	0000028c 	udf	#652
  18:	000003bf 	udf	#959
  1c:	000000f6 	udf	#246
  20:	00000000 	udf	#0
  24:	00000349 	udf	#841
  28:	0000010e 	udf	#270
  2c:	0000046c 	udf	#1132
  30:	00000291 	udf	#657
  34:	00000295 	udf	#661
  38:	00000167 	udf	#359
  3c:	000002ae 	udf	#686
  40:	000003d3 	udf	#979
  44:	000002ea 	udf	#746
  48:	000002f5 	udf	#757
  4c:	00000269 	udf	#617
  50:	000003f7 	udf	#1015
  54:	00000116 	udf	#278
  58:	000004b8 	udf	#1208
  5c:	000004e7 	udf	#1255
  60:	0000021b 	udf	#539
  64:	000001f0 	udf	#496
  68:	00000352 	udf	#850
  6c:	00000228 	udf	#552
  70:	00000150 	udf	#336
  74:	000000bc 	udf	#188
  78:	000003a1 	udf	#929
  7c:	00000038 	udf	#56
  80:	000004ee 	udf	#1262
  84:	0000035f 	udf	#863
  88:	0000031e 	udf	#798
  8c:	0000016d 	udf	#365
  90:	0000019b 	udf	#411
  94:	000000c7 	udf	#199
  98:	00000101 	udf	#257
  9c:	00000472 	udf	#1138
  a0:	00000299 	udf	#665
  a4:	00000157 	udf	#343
  a8:	00000104 	udf	#260
  ac:	00000362 	udf	#866
  b0:	000004f1 	udf	#1265
  b4:	00000172 	udf	#370
  b8:	00000368 	udf	#872
  bc:	000002c2 	udf	#706
  c0:	000000cc 	udf	#204
  c4:	000001b1 	udf	#433
  c8:	00000138 	udf	#312
  cc:	00000499 	udf	#1177
  d0:	000002a3 	udf	#675
  d4:	000004bf 	udf	#1215
  d8:	000002a0 	udf	#672
  dc:	000004f9 	udf	#1273
  e0:	00000083 	udf	#131
  e4:	0000049c 	udf	#1180
  e8:	000003ff 	udf	#1023
  ec:	00000179 	udf	#377
  f0:	000002fb 	udf	#763
  f4:	0000003d 	udf	#61
  f8:	00000205 	udf	#517
  fc:	00000403 	udf	#1027
 100:	00000106 	udf	#262
 104:	00000163 	udf	#355
 108:	00000209 	udf	#521
 10c:	000001fa 	udf	#506
 110:	0000013b 	udf	#315
 114:	00000277 	udf	#631
 118:	00000086 	udf	#134
 11c:	000002ff 	udf	#767
 120:	000001b4 	udf	#436
 124:	00000041 	udf	#65
 128:	0000008a 	udf	#138
 12c:	00000440 	udf	#1088
 130:	00000045 	udf	#69
 134:	0000027b 	udf	#635
 138:	0000010a 	udf	#266
 13c:	00000448 	udf	#1096
 140:	0000008e 	udf	#142
 144:	00000049 	udf	#73
 148:	00000303 	udf	#771
 14c:	00000013 	udf	#19
 150:	0000017d 	udf	#381
 154:	000000cf 	udf	#207
 158:	000003db 	udf	#987
 15c:	0000025a 	udf	#602
 160:	00000321 	udf	#801
 164:	00000231 	udf	#561
 168:	000002c4 	udf	#708
 16c:	0000011e 	udf	#286
 170:	00000407 	udf	#1031
 174:	0000027f 	udf	#639
 178:	00000240 	udf	#576
 17c:	00000092 	udf	#146
 180:	000003a4 	udf	#932
 184:	000002b1 	udf	#689
 188:	00000054 	udf	#84
 18c:	000001a0 	udf	#416
 190:	0000018d 	udf	#397
 194:	0000040d 	udf	#1037
 198:	00000413 	udf	#1043
 19c:	00000419 	udf	#1049
 1a0:	00000422 	udf	#1058
 1a4:	0000020d 	udf	#525
 1a8:	0000049f 	udf	#1183
 1ac:	0000024d 	udf	#589
 1b0:	0000030b 	udf	#779
 1b4:	000004c2 	udf	#1218
 1b8:	00000377 	udf	#887
 1bc:	00000060 	udf	#96
 1c0:	0000032a 	udf	#810
 1c4:	000001a5 	udf	#421
 1c8:	000003b3 	udf	#947
 1cc:	000002bd 	udf	#701
 1d0:	000004cb 	udf	#1227
 1d4:	000002ca 	udf	#714
 1d8:	00000479 	udf	#1145
 1dc:	0000033a 	udf	#826
 1e0:	000003e1 	udf	#993
 1e4:	00000256 	udf	#598
 1e8:	00000216 	udf	#534
 1ec:	000000da 	udf	#218
 1f0:	00000314 	udf	#788
 1f4:	0000009d 	udf	#157
 1f8:	000003b8 	udf	#952
 1fc:	00000483 	udf	#1155
 200:	000004fc 	udf	#1276
 204:	00000487 	udf	#1159
 208:	000003ec 	udf	#1004
 20c:	0000013f 	udf	#319
 210:	000000b4 	udf	#180
 214:	00000005 	udf	#5
 218:	000001c9 	udf	#457
 21c:	00000143 	udf	#323
 220:	00000066 	udf	#102
 224:	0000028c 	udf	#652
 228:	000003bf 	udf	#959
 22c:	00000269 	udf	#617
 230:	000003f7 	udf	#1015
 234:	000004f1 	udf	#1265
 238:	00000172 	udf	#370
 23c:	00000299 	udf	#665
 240:	000001fe 	udf	#510
 244:	000003f0 	udf	#1008
 248:	00000295 	udf	#661
 24c:	00000472 	udf	#1138
 250:	00000062 	udf	#98
 254:	00000265 	udf	#613
 258:	0000042c 	udf	#1068
 25c:	000001aa 	udf	#426
 260:	00000104 	udf	#260
 264:	00000352 	udf	#850
 268:	00000228 	udf	#552
 26c:	00000150 	udf	#336
 270:	0000014c 	udf	#332
 274:	00000196 	udf	#406
 278:	000000e4 	udf	#228
 27c:	00000198 	udf	#408
 280:	00000380 	udf	#896
 284:	000004ff 	udf	#1279
 288:	000002a6 	udf	#678
 28c:	0000044d 	udf	#1101
 290:	00000340 	udf	#832
 294:	00000505 	udf	#1285
 298:	00000025 	udf	#37
 29c:	000000aa 	udf	#170
 2a0:	0000042e 	udf	#1070
 2a4:	0000048d 	udf	#1165
 2a8:	000001b8 	udf	#440
 2ac:	000002d2 	udf	#722
 2b0:	00000491 	udf	#1169
 2b4:	00000060 	udf	#96
 2b8:	000000b4 	udf	#180
 2bc:	00000000 	udf	#0
 2c0:	00000444 	udf	#1092
 2c4:	000001c2 	udf	#450
 2c8:	0000005c 	udf	#92
 2cc:	00000005 	udf	#5
 2d0:	000001c9 	udf	#457
 2d4:	00000456 	udf	#1110
 2d8:	00000066 	udf	#102
 2dc:	0000028c 	udf	#652
 2e0:	000003bf 	udf	#959
 2e4:	00000472 	udf	#1138
 2e8:	00000013 	udf	#19
 2ec:	000004a8 	udf	#1192
 2f0:	00000383 	udf	#899
 2f4:	00000392 	udf	#914
 2f8:	000002d8 	udf	#728
 2fc:	000000e6 	udf	#230
 300:	00000129 	udf	#297
 304:	0000045d 	udf	#1117
 308:	000004d5 	udf	#1237
 30c:	00000483 	udf	#1155
 310:	00000000 	udf	#0
 314:	00000349 	udf	#841
 318:	000003ec 	udf	#1004
 31c:	000004fc 	udf	#1276
 320:	000001ac 	udf	#428
 324:	0000013f 	udf	#319

Disassembly of section .debug_str:

0000000000000000 <.debug_str>:
   0:	69736e75 	ldpsw	x21, x27, [x19, #-104]
   4:	64656e67 	.inst	0x64656e67 ; undefined
   8:	6e6f6c20 	umin	v0.8h, v1.8h, v15.8h
   c:	6f6c2067 	umlal2	v7.4s, v3.8h, v12.h[2]
  10:	6800676e 	.inst	0x6800676e ; undefined
  14:	6c646e61 	ldnp	d1, d27, [x19, #-448]
  18:	61645f65 	.inst	0x61645f65 ; undefined
  1c:	615f6174 	.inst	0x615f6174 ; undefined
  20:	74726f62 	.inst	0x74726f62 ; undefined
  24:	765f5f00 	.inst	0x765f5f00 ; undefined
  28:	666f5f72 	.inst	0x666f5f72 ; undefined
  2c:	6b007366 	subs	w6, w27, w0, lsl #28
  30:	656e7265 	fnmls	z5.h, p4/m, z19.h, z14.h
  34:	00632e6c 	.inst	0x00632e6c ; undefined
  38:	676e6f6c 	.inst	0x676e6f6c ; undefined
  3c:	33315800 	.inst	0x33315800 ; undefined
  40:	35325800 	cbnz	w0, 64b40 <_binary_shell_bin_size+0x646c7>
  44:	38325800 	strb	w0, [x0, w18, uxtw #0]
  48:	61727400 	.inst	0x61727400 ; undefined
  4c:	72665f70 	.inst	0x72665f70 ; undefined
  50:	00656d61 	.inst	0x00656d61 ; undefined
  54:	6e72656b 	umax	v11.8h, v11.8h, v18.8h
  58:	6d5f6c65 	ldp	d5, d27, [x3, #496]
  5c:	006e6961 	.inst	0x006e6961 ; undefined
  60:	73640069 	.inst	0x73640069 ; undefined
  64:	682f0074 	.inst	0x682f0074 ; undefined
  68:	2f656d6f 	.inst	0x2f656d6f ; undefined
  6c:	69686f72 	ldpsw	x18, x27, [x27, #-192]
  70:	662f6874 	.inst	0x662f6874 ; undefined
  74:	4d2f6e75 	.inst	0x4d2f6e75 ; undefined
  78:	2d696e69 	ldp	s9, s27, [x19, #-184]
  7c:	642d534f 	.inst	0x642d534f ; undefined
  80:	58007665 	ldr	x5, f4c <_binary_shell_bin_size+0xad3>
  84:	32580038 	.inst	0x32580038 ; undefined
  88:	32580032 	.inst	0x32580032 ; undefined
  8c:	6c650036 	ldnp	d22, d0, [x1, #-432]
  90:	73750072 	.inst	0x73750072 ; undefined
  94:	655f7265 	fcmeq	p5.h, p4/z, z19.h, z31.h
  98:	7972746e 	ldrh	w14, [x3, #6458]
  9c:	61747300 	.inst	0x61747300 ; undefined
  a0:	625f6b63 	.inst	0x625f6b63 ; undefined
  a4:	6f74746f 	uqshl	v15.2d, v3.2d, #52
  a8:	5f5f006d 	.inst	0x5f5f006d ; undefined
  ac:	6c5f6176 	ldnp	d22, d24, [x11, #496]
  b0:	00747369 	.inst	0x00747369 ; undefined
  b4:	72617473 	.inst	0x72617473 ; undefined
  b8:	00646574 	.inst	0x00646574 ; undefined
  bc:	6f6f6275 	umlsl2	v21.4s, v19.8h, v15.h[2]
  c0:	61635f74 	.inst	0x61635f74 ; undefined
  c4:	72006c6c 	ands	w12, w3, #0xfffffff
  c8:	0030785f 	.inst	0x0030785f ; NYI
  cc:	63003058 	.inst	0x63003058 ; undefined
  d0:	65727275 	fnmls	z21.h, p4/m, z19.h, z18.h
  d4:	655f746e 	fcmeq	p14.h, p5/z, z3.h, z31.h
  d8:	6f63006c 	mla	v12.8h, v3.8h, v3.h[2]
  dc:	735f7970 	.inst	0x735f7970 ; undefined
  e0:	00657a69 	.inst	0x00657a69 ; undefined
  e4:	61680070 	.inst	0x61680070 ; undefined
  e8:	656c646e 	fnmls	z14.h, p1/m, z3.h, z12.h
  ec:	6e79735f 	uabdl2	v31.4s, v26.8h, v25.8h
  f0:	6c655f63 	ldnp	d3, d23, [x27, #-432]
  f4:	656e0032 	fmla	z18.h, p0/m, z1.h, z14.h
  f8:	705f7478 	adr	x24, bef87 <_binary_shell_bin_size+0xbeb0e>
  fc:	72646461 	.inst	0x72646461 ; undefined
 100:	00317800 	.inst	0x00317800 ; NYI
 104:	3158006e 	adds	w14, w3, #0x600, lsl #12
 108:	33580036 	.inst	0x33580036 ; undefined
 10c:	61700030 	.inst	0x61700030 ; undefined
 110:	5f726464 	.inst	0x5f726464 ; undefined
 114:	72700074 	.inst	0x72700074 ; undefined
 118:	7365636f 	.inst	0x7365636f ; undefined
 11c:	6d6d0073 	ldp	d19, d0, [x3, #-304]
 120:	6e655f75 	uqrshl	v21.8h, v27.8h, v5.8h
 124:	656c6261 	fnmls	z1.h, p0/m, z19.h, z12.h
 128:	6e616800 	fcvtxn2	v0.4s, v0.2d
 12c:	5f656c64 	.inst	0x5f656c64 ; undefined
 130:	5f717269 	sqdmlsl	s9, h19, v1.h[3]
 134:	00326c65 	.inst	0x00326c65 ; NYI
 138:	58003258 	ldr	x24, 780 <_binary_shell_bin_size+0x307>
 13c:	69003032 	stgp	x18, x12, [x1]
 140:	63007373 	.inst	0x63007373 ; undefined
 144:	6f6d6d6f 	.inst	0x6f6d6d6f ; undefined
 148:	00632e6e 	.inst	0x00632e6e ; undefined
 14c:	00667562 	.inst	0x00667562 ; undefined
 150:	657a6973 	fnmls	z19.h, p2/m, z11.h, z26.h
 154:	6100745f 	.inst	0x6100745f ; undefined
 158:	636f6c6c 	.inst	0x636f6c6c ; undefined
 15c:	6761705f 	.inst	0x6761705f ; undefined
 160:	58007365 	ldr	x5, fcc <_binary_shell_bin_size+0xb53>
 164:	73003731 	.inst	0x73003731 ; undefined
 168:	65746174 	fnmls	z20.h, p0/m, z11.h, z20.h
 16c:	785f7200 	ldurh	w0, [x16, #-9]
 170:	656d0037 	fmla	z23.h, p0/m, z1.h, z13.h
 174:	7970636d 	ldrh	w13, [x27, #6192]
 178:	31315800 	adds	w0, w0, #0xc56
 17c:	696e6900 	ldpsw	x0, x26, [x8, #-144]
 180:	78655f74 	.inst	0x78655f74 ; undefined
 184:	74706563 	.inst	0x74706563 ; undefined
 188:	736e6f69 	.inst	0x736e6f69 ; undefined
 18c:	5f306c00 	.inst	0x5f306c00 ; undefined
 190:	6c626174 	ldnp	d20, d24, [x11, #-480]
 194:	00630065 	.inst	0x00630065 ; undefined
 198:	72003173 	ands	w19, w11, #0x1fff
 19c:	0032785f 	.inst	0x0032785f ; NYI
 1a0:	746f6f62 	.inst	0x746f6f62 ; undefined
 1a4:	6f727000 	fcmla	v0.8h, v0.8h, v18.h[1], #270
 1a8:	00730063 	.inst	0x00730063 ; undefined
 1ac:	63736664 	.inst	0x63736664 ; undefined
 1b0:	00315800 	.inst	0x00315800 ; NYI
 1b4:	00343258 	.inst	0x00343258 ; NYI
 1b8:	6e67616d 	rsubhn2	v13.8h, v11.4s, v7.4s
 1bc:	64757469 	.inst	0x64757469 ; undefined
 1c0:	696e0065 	ldpsw	x5, x0, [x3, #-144]
 1c4:	656c6262 	fnmls	z2.h, p0/m, z19.h, z12.h
 1c8:	75625500 	.inst	0x75625500 ; undefined
 1cc:	2075746e 	.inst	0x2075746e ; undefined
 1d0:	6e616c63 	umin	v3.8h, v3.8h, v1.8h
 1d4:	65762067 	fmls	z7.h, p0/m, z3.h, z22.h
 1d8:	6f697372 	fcmla	v18.8h, v27.8h, v9.h[1], #270
 1dc:	3831206e 	ldeorb	w17, w14, [x3]
 1e0:	332e312e 	.inst	0x332e312e ; undefined
 1e4:	75312820 	.inst	0x75312820 ; undefined
 1e8:	746e7562 	.inst	0x746e7562 ; undefined
 1ec:	00293175 	.inst	0x00293175 ; NYI
 1f0:	656c6469 	fnmls	z9.h, p1/m, z3.h, z12.h
 1f4:	6f72705f 	fcmla	v31.8h, v2.8h, v18.h[1], #270
 1f8:	31580063 	adds	w3, w3, #0x600, lsl #12
 1fc:	74730039 	.inst	0x74730039 ; undefined
 200:	79706372 	ldrh	w18, [x27, #6192]
 204:	34315800 	cbz	w0, 62d04 <_binary_shell_bin_size+0x6288b>
 208:	38315800 	strb	w0, [x0, w17, uxtw #0]
 20c:	5f316c00 	.inst	0x5f316c00 ; undefined
 210:	6c626174 	ldnp	d20, d24, [x11, #-480]
 214:	61700065 	.inst	0x61700065 ; undefined
 218:	63006567 	.inst	0x63006567 ; undefined
 21c:	65727275 	fnmls	z21.h, p4/m, z19.h, z18.h
 220:	705f746e 	adr	x14, bf0af <_binary_shell_bin_size+0xbec36>
 224:	00636f72 	.inst	0x00636f72 ; undefined
 228:	746e6975 	.inst	0x746e6975 ; undefined
 22c:	745f3233 	.inst	0x745f3233 ; undefined
 230:	69777300 	ldpsw	x0, x28, [x24, #-72]
 234:	5f686374 	.inst	0x5f686374 ; undefined
 238:	746e6f63 	.inst	0x746e6f63 ; undefined
 23c:	00747865 	.inst	0x00747865 ; undefined
 240:	636f7270 	.inst	0x636f7270 ; undefined
 244:	655f625f 	fcmne	p15.h, p0/z, z18.h, z31.h
 248:	7972746e 	ldrh	w14, [x3, #6458]
 24c:	5f326c00 	.inst	0x5f326c00 ; undefined
 250:	6c626174 	ldnp	d20, d24, [x11, #-480]
 254:	666f0065 	.inst	0x666f0065 ; undefined
 258:	65730066 	fmla	z6.h, p0/m, z3.h, z19.h
 25c:	5f707574 	sqshl	d20, d11, #48
 260:	74636576 	.inst	0x74636576 ; undefined
 264:	63727300 	.inst	0x63727300 ; undefined
 268:	736e7500 	.inst	0x736e7500 ; undefined
 26c:	656e6769 	fnmls	z9.h, p1/m, z27.h, z14.h
 270:	68632064 	.inst	0x68632064 ; undefined
 274:	58007261 	ldr	x1, 10c0 <_binary_shell_bin_size+0xc47>
 278:	58003132 	ldr	x18, 89c <_binary_shell_bin_size+0x423>
 27c:	70003932 	adr	x18, 9a3 <_binary_shell_bin_size+0x52a>
 280:	5f636f72 	.inst	0x5f636f72 ; undefined
 284:	6e655f61 	uqrshl	v1.8h, v27.8h, v5.8h
 288:	00797274 	.inst	0x00797274 ; undefined
 28c:	72616863 	.inst	0x72616863 ; undefined
 290:	64697000 	.inst	0x64697000 ; undefined
 294:	746e6900 	.inst	0x746e6900 ; undefined
 298:	6d656d00 	ldp	d0, d27, [x8, #-432]
 29c:	00746573 	.inst	0x00746573 ; undefined
 2a0:	58003658 	ldr	x24, 968 <_binary_shell_bin_size+0x4ef>
 2a4:	5f5f0034 	.inst	0x5f5f0034 ; undefined
 2a8:	63617473 	.inst	0x63617473 ; undefined
 2ac:	7073006b 	adr	x11, e62bb <_binary_shell_bin_size+0xe5e42>
 2b0:	6e616800 	fcvtxn2	v0.4s, v0.2d
 2b4:	5f656c64 	.inst	0x5f656c64 ; undefined
 2b8:	70617274 	adr	x20, c3107 <_binary_shell_bin_size+0xc2c8e>
 2bc:	65727000 	fnmls	z0.h, p4/m, z0.h, z18.h
 2c0:	00660076 	.inst	0x00660076 ; undefined
 2c4:	616c6564 	.inst	0x616c6564 ; undefined
 2c8:	656e0079 	fmla	z25.h, p0/m, z3.h, z14.h
 2cc:	735f7478 	.inst	0x735f7478 ; undefined
 2d0:	61760070 	.inst	0x61760070 ; undefined
 2d4:	0065756c 	.inst	0x0065756c ; undefined
 2d8:	646e6168 	.inst	0x646e6168 ; undefined
 2dc:	735f656c 	.inst	0x735f656c ; undefined
 2e0:	6f727265 	fcmla	v5.8h, v19.8h, v18.h[1], #270
 2e4:	6c655f72 	ldnp	d18, d23, [x27, #-432]
 2e8:	61700031 	.inst	0x61700031 ; undefined
 2ec:	745f6567 	.inst	0x745f6567 ; undefined
 2f0:	656c6261 	fnmls	z1.h, p0/m, z19.h, z12.h
 2f4:	61747300 	.inst	0x61747300 ; undefined
 2f8:	58006b63 	ldr	x3, 1064 <_binary_shell_bin_size+0xbeb>
 2fc:	58003231 	ldr	x17, 940 <_binary_shell_bin_size+0x4c7>
 300:	73003332 	.inst	0x73003332 ; undefined
 304:	61637379 	.inst	0x61637379 ; undefined
 308:	6c006c6c 	stnp	d12, d27, [x3]
 30c:	6e695f32 	uqrshl	v18.8h, v25.8h, v9.8h
 310:	00786564 	.inst	0x00786564 ; undefined
 314:	616d6572 	.inst	0x616d6572 ; undefined
 318:	6e696e69 	umin	v9.8h, v19.8h, v9.8h
 31c:	37780067 	tbnz	w7, #15, 328 <_binary_shell_bin_size-0x151>
 320:	70616d00 	adr	x0, c30c3 <_binary_shell_bin_size+0xc2c4a>
 324:	6761705f 	.inst	0x6761705f ; undefined
 328:	61700065 	.inst	0x61700065 ; undefined
 32c:	745f6567 	.inst	0x745f6567 ; undefined
 330:	656c6261 	fnmls	z1.h, p0/m, z19.h, z12.h
 334:	7968705f 	ldrh	wzr, [x2, #5176]
 338:	6d690073 	ldp	d19, d0, [x3, #-368]
 33c:	00656761 	.inst	0x00656761 ; undefined
 340:	72765f5f 	.inst	0x72765f5f ; undefined
 344:	706f745f 	adr	xzr, df1cf <_binary_shell_bin_size+0xded56>
 348:	6e697500 	uabd	v0.8h, v8.8h, v9.8h
 34c:	5f343674 	.inst	0x5f343674 ; undefined
 350:	6e750074 	uaddl2	v20.4s, v3.8h, v21.8h
 354:	6e676973 	.inst	0x6e676973 ; undefined
 358:	69206465 	stgp	x5, x25, [x3, #-1024]
 35c:	7800746e 	strh	w14, [x3], #7
 360:	61700032 	.inst	0x61700032 ; undefined
 364:	00726464 	.inst	0x00726464 ; undefined
 368:	646e6168 	.inst	0x646e6168 ; undefined
 36c:	735f656c 	.inst	0x735f656c ; undefined
 370:	61637379 	.inst	0x61637379 ; undefined
 374:	6c006c6c 	stnp	d12, d27, [x3]
 378:	6e695f33 	uqrshl	v19.8h, v25.8h, v9.8h
 37c:	00786564 	.inst	0x00786564 ; undefined
 380:	68003273 	.inst	0x68003273 ; undefined
 384:	6c646e61 	ldnp	d1, d27, [x19, #-448]
 388:	72695f65 	.inst	0x72695f65 ; undefined
 38c:	6c655f71 	ldnp	d17, d23, [x27, #-432]
 390:	61680031 	.inst	0x61680031 ; undefined
 394:	656c646e 	fnmls	z14.h, p1/m, z3.h, z12.h
 398:	7169665f 	cmp	w18, #0xa59, lsl #12
 39c:	316c655f 	cmn	w10, #0xb19, lsl #12
 3a0:	00307800 	.inst	0x00307800 ; NYI
 3a4:	61657263 	.inst	0x61657263 ; undefined
 3a8:	705f6574 	adr	x20, bf057 <_binary_shell_bin_size+0xbebde>
 3ac:	65636f72 	fnmls	z18.h, p3/m, z27.h, z3.h
 3b0:	6e007373 	ext	v19.16b, v27.16b, v0.16b, #14
 3b4:	00747865 	.inst	0x00747865 ; undefined
 3b8:	655f7073 	fcmne	p3.h, p4/z, z3.h, z31.h
 3bc:	5f00306c 	.inst	0x5f00306c ; undefined
 3c0:	5252415f 	.inst	0x5252415f ; undefined
 3c4:	535f5941 	.inst	0x535f5941 ; undefined
 3c8:	5f455a49 	.inst	0x5f455a49 ; undefined
 3cc:	45505954 	usubwb	z20.h, z10.h, z16.b
 3d0:	76005f5f 	.inst	0x76005f5f ; undefined
 3d4:	72646461 	.inst	0x72646461 ; undefined
 3d8:	7300745f 	.inst	0x7300745f ; undefined
 3dc:	726c7463 	.inst	0x726c7463 ; undefined
 3e0:	616d6900 	.inst	0x616d6900 ; undefined
 3e4:	735f6567 	.inst	0x735f6567 ; undefined
 3e8:	00657a69 	.inst	0x00657a69 ; undefined
 3ec:	00726166 	.inst	0x00726166 ; undefined
 3f0:	63727473 	.inst	0x63727473 ; undefined
 3f4:	7500706d 	.inst	0x7500706d ; undefined
 3f8:	38746e69 	.inst	0x38746e69 ; undefined
 3fc:	5800745f 	ldr	xzr, 1284 <_binary_shell_bin_size+0xe0b>
 400:	58003031 	ldr	x17, a04 <_binary_shell_bin_size+0x58b>
 404:	79003531 	strh	w17, [x9, #26]
 408:	646c6569 	.inst	0x646c6569 ; undefined
 40c:	64617600 	.inst	0x64617600 ; undefined
 410:	66007264 	.inst	0x66007264 ; undefined
 414:	7367616c 	.inst	0x7367616c ; undefined
 418:	5f306c00 	.inst	0x5f306c00 ; undefined
 41c:	65646e69 	fnmls	z9.h, p3/m, z19.h, z4.h
 420:	656e0078 	fmla	z24.h, p0/m, z3.h, z14.h
 424:	61745f77 	.inst	0x61745f77 ; undefined
 428:	00656c62 	.inst	0x00656c62 ; undefined
 42c:	5f5f0064 	.inst	0x5f5f0064 ; undefined
 430:	6c697562 	ldnp	d2, d29, [x11, #-368]
 434:	5f6e6974 	.inst	0x5f6e6974 ; undefined
 438:	6c5f6176 	ldnp	d22, d24, [x11, #496]
 43c:	00747369 	.inst	0x00747369 ; undefined
 440:	00373258 	.inst	0x00373258 ; NYI
 444:	00646e65 	.inst	0x00646e65 ; undefined
 448:	72737073 	.inst	0x72737073 ; undefined
 44c:	675f5f00 	.inst	0x675f5f00 ; undefined
 450:	6f745f72 	.inst	0x6f745f72 ; undefined
 454:	65760070 	fmla	z16.h, p0/m, z3.h, z22.h
 458:	632e7463 	.inst	0x632e7463 ; undefined
 45c:	6e616800 	fcvtxn2	v0.4s, v0.2d
 460:	5f656c64 	.inst	0x5f656c64 ; undefined
 464:	5f716966 	.inst	0x5f716966 ; undefined
 468:	00326c65 	.inst	0x00326c65 ; NYI
 46c:	636f7270 	.inst	0x636f7270 ; undefined
 470:	72700073 	.inst	0x72700073 ; undefined
 474:	66746e69 	.inst	0x66746e69 ; undefined
 478:	77656e00 	.inst	0x77656e00 ; undefined
 47c:	6174735f 	.inst	0x6174735f ; undefined
 480:	65006b63 	.inst	0x65006b63 ; undefined
 484:	74007273 	.inst	0x74007273 ; undefined
 488:	30726274 	adr	x20, e50d5 <_binary_shell_bin_size+0xe4c5c>
 48c:	746d6600 	.inst	0x746d6600 ; undefined
 490:	76696400 	.inst	0x76696400 ; undefined
 494:	726f7369 	.inst	0x726f7369 ; undefined
 498:	00335800 	.inst	0x00335800 ; NYI
 49c:	6c003958 	stnp	d24, d14, [x10]
 4a0:	6e695f31 	uqrshl	v17.8h, v25.8h, v9.8h
 4a4:	00786564 	.inst	0x00786564 ; undefined
 4a8:	646e6168 	.inst	0x646e6168 ; undefined
 4ac:	735f656c 	.inst	0x735f656c ; undefined
 4b0:	5f636e79 	.inst	0x5f636e79 ; undefined
 4b4:	00316c65 	.inst	0x00316c65 ; NYI
 4b8:	636f7270 	.inst	0x636f7270 ; undefined
 4bc:	5800615f 	ldr	xzr, 10e4 <_binary_shell_bin_size+0xc6b>
 4c0:	336c0035 	.inst	0x336c0035 ; undefined
 4c4:	6261745f 	.inst	0x6261745f ; undefined
 4c8:	6e00656c 	.inst	0x6e00656c ; undefined
 4cc:	745f7765 	.inst	0x745f7765 ; undefined
 4d0:	30726274 	adr	x20, e511d <_binary_shell_bin_size+0xe4ca4>
 4d4:	6e616800 	fcvtxn2	v0.4s, v0.2d
 4d8:	5f656c64 	.inst	0x5f656c64 ; undefined
 4dc:	72726573 	.inst	0x72726573 ; undefined
 4e0:	655f726f 	fcmeq	p15.h, p4/z, z19.h, z31.h
 4e4:	7000326c 	adr	x12, b33 <_binary_shell_bin_size+0x6ba>
 4e8:	5f636f72 	.inst	0x5f636f72 ; undefined
 4ec:	68630062 	.inst	0x68630062 ; undefined
 4f0:	74757000 	.inst	0x74757000 ; undefined
 4f4:	72616863 	.inst	0x72616863 ; undefined
 4f8:	00375800 	.inst	0x00375800 ; NYI
 4fc:	76006365 	.inst	0x76006365 ; undefined
 500:	73677261 	.inst	0x73677261 ; undefined
 504:	675f5f00 	.inst	0x675f5f00 ; undefined
 508:	666f5f72 	.inst	0x666f5f72 ; undefined
 50c:	Address 0x50c is out of bounds.


Disassembly of section .debug_addr:

0000000000000000 <.debug_addr>:
   0:	000003ec 	udf	#1004
   4:	00080005 	.inst	0x00080005 ; undefined
   8:	4020217d 	.inst	0x4020217d ; undefined
   c:	00000000 	udf	#0
  10:	402020f5 	.inst	0x402020f5 ; undefined
  14:	00000000 	udf	#0
  18:	40202350 	.inst	0x40202350 ; undefined
  1c:	00000000 	udf	#0
  20:	40202115 	.inst	0x40202115 ; undefined
  24:	00000000 	udf	#0
  28:	40201fb1 	.inst	0x40201fb1 ; undefined
  2c:	00000000 	udf	#0
  30:	40202132 	.inst	0x40202132 ; undefined
  34:	00000000 	udf	#0
  38:	4020203a 	.inst	0x4020203a ; undefined
  3c:	00000000 	udf	#0
  40:	40202069 	.inst	0x40202069 ; undefined
  44:	00000000 	udf	#0
  48:	4020201c 	.inst	0x4020201c ; undefined
  4c:	00000000 	udf	#0
  50:	402022bc 	.inst	0x402022bc ; undefined
  54:	00000000 	udf	#0
  58:	4020224f 	.inst	0x4020224f ; undefined
  5c:	00000000 	udf	#0
  60:	40202229 	.inst	0x40202229 ; undefined
  64:	00000000 	udf	#0
  68:	40202307 	.inst	0x40202307 ; undefined
  6c:	00000000 	udf	#0
  70:	402021fa 	.inst	0x402021fa ; undefined
  74:	00000000 	udf	#0
  78:	40202006 	.inst	0x40202006 ; undefined
  7c:	00000000 	udf	#0
  80:	40201fba 	.inst	0x40201fba ; undefined
  84:	00000000 	udf	#0
  88:	40201f90 	.inst	0x40201f90 ; undefined
  8c:	00000000 	udf	#0
  90:	4020207d 	.inst	0x4020207d ; undefined
  94:	00000000 	udf	#0
  98:	4020216d 	.inst	0x4020216d ; undefined
  9c:	00000000 	udf	#0
  a0:	40202155 	.inst	0x40202155 ; undefined
  a4:	00000000 	udf	#0
  a8:	402021d6 	.inst	0x402021d6 ; undefined
  ac:	00000000 	udf	#0
  b0:	402020aa 	.inst	0x402020aa ; undefined
  b4:	00000000 	udf	#0
  b8:	40202275 	.inst	0x40202275 ; undefined
  bc:	00000000 	udf	#0
  c0:	4020223e 	.inst	0x4020223e ; undefined
  c4:	00000000 	udf	#0
  c8:	402022e1 	.inst	0x402022e1 ; undefined
  cc:	00000000 	udf	#0
  d0:	40202324 	.inst	0x40202324 ; undefined
  d4:	00000000 	udf	#0
  d8:	402021a3 	.inst	0x402021a3 ; undefined
  dc:	00000000 	udf	#0
  e0:	40201fd9 	.inst	0x40201fd9 ; undefined
  e4:	00000000 	udf	#0
  e8:	402021bc 	.inst	0x402021bc ; undefined
  ec:	00000000 	udf	#0
  f0:	4020205d 	.inst	0x4020205d ; undefined
  f4:	00000000 	udf	#0
  f8:	40201fef 	.inst	0x40201fef ; undefined
  fc:	00000000 	udf	#0
 100:	402027f0 	.inst	0x402027f0 ; undefined
 104:	00000000 	udf	#0
 108:	402128f8 	.inst	0x402128f8 ; undefined
 10c:	00000000 	udf	#0
 110:	40212900 	.inst	0x40212900 ; undefined
 114:	00000000 	udf	#0
 118:	402128f0 	.inst	0x402128f0 ; undefined
 11c:	00000000 	udf	#0
 120:	402027e0 	.inst	0x402027e0 ; undefined
 124:	00000000 	udf	#0
 128:	40200018 	.inst	0x40200018 ; undefined
 12c:	00000000 	udf	#0
 130:	40200034 	.inst	0x40200034 ; undefined
 134:	00000000 	udf	#0
 138:	4020003c 	.inst	0x4020003c ; undefined
 13c:	00000000 	udf	#0
 140:	40200058 	.inst	0x40200058 ; undefined
 144:	00000000 	udf	#0
 148:	40200068 	.inst	0x40200068 ; undefined
 14c:	00000000 	udf	#0
 150:	40200098 	.inst	0x40200098 ; undefined
 154:	00000000 	udf	#0
 158:	402000b8 	.inst	0x402000b8 ; undefined
 15c:	00000000 	udf	#0
 160:	402000c4 	.inst	0x402000c4 ; undefined
 164:	00000000 	udf	#0
 168:	402000c8 	.inst	0x402000c8 ; undefined
 16c:	00000000 	udf	#0
 170:	40200110 	.inst	0x40200110 ; undefined
 174:	00000000 	udf	#0
 178:	40200120 	.inst	0x40200120 ; undefined
 17c:	00000000 	udf	#0
 180:	40200130 	.inst	0x40200130 ; undefined
 184:	00000000 	udf	#0
 188:	402001a4 	.inst	0x402001a4 ; undefined
 18c:	00000000 	udf	#0
 190:	4020016c 	.inst	0x4020016c ; undefined
 194:	00000000 	udf	#0
 198:	40200194 	.inst	0x40200194 ; undefined
 19c:	00000000 	udf	#0
 1a0:	402001dc 	.inst	0x402001dc ; undefined
 1a4:	00000000 	udf	#0
 1a8:	402001fc 	.inst	0x402001fc ; undefined
 1ac:	00000000 	udf	#0
 1b0:	4020020c 	.inst	0x4020020c ; undefined
 1b4:	00000000 	udf	#0
 1b8:	40200270 	.inst	0x40200270 ; undefined
 1bc:	00000000 	udf	#0
 1c0:	40200290 	.inst	0x40200290 ; undefined
 1c4:	00000000 	udf	#0
 1c8:	402002a0 	.inst	0x402002a0 ; undefined
 1cc:	00000000 	udf	#0
 1d0:	40200304 	.inst	0x40200304 ; undefined
 1d4:	00000000 	udf	#0
 1d8:	40200324 	.inst	0x40200324 ; undefined
 1dc:	00000000 	udf	#0
 1e0:	40200334 	.inst	0x40200334 ; undefined
 1e4:	00000000 	udf	#0
 1e8:	40200378 	.inst	0x40200378 ; undefined
 1ec:	00000000 	udf	#0
 1f0:	402003bc 	.inst	0x402003bc ; undefined
 1f4:	00000000 	udf	#0
 1f8:	402003c4 	.inst	0x402003c4 ; undefined
 1fc:	00000000 	udf	#0
 200:	402003d4 	.inst	0x402003d4 ; undefined
 204:	00000000 	udf	#0
 208:	40200418 	.inst	0x40200418 ; undefined
 20c:	00000000 	udf	#0
 210:	40200670 	.inst	0x40200670 ; undefined
 214:	00000000 	udf	#0
 218:	40200678 	.inst	0x40200678 ; undefined
 21c:	00000000 	udf	#0
 220:	40200698 	.inst	0x40200698 ; undefined
 224:	00000000 	udf	#0
 228:	40200690 	.inst	0x40200690 ; undefined
 22c:	00000000 	udf	#0
 230:	402006b0 	.inst	0x402006b0 ; undefined
 234:	00000000 	udf	#0
 238:	402006b4 	.inst	0x402006b4 ; undefined
 23c:	00000000 	udf	#0
 240:	402006d4 	.inst	0x402006d4 ; undefined
 244:	00000000 	udf	#0
 248:	402006cc 	.inst	0x402006cc ; undefined
 24c:	00000000 	udf	#0
 250:	402006ec 	.inst	0x402006ec ; undefined
 254:	00000000 	udf	#0
 258:	402006f0 	.inst	0x402006f0 ; undefined
 25c:	00000000 	udf	#0
 260:	4020070c 	.inst	0x4020070c ; undefined
 264:	00000000 	udf	#0
 268:	40200894 	.inst	0x40200894 ; undefined
 26c:	00000000 	udf	#0
 270:	402007ac 	.inst	0x402007ac ; undefined
 274:	00000000 	udf	#0
 278:	4020085c 	.inst	0x4020085c ; undefined
 27c:	00000000 	udf	#0
 280:	40200870 	.inst	0x40200870 ; undefined
 284:	00000000 	udf	#0
 288:	40200890 	.inst	0x40200890 ; undefined
 28c:	00000000 	udf	#0
 290:	402008c0 	.inst	0x402008c0 ; undefined
 294:	00000000 	udf	#0
 298:	402008d8 	.inst	0x402008d8 ; undefined
 29c:	00000000 	udf	#0
 2a0:	402008e8 	.inst	0x402008e8 ; undefined
 2a4:	00000000 	udf	#0
 2a8:	4020091c 	.inst	0x4020091c ; undefined
 2ac:	00000000 	udf	#0
 2b0:	40200938 	.inst	0x40200938 ; undefined
 2b4:	00000000 	udf	#0
 2b8:	4020094c 	.inst	0x4020094c ; undefined
 2bc:	00000000 	udf	#0
 2c0:	40200994 	.inst	0x40200994 ; undefined
 2c4:	00000000 	udf	#0
 2c8:	402009a8 	.inst	0x402009a8 ; undefined
 2cc:	00000000 	udf	#0
 2d0:	40200a10 	.inst	0x40200a10 ; undefined
 2d4:	00000000 	udf	#0
 2d8:	40200a2c 	.inst	0x40200a2c ; undefined
 2dc:	00000000 	udf	#0
 2e0:	40200a30 	.inst	0x40200a30 ; undefined
 2e4:	00000000 	udf	#0
 2e8:	40200a60 	.inst	0x40200a60 ; undefined
 2ec:	00000000 	udf	#0
 2f0:	40200a54 	.inst	0x40200a54 ; undefined
 2f4:	00000000 	udf	#0
 2f8:	40200aa8 	.inst	0x40200aa8 ; undefined
 2fc:	00000000 	udf	#0
 300:	40200ac0 	.inst	0x40200ac0 ; undefined
 304:	00000000 	udf	#0
 308:	40200ac4 	.inst	0x40200ac4 ; undefined
 30c:	00000000 	udf	#0
 310:	40200aec 	.inst	0x40200aec ; undefined
 314:	00000000 	udf	#0
 318:	40200b18 	.inst	0x40200b18 ; undefined
 31c:	00000000 	udf	#0
 320:	40200b28 	.inst	0x40200b28 ; undefined
 324:	00000000 	udf	#0
 328:	40200b50 	.inst	0x40200b50 ; undefined
 32c:	00000000 	udf	#0
 330:	40200b68 	.inst	0x40200b68 ; undefined
 334:	00000000 	udf	#0
 338:	40200b78 	.inst	0x40200b78 ; undefined
 33c:	00000000 	udf	#0
 340:	40200b88 	.inst	0x40200b88 ; undefined
 344:	00000000 	udf	#0
 348:	40200b94 	.inst	0x40200b94 ; undefined
 34c:	00000000 	udf	#0
 350:	40200bc8 	.inst	0x40200bc8 ; undefined
 354:	00000000 	udf	#0
 358:	40200c1c 	.inst	0x40200c1c ; undefined
 35c:	00000000 	udf	#0
 360:	40200c38 	.inst	0x40200c38 ; undefined
 364:	00000000 	udf	#0
 368:	40200c50 	.inst	0x40200c50 ; undefined
 36c:	00000000 	udf	#0
 370:	40200c60 	.inst	0x40200c60 ; undefined
 374:	00000000 	udf	#0
 378:	40200c78 	.inst	0x40200c78 ; undefined
 37c:	00000000 	udf	#0
 380:	40200c7c 	.inst	0x40200c7c ; undefined
 384:	00000000 	udf	#0
 388:	40200ca0 	.inst	0x40200ca0 ; undefined
 38c:	00000000 	udf	#0
 390:	40200cc8 	.inst	0x40200cc8 ; undefined
 394:	00000000 	udf	#0
 398:	40200ce8 	.inst	0x40200ce8 ; undefined
 39c:	00000000 	udf	#0
 3a0:	40200cf8 	.inst	0x40200cf8 ; undefined
 3a4:	00000000 	udf	#0
 3a8:	40200d04 	.inst	0x40200d04 ; undefined
 3ac:	00000000 	udf	#0
 3b0:	40200d24 	.inst	0x40200d24 ; undefined
 3b4:	00000000 	udf	#0
 3b8:	40200d38 	.inst	0x40200d38 ; undefined
 3bc:	00000000 	udf	#0
 3c0:	40200d44 	.inst	0x40200d44 ; undefined
 3c4:	00000000 	udf	#0
 3c8:	40200d50 	.inst	0x40200d50 ; undefined
 3cc:	00000000 	udf	#0
 3d0:	40200d54 	.inst	0x40200d54 ; undefined
 3d4:	00000000 	udf	#0
 3d8:	40200d60 	.inst	0x40200d60 ; undefined
 3dc:	00000000 	udf	#0
 3e0:	40200d78 	.inst	0x40200d78 ; undefined
 3e4:	00000000 	udf	#0
 3e8:	40200000 	.inst	0x40200000 ; undefined
 3ec:	00000000 	udf	#0
 3f0:	0000006c 	udf	#108
 3f4:	00080005 	.inst	0x00080005 ; undefined
 3f8:	40202295 	.inst	0x40202295 ; undefined
 3fc:	00000000 	udf	#0
 400:	40200d7c 	.inst	0x40200d7c ; undefined
 404:	00000000 	udf	#0
 408:	40200e44 	.inst	0x40200e44 ; undefined
 40c:	00000000 	udf	#0
 410:	40200ee4 	.inst	0x40200ee4 ; undefined
 414:	00000000 	udf	#0
 418:	40200f0c 	.inst	0x40200f0c ; undefined
 41c:	00000000 	udf	#0
 420:	40200f3c 	.inst	0x40200f3c ; undefined
 424:	00000000 	udf	#0
 428:	40201128 	.inst	0x40201128 ; undefined
 42c:	00000000 	udf	#0
 430:	40200fd0 	.inst	0x40200fd0 ; undefined
 434:	00000000 	udf	#0
 438:	40201094 	.inst	0x40201094 ; undefined
 43c:	00000000 	udf	#0
 440:	402010c4 	.inst	0x402010c4 ; undefined
 444:	00000000 	udf	#0
 448:	40201100 	.inst	0x40201100 ; undefined
 44c:	00000000 	udf	#0
 450:	40201134 	.inst	0x40201134 ; undefined
 454:	00000000 	udf	#0
 458:	40201164 	.inst	0x40201164 ; undefined
 45c:	00000000 	udf	#0
 460:	000000c4 	udf	#196
 464:	00080005 	.inst	0x00080005 ; undefined
 468:	40202212 	.inst	0x40202212 ; undefined
 46c:	00000000 	udf	#0
 470:	40202286 	.inst	0x40202286 ; undefined
 474:	00000000 	udf	#0
 478:	402022a6 	.inst	0x402022a6 ; undefined
 47c:	00000000 	udf	#0
 480:	40202030 	.inst	0x40202030 ; undefined
 484:	00000000 	udf	#0
 488:	40202318 	.inst	0x40202318 ; undefined
 48c:	00000000 	udf	#0
 490:	402021ef 	.inst	0x402021ef ; undefined
 494:	00000000 	udf	#0
 498:	402020d1 	.inst	0x402020d1 ; undefined
 49c:	00000000 	udf	#0
 4a0:	402022b5 	.inst	0x402022b5 ; undefined
 4a4:	00000000 	udf	#0
 4a8:	4020126c 	.inst	0x4020126c ; undefined
 4ac:	00000000 	udf	#0
 4b0:	40201294 	.inst	0x40201294 ; undefined
 4b4:	00000000 	udf	#0
 4b8:	402012a4 	.inst	0x402012a4 ; undefined
 4bc:	00000000 	udf	#0
 4c0:	402012b4 	.inst	0x402012b4 ; undefined
 4c4:	00000000 	udf	#0
 4c8:	402012c4 	.inst	0x402012c4 ; undefined
 4cc:	00000000 	udf	#0
 4d0:	402012d4 	.inst	0x402012d4 ; undefined
 4d4:	00000000 	udf	#0
 4d8:	402012e4 	.inst	0x402012e4 ; undefined
 4dc:	00000000 	udf	#0
 4e0:	402012fc 	.inst	0x402012fc ; undefined
 4e4:	00000000 	udf	#0
 4e8:	40201300 	.inst	0x40201300 ; undefined
 4ec:	00000000 	udf	#0
 4f0:	40201304 	.inst	0x40201304 ; undefined
 4f4:	00000000 	udf	#0
 4f8:	40201308 	.inst	0x40201308 ; undefined
 4fc:	00000000 	udf	#0
 500:	4020130c 	.inst	0x4020130c ; undefined
 504:	00000000 	udf	#0
 508:	40201310 	.inst	0x40201310 ; undefined
 50c:	00000000 	udf	#0
 510:	40201314 	.inst	0x40201314 ; undefined
 514:	00000000 	udf	#0
 518:	40201318 	.inst	0x40201318 ; undefined
 51c:	00000000 	udf	#0
 520:	4020131c 	.inst	0x4020131c ; undefined
 524:	00000000 	udf	#0

Disassembly of section .comment:

0000000000000000 <.comment>:
   0:	75625500 	.inst	0x75625500 ; undefined
   4:	2075746e 	.inst	0x2075746e ; undefined
   8:	6e616c63 	umin	v3.8h, v3.8h, v1.8h
   c:	65762067 	fmls	z7.h, p0/m, z3.h, z22.h
  10:	6f697372 	fcmla	v18.8h, v27.8h, v9.h[1], #270
  14:	3831206e 	ldeorb	w17, w14, [x3]
  18:	332e312e 	.inst	0x332e312e ; undefined
  1c:	75312820 	.inst	0x75312820 ; undefined
  20:	746e7562 	.inst	0x746e7562 ; undefined
  24:	00293175 	.inst	0x00293175 ; NYI
  28:	6b6e694c 	.inst	0x6b6e694c ; undefined
  2c:	203a7265 	.inst	0x203a7265 ; undefined
  30:	6e756255 	rsubhn2	v21.8h, v18.4s, v21.4s
  34:	4c207574 	.inst	0x4c207574 ; undefined
  38:	3120444c 	adds	w12, w2, #0x811
  3c:	2e312e38 	uqsub	v24.8b, v17.8b, v17.8b
  40:	Address 0x40 is out of bounds.


Disassembly of section .debug_frame:

0000000000000000 <.debug_frame>:
   0:	00000014 	udf	#20
   4:	ffffffff 	.inst	0xffffffff ; undefined
   8:	00080004 	.inst	0x00080004 ; undefined
   c:	0c1e7c01 	.inst	0x0c1e7c01 ; undefined
  10:	0000001f 	udf	#31
  14:	00000000 	udf	#0
  18:	0000001c 	udf	#28
  1c:	00000000 	udf	#0
  20:	40200018 	.inst	0x40200018 ; undefined
  24:	00000000 	udf	#0
  28:	0000001c 	udf	#28
  2c:	00000000 	udf	#0
  30:	00100e44 	.inst	0x00100e44 ; undefined
  34:	00000000 	udf	#0
  38:	0000001c 	udf	#28
  3c:	00000000 	udf	#0
  40:	40200034 	.inst	0x40200034 ; undefined
  44:	00000000 	udf	#0
  48:	00000024 	udf	#36
  4c:	00000000 	udf	#0
  50:	00100e44 	.inst	0x00100e44 ; undefined
  54:	00000000 	udf	#0
  58:	00000014 	udf	#20
  5c:	00000000 	udf	#0
  60:	40200058 	.inst	0x40200058 ; undefined
  64:	00000000 	udf	#0
  68:	00000010 	udf	#16
  6c:	00000000 	udf	#0
  70:	0000001c 	udf	#28
  74:	00000000 	udf	#0
  78:	40200068 	.inst	0x40200068 ; undefined
  7c:	00000000 	udf	#0
  80:	00000060 	udf	#96
  84:	00000000 	udf	#0
  88:	101d0c58 	adr	x24, 3a210 <_binary_shell_bin_size+0x39d97>
  8c:	049d029e 	.inst	0x049d029e ; undefined
  90:	00000024 	udf	#36
  94:	00000000 	udf	#0
  98:	402000c8 	.inst	0x402000c8 ; undefined
  9c:	00000000 	udf	#0
  a0:	00000068 	udf	#104
  a4:	00000000 	udf	#0
  a8:	201d0c4c 	.inst	0x201d0c4c ; undefined
  ac:	069e0493 	.inst	0x069e0493 ; undefined
  b0:	0000089d 	udf	#2205
  b4:	00000000 	udf	#0
  b8:	0000002c 	udf	#44
  bc:	00000000 	udf	#0
  c0:	40200130 	.inst	0x40200130 ; undefined
  c4:	00000000 	udf	#0
  c8:	00000248 	udf	#584
  cc:	00000000 	udf	#0
  d0:	401d0c54 	.inst	0x401d0c54 ; undefined
  d4:	04940293 	sdiv	z19.s, p0/m, z19.s, z20.s
  d8:	08960695 	stllrb	w21, [x20]
  dc:	0c980a97 	st4	{v23.2s-v26.2s}, [x20], x24
  e0:	109d0e9e 	adr	x30, fffffffffff3a2b0 <__free_ram_end+0xffffffffbdd072b0>
  e4:	00000000 	udf	#0
  e8:	00000014 	udf	#20
  ec:	00000000 	udf	#0
  f0:	40200378 	.inst	0x40200378 ; undefined
  f4:	00000000 	udf	#0
  f8:	00000044 	udf	#68
  fc:	00000000 	udf	#0
 100:	00000014 	udf	#20
 104:	00000000 	udf	#0
 108:	402003bc 	.inst	0x402003bc ; undefined
 10c:	00000000 	udf	#0
 110:	00000018 	udf	#24
 114:	00000000 	udf	#0
 118:	00000014 	udf	#20
 11c:	00000000 	udf	#0
 120:	402003d4 	.inst	0x402003d4 ; undefined
 124:	00000000 	udf	#0
 128:	00000044 	udf	#68
 12c:	00000000 	udf	#0
 130:	00000014 	udf	#20
 134:	00000000 	udf	#0
 138:	40200418 	.inst	0x40200418 ; undefined
 13c:	00000000 	udf	#0
 140:	00000260 	udf	#608
 144:	00000000 	udf	#0
 148:	00000024 	udf	#36
 14c:	00000000 	udf	#0
 150:	40200678 	.inst	0x40200678 ; undefined
 154:	00000000 	udf	#0
 158:	0000003c 	udf	#60
 15c:	00000000 	udf	#0
 160:	201d0c4c 	.inst	0x201d0c4c ; undefined
 164:	069e0493 	.inst	0x069e0493 ; undefined
 168:	0000089d 	udf	#2205
 16c:	00000000 	udf	#0
 170:	00000024 	udf	#36
 174:	00000000 	udf	#0
 178:	402006b4 	.inst	0x402006b4 ; undefined
 17c:	00000000 	udf	#0
 180:	0000003c 	udf	#60
 184:	00000000 	udf	#0
 188:	201d0c4c 	.inst	0x201d0c4c ; undefined
 18c:	069e0493 	.inst	0x069e0493 ; undefined
 190:	0000089d 	udf	#2205
 194:	00000000 	udf	#0
 198:	00000014 	udf	#20
 19c:	00000000 	udf	#0
 1a0:	402006f0 	.inst	0x402006f0 ; undefined
 1a4:	00000000 	udf	#0
 1a8:	0000001c 	udf	#28
 1ac:	00000000 	udf	#0
 1b0:	00000034 	udf	#52
 1b4:	00000000 	udf	#0
 1b8:	4020070c 	.inst	0x4020070c ; undefined
 1bc:	00000000 	udf	#0
 1c0:	00000324 	udf	#804
 1c4:	00000000 	udf	#0
 1c8:	601d0c60 	.inst	0x601d0c60 ; undefined
 1cc:	04940293 	sdiv	z19.s, p0/m, z19.s, z20.s
 1d0:	08960695 	stllrb	w21, [x20]
 1d4:	0c980a97 	st4	{v23.2s-v26.2s}, [x20], x24
 1d8:	109a0e99 	adr	x25, fffffffffff343a8 <__free_ram_end+0xffffffffbdd013a8>
 1dc:	149c129b 	b	2704c48 <_binary_shell_bin_size+0x27047cf>
 1e0:	189d169e 	ldr	w30, fffffffffff3a4b0 <__free_ram_end+0xffffffffbdd074b0>
 1e4:	00000000 	udf	#0
 1e8:	00000024 	udf	#36
 1ec:	00000000 	udf	#0
 1f0:	40200a30 	.inst	0x40200a30 ; undefined
 1f4:	00000000 	udf	#0
 1f8:	00000094 	udf	#148
 1fc:	00000000 	udf	#0
 200:	201d0c4c 	.inst	0x201d0c4c ; undefined
 204:	069e0493 	.inst	0x069e0493 ; undefined
 208:	0000089d 	udf	#2205
 20c:	00000000 	udf	#0
 210:	00000024 	udf	#36
 214:	00000000 	udf	#0
 218:	40200ac4 	.inst	0x40200ac4 ; undefined
 21c:	00000000 	udf	#0
 220:	000001b8 	udf	#440
 224:	00000000 	udf	#0
 228:	301d0c54 	adr	x20, 3a3b1 <_binary_shell_bin_size+0x39f38>
 22c:	04940293 	sdiv	z19.s, p0/m, z19.s, z20.s
 230:	08960695 	stllrb	w21, [x20]
 234:	0c9d0a9e 	st4	{v30.2s-v1.2s}, [x20], x29
 238:	0000001c 	udf	#28
 23c:	00000000 	udf	#0
 240:	40200c7c 	.inst	0x40200c7c ; undefined
 244:	00000000 	udf	#0
 248:	00000100 	udf	#256
 24c:	00000000 	udf	#0
 250:	101d0c48 	adr	x8, 3a3d8 <_binary_shell_bin_size+0x39f5f>
 254:	049d029e 	.inst	0x049d029e ; undefined
 258:	00000014 	udf	#20
 25c:	00000000 	udf	#0
 260:	40200000 	.inst	0x40200000 ; undefined
 264:	00000000 	udf	#0
 268:	00000018 	udf	#24
 26c:	00000000 	udf	#0
 270:	00000014 	udf	#20
 274:	ffffffff 	.inst	0xffffffff ; undefined
 278:	00080004 	.inst	0x00080004 ; undefined
 27c:	0c1e7c01 	.inst	0x0c1e7c01 ; undefined
 280:	0000001f 	udf	#31
 284:	00000000 	udf	#0
 288:	00000014 	udf	#20
 28c:	00000270 	udf	#624
 290:	40200d7c 	.inst	0x40200d7c ; undefined
 294:	00000000 	udf	#0
 298:	000000c8 	udf	#200
 29c:	00000000 	udf	#0
 2a0:	00000014 	udf	#20
 2a4:	00000270 	udf	#624
 2a8:	40200e44 	.inst	0x40200e44 ; undefined
 2ac:	00000000 	udf	#0
 2b0:	000000a0 	udf	#160
 2b4:	00000000 	udf	#0
 2b8:	00000014 	udf	#20
 2bc:	00000270 	udf	#624
 2c0:	40200ee4 	.inst	0x40200ee4 ; undefined
 2c4:	00000000 	udf	#0
 2c8:	00000028 	udf	#40
 2cc:	00000000 	udf	#0
 2d0:	00000014 	udf	#20
 2d4:	00000270 	udf	#624
 2d8:	40200f0c 	.inst	0x40200f0c ; undefined
 2dc:	00000000 	udf	#0
 2e0:	00000030 	udf	#48
 2e4:	00000000 	udf	#0
 2e8:	0000002c 	udf	#44
 2ec:	00000270 	udf	#624
 2f0:	40200f3c 	.inst	0x40200f3c ; undefined
 2f4:	00000000 	udf	#0
 2f8:	00000244 	udf	#580
 2fc:	00000000 	udf	#0
 300:	501d0c5c 	adr	x28, 3a48a <_binary_shell_bin_size+0x3a011>
 304:	04940293 	sdiv	z19.s, p0/m, z19.s, z20.s
 308:	08960695 	stllrb	w21, [x20]
 30c:	0c980a97 	st4	{v23.2s-v26.2s}, [x20], x24
 310:	129e109c 	mov	w28, #0xffff0f7b            	// #-61573
 314:	0000149d 	udf	#5277
 318:	00000014 	udf	#20
 31c:	ffffffff 	.inst	0xffffffff ; undefined
 320:	00080004 	.inst	0x00080004 ; undefined
 324:	0c1e7c01 	.inst	0x0c1e7c01 ; undefined
 328:	0000001f 	udf	#31
 32c:	00000000 	udf	#0
 330:	00000024 	udf	#36
 334:	00000318 	udf	#792
 338:	4020126c 	.inst	0x4020126c ; undefined
 33c:	00000000 	udf	#0
 340:	00000094 	udf	#148
 344:	00000000 	udf	#0
 348:	301d0c50 	adr	x16, 3a4d1 <_binary_shell_bin_size+0x3a058>
 34c:	04940293 	sdiv	z19.s, p0/m, z19.s, z20.s
 350:	0a9e0895 	and	w21, w4, w30, asr #2
 354:	00000c9d 	udf	#3229
 358:	00000014 	udf	#20
 35c:	00000318 	udf	#792
 360:	40201300 	.inst	0x40201300 ; undefined
 364:	00000000 	udf	#0
 368:	00000004 	udf	#4
 36c:	00000000 	udf	#0
 370:	00000014 	udf	#20
 374:	00000318 	udf	#792
 378:	40201304 	.inst	0x40201304 ; undefined
 37c:	00000000 	udf	#0
 380:	00000004 	udf	#4
 384:	00000000 	udf	#0
 388:	00000014 	udf	#20
 38c:	00000318 	udf	#792
 390:	40201308 	.inst	0x40201308 ; undefined
 394:	00000000 	udf	#0
 398:	00000004 	udf	#4
 39c:	00000000 	udf	#0
 3a0:	00000014 	udf	#20
 3a4:	00000318 	udf	#792
 3a8:	4020130c 	.inst	0x4020130c ; undefined
 3ac:	00000000 	udf	#0
 3b0:	00000004 	udf	#4
 3b4:	00000000 	udf	#0
 3b8:	00000014 	udf	#20
 3bc:	00000318 	udf	#792
 3c0:	40201310 	.inst	0x40201310 ; undefined
 3c4:	00000000 	udf	#0
 3c8:	00000004 	udf	#4
 3cc:	00000000 	udf	#0
 3d0:	00000014 	udf	#20
 3d4:	00000318 	udf	#792
 3d8:	40201314 	.inst	0x40201314 ; undefined
 3dc:	00000000 	udf	#0
 3e0:	00000004 	udf	#4
 3e4:	00000000 	udf	#0
 3e8:	00000014 	udf	#20
 3ec:	00000318 	udf	#792
 3f0:	40201318 	.inst	0x40201318 ; undefined
 3f4:	00000000 	udf	#0
 3f8:	00000004 	udf	#4
 3fc:	00000000 	udf	#0
 400:	00000014 	udf	#20
 404:	00000318 	udf	#792
 408:	4020131c 	.inst	0x4020131c ; undefined
 40c:	00000000 	udf	#0
 410:	00000004 	udf	#4
 414:	00000000 	udf	#0

Disassembly of section .debug_line:

0000000000000000 <.debug_line>:
   0:	0000062f 	udf	#1583
   4:	00080005 	.inst	0x00080005 ; undefined
   8:	00000065 	udf	#101
   c:	fb010101 	.inst	0xfb010101 ; undefined
  10:	01000d0e 	.inst	0x01000d0e ; undefined
  14:	00010101 	.inst	0x00010101 ; undefined
  18:	00010000 	.inst	0x00010000 ; undefined
  1c:	01010100 	.inst	0x01010100 ; undefined
  20:	0009021f 	.inst	0x0009021f ; undefined
  24:	00470000 	.inst	0x00470000 ; undefined
  28:	01030000 	.inst	0x01030000 ; undefined
  2c:	050f021f 	.inst	0x050f021f ; undefined
  30:	0000031e 	udf	#798
  34:	8e000000 	.inst	0x8e000000 ; undefined
  38:	e6fa3d7f 	.inst	0xe6fa3d7f ; undefined
  3c:	399fad3b 	ldrsb	x27, [x9, #2027]
  40:	29ddaf96 	ldp	w22, w11, [x28, #236]!
  44:	57d81517 	.inst	0x57d81517 ; undefined
  48:	01000000 	.inst	0x01000000 ; undefined
  4c:	e0269fcf 	st1b	{za0v.b[w12, 15]}, p7, [x30, x6]
  50:	c14b1482 	.inst	0xc14b1482 ; undefined
  54:	248d0d4d 	cmphs	p13.s, p3/z, z10.s, z13.s
  58:	dff95277 	.inst	0xdff95277 ; undefined
  5c:	00000026 	udf	#38
  60:	62f7bb01 	.inst	0x62f7bb01 ; undefined
  64:	426892f9 	.inst	0x426892f9 ; undefined
  68:	274bb2a9 	.inst	0x274bb2a9 ; undefined
  6c:	321a0348 	orr	w8, w26, #0x40
  70:	00000493 	udf	#1171
  74:	00180209 	.inst	0x00180209 ; undefined
  78:	00004020 	udf	#16416
  7c:	10030000 	adr	x0, 607c <_binary_shell_bin_size+0x5c03>
  80:	0a050501 	and	w1, w8, w5, lsl #1
  84:	0b010588 	add	w8, w12, w1, lsl #1
  88:	840005be 	ld1sb	{z30.s}, p1/z, [x13, z0.s, uxtw]
  8c:	030a0505 	.inst	0x030a0505 ; undefined
  90:	0105827a 	.inst	0x0105827a ; undefined
  94:	0544080b 	.inst	0x0544080b ; undefined
  98:	0a860a05 	and	w5, w16, w6, asr #2
  9c:	05f20c03 	.inst	0x05f20c03 ; undefined
  a0:	09054b1d 	.inst	0x09054b1d ; undefined
  a4:	0805054c 	stxrb	w5, w12, [x10]
  a8:	064ec279 	.inst	0x064ec279 ; undefined
  ac:	4a7fbd03 	.inst	0x4a7fbd03 ; undefined
  b0:	00cf0306 	.inst	0x00cf0306 ; undefined
  b4:	030b054a 	.inst	0x030b054a ; undefined
  b8:	05058278 	.inst	0x05058278 ; undefined
  bc:	05890b4b 	.inst	0x05890b4b ; undefined
  c0:	82640309 	.inst	0x82640309 ; undefined
  c4:	20030005 	.inst	0x20030005 ; undefined
  c8:	0a1505ba 	and	w26, w13, w21, lsl #1
  cc:	14054bbc 	b	152fbc <_binary_shell_bin_size+0x152b43>
  d0:	7f15054c 	.inst	0x7f15054c ; undefined
  d4:	054b1005 	.inst	0x054b1005 ; undefined
  d8:	10054c09 	adr	x9, aa58 <_binary_shell_bin_size+0xa5df>
  dc:	4c090548 	.inst	0x4c090548 ; undefined
  e0:	0805054b 	stxrb	w5, w11, [x10]
  e4:	0b06bbae 	.inst	0x0b06bbae ; undefined
  e8:	0600054a 	.inst	0x0600054a ; undefined
  ec:	0a0a05bd 	and	w29, w13, w10, lsl #1
  f0:	09057508 	.inst	0x09057508 ; undefined
  f4:	4b064a06 	sub	w6, w16, w6, lsl #18
  f8:	e5080a05 	.inst	0xe5080a05 ; undefined
  fc:	4a060905 	eor	w5, w8, w6, lsl #2
 100:	27054b06 	.inst	0x27054b06 ; undefined
 104:	0a05e708 	.inst	0x0a05e708 ; undefined
 108:	0609054c 	.inst	0x0609054c ; undefined
 10c:	0615054a 	.inst	0x0615054a ; undefined
 110:	054a6d03 	.inst	0x054a6d03 ; undefined
 114:	15054d14 	b	4153564 <_binary_shell_bin_size+0x41530eb>
 118:	4b10057f 	sub	wzr, w11, w16, lsl #1
 11c:	054c0905 	.inst	0x054c0905 ; undefined
 120:	09054810 	.inst	0x09054810 ; undefined
 124:	03064b4c 	.inst	0x03064b4c ; undefined
 128:	ac087fa7 	stnp	q7, q31, [x29, #256]
 12c:	03060505 	.inst	0x03060505 ; undefined
 130:	054a00db 	.inst	0x054a00db ; undefined
 134:	080f0309 	stxrb	w15, w9, [x24]
 138:	f3290574 	.inst	0xf3290574 ; undefined
 13c:	ba064305 	.inst	0xba064305 ; undefined
 140:	054a1c05 	.inst	0x054a1c05 ; undefined
 144:	054c0630 	.inst	0x054c0630 ; undefined
 148:	0a054d20 	and	w0, w9, w5, lsl #19
 14c:	0609054c 	.inst	0x0609054c ; undefined
 150:	061505ba 	.inst	0x061505ba ; undefined
 154:	054a6303 	.inst	0x054a6303 ; undefined
 158:	15054d14 	b	41535a8 <_binary_shell_bin_size+0x415312f>
 15c:	4b10057f 	sub	wzr, w11, w16, lsl #1
 160:	054c0905 	.inst	0x054c0905 ; undefined
 164:	09054810 	.inst	0x09054810 ; undefined
 168:	05054b4c 	.inst	0x05054b4c ; undefined
 16c:	0005ae08 	.inst	0x0005ae08 ; undefined
 170:	7fa50306 	.inst	0x7fa50306 ; undefined
 174:	030505f2 	.inst	0x030505f2 ; undefined
 178:	058200db 	and	z27.d, z27.d, #0x7f
 17c:	19030609 	cpyfp	[x9]!, [x3]!, x16!
 180:	f329054a 	.inst	0xf329054a ; undefined
 184:	ba064305 	.inst	0xba064305 ; undefined
 188:	054a1c05 	.inst	0x054a1c05 ; undefined
 18c:	054c0630 	.inst	0x054c0630 ; undefined
 190:	0a054d20 	and	w0, w9, w5, lsl #19
 194:	0609054c 	.inst	0x0609054c ; undefined
 198:	061505ba 	.inst	0x061505ba ; undefined
 19c:	054a5903 	.inst	0x054a5903 ; undefined
 1a0:	15054d14 	b	41535f0 <_binary_shell_bin_size+0x4153177>
 1a4:	4b10057f 	sub	wzr, w11, w16, lsl #1
 1a8:	054c0905 	.inst	0x054c0905 ; undefined
 1ac:	09054810 	.inst	0x09054810 ; undefined
 1b0:	05054b4c 	.inst	0x05054b4c ; undefined
 1b4:	0005ae08 	.inst	0x0005ae08 ; undefined
 1b8:	7fa50306 	.inst	0x7fa50306 ; undefined
 1bc:	030505f2 	.inst	0x030505f2 ; undefined
 1c0:	058200db 	and	z27.d, z27.d, #0x7f
 1c4:	23030609 	.inst	0x23030609 ; undefined
 1c8:	f329054a 	.inst	0xf329054a ; undefined
 1cc:	ba064305 	.inst	0xba064305 ; undefined
 1d0:	054a1c05 	.inst	0x054a1c05 ; undefined
 1d4:	054f0620 	.inst	0x054f0620 ; undefined
 1d8:	4e054730 	.inst	0x4e054730 ; undefined
 1dc:	0b01054e 	add	w14, w10, w1, lsl #1
 1e0:	47050585 	.inst	0x47050585 ; undefined
 1e4:	054d0105 	.inst	0x054d0105 ; undefined
 1e8:	18057f4e 	ldr	w14, b1d0 <_binary_shell_bin_size+0xad57>
 1ec:	01054a06 	.inst	0x01054a06 ; undefined
 1f0:	05054d06 	.inst	0x05054d06 ; undefined
 1f4:	0005860a 	.inst	0x0005860a ; undefined
 1f8:	44022003 	cmla	z3.b, z0.b, z2.b, #0
 1fc:	0a170501 	and	w1, w8, w23, lsl #1
 200:	4b090583 	sub	w3, w12, w9, lsl #1
 204:	05490505 	.inst	0x05490505 ; undefined
 208:	00054c01 	.inst	0x00054c01 ; undefined
 20c:	0a05054c 	and	w12, w10, w5, lsl #1
 210:	01053f08 	.inst	0x01053f08 ; undefined
 214:	2c021c03 	stnp	s3, s7, [x0, #16]
 218:	03000501 	.inst	0x03000501 ; undefined
 21c:	13054a09 	sbfx	w9, w16, #5, #14
 220:	3f054f0a 	.inst	0x3f054f0a ; undefined
 224:	f31305b9 	.inst	0xf31305b9 ; undefined
 228:	05ef1c05 	.inst	0x05ef1c05 ; undefined
 22c:	2105852a 	.inst	0x2105852a ; undefined
 230:	bb330581 	.inst	0xbb330581 ; undefined
 234:	4a060d05 	eor	w5, w8, w6, lsl #3
 238:	81063a05 	.inst	0x81063a05 ; undefined
 23c:	4a063f05 	eor	w5, w24, w6, lsl #15
 240:	f3061305 	.inst	0xf3061305 ; undefined
 244:	82062a05 	.inst	0x82062a05 ; undefined
 248:	81062105 	.inst	0x81062105 ; undefined
 24c:	05bb3305 	tbl	z5.s, {z24.s}, z27.s
 250:	054a060d 	.inst	0x054a060d ; undefined
 254:	0581063a 	and	z26.b, z26.b, #0x3
 258:	054a063f 	.inst	0x054a063f ; undefined
 25c:	05f30613 	.inst	0x05f30613 ; undefined
 260:	05ba062a 	zip2	z10.q, z17.q, z26.q
 264:	05810621 	and	z1.b, z1.b, #0x3
 268:	0d05bb33 	.inst	0x0d05bb33 ; undefined
 26c:	3a054a06 	.inst	0x3a054a06 ; undefined
 270:	3f058106 	.inst	0x3f058106 ; undefined
 274:	13054a06 	sbfx	w6, w16, #5, #14
 278:	2a05f306 	.inst	0x2a05f306 ; undefined
 27c:	21058206 	.inst	0x21058206 ; undefined
 280:	33058106 	.inst	0x33058106 ; undefined
 284:	060d05bb 	.inst	0x060d05bb ; undefined
 288:	063a054a 	.inst	0x063a054a ; undefined
 28c:	063f0581 	.inst	0x063f0581 ; undefined
 290:	0613054a 	.inst	0x0613054a ; undefined
 294:	062a05f3 	.inst	0x062a05f3 ; undefined
 298:	062105ba 	.inst	0x062105ba ; undefined
 29c:	bb330581 	.inst	0xbb330581 ; undefined
 2a0:	4a060d05 	eor	w5, w8, w6, lsl #3
 2a4:	81063a05 	.inst	0x81063a05 ; undefined
 2a8:	4a063f05 	eor	w5, w24, w6, lsl #15
 2ac:	f3061305 	.inst	0xf3061305 ; undefined
 2b0:	82062a05 	.inst	0x82062a05 ; undefined
 2b4:	81062105 	.inst	0x81062105 ; undefined
 2b8:	05bb3305 	tbl	z5.s, {z24.s}, z27.s
 2bc:	054a060d 	.inst	0x054a060d ; undefined
 2c0:	0581063a 	and	z26.b, z26.b, #0x3
 2c4:	054a063f 	.inst	0x054a063f ; undefined
 2c8:	05f30613 	.inst	0x05f30613 ; undefined
 2cc:	05ba062a 	zip2	z10.q, z17.q, z26.q
 2d0:	05810621 	and	z1.b, z1.b, #0x3
 2d4:	0d05bb33 	.inst	0x0d05bb33 ; undefined
 2d8:	3a054a06 	.inst	0x3a054a06 ; undefined
 2dc:	3f058106 	.inst	0x3f058106 ; undefined
 2e0:	13054a06 	sbfx	w6, w16, #5, #14
 2e4:	2a05f306 	.inst	0x2a05f306 ; undefined
 2e8:	21058206 	.inst	0x21058206 ; undefined
 2ec:	33058106 	.inst	0x33058106 ; undefined
 2f0:	060d05bb 	.inst	0x060d05bb ; undefined
 2f4:	7ea2034a 	.inst	0x7ea2034a ; undefined
 2f8:	06090582 	.inst	0x06090582 ; undefined
 2fc:	4a01e503 	.inst	0x4a01e503 ; undefined
 300:	7e9b0306 	.inst	0x7e9b0306 ; undefined
 304:	06120582 	.inst	0x06120582 ; undefined
 308:	4a01ea03 	.inst	0x4a01ea03 ; undefined
 30c:	05502b05 	mov	z5.h, p0/z, #22528
 310:	05054720 	.inst	0x05054720 ; undefined
 314:	054a0903 	.inst	0x054a0903 ; undefined
 318:	021a031b 	.inst	0x021a031b ; undefined
 31c:	2605012c 	.inst	0x2605012c ; undefined
 320:	05054a06 	.inst	0x05054a06 ; undefined
 324:	0601054a 	.inst	0x0601054a ; undefined
 328:	4c00054e 	st4	{v14.8h-v17.8h}, [x10]
 32c:	bb0a0505 	.inst	0xbb0a0505 ; undefined
 330:	7de90306 	.inst	0x7de90306 ; undefined
 334:	170306ba 	b	fffffffffc0c1e1c <__free_ram_end+0xffffffffb9e8ee1c>
 338:	03030582 	.inst	0x03030582 ; undefined
 33c:	3c080285 	stur	b5, [x20, #128]
 340:	05460505 	.inst	0x05460505 ; undefined
 344:	05055200 	.inst	0x05055200 ; undefined
 348:	0306bb0a 	.inst	0x0306bb0a ; undefined
 34c:	06ba7ddf 	.inst	0x06ba7ddf ; undefined
 350:	05821703 	and	z3.d, z3.d, #0xc07fffffffffffff
 354:	028f0303 	.inst	0x028f0303 ; undefined
 358:	05053c08 	.inst	0x05053c08 ; undefined
 35c:	52000546 	eor	w6, w10, #0x3
 360:	830a0505 	.inst	0x830a0505 ; undefined
 364:	0f030005 	.inst	0x0f030005 ; undefined
 368:	16053c08 	b	fffffffff814f388 <__free_ram_end+0xffffffffb5f1c388>
 36c:	06e8080a 	.inst	0x06e8080a ; undefined
 370:	827dc203 	.inst	0x827dc203 ; undefined
 374:	4a02be03 	.inst	0x4a02be03 ; undefined
 378:	054a0d05 	.inst	0x054a0d05 ; undefined
 37c:	0d054a16 	.inst	0x0d054a16 ; undefined
 380:	4a160582 	eor	w2, w12, w22, lsl #1
 384:	05820d05 	and	z5.d, z5.d, #0x800000ffffffffff
 388:	0d054a16 	.inst	0x0d054a16 ; undefined
 38c:	4a160582 	eor	w2, w12, w22, lsl #1
 390:	05820d05 	and	z5.d, z5.d, #0x800000ffffffffff
 394:	0d054a16 	.inst	0x0d054a16 ; undefined
 398:	4a160582 	eor	w2, w12, w22, lsl #1
 39c:	05820d05 	and	z5.d, z5.d, #0x800000ffffffffff
 3a0:	0d054a16 	.inst	0x0d054a16 ; undefined
 3a4:	06090582 	.inst	0x06090582 ; undefined
 3a8:	ba030652 	.inst	0xba030652 ; undefined
 3ac:	05ac087d 	uzp1	z29.q, z3.q, z12.q
 3b0:	cc030606 	.inst	0xcc030606 ; undefined
 3b4:	01400202 	.inst	0x01400202 ; undefined
 3b8:	89031505 	.inst	0x89031505 ; undefined
 3bc:	0b05ba7e 	.inst	0x0b05ba7e ; undefined
 3c0:	4a01fa03 	.inst	0x4a01fa03 ; undefined
 3c4:	86031505 	.inst	0x86031505 ; undefined
 3c8:	0b054a7e 	add	w30, w19, w5, lsl #18
 3cc:	4a01f703 	.inst	0x4a01f703 ; undefined
 3d0:	8c031405 	.inst	0x8c031405 ; undefined
 3d4:	0b05827e 	.inst	0x0b05827e ; undefined
 3d8:	8201f403 	.inst	0x8201f403 ; undefined
 3dc:	8a031005 	and	x5, x0, x3, lsl #4
 3e0:	09054a7e 	.inst	0x09054a7e ; undefined
 3e4:	030b054c 	.inst	0x030b054c ; undefined
 3e8:	4c4a01f5 	.inst	0x4c4a01f5 ; undefined
 3ec:	4c4c4c4c 	.inst	0x4c4c4c4c ; undefined
 3f0:	ff031005 	.inst	0xff031005 ; undefined
 3f4:	09054a7d 	.inst	0x09054a7d ; undefined
 3f8:	05054b4c 	.inst	0x05054b4c ; undefined
 3fc:	1e05ae08 	.inst	0x1e05ae08 ; undefined
 400:	f201ff03 	.inst	0xf201ff03 ; undefined
 404:	4a060905 	eor	w5, w8, w6, lsl #2
 408:	05054c06 	.inst	0x05054c06 ; undefined
 40c:	0306b008 	.inst	0x0306b008 ; undefined
 410:	3c087da0 	str	b0, [x13, #135]!
 414:	03060905 	.inst	0x03060905 ; undefined
 418:	058202e2 	and	z2.d, z2.d, #0xffffff
 41c:	0505f132 	.inst	0x0505f132 ; undefined
 420:	f3be8549 	.inst	0xf3be8549 ; undefined
 424:	7d980306 	.inst	0x7d980306 ; undefined
 428:	0615054a 	.inst	0x0615054a ; undefined
 42c:	ba00d503 	.inst	0xba00d503 ; undefined
 430:	054b1005 	.inst	0x054b1005 ; undefined
 434:	10054c09 	adr	x9, adb4 <_binary_shell_bin_size+0xa93b>
 438:	4c090548 	.inst	0x4c090548 ; undefined
 43c:	054d0505 	.inst	0x054d0505 ; undefined
 440:	0293031c 	.inst	0x0293031c ; undefined
 444:	850905f2 	.inst	0x850905f2 ; undefined
 448:	06471c05 	.inst	0x06471c05 ; undefined
 44c:	4a7d9203 	.inst	0x4a7d9203 ; undefined
 450:	03062505 	.inst	0x03062505 ; undefined
 454:	054a02f1 	.inst	0x054a02f1 ; undefined
 458:	064a0609 	.inst	0x064a0609 ; undefined
 45c:	0332054b 	.inst	0x0332054b ; undefined
 460:	063c0876 	.inst	0x063c0876 ; undefined
 464:	4a7d9803 	.inst	0x4a7d9803 ; undefined
 468:	e8030505 	.inst	0xe8030505 ; undefined
 46c:	98034a02 	ldrsw	x2, 6dac <_binary_shell_bin_size+0x6933>
 470:	1505827d 	b	4160e64 <_binary_shell_bin_size+0x41609eb>
 474:	00d50306 	.inst	0x00d50306 ; undefined
 478:	10053c08 	adr	x8, abf8 <_binary_shell_bin_size+0xa77f>
 47c:	4c09054b 	.inst	0x4c09054b ; undefined
 480:	05481005 	.inst	0x05481005 ; undefined
 484:	05054c09 	.inst	0x05054c09 ; undefined
 488:	0309054d 	.inst	0x0309054d ; undefined
 48c:	05f2029f 	.inst	0x05f2029f ; undefined
 490:	053a0820 	ext	z0.b, z0.b, z1.b, #210
 494:	034a0605 	.inst	0x034a0605 ; undefined
 498:	05827d88 	and	z8.d, z8.d, #0xfffe00003fffffff
 49c:	be03060d 	.inst	0xbe03060d ; undefined
 4a0:	05058202 	.inst	0x05058202 ; undefined
 4a4:	00c4030b 	.inst	0x00c4030b ; undefined
 4a8:	030d0582 	.inst	0x030d0582 ; undefined
 4ac:	054a7fbc 	.inst	0x054a7fbc ; undefined
 4b0:	00c40305 	.inst	0x00c40305 ; undefined
 4b4:	7d13054a 	str	h10, [x10, #2434]
 4b8:	054f0505 	.inst	0x054f0505 ; undefined
 4bc:	05057f0e 	.inst	0x05057f0e ; undefined
 4c0:	7d0f054d 	str	h13, [x10, #1922]
 4c4:	054f0505 	.inst	0x054f0505 ; undefined
 4c8:	7dd70309 	.inst	0x7dd70309 ; undefined
 4cc:	ac080682 	stnp	q2, q1, [x20, #256]
 4d0:	03060005 	.inst	0x03060005 ; undefined
 4d4:	ac0802af 	stnp	q15, q0, [x21, #256]
 4d8:	bc0a2b05 	.inst	0xbc0a2b05 ; undefined
 4dc:	4a063205 	eor	w5, w16, w6, lsl #12
 4e0:	05820505 	and	z5.d, z5.d, #0x1ffffffffff
 4e4:	05bb061b 	zip2	z27.q, z16.q, z27.q
 4e8:	14054b05 	b	1530fc <_binary_shell_bin_size+0x152c83>
 4ec:	49210585 	.inst	0x49210585 ; undefined
 4f0:	89030505 	.inst	0x89030505 ; undefined
 4f4:	14054a7d 	b	152ee8 <_binary_shell_bin_size+0x152a6f>
 4f8:	f202f803 	.inst	0xf202f803 ; undefined
 4fc:	88030505 	stxr	w3, w5, [x8]
 500:	1205ba7d 	and	w29, w19, #0xfbfffbff
 504:	4a038403 	.inst	0x4a038403 ; undefined
 508:	05470505 	.inst	0x05470505 ; undefined
 50c:	05500b01 	mov	z1.h, p0/z, #88
 510:	ba76030d 	.inst	0xba76030d ; undefined
 514:	030005bb 	.inst	0x030005bb ; undefined
 518:	05ac080b 	uzp1	z11.q, z0.q, z12.q
 51c:	75080a05 	.inst	0x75080a05 ; undefined
 520:	f91f05f4 	str	x20, [x15, #15880]
 524:	054d0505 	.inst	0x054d0505 ; undefined
 528:	05058018 	.inst	0x05058018 ; undefined
 52c:	4b81bf4c 	.inst	0x4b81bf4c ; undefined
 530:	cc03064c 	.inst	0xcc03064c ; undefined
 534:	0d05827c 	.inst	0x0d05827c ; undefined
 538:	03bd0306 	.inst	0x03bd0306 ; undefined
 53c:	05bb3c08 	.inst	0x05bb3c08 ; undefined
 540:	826d0318 	.inst	0x826d0318 ; undefined
 544:	13030d05 	sbfx	w5, w8, #3, #1
 548:	f3f3bb4a 	.inst	0xf3f3bb4a ; undefined
 54c:	c00b0105 	.inst	0xc00b0105 ; undefined
 550:	7cb90306 	.inst	0x7cb90306 ; undefined
 554:	1c053c08 	ldr	s8, acd4 <_binary_shell_bin_size+0xa85b>
 558:	03b60306 	.inst	0x03b60306 ; undefined
 55c:	03050582 	.inst	0x03050582 ; undefined
 560:	2b054a54 	adds	w20, w18, w5, lsl #18
 564:	32058206 	orr	w6, w16, #0x8000800
 568:	4a05054a 	eor	w10, w10, w5, lsl #1
 56c:	4b061b05 	sub	w5, w24, w6, lsl #6
 570:	054b0505 	.inst	0x054b0505 ; undefined
 574:	21058514 	.inst	0x21058514 ; undefined
 578:	03050549 	.inst	0x03050549 ; undefined
 57c:	054a7d89 	.inst	0x054a7d89 ; undefined
 580:	02f80314 	.inst	0x02f80314 ; undefined
 584:	030505f2 	.inst	0x030505f2 ; undefined
 588:	05ba7d88 	.inst	0x05ba7d88 ; undefined
 58c:	03a0030d 	.inst	0x03a0030d ; undefined
 590:	0312054a 	.inst	0x0312054a ; undefined
 594:	05058264 	.inst	0x05058264 ; undefined
 598:	030d0547 	.inst	0x030d0547 ; undefined
 59c:	0d034a1f 	.inst	0x0d034a1f ; undefined
 5a0:	18053c08 	ldr	w8, ad20 <_binary_shell_bin_size+0xa8a7>
 5a4:	05826703 	and	z3.d, z3.d, #0xfff01fffffffffff
 5a8:	4a19030d 	eor	w13, w24, w25
 5ac:	084f03bb 	ldxrb	w27, [x29]
 5b0:	0005bbac 	.inst	0x0005bbac ; undefined
 5b4:	ac083703 	stnp	q3, q13, [x24, #256]
 5b8:	830a0505 	.inst	0x830a0505 ; undefined
 5bc:	087ce203 	.inst	0x087ce203 ; undefined
 5c0:	4b1d05ac 	sub	w12, w13, w29, lsl #1
 5c4:	064c0905 	.inst	0x064c0905 ; undefined
 5c8:	05824e03 	and	z3.d, z3.d, #0xff8000ffffffffff
 5cc:	37030605 	tbnz	w5, #0, 668c <_binary_shell_bin_size+0x6213>
 5d0:	064ec282 	.inst	0x064ec282 ; undefined
 5d4:	4a7fbd03 	.inst	0x4a7fbd03 ; undefined
 5d8:	00cf0306 	.inst	0x00cf0306 ; undefined
 5dc:	030b054a 	.inst	0x030b054a ; undefined
 5e0:	05058278 	.inst	0x05058278 ; undefined
 5e4:	0306894b 	.inst	0x0306894b ; undefined
 5e8:	054a7fb1 	.inst	0x054a7fb1 ; undefined
 5ec:	33030609 	bfi	w9, w16, #29, #2
 5f0:	0311054a 	.inst	0x0311054a ; undefined
 5f4:	05ba03b9 	zip1	z25.q, z29.q, z26.q
 5f8:	05ba060f 	zip2	z15.q, z16.q, z26.q
 5fc:	054b0614 	.inst	0x054b0614 ; undefined
 600:	1205490f 	and	w15, w8, #0xf8003fff
 604:	8505054c 	.inst	0x8505054c ; undefined
 608:	bc3d08bb 	.inst	0xbc3d08bb ; undefined
 60c:	05bb0205 	zip1	z5.q, z16.q, z27.q
 610:	02054b05 	.inst	0x02054b05 ; undefined
 614:	001c02bd 	.inst	0x001c02bd ; undefined
 618:	00040101 	.inst	0x00040101 ; undefined
 61c:	000a0505 	.inst	0x000a0505 ; undefined
 620:	00000209 	udf	#521
 624:	00004020 	udf	#16416
 628:	82030000 	.inst	0x82030000 ; undefined
 62c:	18020104 	ldr	w4, 464c <_binary_shell_bin_size+0x41d3>
 630:	04010100 	sub	z0.b, p0/m, z0.b, z8.b
 634:	05000002 	orr	z2.s, z2.s, #0x1
 638:	50000800 	adr	x0, 73a <_binary_shell_bin_size+0x2c1>
 63c:	01000000 	.inst	0x01000000 ; undefined
 640:	0efb0101 	.inst	0x0efb0101 ; undefined
 644:	0101000d 	.inst	0x0101000d ; undefined
 648:	00000101 	udf	#257
 64c:	00000100 	udf	#256
 650:	1f010101 	fmadd	s1, s8, s1, s0
 654:	00000902 	udf	#2306
 658:	00004700 	udf	#18176
 65c:	1f010300 	fmadd	s0, s24, s1, s0
 660:	1e050f02 	.inst	0x1e050f02 ; undefined
 664:	00003e02 	udf	#15874
 668:	8ac70000 	and	x0, x0, x7, ror #0
 66c:	f5e118f3 	.inst	0xf5e118f3 ; undefined
 670:	99c80d0e 	.inst	0x99c80d0e ; undefined
 674:	09de0812 	.inst	0x09de0812 ; undefined
 678:	0057c361 	.inst	0x0057c361 ; undefined
 67c:	cf010000 	.inst	0xcf010000 ; undefined
 680:	82e0269f 	.inst	0x82e0269f ; undefined
 684:	4dc14b14 	ld1	{v20.h}[5], [x24], x1
 688:	77248d0d 	.inst	0x77248d0d ; undefined
 68c:	04dff952 	msb	z18.d, p6/m, z31.d, z10.d
 690:	0a050500 	and	w0, w8, w5, lsl #1
 694:	7c020900 	.inst	0x7c020900 ; undefined
 698:	0040200d 	.inst	0x0040200d ; undefined
 69c:	19000000 	stlurb	w0, [x0]
 6a0:	02780306 	.inst	0x02780306 ; undefined
 6a4:	44080124 	.inst	0x44080124 ; undefined
 6a8:	f3061005 	.inst	0xf3061005 ; undefined
 6ac:	ba060e05 	.inst	0xba060e05 ; undefined
 6b0:	b9060505 	str	w5, [x8, #1540]
 6b4:	2c021005 	stnp	s5, s4, [x0, #16]
 6b8:	060e0513 	.inst	0x060e0513 ; undefined
 6bc:	06050582 	.inst	0x06050582 ; undefined
 6c0:	78030681 	strh	w1, [x20], #48
 6c4:	061005ba 	.inst	0x061005ba ; undefined
 6c8:	05ba0903 	uzp1	z3.q, z8.q, z26.q
 6cc:	0e05490d 	.inst	0x0e05490d ; undefined
 6d0:	4905054b 	.inst	0x4905054b ; undefined
 6d4:	064f0a4c 	.inst	0x064f0a4c ; undefined
 6d8:	03ba7103 	.inst	0x03ba7103 ; undefined
 6dc:	7103820f 	subs	w15, w16, #0xe0
 6e0:	820f03ba 	.inst	0x820f03ba ; undefined
 6e4:	f3060e05 	.inst	0xf3060e05 ; undefined
 6e8:	06f10505 	.inst	0x06f10505 ; undefined
 6ec:	28027103 	stnp	w3, w28, [x8, #16]
 6f0:	060e0501 	.inst	0x060e0501 ; undefined
 6f4:	054a1003 	.inst	0x054a1003 ; undefined
 6f8:	03068105 	.inst	0x03068105 ; undefined
 6fc:	0d05ba71 	.inst	0x0d05ba71 ; undefined
 700:	05820f03 	and	z3.d, z3.d, #0x80ffffffffffffff
 704:	054b060e 	.inst	0x054b060e ; undefined
 708:	054c4905 	.inst	0x054c4905 ; undefined
 70c:	054f0a0c 	.inst	0x054f0a0c ; undefined
 710:	05820605 	and	z5.d, z5.d, #0x1ffffffffffff
 714:	05bb060e 	zip2	z14.q, z16.q, z27.q
 718:	0505490c 	.inst	0x0505490c ; undefined
 71c:	08054a06 	stxrb	w5, w6, [x16]
 720:	05054c06 	.inst	0x05054c06 ; undefined
 724:	0a0c054b 	and	w11, w10, w12, lsl #1
 728:	0610054e 	.inst	0x0610054e ; undefined
 72c:	4a05054a 	eor	w10, w10, w5, lsl #1
 730:	054a1305 	.inst	0x054a1305 ; undefined
 734:	0c054a05 	.inst	0x0c054a05 ; undefined
 738:	060b0582 	.inst	0x060b0582 ; undefined
 73c:	4610054e 	.inst	0x4610054e ; undefined
 740:	05512305 	mov	z5.h, p1/z, #6144
 744:	054a0621 	.inst	0x054a0621 ; undefined
 748:	00054a05 	.inst	0x00054a05 ; undefined
 74c:	05054d06 	.inst	0x05054d06 ; undefined
 750:	142c020a 	b	b00f78 <_binary_shell_bin_size+0xb00aff>
 754:	4c020d05 	.inst	0x4c020d05 ; undefined
 758:	030c0517 	.inst	0x030c0517 ; undefined
 75c:	44034a39 	.inst	0x44034a39 ; undefined
 760:	0605054a 	.inst	0x0605054a ; undefined
 764:	0300054a 	.inst	0x0300054a ; undefined
 768:	0c05ba55 	.inst	0x0c05ba55 ; undefined
 76c:	00e70306 	.inst	0x00e70306 ; undefined
 770:	9903064a 	.inst	0x9903064a ; undefined
 774:	15054a7f 	b	4153170 <_binary_shell_bin_size+0x4152cf7>
 778:	4a2e0306 	eon	w6, w24, w14
 77c:	4a060d05 	eor	w5, w8, w6, lsl #3
 780:	03062105 	.inst	0x03062105 ; undefined
 784:	06740810 	.inst	0x06740810 ; undefined
 788:	24024203 	cmpge	p3.b, p0/z, z16.b, z2.d
 78c:	060d0501 	.inst	0x060d0501 ; undefined
 790:	05822e03 	and	z3.d, z3.d, #0xf8000fffffffffff
 794:	f2290321 	ands	x1, x25, #0x80000000800000
 798:	5f032505 	.inst	0x5f032505 ; undefined
 79c:	05012402 	orr	z2.h, z2.h, #0x1000
 7a0:	1a240221 	.inst	0x1a240221 ; undefined
 7a4:	4bf41905 	.inst	0x4bf41905 ; undefined
 7a8:	06832505 	.inst	0x06832505 ; undefined
 7ac:	4a7fbe03 	.inst	0x4a7fbe03 ; undefined
 7b0:	03061505 	.inst	0x03061505 ; undefined
 7b4:	054a00c6 	.inst	0x054a00c6 ; undefined
 7b8:	26058321 	.inst	0x26058321 ; undefined
 7bc:	06150581 	.inst	0x06150581 ; undefined
 7c0:	0631054a 	.inst	0x0631054a ; undefined
 7c4:	06210586 	.inst	0x06210586 ; undefined
 7c8:	4a19054a 	eor	w10, w10, w25, lsl #1
 7cc:	4c062105 	.inst	0x4c062105 ; undefined
 7d0:	05471505 	.inst	0x05471505 ; undefined
 7d4:	03068521 	.inst	0x03068521 ; undefined
 7d8:	054a7fb4 	.inst	0x054a7fb4 ; undefined
 7dc:	c9030615 	.inst	0xc9030615 ; undefined
 7e0:	25054a00 	eor	p0.b, p2/z, p0.b, p5.b
 7e4:	05826d03 	and	z3.d, z3.d, #0xfff800000fffffff
 7e8:	1505f31c 	b	417d458 <_binary_shell_bin_size+0x417cfdf>
 7ec:	19054a06 	.inst	0x19054a06 ; undefined
 7f0:	1c058306 	ldr	s6, b850 <_binary_shell_bin_size+0xb3d7>
 7f4:	06150549 	.inst	0x06150549 ; undefined
 7f8:	0621054a 	.inst	0x0621054a ; undefined
 7fc:	06822003 	.inst	0x06822003 ; undefined
 800:	f27fa903 	ands	x3, x8, #0xffffffffffe
 804:	03061205 	.inst	0x03061205 ; undefined
 808:	05ba00dc 	zip1	z28.q, z6.q, z26.q
 80c:	034a060a 	.inst	0x034a060a ; undefined
 810:	05827fa4 	and	z4.d, z4.d, #0xfffe7fffffffffff
 814:	d9030619 	.inst	0xd9030619 ; undefined
 818:	06054a00 	.inst	0x06054a00 ; undefined
 81c:	21054a06 	.inst	0x21054a06 ; undefined
 820:	13058306 	.inst	0x13058306 ; undefined
 824:	a503064b 	ld1rqw	{z11.s}, p1/z, [x18, x3, lsl #2]
 828:	15054a7f 	b	4153224 <_binary_shell_bin_size+0x4152dab>
 82c:	f2300306 	ands	x6, x24, #0x1000000010000
 830:	030b0105 	.inst	0x030b0105 ; undefined
 834:	1c02823c 	ldr	s28, 5878 <_binary_shell_bin_size+0x53ff>
 838:	8c010100 	.inst	0x8c010100 ; undefined
 83c:	05000000 	orr	z0.s, z0.s, #0x1
 840:	37000800 	tbnz	w0, #0, 940 <_binary_shell_bin_size+0x4c7>
 844:	01000000 	.inst	0x01000000 ; undefined
 848:	0efb0101 	.inst	0x0efb0101 ; undefined
 84c:	0101000d 	.inst	0x0101000d ; undefined
 850:	00000101 	udf	#257
 854:	00000100 	udf	#256
 858:	1f010101 	fmadd	s1, s8, s1, s0
 85c:	00000901 	udf	#2305
 860:	1f010300 	fmadd	s0, s24, s1, s0
 864:	1e050f02 	.inst	0x1e050f02 ; undefined
 868:	00004901 	udf	#18689
 86c:	79bc0000 	ldrsh	x0, [x0, #7680]
 870:	edb745be 	.inst	0xedb745be ; undefined
 874:	e095bcd9 	.inst	0xe095bcd9 ; undefined
 878:	fb48f363 	.inst	0xfb48f363 ; undefined
 87c:	000434bd 	.inst	0x000434bd ; undefined
 880:	80020900 	.inst	0x80020900 ; undefined
 884:	00402011 	.inst	0x00402011 ; undefined
 888:	16000000 	b	fffffffff8000888 <__free_ram_end+0xffffffffb5dcd888>
 88c:	4b4b4b4e 	sub	w14, w26, w11, lsr #18
 890:	4b4b4b4b 	sub	w11, w26, w11, lsr #18
 894:	4b4b4b4b 	sub	w11, w26, w11, lsr #18
 898:	4b4b4b4b 	sub	w11, w26, w11, lsr #18
 89c:	4b4b4b4b 	sub	w11, w26, w11, lsr #18
 8a0:	4b4d4b4f 	sub	w15, w26, w13, lsr #18
 8a4:	4b4b4b4b 	sub	w11, w26, w11, lsr #18
 8a8:	4b4b4b4b 	sub	w11, w26, w11, lsr #18
 8ac:	4b4b4b4b 	sub	w11, w26, w11, lsr #18
 8b0:	4b4b4b4b 	sub	w11, w26, w11, lsr #18
 8b4:	4b4b4b4b 	sub	w11, w26, w11, lsr #18
 8b8:	4b4e4b4e 	sub	w14, w26, w14, lsr #18
 8bc:	4b4e4b4e 	sub	w14, w26, w14, lsr #18
 8c0:	4b4e4b4e 	sub	w14, w26, w14, lsr #18
 8c4:	04024b4e 	mla	z14.b, p2/m, z26.b, z2.b
 8c8:	8e010100 	.inst	0x8e010100 ; undefined
 8cc:	05000000 	orr	z0.s, z0.s, #0x1
 8d0:	37000800 	tbnz	w0, #0, 9d0 <_binary_shell_bin_size+0x557>
 8d4:	01000000 	.inst	0x01000000 ; undefined
 8d8:	0efb0101 	.inst	0x0efb0101 ; undefined
 8dc:	0101000d 	.inst	0x0101000d ; undefined
 8e0:	00000101 	udf	#257
 8e4:	00000100 	udf	#256
 8e8:	1f010101 	fmadd	s1, s8, s1, s0
 8ec:	00000901 	udf	#2305
 8f0:	1f010300 	fmadd	s0, s24, s1, s0
 8f4:	1e050f02 	.inst	0x1e050f02 ; undefined
 8f8:	00002f01 	udf	#12033
 8fc:	59800000 	ldapursh	x0, [x0]
 900:	0b65af51 	.inst	0x0b65af51 ; undefined
 904:	046aacc4 	adr	z4.d, [z6.d, z10.d, uxtw #3]
 908:	b0abeaae 	adrp	x14, ffffffff57d55000 <__free_ram_end+0xffffffff15b22000>
 90c:	00044d7a 	.inst	0x00044d7a ; undefined
 910:	00020900 	.inst	0x00020900 ; undefined
 914:	00402018 	.inst	0x00402018 ; undefined
 918:	18000000 	ldr	w0, 918 <_binary_shell_bin_size+0x49f>
 91c:	14018002 	b	60924 <_binary_shell_bin_size+0x604ab>
 920:	14018002 	b	60928 <_binary_shell_bin_size+0x604af>
 924:	14018002 	b	6092c <_binary_shell_bin_size+0x604b3>
 928:	16018002 	b	fffffffff8060930 <__free_ram_end+0xffffffffb5e2d930>
 92c:	14018002 	b	60934 <_binary_shell_bin_size+0x604bb>
 930:	14018002 	b	60938 <_binary_shell_bin_size+0x604bf>
 934:	14018002 	b	6093c <_binary_shell_bin_size+0x604c3>
 938:	16018002 	b	fffffffff8060940 <__free_ram_end+0xffffffffb5e2d940>
 93c:	14018002 	b	60944 <_binary_shell_bin_size+0x604cb>
 940:	14018002 	b	60948 <_binary_shell_bin_size+0x604cf>
 944:	14018002 	b	6094c <_binary_shell_bin_size+0x604d3>
 948:	16018002 	b	fffffffff8060950 <__free_ram_end+0xffffffffb5e2d950>
 94c:	14018002 	b	60954 <_binary_shell_bin_size+0x604db>
 950:	14018002 	b	60958 <_binary_shell_bin_size+0x604df>
 954:	14018002 	b	6095c <_binary_shell_bin_size+0x604e3>
 958:	01000402 	.inst	0x01000402 ; undefined
 95c:	00009c01 	udf	#39937
 960:	08000500 	stxrb	w0, w0, [x8]
 964:	00005000 	udf	#20480
 968:	01010100 	.inst	0x01010100 ; undefined
 96c:	000d0efb 	.inst	0x000d0efb ; undefined
 970:	01010101 	.inst	0x01010101 ; undefined
 974:	01000000 	.inst	0x01000000 ; undefined
 978:	01010000 	.inst	0x01010000 ; undefined
 97c:	09021f01 	.inst	0x09021f01 ; undefined
 980:	47000000 	.inst	0x47000000 ; undefined
 984:	03000000 	.inst	0x03000000 ; undefined
 988:	0f021f01 	.inst	0x0f021f01 ; undefined
 98c:	50021e05 	adr	x5, 4d4e <_binary_shell_bin_size+0x48d5>
 990:	00000000 	udf	#0
 994:	e9e984e1 	.inst	0xe9e984e1 ; undefined
 998:	c1538c3d 	suvdot	za.s[w8, 5, vgx4], {z0.b-z3.b}, z3.b[3]
 99c:	0e3201cd 	saddl	v13.8h, v14.8b, v18.8b
 9a0:	925083b3 	and	x19, x29, #0xffff00000001ffff
 9a4:	00000057 	udf	#87
 9a8:	269fcf01 	.inst	0x269fcf01 ; undefined
 9ac:	4b1482e0 	.inst	0x4b1482e0 ; undefined
 9b0:	8d0d4dc1 	.inst	0x8d0d4dc1 ; undefined
 9b4:	f9527724 	ldr	x4, [x25, #9448]
 9b8:	000004df 	udf	#1247
 9bc:	126c0209 	.inst	0x126c0209 ; undefined
 9c0:	00004020 	udf	#16416
 9c4:	05150000 	mov	z0.b, p5/z, #0
 9c8:	3f080a1f 	.inst	0x3f080a1f ; undefined
 9cc:	f3520505 	.inst	0xf3520505 ; undefined
 9d0:	05f3f3f3 	mov	z19.d, p12/m, z31.d
 9d4:	82770319 	.inst	0x82770319 ; undefined
 9d8:	09030505 	.inst	0x09030505 ; undefined
 9dc:	18054b4a 	ldr	w10, b344 <_binary_shell_bin_size+0xaecb>
 9e0:	05827903 	and	z3.d, z3.d, #0x3fe000000000000
 9e4:	0a4b5105 	and	w5, w8, w11, lsr #20
 9e8:	500ab108 	adr	x8, 1600a <_binary_shell_bin_size+0x15b91>
 9ec:	500a500a 	adr	x10, 153ee <_binary_shell_bin_size+0x14f75>
 9f0:	500a510a 	adr	x10, 15412 <_binary_shell_bin_size+0x14f99>
 9f4:	500a500a 	adr	x10, 153f6 <_binary_shell_bin_size+0x14f7d>
 9f8:	01000402 	.inst	0x01000402 ; undefined
 9fc:	Address 0x9fc is out of bounds.


Disassembly of section .debug_line_str:

0000000000000000 <.debug_line_str>:
   0:	6e72656b 	umax	v11.8h, v11.8h, v18.8h
   4:	632e6c65 	.inst	0x632e6c65 ; undefined
   8:	6f682f00 	.inst	0x6f682f00 ; undefined
   c:	722f656d 	ands	w13, w11, #0xfffe07ff
  10:	7469686f 	.inst	0x7469686f ; undefined
  14:	75662f68 	.inst	0x75662f68 ; undefined
  18:	694d2f6e 	ldpsw	x14, x11, [x27, #104]
  1c:	4f2d696e 	.inst	0x4f2d696e ; undefined
  20:	65642d53 	fmls	z19.h, p3/m, z10.h, z4.h
  24:	656b0076 	fmla	z22.h, p0/m, z3.h, z11.h
  28:	6c656e72 	ldnp	d18, d27, [x19, #-432]
  2c:	7600682e 	.inst	0x7600682e ; undefined
  30:	6f746365 	umlsl2	v5.4s, v27.8h, v4.h[3]
  34:	61745f72 	.inst	0x61745f72 ; undefined
  38:	2e656c62 	umin	v2.4h, v3.4h, v5.4h
  3c:	6f630073 	mla	v19.8h, v3.8h, v3.h[2]
  40:	6e6f6d6d 	umin	v13.8h, v11.8h, v15.8h
  44:	2e00632e 	.inst	0x2e00632e ; undefined
  48:	63657600 	.inst	0x63657600 ; undefined
  4c:	00732e74 	.inst	0x00732e74 ; undefined
  50:	74636576 	.inst	0x74636576 ; undefined
  54:	6300632e 	.inst	0x6300632e ; undefined
  58:	6f6d6d6f 	.inst	0x6f6d6d6f ; undefined
  5c:	00682e6e 	.inst	0x00682e6e ; undefined

Disassembly of section .debug_aranges:

0000000000000000 <.debug_aranges>:
   0:	0000002c 	udf	#44
   4:	10d40002 	adr	x2, fffffffffffa8004 <__free_ram_end+0xffffffffbdd75004>
   8:	00080000 	.inst	0x00080000 ; undefined
   c:	00000000 	udf	#0
  10:	40201180 	.inst	0x40201180 ; undefined
  14:	00000000 	udf	#0
  18:	000000ec 	udf	#236
	...
  30:	0000002c 	udf	#44
  34:	12530002 	.inst	0x12530002 ; undefined
  38:	00080000 	.inst	0x00080000 ; undefined
  3c:	00000000 	udf	#0
  40:	40201800 	.inst	0x40201800 ; undefined
  44:	00000000 	udf	#0
  48:	00000784 	udf	#1924
	...
