
shell.elf:     file format elf64-littleaarch64


Disassembly of section .text:

0000000046000000 <start>:
    46000000:	d503201f 	nop
    46000004:	10082368 	adr	x8, 46010470 <__stack_top>
    46000008:	9100011f 	mov	sp, x8
    4600000c:	94000002 	bl	46000014 <main>
    46000010:	9400000a 	bl	46000038 <exit>

0000000046000014 <main>:
    46000014:	a9bf7bfd 	stp	x29, x30, [sp, #-16]!
    46000018:	910003fd 	mov	x29, sp
    4600001c:	52a80408 	mov	w8, #0x40200000            	// #1075838976
    46000020:	52824689 	mov	w9, #0x1234                	// #4660
    46000024:	d503201f 	nop
    46000028:	100020e0 	adr	x0, 46000444 <printf+0x244>
    4600002c:	b9000109 	str	w9, [x8]
    46000030:	94000074 	bl	46000200 <printf>
    46000034:	14000000 	b	46000034 <main+0x20>

0000000046000038 <exit>:
    46000038:	14000000 	b	46000038 <exit>

000000004600003c <putchar>:
    4600003c:	d65f03c0 	ret

0000000046000040 <memcpy>:
    46000040:	34000622 	cbz	w2, 46000104 <memcpy+0xc4>
    46000044:	7100205f 	cmp	w2, #0x8
    46000048:	54000123 	b.cc	4600006c <memcpy+0x2c>  // b.lo, b.ul, b.last
    4600004c:	cb010008 	sub	x8, x0, x1
    46000050:	f100811f 	cmp	x8, #0x20
    46000054:	540000c3 	b.cc	4600006c <memcpy+0x2c>  // b.lo, b.ul, b.last
    46000058:	7100805f 	cmp	w2, #0x20
    4600005c:	2a0203e8 	mov	w8, w2
    46000060:	540000c2 	b.cs	46000078 <memcpy+0x38>  // b.hs, b.nlast
    46000064:	aa1f03eb 	mov	x11, xzr
    46000068:	14000012 	b	460000b0 <memcpy+0x70>
    4600006c:	aa0103e9 	mov	x9, x1
    46000070:	aa0003ea 	mov	x10, x0
    46000074:	14000020 	b	460000f4 <memcpy+0xb4>
    46000078:	927b690b 	and	x11, x8, #0xffffffe0
    4600007c:	91004009 	add	x9, x0, #0x10
    46000080:	9100402a 	add	x10, x1, #0x10
    46000084:	aa0b03ec 	mov	x12, x11
    46000088:	ad7f8540 	ldp	q0, q1, [x10, #-16]
    4600008c:	f100818c 	subs	x12, x12, #0x20
    46000090:	9100814a 	add	x10, x10, #0x20
    46000094:	ad3f8520 	stp	q0, q1, [x9, #-16]
    46000098:	91008129 	add	x9, x9, #0x20
    4600009c:	54ffff61 	b.ne	46000088 <memcpy+0x48>  // b.any
    460000a0:	eb08017f 	cmp	x11, x8
    460000a4:	54000300 	b.eq	46000104 <memcpy+0xc4>  // b.none
    460000a8:	f27d051f 	tst	x8, #0x18
    460000ac:	540001e0 	b.eq	460000e8 <memcpy+0xa8>  // b.none
    460000b0:	927d710c 	and	x12, x8, #0xfffffff8
    460000b4:	8b0b000d 	add	x13, x0, x11
    460000b8:	8b0b002e 	add	x14, x1, x11
    460000bc:	8b0c0029 	add	x9, x1, x12
    460000c0:	8b0c000a 	add	x10, x0, x12
    460000c4:	4b0c0042 	sub	w2, w2, w12
    460000c8:	cb0c016b 	sub	x11, x11, x12
    460000cc:	fc4085c0 	ldr	d0, [x14], #8
    460000d0:	b100216b 	adds	x11, x11, #0x8
    460000d4:	fc0085a0 	str	d0, [x13], #8
    460000d8:	54ffffa1 	b.ne	460000cc <memcpy+0x8c>  // b.any
    460000dc:	eb08019f 	cmp	x12, x8
    460000e0:	540000a1 	b.ne	460000f4 <memcpy+0xb4>  // b.any
    460000e4:	14000008 	b	46000104 <memcpy+0xc4>
    460000e8:	4b0b0042 	sub	w2, w2, w11
    460000ec:	8b0b000a 	add	x10, x0, x11
    460000f0:	8b0b0029 	add	x9, x1, x11
    460000f4:	38401528 	ldrb	w8, [x9], #1
    460000f8:	71000442 	subs	w2, w2, #0x1
    460000fc:	38001548 	strb	w8, [x10], #1
    46000100:	54ffffa1 	b.ne	460000f4 <memcpy+0xb4>  // b.any
    46000104:	d65f03c0 	ret

0000000046000108 <memset>:
    46000108:	340004e2 	cbz	w2, 460001a4 <memset+0x9c>
    4600010c:	7100205f 	cmp	w2, #0x8
    46000110:	54000062 	b.cs	4600011c <memset+0x14>  // b.hs, b.nlast
    46000114:	aa0003e9 	mov	x9, x0
    46000118:	14000020 	b	46000198 <memset+0x90>
    4600011c:	7100805f 	cmp	w2, #0x20
    46000120:	2a0203e8 	mov	w8, w2
    46000124:	54000062 	b.cs	46000130 <memset+0x28>  // b.hs, b.nlast
    46000128:	aa1f03ea 	mov	x10, xzr
    4600012c:	1400000d 	b	46000160 <memset+0x58>
    46000130:	4e010c20 	dup	v0.16b, w1
    46000134:	927b690a 	and	x10, x8, #0xffffffe0
    46000138:	91004009 	add	x9, x0, #0x10
    4600013c:	aa0a03eb 	mov	x11, x10
    46000140:	ad3f8120 	stp	q0, q0, [x9, #-16]
    46000144:	f100816b 	subs	x11, x11, #0x20
    46000148:	91008129 	add	x9, x9, #0x20
    4600014c:	54ffffa1 	b.ne	46000140 <memset+0x38>  // b.any
    46000150:	eb08015f 	cmp	x10, x8
    46000154:	54000280 	b.eq	460001a4 <memset+0x9c>  // b.none
    46000158:	f27d051f 	tst	x8, #0x18
    4600015c:	540001a0 	b.eq	46000190 <memset+0x88>  // b.none
    46000160:	0e010c20 	dup	v0.8b, w1
    46000164:	927d710b 	and	x11, x8, #0xfffffff8
    46000168:	8b0a000c 	add	x12, x0, x10
    4600016c:	8b0b0009 	add	x9, x0, x11
    46000170:	4b0b0042 	sub	w2, w2, w11
    46000174:	cb0b014a 	sub	x10, x10, x11
    46000178:	b100214a 	adds	x10, x10, #0x8
    4600017c:	fc008580 	str	d0, [x12], #8
    46000180:	54ffffc1 	b.ne	46000178 <memset+0x70>  // b.any
    46000184:	eb08017f 	cmp	x11, x8
    46000188:	54000081 	b.ne	46000198 <memset+0x90>  // b.any
    4600018c:	14000006 	b	460001a4 <memset+0x9c>
    46000190:	4b0a0042 	sub	w2, w2, w10
    46000194:	8b0a0009 	add	x9, x0, x10
    46000198:	71000442 	subs	w2, w2, #0x1
    4600019c:	38001521 	strb	w1, [x9], #1
    460001a0:	54ffffc1 	b.ne	46000198 <memset+0x90>  // b.any
    460001a4:	d65f03c0 	ret

00000000460001a8 <strcpy>:
    460001a8:	39400028 	ldrb	w8, [x1]
    460001ac:	aa0003e9 	mov	x9, x0
    460001b0:	340000c8 	cbz	w8, 460001c8 <strcpy+0x20>
    460001b4:	9100042a 	add	x10, x1, #0x1
    460001b8:	aa0003e9 	mov	x9, x0
    460001bc:	38001528 	strb	w8, [x9], #1
    460001c0:	38401548 	ldrb	w8, [x10], #1
    460001c4:	35ffffc8 	cbnz	w8, 460001bc <strcpy+0x14>
    460001c8:	3900013f 	strb	wzr, [x9]
    460001cc:	d65f03c0 	ret

00000000460001d0 <strcmp>:
    460001d0:	39400008 	ldrb	w8, [x0]
    460001d4:	34000108 	cbz	w8, 460001f4 <strcmp+0x24>
    460001d8:	91000409 	add	x9, x0, #0x1
    460001dc:	3940002a 	ldrb	w10, [x1]
    460001e0:	6b0a011f 	cmp	w8, w10
    460001e4:	54000081 	b.ne	460001f4 <strcmp+0x24>  // b.any
    460001e8:	38401528 	ldrb	w8, [x9], #1
    460001ec:	91000421 	add	x1, x1, #0x1
    460001f0:	35ffff68 	cbnz	w8, 460001dc <strcmp+0xc>
    460001f4:	39400029 	ldrb	w9, [x1]
    460001f8:	4b090100 	sub	w0, w8, w9
    460001fc:	d65f03c0 	ret

0000000046000200 <printf>:
    46000200:	d104c3ff 	sub	sp, sp, #0x130
    46000204:	a90e7bfd 	stp	x29, x30, [sp, #224]
    46000208:	f9007bfc 	str	x28, [sp, #240]
    4600020c:	a9105ff8 	stp	x24, x23, [sp, #256]
    46000210:	a91157f6 	stp	x22, x21, [sp, #272]
    46000214:	a9124ff4 	stp	x20, x19, [sp, #288]
    46000218:	910383fd 	add	x29, sp, #0xe0
    4600021c:	928006e8 	mov	x8, #0xffffffffffffffc8    	// #-56
    46000220:	910003e9 	mov	x9, sp
    46000224:	d10163aa 	sub	x10, x29, #0x58
    46000228:	f2dff008 	movk	x8, #0xff80, lsl #32
    4600022c:	91020129 	add	x9, x9, #0x80
    46000230:	529999b4 	mov	w20, #0xcccd                	// #52429
    46000234:	aa0003f3 	mov	x19, x0
    46000238:	a93f23a9 	stp	x9, x8, [x29, #-16]
    4600023c:	9100e148 	add	x8, x10, #0x38
    46000240:	910143a9 	add	x9, x29, #0x50
    46000244:	72b99994 	movk	w20, #0xcccc, lsl #16
    46000248:	d503201f 	nop
    4600024c:	70001075 	adr	x21, 4600045b <printf+0x25b>
    46000250:	a93a8ba1 	stp	x1, x2, [x29, #-88]
    46000254:	a93b93a3 	stp	x3, x4, [x29, #-72]
    46000258:	a93c9ba5 	stp	x5, x6, [x29, #-56]
    4600025c:	f81d83a7 	stur	x7, [x29, #-40]
    46000260:	ad0007e0 	stp	q0, q1, [sp]
    46000264:	ad010fe2 	stp	q2, q3, [sp, #32]
    46000268:	ad0217e4 	stp	q4, q5, [sp, #64]
    4600026c:	ad031fe6 	stp	q6, q7, [sp, #96]
    46000270:	a93e23a9 	stp	x9, x8, [x29, #-32]
    46000274:	14000003 	b	46000280 <printf+0x80>
    46000278:	34000d40 	cbz	w0, 46000420 <printf+0x220>
    4600027c:	91000673 	add	x19, x19, #0x1
    46000280:	39400260 	ldrb	w0, [x19]
    46000284:	7100941f 	cmp	w0, #0x25
    46000288:	540000a0 	b.eq	4600029c <printf+0x9c>  // b.none
    4600028c:	34000ce0 	cbz	w0, 46000428 <printf+0x228>
    46000290:	97ffff6b 	bl	4600003c <putchar>
    46000294:	91000673 	add	x19, x19, #0x1
    46000298:	17fffffa 	b	46000280 <printf+0x80>
    4600029c:	38401e60 	ldrb	w0, [x19, #1]!
    460002a0:	7101c81f 	cmp	w0, #0x72
    460002a4:	5400020c 	b.gt	460002e4 <printf+0xe4>
    460002a8:	7100941f 	cmp	w0, #0x25
    460002ac:	54ffff20 	b.eq	46000290 <printf+0x90>  // b.none
    460002b0:	7101901f 	cmp	w0, #0x64
    460002b4:	54fffe21 	b.ne	46000278 <printf+0x78>  // b.any
    460002b8:	b89f83a8 	ldursw	x8, [x29, #-8]
    460002bc:	36f80408 	tbz	w8, #31, 4600033c <printf+0x13c>
    460002c0:	11002109 	add	w9, w8, #0x8
    460002c4:	3100211f 	cmn	w8, #0x8
    460002c8:	b81f83a9 	stur	w9, [x29, #-8]
    460002cc:	54000388 	b.hi	4600033c <printf+0x13c>  // b.pmore
    460002d0:	f85e83a9 	ldur	x9, [x29, #-24]
    460002d4:	8b080128 	add	x8, x9, x8
    460002d8:	b9400116 	ldr	w22, [x8]
    460002dc:	36f80416 	tbz	w22, #31, 4600035c <printf+0x15c>
    460002e0:	1400001c 	b	46000350 <printf+0x150>
    460002e4:	7101cc1f 	cmp	w0, #0x73
    460002e8:	54000180 	b.eq	46000318 <printf+0x118>  // b.none
    460002ec:	7101e01f 	cmp	w0, #0x78
    460002f0:	54fffc61 	b.ne	4600027c <printf+0x7c>  // b.any
    460002f4:	b89f83a8 	ldursw	x8, [x29, #-8]
    460002f8:	36f806c8 	tbz	w8, #31, 460003d0 <printf+0x1d0>
    460002fc:	11002109 	add	w9, w8, #0x8
    46000300:	3100211f 	cmn	w8, #0x8
    46000304:	b81f83a9 	stur	w9, [x29, #-8]
    46000308:	54000648 	b.hi	460003d0 <printf+0x1d0>  // b.pmore
    4600030c:	f85e83a9 	ldur	x9, [x29, #-24]
    46000310:	8b080129 	add	x9, x9, x8
    46000314:	14000032 	b	460003dc <printf+0x1dc>
    46000318:	b89f83a8 	ldursw	x8, [x29, #-8]
    4600031c:	36f80448 	tbz	w8, #31, 460003a4 <printf+0x1a4>
    46000320:	11002109 	add	w9, w8, #0x8
    46000324:	3100211f 	cmn	w8, #0x8
    46000328:	b81f83a9 	stur	w9, [x29, #-8]
    4600032c:	540003c8 	b.hi	460003a4 <printf+0x1a4>  // b.pmore
    46000330:	f85e83a9 	ldur	x9, [x29, #-24]
    46000334:	8b080128 	add	x8, x9, x8
    46000338:	1400001e 	b	460003b0 <printf+0x1b0>
    4600033c:	f85e03a8 	ldur	x8, [x29, #-32]
    46000340:	91002109 	add	x9, x8, #0x8
    46000344:	f81e03a9 	stur	x9, [x29, #-32]
    46000348:	b9400116 	ldr	w22, [x8]
    4600034c:	36f80096 	tbz	w22, #31, 4600035c <printf+0x15c>
    46000350:	528005a0 	mov	w0, #0x2d                  	// #45
    46000354:	97ffff3a 	bl	4600003c <putchar>
    46000358:	4b1603f6 	neg	w22, w22
    4600035c:	52800037 	mov	w23, #0x1                   	// #1
    46000360:	71002adf 	cmp	w22, #0xa
    46000364:	540000c3 	b.cc	4600037c <printf+0x17c>  // b.lo, b.ul, b.last
    46000368:	0b170ae8 	add	w8, w23, w23, lsl #2
    4600036c:	531f7917 	lsl	w23, w8, #1
    46000370:	1ad70ac8 	udiv	w8, w22, w23
    46000374:	7100251f 	cmp	w8, #0x9
    46000378:	54ffff88 	b.hi	46000368 <printf+0x168>  // b.pmore
    4600037c:	1ad70ad8 	udiv	w24, w22, w23
    46000380:	1100c300 	add	w0, w24, #0x30
    46000384:	97ffff2e 	bl	4600003c <putchar>
    46000388:	9bb47ee8 	umull	x8, w23, w20
    4600038c:	71002aff 	cmp	w23, #0xa
    46000390:	1b17db16 	msub	w22, w24, w23, w22
    46000394:	d363fd08 	lsr	x8, x8, #35
    46000398:	2a0803f7 	mov	w23, w8
    4600039c:	54ffff02 	b.cs	4600037c <printf+0x17c>  // b.hs, b.nlast
    460003a0:	17ffffb7 	b	4600027c <printf+0x7c>
    460003a4:	f85e03a8 	ldur	x8, [x29, #-32]
    460003a8:	91002109 	add	x9, x8, #0x8
    460003ac:	f81e03a9 	stur	x9, [x29, #-32]
    460003b0:	f9400108 	ldr	x8, [x8]
    460003b4:	39400100 	ldrb	w0, [x8]
    460003b8:	34fff620 	cbz	w0, 4600027c <printf+0x7c>
    460003bc:	91000516 	add	x22, x8, #0x1
    460003c0:	97ffff1f 	bl	4600003c <putchar>
    460003c4:	384016c0 	ldrb	w0, [x22], #1
    460003c8:	35ffffc0 	cbnz	w0, 460003c0 <printf+0x1c0>
    460003cc:	17ffffac 	b	4600027c <printf+0x7c>
    460003d0:	f85e03a9 	ldur	x9, [x29, #-32]
    460003d4:	91002128 	add	x8, x9, #0x8
    460003d8:	f81e03a8 	stur	x8, [x29, #-32]
    460003dc:	f9400136 	ldr	x22, [x9]
    460003e0:	2a1f03e8 	mov	w8, wzr
    460003e4:	52800797 	mov	w23, #0x3c                  	// #60
    460003e8:	14000008 	b	46000408 <printf+0x208>
    460003ec:	92400d28 	and	x8, x9, #0xf
    460003f0:	38686aa0 	ldrb	w0, [x21, x8]
    460003f4:	97ffff12 	bl	4600003c <putchar>
    460003f8:	52800028 	mov	w8, #0x1                   	// #1
    460003fc:	d10012f7 	sub	x23, x23, #0x4
    46000400:	b10012ff 	cmn	x23, #0x4
    46000404:	54fff3c0 	b.eq	4600027c <printf+0x7c>  // b.none
    46000408:	9ad726c9 	lsr	x9, x22, x23
    4600040c:	b4ffff17 	cbz	x23, 460003ec <printf+0x1ec>
    46000410:	12000d2a 	and	w10, w9, #0xf
    46000414:	2a080148 	orr	w8, w10, w8
    46000418:	34ffff28 	cbz	w8, 460003fc <printf+0x1fc>
    4600041c:	17fffff4 	b	460003ec <printf+0x1ec>
    46000420:	528004a0 	mov	w0, #0x25                  	// #37
    46000424:	97ffff06 	bl	4600003c <putchar>
    46000428:	a9524ff4 	ldp	x20, x19, [sp, #288]
    4600042c:	f9407bfc 	ldr	x28, [sp, #240]
    46000430:	a95157f6 	ldp	x22, x21, [sp, #272]
    46000434:	a9505ff8 	ldp	x24, x23, [sp, #256]
    46000438:	a94e7bfd 	ldp	x29, x30, [sp, #224]
    4600043c:	9104c3ff 	add	sp, sp, #0x130
    46000440:	d65f03c0 	ret
